 spellchecker

 Timestamp is 58a72dd4 (Fri Feb 17 17:07:32 2017)

 Preferred load address is 10000000

 Start         Length     Name                   Class
 0001:00000000 000365f7H .text$mn                CODE
 0002:00000000 000001ecH .idata$5                DATA
 0002:000001ec 00000004H .00cfg                  DATA
 0002:000001f0 00000004H .CRT$XCA                DATA
 0002:000001f4 00000004H .CRT$XCU                DATA
 0002:000001f8 00000004H .CRT$XCZ                DATA
 0002:000001fc 00000004H .CRT$XIA                DATA
 0002:00000200 00000010H .CRT$XIC                DATA
 0002:00000210 00000004H .CRT$XIZ                DATA
 0002:00000214 00000004H .CRT$XPA                DATA
 0002:00000218 00000008H .CRT$XPX                DATA
 0002:00000220 00000004H .CRT$XPXA               DATA
 0002:00000224 00000004H .CRT$XPZ                DATA
 0002:00000228 00000004H .CRT$XTA                DATA
 0002:0000022c 00000004H .CRT$XTZ                DATA
 0002:00000230 00006664H .rdata                  DATA
 0002:00006894 0000021cH .rdata$r                DATA
 0002:00006ab0 0000000cH .rdata$sxdata           DATA
 0002:00006abc 0000033cH .rdata$zzzdbg           DATA
 0002:00006df8 00000004H .rtc$IAA                DATA
 0002:00006dfc 00000004H .rtc$IZZ                DATA
 0002:00006e00 00000004H .rtc$TAA                DATA
 0002:00006e04 00000004H .rtc$TZZ                DATA
 0002:00006e08 00000658H .xdata$x                DATA
 0002:00007460 0000005cH .edata                  DATA
 0002:000074bc 0000003cH .idata$2                DATA
 0002:000074f8 00000014H .idata$3                DATA
 0002:0000750c 000001ecH .idata$4                DATA
 0002:000076f8 0000109aH .idata$6                DATA
 0003:00000000 00020d70H .data                   DATA
 0003:00020d70 000000d8H .data$r                 DATA
 0003:00020e48 00000a54H .bss                    DATA
 0004:00000000 00000094H .gfids$x                DATA
 0004:00000094 00000070H .gfids$y                DATA
 0005:00000000 00000060H .rsrc$01                DATA
 0005:00000060 00000180H .rsrc$02                DATA

  Address         Publics by Value              Rva+Base       Lib:Object

 0000:00000000       __except_list              00000000     <absolute>
 0000:00000000       ___guard_longjmp_count     00000000     <absolute>
 0000:00000000       ___guard_fids_count        00000000     <absolute>
 0000:00000000       ___guard_longjmp_table     00000000     <absolute>
 0000:00000000       ___guard_iat_table         00000000     <absolute>
 0000:00000000       ___guard_iat_count         00000000     <absolute>
 0000:00000000       ___guard_fids_table        00000000     <absolute>
 0000:00000000       ___dynamic_value_reloc_table 00000000     <absolute>
 0000:00000003       ___safe_se_handler_count   00000003     <absolute>
 0000:00000100       ___guard_flags             00000100     <absolute>
 0000:00000000       ___ImageBase               10000000     <linker-defined>
 0001:000000c0       ?New@?$Factory@VFunctionTemplate@v8@@@imp@Nan@@SA?AV?$Local@VFunctionTemplate@v8@@@v8@@P6AXABV?$FunctionCallbackInfo@VValue@v8@@@3@@ZV?$Local@VValue@v8@@@5@V?$Local@VSignature@v8@@@5@@Z 100010c0 f i main.obj
 0001:00000220       ?ThrowError@Nan@@YAXPBD@Z  10001220 f i main.obj
 0001:000002a0       ?Wrap@ObjectWrap@Nan@@IAEXV?$Local@VObject@v8@@@v8@@@Z 100012a0 f i main.obj
 0001:00000350       ?Ref@ObjectWrap@Nan@@MAEXXZ 10001350 f i main.obj
 0001:00000380       ?Unref@ObjectWrap@Nan@@MAEXXZ 10001380 f i main.obj
 0001:00000410       ?WeakCallback@ObjectWrap@Nan@@CAXABV?$WeakCallbackInfo@VObjectWrap@Nan@@@v8@@@Z 10001410 f i main.obj
 0001:00000480       ??_GObjectWrap@Nan@@UAEPAXI@Z 10001480 f i main.obj
 0001:00000480       ??_EObjectWrap@Nan@@UAEPAXI@Z 10001480 f i * CIL library *:* CIL module *
 0001:00001390       ??_GSpellchecker@?A0x29701496@@EAEPAXI@Z 10002390 f i main.obj
 0001:00001390       ??_ESpellchecker@?A0x29701496@@EAEPAXI@Z 10002390 f i * CIL library *:* CIL module *
 0001:000013d0       ??0?$vector@GV?$allocator@G@std@@@std@@QAE@I@Z 100023d0 f i main.obj
 0001:00001430       ??1?$vector@V?$basic_string@DU?$char_traits@D@std@@V?$allocator@D@2@@std@@V?$allocator@V?$basic_string@DU?$char_traits@D@std@@V?$allocator@D@2@@std@@@2@@std@@QAE@XZ 10002430 f i main.obj
 0001:00001480       ??1?$basic_string@DU?$char_traits@D@std@@V?$allocator@D@2@@std@@QAE@XZ 10002480 f i main.obj
 0001:000014f0       ?_Tidy@?$vector@GV?$allocator@G@std@@@std@@IAEXXZ 100024f0 f i main.obj
 0001:00001570       ?_Tidy@?$vector@UMisspelledRange@spellchecker@@V?$allocator@UMisspelledRange@spellchecker@@@std@@@std@@IAEXXZ 10002570 f i main.obj
 0001:000015f0       ?_Tidy@?$basic_string@DU?$char_traits@D@std@@V?$allocator@D@2@@std@@QAEX_NI@Z 100025f0 f i main.obj
 0001:00001680       ?assign@?$basic_string@DU?$char_traits@D@std@@V?$allocator@D@2@@std@@QAEAAV12@PBDI@Z 10002680 f i main.obj
 0001:00001780       ?assign@?$basic_string@DU?$char_traits@D@std@@V?$allocator@D@2@@std@@QAEAAV12@ABV12@II@Z 10002780 f i main.obj
 0001:00001890       ?deallocate@?$_Wrap_alloc@V?$allocator@V?$basic_string@DU?$char_traits@D@std@@V?$allocator@D@2@@std@@@std@@@std@@QAEXPAV?$basic_string@DU?$char_traits@D@std@@V?$allocator@D@2@@2@I@Z 10002890 f i main.obj
 0001:000018f0       ?allocate@?$_Wrap_alloc@V?$allocator@G@std@@@std@@QAEPAGI@Z 100028f0 f i main.obj
 0001:000018f0       ?allocate@?$_Wrap_alloc@V?$allocator@_W@std@@@std@@QAEPA_WI@Z 100028f0 f i spellchecker_win.obj
 0001:00001950       ?erase@?$basic_string@DU?$char_traits@D@std@@V?$allocator@D@2@@std@@QAEAAV12@II@Z 10002950 f i main.obj
 0001:000019d0       ?_Copy@?$basic_string@DU?$char_traits@D@std@@V?$allocator@D@2@@std@@QAEXII@Z 100029d0 f i main.obj
 0001:00001b00       ?allocate@?$_Wrap_alloc@V?$allocator@D@std@@@std@@QAEPADI@Z 10002b00 f i main.obj
 0001:00001b50       ??$Unwrap@VSpellchecker@?A0x29701496@@@ObjectWrap@Nan@@SAPAVSpellchecker@?A0x29701496@@V?$Local@VObject@v8@@@v8@@@Z 10002b50 f i main.obj
 0001:00001bc0       ??$SetMethod@VObjectTemplate@v8@@VLocal@2@@Nan@@YAXV?$Local@VObjectTemplate@v8@@@v8@@PBDP6AXABV?$FunctionCallbackInfo@VValue@v8@@@0@@Z@Z 10002bc0 f i main.obj
 0001:00001c50       ??$_Destroy_range1@V?$allocator@V?$basic_string@DU?$char_traits@D@std@@V?$allocator@D@2@@std@@@std@@PAV?$basic_string@DU?$char_traits@D@std@@V?$allocator@D@2@@2@@std@@YAXPAV?$basic_string@DU?$char_traits@D@std@@V?$allocator@D@2@@0@0AAU?$_Wrap_alloc@V?$allocator@V?$basic_string@DU?$char_traits@D@std@@V?$allocator@D@2@@std@@@std@@@0@U?$integral_constant@_N$0A@@0@@Z 10002c50 f i main.obj
 0001:00001cd0       ??_GSpellcheckerImplementation@spellchecker@@UAEPAXI@Z 10002cd0 f i spellchecker_hunspell.obj
 0001:00001cd0       ??_ESpellcheckerImplementation@spellchecker@@UAEPAXI@Z 10002cd0 f i * CIL library *:* CIL module *
 0001:00001d00       ??_EHunspellSpellchecker@spellchecker@@UAEPAXI@Z 10002d00 f i * CIL library *:* CIL module *
 0001:00001d00       ??_GHunspellSpellchecker@spellchecker@@UAEPAXI@Z 10002d00 f i spellchecker_hunspell.obj
 0001:00001d60       ?SetDictionary@HunspellSpellchecker@spellchecker@@UAE_NABV?$basic_string@DU?$char_traits@D@std@@V?$allocator@D@2@@std@@0@Z 10002d60 f   spellchecker_hunspell.obj
 0001:00001fc0       ?GetAvailableDictionaries@HunspellSpellchecker@spellchecker@@UAE?AV?$vector@V?$basic_string@DU?$char_traits@D@std@@V?$allocator@D@2@@std@@V?$allocator@V?$basic_string@DU?$char_traits@D@std@@V?$allocator@D@2@@std@@@2@@std@@ABV?$basic_string@DU?$char_traits@D@std@@V?$allocator@D@2@@4@@Z 10002fc0 f   spellchecker_hunspell.obj
 0001:00001fe0       ?IsMisspelled@HunspellSpellchecker@spellchecker@@UAE_NABV?$basic_string@DU?$char_traits@D@std@@V?$allocator@D@2@@std@@@Z 10002fe0 f   spellchecker_hunspell.obj
 0001:00002010       ?CheckSpelling@HunspellSpellchecker@spellchecker@@UAE?AV?$vector@UMisspelledRange@spellchecker@@V?$allocator@UMisspelledRange@spellchecker@@@std@@@std@@PBGI@Z 10003010 f   spellchecker_hunspell.obj
 0001:00002290       ?Add@HunspellSpellchecker@spellchecker@@UAEXABV?$basic_string@DU?$char_traits@D@std@@V?$allocator@D@2@@std@@@Z 10003290 f   spellchecker_hunspell.obj
 0001:000022c0       ?GetCorrectionsForMisspelling@HunspellSpellchecker@spellchecker@@UAE?AV?$vector@V?$basic_string@DU?$char_traits@D@std@@V?$allocator@D@2@@std@@V?$allocator@V?$basic_string@DU?$char_traits@D@std@@V?$allocator@D@2@@std@@@2@@std@@ABV?$basic_string@DU?$char_traits@D@std@@V?$allocator@D@2@@4@@Z 100032c0 f   spellchecker_hunspell.obj
 0001:000024c0       ?push_back@?$vector@UMisspelledRange@spellchecker@@V?$allocator@UMisspelledRange@spellchecker@@@std@@@std@@QAEXABUMisspelledRange@spellchecker@@@Z 100034c0 f i spellchecker_hunspell.obj
 0001:00002530       ?push_back@?$vector@V?$basic_string@DU?$char_traits@D@std@@V?$allocator@D@2@@std@@V?$allocator@V?$basic_string@DU?$char_traits@D@std@@V?$allocator@D@2@@std@@@2@@std@@QAEX$$QAV?$basic_string@DU?$char_traits@D@std@@V?$allocator@D@2@@2@@Z 10003530 f i spellchecker_hunspell.obj
 0001:000025b0       ??0?$basic_string@DU?$char_traits@D@std@@V?$allocator@D@2@@std@@QAE@$$QAV01@@Z 100035b0 f i spellchecker_hunspell.obj
 0001:00002630       ?_Reserve@?$vector@UMisspelledRange@spellchecker@@V?$allocator@UMisspelledRange@spellchecker@@@std@@@std@@IAEXI@Z 10003630 f i spellchecker_hunspell.obj
 0001:00002690       ?_Reserve@?$vector@V?$basic_string@DU?$char_traits@D@std@@V?$allocator@D@2@@std@@V?$allocator@V?$basic_string@DU?$char_traits@D@std@@V?$allocator@D@2@@std@@@2@@std@@IAEXI@Z 10003690 f i spellchecker_hunspell.obj
 0001:00002720       ?_Reallocate@?$vector@V?$basic_string@DU?$char_traits@D@std@@V?$allocator@D@2@@std@@V?$allocator@V?$basic_string@DU?$char_traits@D@std@@V?$allocator@D@2@@std@@@2@@std@@IAEXI@Z 10003720 f i spellchecker_hunspell.obj
 0001:00002830       ?append@?$basic_string@DU?$char_traits@D@std@@V?$allocator@D@2@@std@@QAEAAV12@PBDI@Z 10003830 f i spellchecker_hunspell.obj
 0001:00002960       ?append@?$basic_string@DU?$char_traits@D@std@@V?$allocator@D@2@@std@@QAEAAV12@ABV12@II@Z 10003960 f i spellchecker_hunspell.obj
 0001:00002a60       ?_Reallocate@?$vector@UMisspelledRange@spellchecker@@V?$allocator@UMisspelledRange@spellchecker@@@std@@@std@@IAEXI@Z 10003a60 f i spellchecker_hunspell.obj
 0001:00002b50       ?reserve@?$basic_string@DU?$char_traits@D@std@@V?$allocator@D@2@@std@@QAEXI@Z 10003b50 f i spellchecker_hunspell.obj
 0001:00002bd0       ?ToUTF8@spellchecker@@YA?AV?$basic_string@DU?$char_traits@D@std@@V?$allocator@D@2@@std@@ABV?$basic_string@_WU?$char_traits@_W@std@@V?$allocator@_W@2@@3@@Z 10003bd0 f   spellchecker_win.obj
 0001:00002cb0       ?ToWString@spellchecker@@YA?AV?$basic_string@_WU?$char_traits@_W@std@@V?$allocator@_W@2@@std@@ABV?$basic_string@DU?$char_traits@D@std@@V?$allocator@D@2@@3@@Z 10003cb0 f   spellchecker_win.obj
 0001:00002dd0       ??0WindowsSpellchecker@spellchecker@@QAE@XZ 10003dd0 f   spellchecker_win.obj
 0001:00002e40       ??_GWindowsSpellchecker@spellchecker@@UAEPAXI@Z 10003e40 f i spellchecker_win.obj
 0001:00002e40       ??_EWindowsSpellchecker@spellchecker@@UAEPAXI@Z 10003e40 f i * CIL library *:* CIL module *
 0001:00002eb0       ?SetDictionary@WindowsSpellchecker@spellchecker@@UAE_NABV?$basic_string@DU?$char_traits@D@std@@V?$allocator@D@2@@std@@0@Z 10003eb0 f   spellchecker_win.obj
 0001:00003010       ?GetAvailableDictionaries@WindowsSpellchecker@spellchecker@@UAE?AV?$vector@V?$basic_string@DU?$char_traits@D@std@@V?$allocator@D@2@@std@@V?$allocator@V?$basic_string@DU?$char_traits@D@std@@V?$allocator@D@2@@std@@@2@@std@@ABV?$basic_string@DU?$char_traits@D@std@@V?$allocator@D@2@@4@@Z 10004010 f   spellchecker_win.obj
 0001:00003270       ?IsMisspelled@WindowsSpellchecker@spellchecker@@UAE_NABV?$basic_string@DU?$char_traits@D@std@@V?$allocator@D@2@@std@@@Z 10004270 f   spellchecker_win.obj
 0001:00003340       ?CheckSpelling@WindowsSpellchecker@spellchecker@@UAE?AV?$vector@UMisspelledRange@spellchecker@@V?$allocator@UMisspelledRange@spellchecker@@@std@@@std@@PBGI@Z 10004340 f   spellchecker_win.obj
 0001:000035a0       ?Add@WindowsSpellchecker@spellchecker@@UAEXABV?$basic_string@DU?$char_traits@D@std@@V?$allocator@D@2@@std@@@Z 100045a0 f   spellchecker_win.obj
 0001:00003610       ?GetCorrectionsForMisspelling@WindowsSpellchecker@spellchecker@@UAE?AV?$vector@V?$basic_string@DU?$char_traits@D@std@@V?$allocator@D@2@@std@@V?$allocator@V?$basic_string@DU?$char_traits@D@std@@V?$allocator@D@2@@std@@@2@@std@@ABV?$basic_string@DU?$char_traits@D@std@@V?$allocator@D@2@@4@@Z 10004610 f   spellchecker_win.obj
 0001:00003850       ?CreateSpellchecker@SpellcheckerFactory@spellchecker@@SAPAVSpellcheckerImplementation@2@XZ 10004850 f   spellchecker_win.obj
 0001:000038c0       ??1?$basic_string@_WU?$char_traits@_W@std@@V?$allocator@_W@2@@std@@QAE@XZ 100048c0 f i spellchecker_win.obj
 0001:00003900       ??0?$basic_string@_WU?$char_traits@_W@std@@V?$allocator@_W@2@@std@@QAE@$$QAV01@@Z 10004900 f i spellchecker_win.obj
 0001:00003970       ?assign@?$basic_string@_WU?$char_traits@_W@std@@V?$allocator@_W@2@@std@@QAEAAV12@PB_WI@Z 10004970 f i spellchecker_win.obj
 0001:00003a70       ?deallocate@?$_Wrap_alloc@V?$allocator@_W@std@@@std@@QAEXPA_WI@Z 10004a70 f i spellchecker_win.obj
 0001:00003ad0       ?assign@?$basic_string@_WU?$char_traits@_W@std@@V?$allocator@_W@2@@std@@QAEAAV12@ABV12@II@Z 10004ad0 f i spellchecker_win.obj
 0001:00003bf0       ?_Copy@?$basic_string@_WU?$char_traits@_W@std@@V?$allocator@_W@2@@std@@QAEXII@Z 10004bf0 f i spellchecker_win.obj
 0001:00003cc0       ?erase@?$basic_string@_WU?$char_traits@_W@std@@V?$allocator@_W@2@@std@@QAEAAV12@II@Z 10004cc0 f i spellchecker_win.obj
 0001:00003d50       ___local_stdio_printf_options 10004d50 f i hunspell:hunspell.obj
 0001:00003d60       _sprintf                   10004d60 f i hunspell:hunspell.obj
 0001:00003da0       ??0Hunspell@@QAE@PBD00@Z   10004da0 f   hunspell:hunspell.obj
 0001:00003f00       ??1Hunspell@@QAE@XZ        10004f00 f   hunspell:hunspell.obj
 0001:00003fc0       ?cleanword2@Hunspell@@AAEHPADPBDPAUw_char@@PAH33@Z 10004fc0 f   hunspell:hunspell.obj
 0001:000040d0       ?cleanword@Hunspell@@AAEHPADPBDPAH2@Z 100050d0 f   hunspell:hunspell.obj
 0001:000043c0       ?mkallcap@Hunspell@@AAEXPAD@Z 100053c0 f   hunspell:hunspell.obj
 0001:00004510       ?mkallsmall2@Hunspell@@AAEHPADPAUw_char@@H@Z 10005510 f   hunspell:hunspell.obj
 0001:00004610       ?spellsharps@Hunspell@@AAEPAUhentry@@PAD0HH0PAHPAPAD@Z 10005610 f   hunspell:hunspell.obj
 0001:00004700       ?is_keepcase@Hunspell@@AAEHPBUhentry@@@Z 10005700 f   hunspell:hunspell.obj
 0001:00004740       ?insert_sug@Hunspell@@AAEHPAPAPADPADH@Z 10005740 f   hunspell:hunspell.obj
 0001:000047d0       ?spell@Hunspell@@QAEHPBDPAHPAPAD@Z 100057d0 f   hunspell:hunspell.obj
 0001:00005140       ?checkword@Hunspell@@AAEPAUhentry@@PBDPAHPAPAD@Z 10006140 f   hunspell:hunspell.obj
 0001:00005650       ?suggest@Hunspell@@QAEHPAPAPADPBD@Z 10006650 f   hunspell:hunspell.obj
 0001:000066d0       ?stem@Hunspell@@QAEHPAPAPADPAPADH@Z 100076d0 f   hunspell:hunspell.obj
 0001:00006ae0       ?stem@Hunspell@@QAEHPAPAPADPBD@Z 10007ae0 f   hunspell:hunspell.obj
 0001:00006b20       ?mkinitcap@Hunspell@@AAEXPAD@Z 10007b20 f   hunspell:hunspell.obj
 0001:00006c00       ?mkinitcap2@Hunspell@@AAEHPADPAUw_char@@H@Z 10007c00 f   hunspell:hunspell.obj
 0001:00006cb0       ?mkinitsmall2@Hunspell@@AAEHPADPAUw_char@@H@Z 10007cb0 f   hunspell:hunspell.obj
 0001:00006d60       ?cat_result@Hunspell@@AAEXPAD0@Z 10007d60 f   hunspell:hunspell.obj
 0001:00006da0       ?analyze@Hunspell@@QAEHPAPAPADPBD@Z 10007da0 f   hunspell:hunspell.obj
 0001:00007520       ?generate@Hunspell@@QAEHPAPAPADPBDPAPADH@Z 10008520 f   hunspell:hunspell.obj
 0001:00007720       ?generate@Hunspell@@QAEHPAPAPADPBD1@Z 10008720 f   hunspell:hunspell.obj
 0001:00007770       ?get_xml_par@Hunspell@@AAEHPADPBDH@Z 10008770 f   hunspell:hunspell.obj
 0001:00007880       ?get_xml_pos@Hunspell@@AAEPBDPBD0@Z 10008880 f   hunspell:hunspell.obj
 0001:000078d0       ?check_xml_par@Hunspell@@AAEHPBD00@Z 100088d0 f   hunspell:hunspell.obj
 0001:00007970       ?get_xml_list@Hunspell@@AAEHPAPAPADPADPBD@Z 10008970 f   hunspell:hunspell.obj
 0001:00007a60       ?spellml@Hunspell@@AAEHPAPAPADPBD@Z 10008a60 f   hunspell:hunspell.obj
 0001:00007db0       ___except_validate_context_record 10008db0 f   libvcruntime:jbcxrval.obj
 0001:00007db0       ___except_validate_jump_buffer 10008db0 f   libvcruntime:jbcxrval.obj
 0001:00007db0       @_guard_check_icall_nop@4  10008db0 f   LIBCMT:guard_support.obj
 0001:00007dc0       ?u16_u8@@YAPADPADHPBUw_char@@H@Z 10008dc0 f   hunspell:csutil.obj
 0001:00007e60       ?u8_u16@@YAHPAUw_char@@HPBD@Z 10008e60 f   hunspell:csutil.obj
 0001:000080a0       ?flag_qsort@@YAXQAGHH@Z    100090a0 f   hunspell:csutil.obj
 0001:00008110       ?flag_bsearch@@YAHQAGGH@Z  10009110 f   hunspell:csutil.obj
 0001:00008160       ?mystrsep@@YAPADPAPADD@Z   10009160 f   hunspell:csutil.obj
 0001:000081d0       ?mystrdup@@YAPADPBD@Z      100091d0 f   hunspell:csutil.obj
 0001:00008230       ?mystrcat@@YAPADPADPBDH@Z  10009230 f   hunspell:csutil.obj
 0001:00008290       ?mychomp@@YAXPAD@Z         10009290 f   hunspell:csutil.obj
 0001:000082d0       ?myrevstrdup@@YAPADPBD@Z   100092d0 f   hunspell:csutil.obj
 0001:00008330       ?line_tok@@YAHPBDPAPAPADD@Z 10009330 f   hunspell:csutil.obj
 0001:000084c0       ?line_uniq@@YAPADPADD@Z    100094c0 f   hunspell:csutil.obj
 0001:00008600       ?line_uniq_app@@YAPADPAPADD@Z 10009600 f   hunspell:csutil.obj
 0001:00008800       ?strlinecat@@YAXPADPBD@Z   10009800 f   hunspell:csutil.obj
 0001:000088b0       ?morphcmp@@YAHPBD0@Z       100098b0 f   hunspell:csutil.obj
 0001:00008bb0       ?get_sfxcount@@YAHPBD@Z    10009bb0 f   hunspell:csutil.obj
 0001:00008c40       ?mystrrep@@YAPADPADPBD1@Z  10009c40 f   hunspell:csutil.obj
 0001:00008d70       ?reverseword@@YAHPAD@Z     10009d70 f   hunspell:csutil.obj
 0001:00008da0       ?reverseword_utf@@YAHPAD@Z 10009da0 f   hunspell:csutil.obj
 0001:00008e50       ?uniqlist@@YAHPAPADH@Z     10009e50 f   hunspell:csutil.obj
 0001:00008f00       ?freelist@@YAXPAPAPADH@Z   10009f00 f   hunspell:csutil.obj
 0001:00008f50       ?mkallsmall_utf@@YAXPAUw_char@@HH@Z 10009f50 f   hunspell:csutil.obj
 0001:00009010       ?mkallcap_utf@@YAXPAUw_char@@HH@Z 1000a010 f   hunspell:csutil.obj
 0001:000090d0       ?get_current_cs@@YAPAUcs_info@@PBD@Z 1000a0d0 f   hunspell:csutil.obj
 0001:000091d0       ?get_lang_num@@YAHPBD@Z    1000a1d0 f   hunspell:csutil.obj
 0001:00009240       ?initialize_utf_tbl@@YAHXZ 1000a240 f   hunspell:csutil.obj
 0001:000092e0       ?get_captype@@YAHPADHPAUcs_info@@@Z 1000a2e0 f   hunspell:csutil.obj
 0001:000093c0       ?get_captype_utf8@@YAHPAUw_char@@HH@Z 1000a3c0 f   hunspell:csutil.obj
 0001:00009570       ?remove_ignored_chars_utf@@YAXPADQAGH@Z 1000a570 f   hunspell:csutil.obj
 0001:00009650       ?remove_ignored_chars@@YAXPAD0@Z 1000a650 f   hunspell:csutil.obj
 0001:00009690       ?parse_string@@YAHPADPAPADH@Z 1000a690 f   hunspell:csutil.obj
 0001:000097d0       ?parse_array@@YAHPADPAPADPAPAGPAHHH@Z 1000a7d0 f   hunspell:csutil.obj
 0001:00009870       ?HENTRY_DATA@@YAPADPAUhentry@@@Z 1000a870 f i hunspell:hashmgr.obj
 0001:00009890       ??0HashMgr@@QAE@PBD00@Z    1000a890 f   hunspell:hashmgr.obj
 0001:00009960       ??1HashMgr@@QAE@XZ         1000a960 f   hunspell:hashmgr.obj
 0001:00009b40       ?lookup@HashMgr@@QBEPAUhentry@@PBD@Z 1000ab40 f   hunspell:hashmgr.obj
 0001:00009bb0       ?add_word@HashMgr@@AAEHPBDHHPAGH0_N@Z 1000abb0 f   hunspell:hashmgr.obj
 0001:00009ed0       ?add_hidden_capitalized_word@HashMgr@@AAEHPADHHPAGH0H@Z 1000aed0 f   hunspell:hashmgr.obj
 0001:0000a080       ?get_clen_and_captype@HashMgr@@AAEHPBDHPAH@Z 1000b080 f   hunspell:hashmgr.obj
 0001:0000a110       ?remove_forbidden_flag@HashMgr@@AAEHPBD@Z 1000b110 f   hunspell:hashmgr.obj
 0001:0000a200       ?add@HashMgr@@QAEHPBD@Z    1000b200 f   hunspell:hashmgr.obj
 0001:0000a270       ?load_tables@HashMgr@@AAEHPBD0@Z 1000b270 f   hunspell:hashmgr.obj
 0001:0000a730       ??_GFileMgr@@QAEPAXI@Z     1000b730 f i hunspell:hashmgr.obj
 0001:0000a7a0       ?hash@HashMgr@@QBEHPBD@Z   1000b7a0 f   hunspell:hashmgr.obj
 0001:0000a800       ?decode_flags@HashMgr@@QAEHPAPAGPADPAVFileMgr@@@Z 1000b800 f   hunspell:hashmgr.obj
 0001:0000aa40       ?decode_flag@HashMgr@@QAEGPBD@Z 1000ba40 f   hunspell:hashmgr.obj
 0001:0000aae0       ?encode_flag@HashMgr@@QAEPADG@Z 1000bae0 f   hunspell:hashmgr.obj
 0001:0000ac20       ?load_config@HashMgr@@AAEHPBD0@Z 1000bc20 f   hunspell:hashmgr.obj
 0001:0000b070       ?parse_aliasf@HashMgr@@AAEHPADPAVFileMgr@@@Z 1000c070 f   hunspell:hashmgr.obj
 0001:0000b3d0       ?get_aliasf@HashMgr@@QAEHHPAPAGPAVFileMgr@@@Z 1000c3d0 f   hunspell:hashmgr.obj
 0001:0000b420       ?parse_aliasm@HashMgr@@AAEHPADPAVFileMgr@@@Z 1000c420 f   hunspell:hashmgr.obj
 0001:0000b740       ?get_aliasm@HashMgr@@QAEPADH@Z 1000c740 f   hunspell:hashmgr.obj
 0001:0000b770       ??1RepList@@QAE@XZ         1000c770 f   hunspell:replist.obj
 0001:0000b7c0       ?near@RepList@@QAEHPBD@Z   1000c7c0 f   hunspell:replist.obj
 0001:0000b830       ?add@RepList@@QAEHPAD0@Z   1000c830 f   hunspell:replist.obj
 0001:0000b920       ?conv@RepList@@QAEHPBDPAD@Z 1000c920 f   hunspell:replist.obj
 0001:0000ba50       ?HENTRY_DATA2@@YAPBDPBUhentry@@@Z 1000ca50 f i hunspell:suggestmgr.obj
 0001:0000ba70       ?HENTRY_FIND@@YAPADPAUhentry@@PBD@Z 1000ca70 f i hunspell:suggestmgr.obj
 0001:0000bab0       ??0SuggestMgr@@QAE@PBDHPAVAffixMgr@@@Z 1000cab0 f   hunspell:suggestmgr.obj
 0001:0000bcd0       ??1SuggestMgr@@QAE@XZ      1000ccd0 f   hunspell:suggestmgr.obj
 0001:0000bd50       ?testsug@SuggestMgr@@AAEHPAPADPBDHHHPAHPAJ@Z 1000cd50 f   hunspell:suggestmgr.obj
 0001:0000be60       ?suggest@SuggestMgr@@QAEHPAPAPADPBDHPAH@Z 1000ce60 f   hunspell:suggestmgr.obj
 0001:0000c310       ?capchars_utf@SuggestMgr@@AAEHPAPADPBUw_char@@HHH@Z 1000d310 f   hunspell:suggestmgr.obj
 0001:0000c3d0       ?capchars@SuggestMgr@@AAEHPAPADPBDHH@Z 1000d3d0 f   hunspell:suggestmgr.obj
 0001:0000c490       ?mapchars@SuggestMgr@@AAEHPAPADPBDHH@Z 1000d490 f   hunspell:suggestmgr.obj
 0001:0000c560       ?map_related@SuggestMgr@@AAEHPBDPADHHPAPADHHPBUmapentry@@HPAHPAJ@Z 1000d560 f   hunspell:suggestmgr.obj
 0001:0000c7e0       ?replchars@SuggestMgr@@AAEHPAPADPBDHH@Z 1000d7e0 f   hunspell:suggestmgr.obj
 0001:0000cb20       ?doubletwochars@SuggestMgr@@AAEHPAPADPBDHH@Z 1000db20 f   hunspell:suggestmgr.obj
 0001:0000cc20       ?doubletwochars_utf@SuggestMgr@@AAEHPAPADPBUw_char@@HHH@Z 1000dc20 f   hunspell:suggestmgr.obj
 0001:0000cda0       ?badcharkey@SuggestMgr@@AAEHPAPADPBDHH@Z 1000dda0 f   hunspell:suggestmgr.obj
 0001:0000cf50       ?badcharkey_utf@SuggestMgr@@AAEHPAPADPBUw_char@@HHH@Z 1000df50 f   hunspell:suggestmgr.obj
 0001:0000d1e0       ?badchar@SuggestMgr@@AAEHPAPADPBDHH@Z 1000e1e0 f   hunspell:suggestmgr.obj
 0001:0000d3f0       ?badchar_utf@SuggestMgr@@AAEHPAPADPBUw_char@@HHH@Z 1000e3f0 f   hunspell:suggestmgr.obj
 0001:0000d550       ?extrachar_utf@SuggestMgr@@AAEHPAPADPBUw_char@@HHH@Z 1000e550 f   hunspell:suggestmgr.obj
 0001:0000d690       ?extrachar@SuggestMgr@@AAEHPAPADPBDHH@Z 1000e690 f   hunspell:suggestmgr.obj
 0001:0000d840       ?forgotchar@SuggestMgr@@AAEHPAPADPBDHH@Z 1000e840 f   hunspell:suggestmgr.obj
 0001:0000da50       ?forgotchar_utf@SuggestMgr@@AAEHPAPADPBUw_char@@HHH@Z 1000ea50 f   hunspell:suggestmgr.obj
 0001:0000dbb0       ?twowords@SuggestMgr@@AAEHPAPADPBDHH@Z 1000ebb0 f   hunspell:suggestmgr.obj
 0001:0000df80       ?swapchar@SuggestMgr@@AAEHPAPADPBDHH@Z 1000ef80 f   hunspell:suggestmgr.obj
 0001:0000e0f0       ?swapchar_utf@SuggestMgr@@AAEHPAPADPBUw_char@@HHH@Z 1000f0f0 f   hunspell:suggestmgr.obj
 0001:0000e330       ?longswapchar@SuggestMgr@@AAEHPAPADPBDHH@Z 1000f330 f   hunspell:suggestmgr.obj
 0001:0000e540       ?longswapchar_utf@SuggestMgr@@AAEHPAPADPBUw_char@@HHH@Z 1000f540 f   hunspell:suggestmgr.obj
 0001:0000e6a0       ?movechar@SuggestMgr@@AAEHPAPADPBDHH@Z 1000f6a0 f   hunspell:suggestmgr.obj
 0001:0000e850       ?movechar_utf@SuggestMgr@@AAEHPAPADPBUw_char@@HHH@Z 1000f850 f   hunspell:suggestmgr.obj
 0001:0000eab0       ?ngsuggest@SuggestMgr@@QAEHPAPADPADHPAPAVHashMgr@@H@Z 1000fab0 f   hunspell:suggestmgr.obj
 0001:0000fd30       ?checkword@SuggestMgr@@AAEHPBDHHPAHPAJ@Z 10010d30 f   hunspell:suggestmgr.obj
 0001:00010070       ?check_forbidden@SuggestMgr@@AAEHPBDH@Z 10011070 f   hunspell:suggestmgr.obj
 0001:00010140       ?suggest_morph@SuggestMgr@@QAEPADPBD@Z 10011140 f   hunspell:suggestmgr.obj
 0001:00010460       ?suggest_hentry_gen@SuggestMgr@@AAEPADPAUhentry@@PAD@Z 10011460 f   hunspell:suggestmgr.obj
 0001:000107c0       ?suggest_gen@SuggestMgr@@QAEPADPAPADHPAD@Z 100117c0 f   hunspell:suggestmgr.obj
 0001:00010df0       ?ngram@SuggestMgr@@AAEHHPADPBDH@Z 10011df0 f   hunspell:suggestmgr.obj
 0001:00011130       ?leftcommonsubstring@SuggestMgr@@AAEHPADPBD@Z 10012130 f   hunspell:suggestmgr.obj
 0001:00011330       ?commoncharacterpositions@SuggestMgr@@AAEHPADPBDPAH@Z 10012330 f   hunspell:suggestmgr.obj
 0001:00011530       ?bubblesort@SuggestMgr@@AAEXPAPAD0PAHH@Z 10012530 f   hunspell:suggestmgr.obj
 0001:00011620       ?lcs@SuggestMgr@@AAEXPBD0PAH1PAPAD@Z 10012620 f   hunspell:suggestmgr.obj
 0001:00011880       ?lcslen@SuggestMgr@@AAEHPBD0@Z 10012880 f   hunspell:suggestmgr.obj
 0001:00011900       ??0AffixMgr@@QAE@PBDPAPAVHashMgr@@PAH0@Z 10012900 f   hunspell:affixmgr.obj
 0001:00011bc0       ??1AffixMgr@@QAE@XZ        10012bc0 f   hunspell:affixmgr.obj
 0001:00012270       ?parse_file@AffixMgr@@AAEHPBD0@Z 10013270 f   hunspell:affixmgr.obj
 0001:00013050       ?build_pfxtree@AffixMgr@@AAEHPAVPfxEntry@@@Z 10014050 f   hunspell:affixmgr.obj
 0001:00013110       ?build_sfxtree@AffixMgr@@AAEHPAVSfxEntry@@@Z 10014110 f   hunspell:affixmgr.obj
 0001:000131f0       ?process_pfx_tree_to_list@AffixMgr@@AAEHXZ 100141f0 f   hunspell:affixmgr.obj
 0001:00013240       ?process_pfx_in_order@AffixMgr@@AAEPAVPfxEntry@@PAV2@0@Z 10014240 f   hunspell:affixmgr.obj
 0001:00013280       ?process_sfx_tree_to_list@AffixMgr@@AAEHXZ 10014280 f   hunspell:affixmgr.obj
 0001:000132d0       ?process_sfx_in_order@AffixMgr@@AAEPAVSfxEntry@@PAV2@0@Z 100142d0 f   hunspell:affixmgr.obj
 0001:00013310       ?process_pfx_order@AffixMgr@@AAEHXZ 10014310 f   hunspell:affixmgr.obj
 0001:00013420       ?process_sfx_order@AffixMgr@@AAEHXZ 10014420 f   hunspell:affixmgr.obj
 0001:00013540       ?debugflag@AffixMgr@@AAEXPADG@Z 10014540 f   hunspell:affixmgr.obj
 0001:00013590       ?condlen@AffixMgr@@AAEHPAD@Z 10014590 f   hunspell:affixmgr.obj
 0001:000135e0       ?encodeit@AffixMgr@@AAEHAAUaffentry@@PAD@Z 100145e0 f   hunspell:affixmgr.obj
 0001:00013680       ?prefix_check@AffixMgr@@QAEPAUhentry@@PBDHDG@Z 10014680 f   hunspell:affixmgr.obj
 0001:00013850       ?prefix_check_twosfx@AffixMgr@@QAEPAUhentry@@PBDHDG@Z 10014850 f   hunspell:affixmgr.obj
 0001:00013910       ?prefix_check_morph@AffixMgr@@QAEPADPBDHDG@Z 10014910 f   hunspell:affixmgr.obj
 0001:00013aa0       ?prefix_check_twosfx_morph@AffixMgr@@QAEPADPBDHDG@Z 10014aa0 f   hunspell:affixmgr.obj
 0001:00013c60       ?cpdrep_check@AffixMgr@@QAEHPBDH@Z 10014c60 f   hunspell:affixmgr.obj
 0001:00013eb0       ?cpdpat_check@AffixMgr@@QAEHPBDHPAUhentry@@1D@Z 10014eb0 f   hunspell:affixmgr.obj
 0001:00014010       ?cpdcase_check@AffixMgr@@QAEHPBDH@Z 10015010 f   hunspell:affixmgr.obj
 0001:00014150       ?defcpd_check@AffixMgr@@QAEHPAPAPAUhentry@@FPAU2@PAPAU2@D@Z 10015150 f   hunspell:affixmgr.obj
 0001:00014710       ?get_syllable@AffixMgr@@QAEFPBDH@Z 10015710 f   hunspell:affixmgr.obj
 0001:00014820       ?setcminmax@AffixMgr@@QAEXPAH0PBDH@Z 10015820 f   hunspell:affixmgr.obj
 0001:000148e0       ?compound_check@AffixMgr@@QAEPAUhentry@@PBDHFFFFPAPAU2@DDPAH@Z 100158e0 f   hunspell:affixmgr.obj
 0001:00016fd0       ?compound_check_morph@AffixMgr@@QAEHPBDHFFFFPAPAUhentry@@DPAPADPAD@Z 10017fd0 f   hunspell:affixmgr.obj
 0001:00018f50       ?suffix_check@AffixMgr@@QAEPAUhentry@@PBDHHPAVPfxEntry@@PAPADHPAHGGD@Z 10019f50 f   hunspell:affixmgr.obj
 0001:00019430       ?suffix_check_twosfx@AffixMgr@@QAEPAUhentry@@PBDHHPAVPfxEntry@@G@Z 1001a430 f   hunspell:affixmgr.obj
 0001:00019520       ?suffix_check_twosfx_morph@AffixMgr@@QAEPADPBDHHPAVPfxEntry@@G@Z 1001a520 f   hunspell:affixmgr.obj
 0001:00019800       ?suffix_check_morph@AffixMgr@@QAEPADPBDHHPAVPfxEntry@@GGD@Z 1001a800 f   hunspell:affixmgr.obj
 0001:0001a620       ?affix_check@AffixMgr@@QAEPAUhentry@@PBDHGD@Z 1001b620 f   hunspell:affixmgr.obj
 0001:0001a6a0       ?affix_check_morph@AffixMgr@@QAEPADPBDHGD@Z 1001b6a0 f   hunspell:affixmgr.obj
 0001:0001a810       ?morphgen@AffixMgr@@QAEPADPADHPBGG00H@Z 1001b810 f   hunspell:affixmgr.obj
 0001:0001ab40       ?expand_rootword@AffixMgr@@QAEHPAUguessword@@HPBDHPBGGPADH3@Z 1001bb40 f   hunspell:affixmgr.obj
 0001:0001b2f0       ?get_encoding@AffixMgr@@QAEPADXZ 1001c2f0 f   hunspell:affixmgr.obj
 0001:0001b390       ?get_key_string@AffixMgr@@QAEPADXZ 1001c390 f   hunspell:affixmgr.obj
 0001:0001b430       ?lookup@AffixMgr@@QAEPAUhentry@@PBD@Z 1001c430 f   hunspell:affixmgr.obj
 0001:0001b540       ?parse_flag@AffixMgr@@AAEHPADPAGPAVFileMgr@@@Z 1001c540 f   hunspell:affixmgr.obj
 0001:0001b5c0       ?parse_num@AffixMgr@@AAEHPADPAHPAVFileMgr@@@Z 1001c5c0 f   hunspell:affixmgr.obj
 0001:0001b620       ?parse_cpdsyllable@AffixMgr@@AAEHPADPAVFileMgr@@@Z 1001c620 f   hunspell:affixmgr.obj
 0001:0001b840       ?parse_reptable@AffixMgr@@AAEHPADPAVFileMgr@@@Z 1001c840 f   hunspell:affixmgr.obj
 0001:0001bbc0       ?parse_convtable@AffixMgr@@AAEHPADPAVFileMgr@@PAPAVRepList@@PBD@Z 1001cbc0 f   hunspell:affixmgr.obj
 0001:0001bee0       ?parse_phonetable@AffixMgr@@AAEHPADPAVFileMgr@@@Z 1001cee0 f   hunspell:affixmgr.obj
 0001:0001c290       ?parse_checkcpdtable@AffixMgr@@AAEHPADPAVFileMgr@@@Z 1001d290 f   hunspell:affixmgr.obj
 0001:0001c640       ?parse_defcpdtable@AffixMgr@@AAEHPADPAVFileMgr@@@Z 1001d640 f   hunspell:affixmgr.obj
 0001:0001ca70       ?parse_maptable@AffixMgr@@AAEHPADPAVFileMgr@@@Z 1001da70 f   hunspell:affixmgr.obj
 0001:0001cea0       ?parse_breaktable@AffixMgr@@AAEHPADPAVFileMgr@@@Z 1001dea0 f   hunspell:affixmgr.obj
 0001:0001d130       ?reverse_condition@AffixMgr@@AAEXPAD@Z 1001e130 f   hunspell:affixmgr.obj
 0001:0001d1b0       ?parse_affix@AffixMgr@@AAEHPADDPAVFileMgr@@0@Z 1001e1b0 f   hunspell:affixmgr.obj
 0001:0001dbb0       ?redundant_condition@AffixMgr@@AAEHDPADHPBDH@Z 1001ebb0 f   hunspell:affixmgr.obj
 0001:0001ddd0       ?resize@?$vector@Uaffentry@@V?$allocator@Uaffentry@@@std@@@std@@QAEXI@Z 1001edd0 f i hunspell:affixmgr.obj
 0001:0001de80       ?_Reserve@?$vector@Uaffentry@@V?$allocator@Uaffentry@@@std@@@std@@IAEXI@Z 1001ee80 f i hunspell:affixmgr.obj
 0001:0001df10       ?deallocate@?$_Wrap_alloc@V?$allocator@Uaffentry@@@std@@@std@@QAEXPAUaffentry@@I@Z 1001ef10 f i hunspell:affixmgr.obj
 0001:0001df70       ?_Reallocate@?$vector@Uaffentry@@V?$allocator@Uaffentry@@@std@@@std@@IAEXI@Z 1001ef70 f i hunspell:affixmgr.obj
 0001:0001e050       _fprintf                   1001f050 f i hunspell:filemgr.obj
 0001:0001e080       ??0FileMgr@@QAE@PBD0@Z     1001f080 f   hunspell:filemgr.obj
 0001:0001e150       ?getline@FileMgr@@QAEPADXZ 1001f150 f   hunspell:filemgr.obj
 0001:0001e1b0       ?init_phonet_hash@@YAXAAUphonetable@@@Z 1001f1b0 f   hunspell:phonet.obj
 0001:0001e200       ?phonet@@YAHPBDPADHAAUphonetable@@@Z 1001f200 f   hunspell:phonet.obj
 0001:0001e880       ?add@PfxEntry@@QAEPADPBDH@Z 1001f880 f   hunspell:affentry.obj
 0001:0001e980       ?test_condition@PfxEntry@@QAEHPBD@Z 1001f980 f i hunspell:affentry.obj
 0001:0001ece0       ?checkword@PfxEntry@@QAEPAUhentry@@PBDHDG@Z 1001fce0 f   hunspell:affentry.obj
 0001:0001eee0       ?check_twosfx@PfxEntry@@QAEPAUhentry@@PBDHDG@Z 1001fee0 f   hunspell:affentry.obj
 0001:0001efd0       ?check_twosfx_morph@PfxEntry@@QAEPADPBDHDG@Z 1001ffd0 f   hunspell:affentry.obj
 0001:0001f0b0       ?check_morph@PfxEntry@@QAEPADPBDHDG@Z 100200b0 f   hunspell:affentry.obj
 0001:0001f360       ?add@SfxEntry@@QAEPADPBDH@Z 10020360 f   hunspell:affentry.obj
 0001:0001f490       ?nextchar@SfxEntry@@QAEPADPAD@Z 10020490 f i hunspell:affentry.obj
 0001:0001f4d0       ?test_condition@SfxEntry@@QAEHPBD0@Z 100204d0 f i hunspell:affentry.obj
 0001:0001f8e0       ?checkword@SfxEntry@@QAEPAUhentry@@PBDHHPAVPfxEntry@@PAPADHPAHGGG@Z 100208e0 f   hunspell:affentry.obj
 0001:0001fb20       ?check_twosfx@SfxEntry@@QAEPAUhentry@@PBDHHPAVPfxEntry@@G@Z 10020b20 f   hunspell:affentry.obj
 0001:0001fc70       ?check_twosfx_morph@SfxEntry@@QAEPADPBDHHPAVPfxEntry@@G@Z 10020c70 f   hunspell:affentry.obj
 0001:0001fe60       ?get_next_homonym@SfxEntry@@QAEPAUhentry@@PAU2@HPAVPfxEntry@@GG@Z 10020e60 f   hunspell:affentry.obj
 0001:000200b0       ?fail@Hunzip@@IAEHPBD0@Z   100210b0 f   hunspell:hunzip.obj
 0001:000200e0       ??0Hunzip@@QAE@PBD0@Z      100210e0 f   hunspell:hunzip.obj
 0001:00020170       ?getcode@Hunzip@@IAEHPBD@Z 10021170 f   hunspell:hunzip.obj
 0001:00020450       ?getbuf@Hunzip@@IAEHXZ     10021450 f   hunspell:hunzip.obj
 0001:000205a0       ?getline@Hunzip@@QAEPBDXZ  100215a0 f   hunspell:hunzip.obj
 0001:00020776       ??0bad_alloc@std@@QAE@ABV01@@Z 10021776 f i libcpmt:xthrow.obj
 0001:00020791       ??0bad_alloc@std@@QAE@XZ   10021791 f i libcpmt:xthrow.obj
 0001:000207a9       ??0exception@std@@QAE@ABV01@@Z 100217a9 f i libcpmt:xthrow.obj
 0001:000207d5       ??0exception@std@@QAE@QBD@Z 100217d5 f i libcpmt:xthrow.obj
 0001:0002080c       ??0length_error@std@@QAE@ABV01@@Z 1002180c f i libcpmt:xthrow.obj
 0001:00020827       ??0length_error@std@@QAE@PBD@Z 10021827 f i libcpmt:xthrow.obj
 0001:00020848       ??0logic_error@std@@QAE@ABV01@@Z 10021848 f i libcpmt:xthrow.obj
 0001:00020863       ??0out_of_range@std@@QAE@ABV01@@Z 10021863 f i libcpmt:xthrow.obj
 0001:0002087e       ??0out_of_range@std@@QAE@PBD@Z 1002187e f i libcpmt:xthrow.obj
 0001:0002089f       ??1bad_alloc@std@@UAE@XZ   1002189f f i libcpmt:xthrow.obj
 0001:0002089f       ??1length_error@std@@UAE@XZ 1002189f f i libcpmt:xthrow.obj
 0001:0002089f       ??1out_of_range@std@@UAE@XZ 1002189f f i libcpmt:xthrow.obj
 0001:0002089f       ??1bad_array_new_length@std@@UAE@XZ 1002189f f i LIBCMT:throw_bad_alloc.obj
 0001:000208b0       ?__scrt_throw_std_bad_alloc@@YAXXZ 100218b0 f   LIBCMT:throw_bad_alloc.obj
 0001:000208b0       ?_Xbad_alloc@std@@YAXXZ    100218b0 f   libcpmt:xthrow.obj
 0001:000208cd       ?_Xlength_error@std@@YAXPBD@Z 100218cd f   libcpmt:xthrow.obj
 0001:000208ed       ?_Xout_of_range@std@@YAXPBD@Z 100218ed f   libcpmt:xthrow.obj
 0001:0002090d       ?what@exception@std@@UBEPBDXZ 1002190d f i libcpmt:xthrow.obj
 0001:0002091a       @__security_check_cookie@4 1002191a f   LIBCMT:_secchk_.obj
 0001:0002092b       ??2@YAPAXI@Z               1002192b f   LIBCMT:new_scalar.obj
 0001:0002095e       ??3@YAXPAX@Z               1002195e f   LIBCMT:delete_scalar.obj
 0001:00020963       ??3@YAXPAXI@Z              10021963 f   LIBCMT:delete_scalar_size.obj
 0001:00020971       ??_U@YAPAXI@Z              10021971 f   LIBCMT:new_array.obj
 0001:00020c82       __DllMainCRTStartup@12     10021c82 f   LIBCMT:dll_dllmain.obj
 0001:00020ca5       ___raise_securityfailure   10021ca5 f   LIBCMT:gs_report.obj
 0001:00020ccd       ___report_gsfailure        10021ccd f   LIBCMT:gs_report.obj
 0001:00020dc8       ___report_rangecheckfailure 10021dc8 f   LIBCMT:gs_report.obj
 0001:00020dd4       ___report_securityfailure  10021dd4 f   LIBCMT:gs_report.obj
 0001:00020ea4       ??_V@YAXPAX@Z              10021ea4 f   LIBCMT:delete_array.obj
 0001:00020ea9       ??_Etype_info@@UAEPAXI@Z   10021ea9 f i LIBCMT:std_type_info_static.obj
 0001:00020ea9       ??_Gtype_info@@UAEPAXI@Z   10021ea9 f i LIBCMT:std_type_info_static.obj
 0001:00020ecc       ??0bad_array_new_length@std@@QAE@ABV01@@Z 10021ecc f i LIBCMT:throw_bad_alloc.obj
 0001:00020ee7       ??0bad_array_new_length@std@@QAE@XZ 10021ee7 f i LIBCMT:throw_bad_alloc.obj
 0001:00020eff       ??_Gbad_array_new_length@std@@UAEPAXI@Z 10021eff f i LIBCMT:throw_bad_alloc.obj
 0001:00020eff       ??_Gexception@std@@UAEPAXI@Z 10021eff f i libcpmt:xthrow.obj
 0001:00020eff       ??_Elength_error@std@@UAEPAXI@Z 10021eff f i libcpmt:xthrow.obj
 0001:00020eff       ??_Gbad_alloc@std@@UAEPAXI@Z 10021eff f i libcpmt:xthrow.obj
 0001:00020eff       ??_Eout_of_range@std@@UAEPAXI@Z 10021eff f i libcpmt:xthrow.obj
 0001:00020eff       ??_Elogic_error@std@@UAEPAXI@Z 10021eff f i libcpmt:xthrow.obj
 0001:00020eff       ??_Ebad_array_new_length@std@@UAEPAXI@Z 10021eff f i LIBCMT:throw_bad_alloc.obj
 0001:00020eff       ??_Ebad_alloc@std@@UAEPAXI@Z 10021eff f i libcpmt:xthrow.obj
 0001:00020eff       ??_Glogic_error@std@@UAEPAXI@Z 10021eff f i libcpmt:xthrow.obj
 0001:00020eff       ??_Gout_of_range@std@@UAEPAXI@Z 10021eff f i libcpmt:xthrow.obj
 0001:00020eff       ??_Glength_error@std@@UAEPAXI@Z 10021eff f i libcpmt:xthrow.obj
 0001:00020eff       ??_Eexception@std@@UAEPAXI@Z 10021eff f i libcpmt:xthrow.obj
 0001:00020f2c       ?__scrt_throw_std_bad_array_new_length@@YAXXZ 10021f2c f   LIBCMT:throw_bad_alloc.obj
 0001:00020f49       ??$__crt_fast_encode_pointer@PAX@@YAPAXQAX@Z 10021f49 f i libvcruntime:winapi_downlevel.obj
 0001:00020f49       ??$__crt_fast_encode_pointer@PAP6AXXZ@@YAPAP6AXXZQAP6AXXZ@Z 10021f49 f i LIBCMT:utility.obj
 0001:00020faa       ___scrt_acquire_startup_lock 10021faa f   LIBCMT:utility.obj
 0001:00020fdf       ___scrt_dllmain_after_initialize_c 10021fdf f   LIBCMT:utility.obj
 0001:0002100a       ___scrt_dllmain_before_initialize_c 1002200a f   LIBCMT:utility.obj
 0001:00021018       ___scrt_dllmain_crt_thread_attach 10022018 f   LIBCMT:utility.obj
 0001:00021037       ___scrt_dllmain_crt_thread_detach 10022037 f   LIBCMT:utility.obj
 0001:00021044       ___scrt_dllmain_exception_filter 10022044 f   LIBCMT:utility.obj
 0001:00021077       ___scrt_dllmain_uninitialize_c 10022077 f   LIBCMT:utility.obj
 0001:0002109a       ___scrt_dllmain_uninitialize_critical 1002209a f   LIBCMT:utility.obj
 0001:000210a7       ___scrt_initialize_crt     100220a7 f   LIBCMT:utility.obj
 0001:000210e0       ___scrt_initialize_onexit_tables 100220e0 f   LIBCMT:utility.obj
 0001:00021177       ___scrt_is_nonwritable_in_current_image 10022177 f   LIBCMT:utility.obj
 0001:00021201       ___scrt_release_startup_lock 10022201 f   LIBCMT:utility.obj
 0001:0002121e       ___scrt_uninitialize_crt   1002221e f   LIBCMT:utility.obj
 0001:00021246       __onexit                   10022246 f   LIBCMT:utility.obj
 0001:00021281       _atexit                    10022281 f   LIBCMT:utility.obj
 0001:00021296       ___security_init_cookie    10022296 f   LIBCMT:gs_support.obj
 0001:00021332       _DllMain@12                10022332 f   LIBCMT:dll_dllmain_stub.obj
 0001:00021338       ?__scrt_initialize_type_info@@YAXXZ 10022338 f   LIBCMT:tncleanup.obj
 0001:00021344       ?__scrt_uninitialize_type_info@@YAXXZ 10022344 f   LIBCMT:tncleanup.obj
 0001:00021350       ___local_stdio_scanf_options 10022350 f i LIBCMT:default_local_stdio_options.obj
 0001:00021356       ___scrt_initialize_default_local_stdio_options 10022356 f   LIBCMT:default_local_stdio_options.obj
 0001:00021373       ___scrt_get_dyn_tls_init_callback 10022373 f   LIBCMT:dyn_tls_init.obj
 0001:00021379       ___scrt_fastfail           10022379 f   LIBCMT:utility_desktop.obj
 0001:00021494       __crt_debugger_hook        10022494 f   LIBCMT:utility_desktop.obj
 0001:0002149c       __RTC_Initialize           1002249c f   LIBCMT:_initsect_.obj
 0001:000214c7       __RTC_Terminate            100224c7 f   LIBCMT:_initsect_.obj
 0001:000214f2       @_guard_check_icall@4      100224f2 f i LIBCMT:checkcfg.obj
 0001:00021500       __SEH_prolog4              10022500 f   LIBCMT:_sehprolg4_.obj
 0001:00021546       __SEH_epilog4              10022546 f   LIBCMT:_sehprolg4_.obj
 0001:0002155b       ___isa_available_init      1002255b f   LIBCMT:_cpu_disp_.obj
 0001:000216f5       __get_startup_argv_mode    100226f5 f   LIBCMT:argv_mode.obj
 0001:000216f9       ___scrt_is_ucrt_dll_in_use 100226f9 f   LIBCMT:ucrt_detection.obj
 0001:00021710       _memmove                   10022710 f   libvcruntime:memmove.obj
 0001:00021c84       __get_purecall_handler     10022c84 f   libvcruntime:purevirt.obj
 0001:00021ca3       __purecall                 10022ca3 f   libvcruntime:purevirt.obj
 0001:00021cc0       _strstr                    10022cc0 f   libvcruntime:strstr.obj
 0001:00021f30       _strchr                    10022f30 f   libvcruntime:strchr.obj
 0001:00021f9e       ___from_strstr_to_strchr   10022f9e     libvcruntime:strchr.obj
 0001:0002205b       ___std_exception_copy      1002305b f   libvcruntime:std_exception.obj
 0001:000220be       ___std_exception_destroy   100230be f   libvcruntime:std_exception.obj
 0001:000220dd       __CxxThrowException@8      100230dd f   libvcruntime:throw.obj
 0001:00022190       __except_handler4          10023190 f   libvcruntime:_chandler4_.obj
 0001:000222f6       ___vcrt_initialize         100232f6 f   libvcruntime:initialization.obj
 0001:0002231f       ___vcrt_thread_attach      1002331f f   libvcruntime:initialization.obj
 0001:0002232a       ___vcrt_thread_detach      1002332a f   libvcruntime:initialization.obj
 0001:00022335       ___vcrt_uninitialize       10023335 f   libvcruntime:initialization.obj
 0001:00022354       ___vcrt_uninitialize_critical 10023354 f   libvcruntime:initialization.obj
 0001:0002235c       ___std_type_info_destroy_list 1002335c f   libvcruntime:std_type_info.obj
 0001:00022380       _memset                    10023380 f   libvcruntime:memset.obj
 0001:000224da       ___vcrt_initialize_pure_virtual_call_handler 100234da f   libvcruntime:purevirt_data.obj
 0001:00022500       __local_unwind4            10023500 f   libvcruntime:_exsup4_.obj
 0001:000225d6       __seh_longjmp_unwind4@4    100235d6 f   libvcruntime:_exsup4_.obj
 0001:000225fe       @_EH4_CallFilterFunc@8     100235fe f   libvcruntime:_exsup4_.obj
 0001:00022615       @_EH4_TransferToHandler@8  10023615 f   libvcruntime:_exsup4_.obj
 0001:0002262e       @_EH4_GlobalUnwind2@8      1002362e f   libvcruntime:_exsup4_.obj
 0001:00022647       @_EH4_LocalUnwind@16       10023647 f   libvcruntime:_exsup4_.obj
 0001:0002265e       ___vcrt_freefls@4          1002365e f   libvcruntime:per_thread_data.obj
 0001:0002267a       ___vcrt_freeptd            1002367a f   libvcruntime:per_thread_data.obj
 0001:000226b0       ___vcrt_getptd_noexit      100236b0 f   libvcruntime:per_thread_data.obj
 0001:00022742       ___vcrt_initialize_ptd     10023742 f   libvcruntime:per_thread_data.obj
 0001:00022775       ___vcrt_uninitialize_ptd   10023775 f   libvcruntime:per_thread_data.obj
 0001:00022790       ___vcrt_initialize_locks   10023790 f   libvcruntime:locks.obj
 0001:000227cc       ___vcrt_uninitialize_locks 100237cc f   libvcruntime:locks.obj
 0001:0002291c       ___vcrt_FlsAlloc           1002391c f   libvcruntime:winapi_downlevel.obj
 0001:00022956       ___vcrt_FlsFree            10023956 f   libvcruntime:winapi_downlevel.obj
 0001:00022990       ___vcrt_FlsGetValue        10023990 f   libvcruntime:winapi_downlevel.obj
 0001:000229ca       ___vcrt_FlsSetValue        100239ca f   libvcruntime:winapi_downlevel.obj
 0001:00022a07       ___vcrt_InitializeCriticalSectionEx 10023a07 f   libvcruntime:winapi_downlevel.obj
 0001:00022a4d       ___vcrt_initialize_winapi_thunks 10023a4d f   libvcruntime:winapi_downlevel.obj
 0001:00022a87       ___vcrt_uninitialize_winapi_thunks 10023a87 f   libvcruntime:winapi_downlevel.obj
 0001:00022ac0       __global_unwind2           10023ac0 f   libvcruntime:_exsup_.obj
 0001:00022b25       __local_unwind2            10023b25 f   libvcruntime:_exsup_.obj
 0001:00022ba9       __abnormal_termination     10023ba9 f   libvcruntime:_exsup_.obj
 0001:00022bcc       __NLG_Notify1              10023bcc f   libvcruntime:_exsup_.obj
 0001:00022bd5       __NLG_Notify               10023bd5 f   libvcruntime:_exsup_.obj
 0001:00022bec       __NLG_Dispatch2            10023bec     libvcruntime:_exsup_.obj
 0001:00022bec       __NLG_Dispatch             10023bec     libvcruntime:_exsup_.obj
 0001:00022bf4       __NLG_Call                 10023bf4 f   libvcruntime:_exsup_.obj
 0001:00022bf6       __NLG_Return2              10023bf6     libvcruntime:_exsup_.obj
 0001:0002325b       ??$ftprintf@PAU_iobuf@@PB_WABQB_WABQB_WABI@?$__crt_char_traits@_W@@SAH$$QAPAU_iobuf@@$$QAPB_WABQB_W2ABI@Z 1002425b f i libucrt:assert.obj
 0001:0002333a       __vfwprintf_l              1002433a f i libucrt:assert.obj
 0001:0002335f       __vswprintf_c_l            1002435f f i libucrt:assert.obj
 0001:0002338e       __wassert                  1002438e f   libucrt:assert.obj
 0001:000233d6       _fwprintf                  100243d6 f i libucrt:assert.obj
 0001:000233f1       _swprintf                  100243f1 f i libucrt:assert.obj
 0001:0002340f       ___acrt_call_reportfault   1002440f f   libucrt:invalid_parameter.obj
 0001:0002354a       ___acrt_initialize_invalid_parameter_handler 1002454a f   libucrt:invalid_parameter.obj
 0001:0002355e       __invalid_parameter        1002455e f   libucrt:invalid_parameter.obj
 0001:000235d9       __invalid_parameter_noinfo 100245d9 f   libucrt:invalid_parameter.obj
 0001:000235e9       __invalid_parameter_noinfo_noreturn 100245e9 f   libucrt:invalid_parameter.obj
 0001:00023606       __invoke_watson            10024606 f   libucrt:invalid_parameter.obj
 0001:000236fa       _fopen                     100246fa f   libucrt:fopen.obj
 0001:00023711       __fclose_nolock            10024711 f   libucrt:fclose.obj
 0001:00023787       _fclose                    10024787 f   libucrt:fclose.obj
 0001:00023807       ??0_LocaleUpdate@@QAE@QAU__crt_locale_pointers@@@Z 10024807 f i libucrt:_wctype.obj
 0001:0002388a       __isleadbyte_l             1002488a f i libucrt:_wctype.obj
 0001:000238c3       _iswalpha                  100248c3 f i libucrt:_wctype.obj
 0001:000238d9       _iswpunct                  100248d9 f i libucrt:_wctype.obj
 0001:000238ec       _iswspace                  100248ec f i libucrt:_wctype.obj
 0001:000239ef       _getenv                    100249ef f   libucrt:getenv.obj
 0001:000239fa       _realloc                   100249fa f   libucrt:realloc.obj
 0001:00023a10       _strncpy                   10024a10 f   libucrt:strncpy.obj
 0001:00023b40       _strncmp                   10024b40 f   libucrt:strncmp.obj
 0001:00023bb8       ??$?RV<lambda_ab9923ffb5d694ec0d78876dd103e44f>@@AAV<lambda_481dd5778c961fbcd3b60b650e9b9dc4>@@V<lambda_7923d86c9e3f319b415918ec4b39749c>@@@?$__crt_seh_guarded_call@H@@QAEH$$QAV<lambda_ab9923ffb5d694ec0d78876dd103e44f>@@AAV<lambda_481dd5778c961fbcd3b60b650e9b9dc4>@@$$QAV<lambda_7923d86c9e3f319b415918ec4b39749c>@@@Z 10024bb8 f i libucrt:output.obj
 0001:00023c09       ??$?RV<lambda_db08b09ef7aa9d4f8620ce68402612bc>@@AAV<lambda_4f2c1eaeead2a5fc776db5b62ea0fb9b>@@V<lambda_3ae262bc35d4ba6a3825c4f6bcaaf95c>@@@?$__crt_seh_guarded_call@H@@QAEH$$QAV<lambda_db08b09ef7aa9d4f8620ce68402612bc>@@AAV<lambda_4f2c1eaeead2a5fc776db5b62ea0fb9b>@@$$QAV<lambda_3ae262bc35d4ba6a3825c4f6bcaaf95c>@@@Z 10024c09 f i libucrt:output.obj
 0001:00023c5a       ??$__acrt_lock_stream_and_call@V<lambda_481dd5778c961fbcd3b60b650e9b9dc4>@@@@YAHQAU_iobuf@@$$QAV<lambda_481dd5778c961fbcd3b60b650e9b9dc4>@@@Z 10024c5a f i libucrt:output.obj
 0001:00023c82       ??$__acrt_lock_stream_and_call@V<lambda_4f2c1eaeead2a5fc776db5b62ea0fb9b>@@@@YAHQAU_iobuf@@$$QAV<lambda_4f2c1eaeead2a5fc776db5b62ea0fb9b>@@@Z 10024c82 f i libucrt:output.obj
 0001:00023fab       ??$count@D@formatting_buffer@__crt_stdio_output@@QBEIXZ 10024fab f i libucrt:output.obj
 0001:00023fc3       ??$ensure_buffer_is_big_enough@D@formatting_buffer@__crt_stdio_output@@QAE_NI@Z 10024fc3 f i libucrt:output.obj
 0001:00024049       ??$is_wide_character_specifier@D@__crt_stdio_output@@YA_N_KDW4length_modifier@0@@Z 10025049 f i libucrt:output.obj
 0001:00024089       ??$is_wide_character_specifier@_W@__crt_stdio_output@@YA_N_K_WW4length_modifier@0@@Z 10025089 f i libucrt:output.obj
 0001:000240d8       ??$scratch_data@D@formatting_buffer@__crt_stdio_output@@QAEPADXZ 100250d8 f i libucrt:output.obj
 0001:000240f6       ??$type_case_integer_parse_into_buffer@I@?$output_processor@_WV?$string_output_adapter@_W@__crt_stdio_output@@V?$standard_base@_WV?$string_output_adapter@_W@__crt_stdio_output@@@2@@__crt_stdio_output@@AAEXII_N@Z 100250f6 f i libucrt:output.obj
 0001:000240f6       ??$type_case_integer_parse_into_buffer@I@?$output_processor@DV?$string_output_adapter@D@__crt_stdio_output@@V?$standard_base@DV?$string_output_adapter@D@__crt_stdio_output@@@2@@__crt_stdio_output@@AAEXII_N@Z 100250f6 f i libucrt:output.obj
 0001:000240f6       ??$type_case_integer_parse_into_buffer@I@?$output_processor@_WV?$stream_output_adapter@_W@__crt_stdio_output@@V?$standard_base@_WV?$stream_output_adapter@_W@__crt_stdio_output@@@2@@__crt_stdio_output@@AAEXII_N@Z 100250f6 f i libucrt:output.obj
 0001:000240f6       ??$type_case_integer_parse_into_buffer@I@?$output_processor@DV?$stream_output_adapter@D@__crt_stdio_output@@V?$standard_base@DV?$stream_output_adapter@D@__crt_stdio_output@@@2@@__crt_stdio_output@@AAEXII_N@Z 100250f6 f i libucrt:output.obj
 0001:0002416b       ??$type_case_integer_parse_into_buffer@_K@?$output_processor@_WV?$string_output_adapter@_W@__crt_stdio_output@@V?$standard_base@_WV?$string_output_adapter@_W@__crt_stdio_output@@@2@@__crt_stdio_output@@AAEX_KI_N@Z 1002516b f i libucrt:output.obj
 0001:0002416b       ??$type_case_integer_parse_into_buffer@_K@?$output_processor@DV?$stream_output_adapter@D@__crt_stdio_output@@V?$standard_base@DV?$stream_output_adapter@D@__crt_stdio_output@@@2@@__crt_stdio_output@@AAEX_KI_N@Z 1002516b f i libucrt:output.obj
 0001:0002416b       ??$type_case_integer_parse_into_buffer@_K@?$output_processor@DV?$string_output_adapter@D@__crt_stdio_output@@V?$standard_base@DV?$string_output_adapter@D@__crt_stdio_output@@@2@@__crt_stdio_output@@AAEX_KI_N@Z 1002516b f i libucrt:output.obj
 0001:0002416b       ??$type_case_integer_parse_into_buffer@_K@?$output_processor@_WV?$stream_output_adapter@_W@__crt_stdio_output@@V?$standard_base@_WV?$stream_output_adapter@_W@__crt_stdio_output@@@2@@__crt_stdio_output@@AAEX_KI_N@Z 1002516b f i libucrt:output.obj
 0001:000241f3       ??$write_multiple_characters@V?$stream_output_adapter@D@__crt_stdio_output@@D@__crt_stdio_output@@YAXABV?$stream_output_adapter@D@0@DHQAH@Z 100251f3 f i libucrt:output.obj
 0001:0002421f       ??$write_multiple_characters@V?$stream_output_adapter@_W@__crt_stdio_output@@D@__crt_stdio_output@@YAXABV?$stream_output_adapter@_W@0@DHQAH@Z 1002521f f i libucrt:output.obj
 0001:00024250       ??$write_multiple_characters@V?$string_output_adapter@D@__crt_stdio_output@@D@__crt_stdio_output@@YAXABV?$string_output_adapter@D@0@DHQAH@Z 10025250 f i libucrt:output.obj
 0001:0002427c       ??$write_multiple_characters@V?$string_output_adapter@_W@__crt_stdio_output@@D@__crt_stdio_output@@YAXABV?$string_output_adapter@_W@0@DHQAH@Z 1002527c f i libucrt:output.obj
 0001:000242ad       ??0?$common_data@D@__crt_stdio_output@@IAE@XZ 100252ad f i libucrt:output.obj
 0001:000242f4       ??0?$common_data@_W@__crt_stdio_output@@IAE@XZ 100252f4 f i libucrt:output.obj
 0001:00024340       ??0?$output_adapter_data@DV?$string_output_adapter@D@__crt_stdio_output@@@__crt_stdio_output@@IAE@ABV?$string_output_adapter@D@1@_KQBDQAU__crt_locale_pointers@@QAD@Z 10025340 f i libucrt:output.obj
 0001:00024340       ??0?$output_adapter_data@DV?$stream_output_adapter@D@__crt_stdio_output@@@__crt_stdio_output@@IAE@ABV?$stream_output_adapter@D@1@_KQBDQAU__crt_locale_pointers@@QAD@Z 10025340 f i libucrt:output.obj
 0001:0002437c       ??0?$output_adapter_data@_WV?$string_output_adapter@_W@__crt_stdio_output@@@__crt_stdio_output@@IAE@ABV?$string_output_adapter@_W@1@_KQB_WQAU__crt_locale_pointers@@QAD@Z 1002537c f i libucrt:output.obj
 0001:0002437c       ??0?$output_adapter_data@_WV?$stream_output_adapter@_W@__crt_stdio_output@@@__crt_stdio_output@@IAE@ABV?$stream_output_adapter@_W@1@_KQB_WQAU__crt_locale_pointers@@QAD@Z 1002537c f i libucrt:output.obj
 0001:000243b8       ??0?$output_processor@DV?$stream_output_adapter@D@__crt_stdio_output@@V?$standard_base@DV?$stream_output_adapter@D@__crt_stdio_output@@@2@@__crt_stdio_output@@QAE@ABV?$stream_output_adapter@D@1@_KQBDQAU__crt_locale_pointers@@QAD@Z 100253b8 f i libucrt:output.obj
 0001:000243b8       ??0?$output_processor@DV?$string_output_adapter@D@__crt_stdio_output@@V?$standard_base@DV?$string_output_adapter@D@__crt_stdio_output@@@2@@__crt_stdio_output@@QAE@ABV?$string_output_adapter@D@1@_KQBDQAU__crt_locale_pointers@@QAD@Z 100253b8 f i libucrt:output.obj
 0001:000243ed       ??0?$output_processor@_WV?$stream_output_adapter@_W@__crt_stdio_output@@V?$standard_base@_WV?$stream_output_adapter@_W@__crt_stdio_output@@@2@@__crt_stdio_output@@QAE@ABV?$stream_output_adapter@_W@1@_KQB_WQAU__crt_locale_pointers@@QAD@Z 100253ed f i libucrt:output.obj
 0001:000243ed       ??0?$output_processor@_WV?$string_output_adapter@_W@__crt_stdio_output@@V?$standard_base@_WV?$string_output_adapter@_W@__crt_stdio_output@@@2@@__crt_stdio_output@@QAE@ABV?$string_output_adapter@_W@1@_KQB_WQAU__crt_locale_pointers@@QAD@Z 100253ed f i libucrt:output.obj
 0001:00024422       ??1formatting_buffer@__crt_stdio_output@@QAE@XZ 10025422 f i libucrt:output.obj
 0001:0002443c       ??4?$__crt_unique_heap_ptr@DU__crt_internal_free_policy@@@@QAEAAV0@$$QAV0@@Z 1002543c f i libucrt:output.obj
 0001:000245da       ?crop_zeroes@__crt_stdio_output@@YAXPADQAU__crt_locale_pointers@@@Z 100255da f i libucrt:output.obj
 0001:00024631       ?find_next_state@?$output_processor@DV?$stream_output_adapter@D@__crt_stdio_output@@V?$standard_base@DV?$stream_output_adapter@D@__crt_stdio_output@@@2@@__crt_stdio_output@@ABE?AW4state@2@DW432@@Z 10025631 f i libucrt:output.obj
 0001:00024631       ?find_next_state@?$output_processor@DV?$string_output_adapter@D@__crt_stdio_output@@V?$standard_base@DV?$string_output_adapter@D@__crt_stdio_output@@@2@@__crt_stdio_output@@ABE?AW4state@2@DW432@@Z 10025631 f i libucrt:output.obj
 0001:00024663       ?find_next_state@?$output_processor@_WV?$string_output_adapter@_W@__crt_stdio_output@@V?$standard_base@_WV?$string_output_adapter@_W@__crt_stdio_output@@@2@@__crt_stdio_output@@ABE?AW4state@2@_WW432@@Z 10025663 f i libucrt:output.obj
 0001:00024663       ?find_next_state@?$output_processor@_WV?$stream_output_adapter@_W@__crt_stdio_output@@V?$standard_base@_WV?$stream_output_adapter@_W@__crt_stdio_output@@@2@@__crt_stdio_output@@ABE?AW4state@2@_WW432@@Z 10025663 f i libucrt:output.obj
 0001:00024697       ?force_decimal_point@__crt_stdio_output@@YAXPADQAU__crt_locale_pointers@@@Z 10025697 f i libucrt:output.obj
 0001:000246f3       ?parse_int_from_format_string@?$output_processor@DV?$stream_output_adapter@D@__crt_stdio_output@@V?$standard_base@DV?$stream_output_adapter@D@__crt_stdio_output@@@2@@__crt_stdio_output@@AAE_NQAH@Z 100256f3 f i libucrt:output.obj
 0001:000246f3       ?parse_int_from_format_string@?$output_processor@DV?$string_output_adapter@D@__crt_stdio_output@@V?$standard_base@DV?$string_output_adapter@D@__crt_stdio_output@@@2@@__crt_stdio_output@@AAE_NQAH@Z 100256f3 f i libucrt:output.obj
 0001:0002474f       ?parse_int_from_format_string@?$output_processor@_WV?$stream_output_adapter@_W@__crt_stdio_output@@V?$standard_base@_WV?$stream_output_adapter@_W@__crt_stdio_output@@@2@@__crt_stdio_output@@AAE_NQAH@Z 1002574f f i libucrt:output.obj
 0001:0002474f       ?parse_int_from_format_string@?$output_processor@_WV?$string_output_adapter@_W@__crt_stdio_output@@V?$standard_base@_WV?$string_output_adapter@_W@__crt_stdio_output@@@2@@__crt_stdio_output@@AAE_NQAH@Z 1002574f f i libucrt:output.obj
 0001:000247ad       ?process@?$output_processor@DV?$stream_output_adapter@D@__crt_stdio_output@@V?$standard_base@DV?$stream_output_adapter@D@__crt_stdio_output@@@2@@__crt_stdio_output@@QAEHXZ 100257ad f i libucrt:output.obj
 0001:000248c9       ?process@?$output_processor@DV?$string_output_adapter@D@__crt_stdio_output@@V?$standard_base@DV?$string_output_adapter@D@__crt_stdio_output@@@2@@__crt_stdio_output@@QAEHXZ 100258c9 f i libucrt:output.obj
 0001:000249e5       ?process@?$output_processor@_WV?$stream_output_adapter@_W@__crt_stdio_output@@V?$standard_base@_WV?$stream_output_adapter@_W@__crt_stdio_output@@@2@@__crt_stdio_output@@QAEHXZ 100259e5 f i libucrt:output.obj
 0001:00024b05       ?process@?$output_processor@_WV?$string_output_adapter@_W@__crt_stdio_output@@V?$standard_base@_WV?$string_output_adapter@_W@__crt_stdio_output@@@2@@__crt_stdio_output@@QAEHXZ 10025b05 f i libucrt:output.obj
 0001:00024c25       ?state_case_flag@?$output_processor@DV?$string_output_adapter@D@__crt_stdio_output@@V?$standard_base@DV?$string_output_adapter@D@__crt_stdio_output@@@2@@__crt_stdio_output@@AAE_NXZ 10025c25 f i libucrt:output.obj
 0001:00024c25       ?state_case_flag@?$output_processor@DV?$stream_output_adapter@D@__crt_stdio_output@@V?$standard_base@DV?$stream_output_adapter@D@__crt_stdio_output@@@2@@__crt_stdio_output@@AAE_NXZ 10025c25 f i libucrt:output.obj
 0001:00024c62       ?state_case_flag@?$output_processor@_WV?$string_output_adapter@_W@__crt_stdio_output@@V?$standard_base@_WV?$string_output_adapter@_W@__crt_stdio_output@@@2@@__crt_stdio_output@@AAE_NXZ 10025c62 f i libucrt:output.obj
 0001:00024c62       ?state_case_flag@?$output_processor@_WV?$stream_output_adapter@_W@__crt_stdio_output@@V?$standard_base@_WV?$stream_output_adapter@_W@__crt_stdio_output@@@2@@__crt_stdio_output@@AAE_NXZ 10025c62 f i libucrt:output.obj
 0001:00024c9f       ?state_case_normal@?$output_processor@DV?$stream_output_adapter@D@__crt_stdio_output@@V?$standard_base@DV?$stream_output_adapter@D@__crt_stdio_output@@@2@@__crt_stdio_output@@AAE_NXZ 10025c9f f i libucrt:output.obj
 0001:00024cbe       ?state_case_normal@?$output_processor@DV?$string_output_adapter@D@__crt_stdio_output@@V?$standard_base@DV?$string_output_adapter@D@__crt_stdio_output@@@2@@__crt_stdio_output@@AAE_NXZ 10025cbe f i libucrt:output.obj
 0001:00024cdd       ?state_case_normal@?$output_processor@_WV?$stream_output_adapter@_W@__crt_stdio_output@@V?$standard_base@_WV?$stream_output_adapter@_W@__crt_stdio_output@@@2@@__crt_stdio_output@@AAE_NXZ 10025cdd f i libucrt:output.obj
 0001:00024cfc       ?state_case_normal@?$output_processor@_WV?$string_output_adapter@_W@__crt_stdio_output@@V?$standard_base@_WV?$string_output_adapter@_W@__crt_stdio_output@@@2@@__crt_stdio_output@@AAE_NXZ 10025cfc f i libucrt:output.obj
 0001:00024d1b       ?state_case_normal_common@?$output_processor@DV?$stream_output_adapter@D@__crt_stdio_output@@V?$standard_base@DV?$stream_output_adapter@D@__crt_stdio_output@@@2@@__crt_stdio_output@@AAE_NXZ 10025d1b f i libucrt:output.obj
 0001:00024d45       ?state_case_normal_common@?$output_processor@DV?$string_output_adapter@D@__crt_stdio_output@@V?$standard_base@DV?$string_output_adapter@D@__crt_stdio_output@@@2@@__crt_stdio_output@@AAE_NXZ 10025d45 f i libucrt:output.obj
 0001:00024d6f       ?state_case_normal_common@?$output_processor@_WV?$stream_output_adapter@_W@__crt_stdio_output@@V?$standard_base@_WV?$stream_output_adapter@_W@__crt_stdio_output@@@2@@__crt_stdio_output@@AAE_NXZ 10025d6f f i libucrt:output.obj
 0001:00024d8a       ?state_case_normal_common@?$output_processor@_WV?$string_output_adapter@_W@__crt_stdio_output@@V?$standard_base@_WV?$string_output_adapter@_W@__crt_stdio_output@@@2@@__crt_stdio_output@@AAE_NXZ 10025d8a f i libucrt:output.obj
 0001:00024da5       ?state_case_normal_tchar@?$output_processor@DV?$stream_output_adapter@D@__crt_stdio_output@@V?$standard_base@DV?$stream_output_adapter@D@__crt_stdio_output@@@2@@__crt_stdio_output@@AAE_ND@Z 10025da5 f i libucrt:output.obj
 0001:00024e06       ?state_case_normal_tchar@?$output_processor@DV?$string_output_adapter@D@__crt_stdio_output@@V?$standard_base@DV?$string_output_adapter@D@__crt_stdio_output@@@2@@__crt_stdio_output@@AAE_ND@Z 10025e06 f i libucrt:output.obj
 0001:00024e67       ?state_case_precision@?$output_processor@DV?$string_output_adapter@D@__crt_stdio_output@@V?$standard_base@DV?$string_output_adapter@D@__crt_stdio_output@@@2@@__crt_stdio_output@@AAE_NXZ 10025e67 f i libucrt:output.obj
 0001:00024e67       ?state_case_precision@?$output_processor@DV?$stream_output_adapter@D@__crt_stdio_output@@V?$standard_base@DV?$stream_output_adapter@D@__crt_stdio_output@@@2@@__crt_stdio_output@@AAE_NXZ 10025e67 f i libucrt:output.obj
 0001:00024e8f       ?state_case_precision@?$output_processor@_WV?$stream_output_adapter@_W@__crt_stdio_output@@V?$standard_base@_WV?$stream_output_adapter@_W@__crt_stdio_output@@@2@@__crt_stdio_output@@AAE_NXZ 10025e8f f i libucrt:output.obj
 0001:00024e8f       ?state_case_precision@?$output_processor@_WV?$string_output_adapter@_W@__crt_stdio_output@@V?$standard_base@_WV?$string_output_adapter@_W@__crt_stdio_output@@@2@@__crt_stdio_output@@AAE_NXZ 10025e8f f i libucrt:output.obj
 0001:00024eb8       ?state_case_size@?$output_processor@DV?$stream_output_adapter@D@__crt_stdio_output@@V?$standard_base@DV?$stream_output_adapter@D@__crt_stdio_output@@@2@@__crt_stdio_output@@AAE_NXZ 10025eb8 f i libucrt:output.obj
 0001:00025021       ?state_case_size@?$output_processor@DV?$string_output_adapter@D@__crt_stdio_output@@V?$standard_base@DV?$string_output_adapter@D@__crt_stdio_output@@@2@@__crt_stdio_output@@AAE_NXZ 10026021 f i libucrt:output.obj
 0001:0002518a       ?state_case_size@?$output_processor@_WV?$stream_output_adapter@_W@__crt_stdio_output@@V?$standard_base@_WV?$stream_output_adapter@_W@__crt_stdio_output@@@2@@__crt_stdio_output@@AAE_NXZ 1002618a f i libucrt:output.obj
 0001:00025306       ?state_case_size@?$output_processor@_WV?$string_output_adapter@_W@__crt_stdio_output@@V?$standard_base@_WV?$string_output_adapter@_W@__crt_stdio_output@@@2@@__crt_stdio_output@@AAE_NXZ 10026306 f i libucrt:output.obj
 0001:00025482       ?state_case_type@?$output_processor@DV?$stream_output_adapter@D@__crt_stdio_output@@V?$standard_base@DV?$stream_output_adapter@D@__crt_stdio_output@@@2@@__crt_stdio_output@@AAE_NXZ 10026482 f i libucrt:output.obj
 0001:000256b1       ?state_case_type@?$output_processor@DV?$string_output_adapter@D@__crt_stdio_output@@V?$standard_base@DV?$string_output_adapter@D@__crt_stdio_output@@@2@@__crt_stdio_output@@AAE_NXZ 100266b1 f i libucrt:output.obj
 0001:000258e0       ?state_case_type@?$output_processor@_WV?$stream_output_adapter@_W@__crt_stdio_output@@V?$standard_base@_WV?$stream_output_adapter@_W@__crt_stdio_output@@@2@@__crt_stdio_output@@AAE_NXZ 100268e0 f i libucrt:output.obj
 0001:00025b3d       ?state_case_type@?$output_processor@_WV?$string_output_adapter@_W@__crt_stdio_output@@V?$standard_base@_WV?$string_output_adapter@_W@__crt_stdio_output@@@2@@__crt_stdio_output@@AAE_NXZ 10026b3d f i libucrt:output.obj
 0001:00025d9a       ?state_case_width@?$output_processor@DV?$stream_output_adapter@D@__crt_stdio_output@@V?$standard_base@DV?$stream_output_adapter@D@__crt_stdio_output@@@2@@__crt_stdio_output@@AAE_NXZ 10026d9a f i libucrt:output.obj
 0001:00025d9a       ?state_case_width@?$output_processor@DV?$string_output_adapter@D@__crt_stdio_output@@V?$standard_base@DV?$string_output_adapter@D@__crt_stdio_output@@@2@@__crt_stdio_output@@AAE_NXZ 10026d9a f i libucrt:output.obj
 0001:00025dc5       ?state_case_width@?$output_processor@_WV?$stream_output_adapter@_W@__crt_stdio_output@@V?$standard_base@_WV?$stream_output_adapter@_W@__crt_stdio_output@@@2@@__crt_stdio_output@@AAE_NXZ 10026dc5 f i libucrt:output.obj
 0001:00025dc5       ?state_case_width@?$output_processor@_WV?$string_output_adapter@_W@__crt_stdio_output@@V?$standard_base@_WV?$string_output_adapter@_W@__crt_stdio_output@@@2@@__crt_stdio_output@@AAE_NXZ 10026dc5 f i libucrt:output.obj
 0001:00025df1       ?to_integer_size@__crt_stdio_output@@YAIW4length_modifier@1@@Z 10026df1 f i libucrt:output.obj
 0001:00025e4d       ?type_case_Z@?$output_processor@DV?$stream_output_adapter@D@__crt_stdio_output@@V?$standard_base@DV?$stream_output_adapter@D@__crt_stdio_output@@@2@@__crt_stdio_output@@AAE_NXZ 10026e4d f i libucrt:output.obj
 0001:00025e4d       ?type_case_Z@?$output_processor@DV?$string_output_adapter@D@__crt_stdio_output@@V?$standard_base@DV?$string_output_adapter@D@__crt_stdio_output@@@2@@__crt_stdio_output@@AAE_NXZ 10026e4d f i libucrt:output.obj
 0001:00025eb0       ?type_case_Z@?$output_processor@_WV?$stream_output_adapter@_W@__crt_stdio_output@@V?$standard_base@_WV?$stream_output_adapter@_W@__crt_stdio_output@@@2@@__crt_stdio_output@@AAE_NXZ 10026eb0 f i libucrt:output.obj
 0001:00025eb0       ?type_case_Z@?$output_processor@_WV?$string_output_adapter@_W@__crt_stdio_output@@V?$standard_base@_WV?$string_output_adapter@_W@__crt_stdio_output@@@2@@__crt_stdio_output@@AAE_NXZ 10026eb0 f i libucrt:output.obj
 0001:00025f13       ?type_case_a@?$output_processor@DV?$stream_output_adapter@D@__crt_stdio_output@@V?$standard_base@DV?$stream_output_adapter@D@__crt_stdio_output@@@2@@__crt_stdio_output@@AAE_NXZ 10026f13 f i libucrt:output.obj
 0001:00025f13       ?type_case_a@?$output_processor@DV?$string_output_adapter@D@__crt_stdio_output@@V?$standard_base@DV?$string_output_adapter@D@__crt_stdio_output@@@2@@__crt_stdio_output@@AAE_NXZ 10026f13 f i libucrt:output.obj
 0001:0002606d       ?type_case_a@?$output_processor@_WV?$string_output_adapter@_W@__crt_stdio_output@@V?$standard_base@_WV?$string_output_adapter@_W@__crt_stdio_output@@@2@@__crt_stdio_output@@AAE_NXZ 1002706d f i libucrt:output.obj
 0001:0002606d       ?type_case_a@?$output_processor@_WV?$stream_output_adapter@_W@__crt_stdio_output@@V?$standard_base@_WV?$stream_output_adapter@_W@__crt_stdio_output@@@2@@__crt_stdio_output@@AAE_NXZ 1002706d f i libucrt:output.obj
 0001:000261df       ?type_case_c_tchar@?$output_processor@DV?$stream_output_adapter@D@__crt_stdio_output@@V?$standard_base@DV?$stream_output_adapter@D@__crt_stdio_output@@@2@@__crt_stdio_output@@AAE_ND@Z 100271df f i libucrt:output.obj
 0001:000261df       ?type_case_c_tchar@?$output_processor@DV?$string_output_adapter@D@__crt_stdio_output@@V?$standard_base@DV?$string_output_adapter@D@__crt_stdio_output@@@2@@__crt_stdio_output@@AAE_ND@Z 100271df f i libucrt:output.obj
 0001:0002626f       ?type_case_c_tchar@?$output_processor@_WV?$stream_output_adapter@_W@__crt_stdio_output@@V?$standard_base@_WV?$stream_output_adapter@_W@__crt_stdio_output@@@2@@__crt_stdio_output@@AAE_N_W@Z 1002726f f i libucrt:output.obj
 0001:0002626f       ?type_case_c_tchar@?$output_processor@_WV?$string_output_adapter@_W@__crt_stdio_output@@V?$standard_base@_WV?$string_output_adapter@_W@__crt_stdio_output@@@2@@__crt_stdio_output@@AAE_N_W@Z 1002726f f i libucrt:output.obj
 0001:00026307       ?type_case_integer@?$output_processor@_WV?$stream_output_adapter@_W@__crt_stdio_output@@V?$standard_base@_WV?$stream_output_adapter@_W@__crt_stdio_output@@@2@@__crt_stdio_output@@AAE_NI_N@Z 10027307 f i libucrt:output.obj
 0001:00026307       ?type_case_integer@?$output_processor@_WV?$string_output_adapter@_W@__crt_stdio_output@@V?$standard_base@_WV?$string_output_adapter@_W@__crt_stdio_output@@@2@@__crt_stdio_output@@AAE_NI_N@Z 10027307 f i libucrt:output.obj
 0001:00026307       ?type_case_integer@?$output_processor@DV?$string_output_adapter@D@__crt_stdio_output@@V?$standard_base@DV?$string_output_adapter@D@__crt_stdio_output@@@2@@__crt_stdio_output@@AAE_NI_N@Z 10027307 f i libucrt:output.obj
 0001:00026307       ?type_case_integer@?$output_processor@DV?$stream_output_adapter@D@__crt_stdio_output@@V?$standard_base@DV?$stream_output_adapter@D@__crt_stdio_output@@@2@@__crt_stdio_output@@AAE_NI_N@Z 10027307 f i libucrt:output.obj
 0001:00026451       ?type_case_n@?$output_processor@_WV?$stream_output_adapter@_W@__crt_stdio_output@@V?$standard_base@_WV?$stream_output_adapter@_W@__crt_stdio_output@@@2@@__crt_stdio_output@@AAE_NXZ 10027451 f i libucrt:output.obj
 0001:00026451       ?type_case_n@?$output_processor@_WV?$string_output_adapter@_W@__crt_stdio_output@@V?$standard_base@_WV?$string_output_adapter@_W@__crt_stdio_output@@@2@@__crt_stdio_output@@AAE_NXZ 10027451 f i libucrt:output.obj
 0001:00026451       ?type_case_n@?$output_processor@DV?$stream_output_adapter@D@__crt_stdio_output@@V?$standard_base@DV?$stream_output_adapter@D@__crt_stdio_output@@@2@@__crt_stdio_output@@AAE_NXZ 10027451 f i libucrt:output.obj
 0001:00026451       ?type_case_n@?$output_processor@DV?$string_output_adapter@D@__crt_stdio_output@@V?$standard_base@DV?$string_output_adapter@D@__crt_stdio_output@@@2@@__crt_stdio_output@@AAE_NXZ 10027451 f i libucrt:output.obj
 0001:000264c5       ?type_case_o@?$output_processor@_WV?$stream_output_adapter@_W@__crt_stdio_output@@V?$standard_base@_WV?$stream_output_adapter@_W@__crt_stdio_output@@@2@@__crt_stdio_output@@AAE_NXZ 100274c5 f i libucrt:output.obj
 0001:000264c5       ?type_case_o@?$output_processor@DV?$string_output_adapter@D@__crt_stdio_output@@V?$standard_base@DV?$string_output_adapter@D@__crt_stdio_output@@@2@@__crt_stdio_output@@AAE_NXZ 100274c5 f i libucrt:output.obj
 0001:000264c5       ?type_case_o@?$output_processor@_WV?$string_output_adapter@_W@__crt_stdio_output@@V?$standard_base@_WV?$string_output_adapter@_W@__crt_stdio_output@@@2@@__crt_stdio_output@@AAE_NXZ 100274c5 f i libucrt:output.obj
 0001:000264c5       ?type_case_o@?$output_processor@DV?$stream_output_adapter@D@__crt_stdio_output@@V?$standard_base@DV?$stream_output_adapter@D@__crt_stdio_output@@@2@@__crt_stdio_output@@AAE_NXZ 100274c5 f i libucrt:output.obj
 0001:000264e4       ?type_case_p@?$output_processor@DV?$string_output_adapter@D@__crt_stdio_output@@V?$standard_base@DV?$string_output_adapter@D@__crt_stdio_output@@@2@@__crt_stdio_output@@AAE_NXZ 100274e4 f i libucrt:output.obj
 0001:000264e4       ?type_case_p@?$output_processor@DV?$stream_output_adapter@D@__crt_stdio_output@@V?$standard_base@DV?$stream_output_adapter@D@__crt_stdio_output@@@2@@__crt_stdio_output@@AAE_NXZ 100274e4 f i libucrt:output.obj
 0001:000264e4       ?type_case_p@?$output_processor@_WV?$string_output_adapter@_W@__crt_stdio_output@@V?$standard_base@_WV?$string_output_adapter@_W@__crt_stdio_output@@@2@@__crt_stdio_output@@AAE_NXZ 100274e4 f i libucrt:output.obj
 0001:000264e4       ?type_case_p@?$output_processor@_WV?$stream_output_adapter@_W@__crt_stdio_output@@V?$standard_base@_WV?$stream_output_adapter@_W@__crt_stdio_output@@@2@@__crt_stdio_output@@AAE_NXZ 100274e4 f i libucrt:output.obj
 0001:000264fc       ?type_case_s@?$output_processor@DV?$string_output_adapter@D@__crt_stdio_output@@V?$standard_base@DV?$string_output_adapter@D@__crt_stdio_output@@@2@@__crt_stdio_output@@AAE_NXZ 100274fc f i libucrt:output.obj
 0001:000264fc       ?type_case_s@?$output_processor@DV?$stream_output_adapter@D@__crt_stdio_output@@V?$standard_base@DV?$stream_output_adapter@D@__crt_stdio_output@@@2@@__crt_stdio_output@@AAE_NXZ 100274fc f i libucrt:output.obj
 0001:0002656f       ?type_case_s@?$output_processor@_WV?$string_output_adapter@_W@__crt_stdio_output@@V?$standard_base@_WV?$string_output_adapter@_W@__crt_stdio_output@@@2@@__crt_stdio_output@@AAE_NXZ 1002756f f i libucrt:output.obj
 0001:0002656f       ?type_case_s@?$output_processor@_WV?$stream_output_adapter@_W@__crt_stdio_output@@V?$standard_base@_WV?$stream_output_adapter@_W@__crt_stdio_output@@@2@@__crt_stdio_output@@AAE_NXZ 1002756f f i libucrt:output.obj
 0001:000265e3       ?type_case_s_compute_narrow_string_length@?$output_processor@_WV?$string_output_adapter@_W@__crt_stdio_output@@V?$standard_base@_WV?$string_output_adapter@_W@__crt_stdio_output@@@2@@__crt_stdio_output@@ABEHH_W@Z 100275e3 f i libucrt:output.obj
 0001:000265e3       ?type_case_s_compute_narrow_string_length@?$output_processor@_WV?$stream_output_adapter@_W@__crt_stdio_output@@V?$standard_base@_WV?$stream_output_adapter@_W@__crt_stdio_output@@@2@@__crt_stdio_output@@ABEHH_W@Z 100275e3 f i libucrt:output.obj
 0001:00026623       ?validate@?$stream_output_adapter@D@__crt_stdio_output@@QBE_NXZ 10027623 f i libucrt:output.obj
 0001:00026644       ?validate@?$string_output_adapter@D@__crt_stdio_output@@QBE_NXZ 10027644 f i libucrt:output.obj
 0001:00026644       ?validate@?$c_string_character_source@D@__crt_strtox@@QBE_NXZ 10027644 f i libucrt:atox.obj
 0001:00026644       ?validate@?$stream_output_adapter@_W@__crt_stdio_output@@QBE_NXZ 10027644 f i libucrt:output.obj
 0001:00026644       ?validate@?$string_output_adapter@_W@__crt_stdio_output@@QBE_NXZ 10027644 f i libucrt:output.obj
 0001:00026644       ?validate@?$c_string_character_source@_W@__crt_strtox@@QBE_NXZ 10027644 f i libucrt:atox.obj
 0001:0002665f       ?validate_stream_is_ansi_if_required@?$__acrt_stdio_char_traits@D@@SA_NQAU_iobuf@@@Z 1002765f f i libucrt:output.obj
 0001:000266e1       ?write_character@?$stream_output_adapter@D@__crt_stdio_output@@QBEXDQAH@Z 100276e1 f i libucrt:output.obj
 0001:0002671e       ?write_character@?$stream_output_adapter@_W@__crt_stdio_output@@QBEX_WQAH@Z 1002771e f i libucrt:output.obj
 0001:0002675e       ?write_character@?$string_output_adapter@D@__crt_stdio_output@@QBE_NDQAH@Z 1002775e f i libucrt:output.obj
 0001:000267a0       ?write_character@?$string_output_adapter@_W@__crt_stdio_output@@QBE_N_WQAH@Z 100277a0 f i libucrt:output.obj
 0001:000267e5       ?write_stored_string_tchar@?$output_processor@DV?$stream_output_adapter@D@__crt_stdio_output@@V?$standard_base@DV?$stream_output_adapter@D@__crt_stdio_output@@@2@@__crt_stdio_output@@AAE_ND@Z 100277e5 f i libucrt:output.obj
 0001:0002688c       ?write_stored_string_tchar@?$output_processor@DV?$string_output_adapter@D@__crt_stdio_output@@V?$standard_base@DV?$string_output_adapter@D@__crt_stdio_output@@@2@@__crt_stdio_output@@AAE_ND@Z 1002788c f i libucrt:output.obj
 0001:00026933       ?write_stored_string_tchar@?$output_processor@_WV?$stream_output_adapter@_W@__crt_stdio_output@@V?$standard_base@_WV?$stream_output_adapter@_W@__crt_stdio_output@@@2@@__crt_stdio_output@@AAE_N_W@Z 10027933 f i libucrt:output.obj
 0001:000269be       ?write_stored_string_tchar@?$output_processor@_WV?$string_output_adapter@_W@__crt_stdio_output@@V?$standard_base@_WV?$string_output_adapter@_W@__crt_stdio_output@@@2@@__crt_stdio_output@@AAE_N_W@Z 100279be f i libucrt:output.obj
 0001:00026a49       ?write_string@?$stream_output_adapter@D@__crt_stdio_output@@QBEXQBDHQAH1@Z 10027a49 f i libucrt:output.obj
 0001:00026ad3       ?write_string@?$stream_output_adapter@_W@__crt_stdio_output@@QBEXQB_WHQAH1@Z 10027ad3 f i libucrt:output.obj
 0001:00026b60       ?write_string@?$string_output_adapter@D@__crt_stdio_output@@QBEXQBDHQAH1@Z 10027b60 f i libucrt:output.obj
 0001:00026bf3       ?write_string@?$string_output_adapter@_W@__crt_stdio_output@@QBEXQB_WHQAH1@Z 10027bf3 f i libucrt:output.obj
 0001:00026c8d       ___stdio_common_vfprintf   10027c8d f   libucrt:output.obj
 0001:00026d04       ___stdio_common_vfwprintf  10027d04 f   libucrt:output.obj
 0001:00026d7b       ___stdio_common_vsprintf   10027d7b f   libucrt:output.obj
 0001:00026d9f       ___stdio_common_vswprintf  10027d9f f   libucrt:output.obj
 0001:00026dc3       _free                      10027dc3 f   libucrt:free.obj
 0001:00026dc8       _malloc                    10027dc8 f   libucrt:malloc.obj
 0001:00026dd3       ___acrt_initialize_stdio   10027dd3 f   libucrt:_file.obj
 0001:00026e9b       ___acrt_iob_func           10027e9b f   libucrt:_file.obj
 0001:00026eab       ___acrt_uninitialize_stdio 10027eab f   libucrt:_file.obj
 0001:00026ef7       __lock_file                10027ef7 f   libucrt:_file.obj
 0001:00026f0b       __unlock_file              10027f0b f   libucrt:_file.obj
 0001:00026f1f       ??$is_overflow_condition@K@__crt_strtox@@YA_NIK@Z 10027f1f f i libucrt:atox.obj
 0001:00026f52       ??$parse_integer@KV?$c_string_character_source@D@__crt_strtox@@@__crt_strtox@@YAKQAU__crt_locale_pointers@@V?$c_string_character_source@D@0@H_N@Z 10027f52 f i libucrt:atox.obj
 0001:0002717a       ??$parse_integer@KV?$c_string_character_source@_W@__crt_strtox@@@__crt_strtox@@YAKQAU__crt_locale_pointers@@V?$c_string_character_source@_W@0@H_N@Z 1002817a f i libucrt:atox.obj
 0001:0002785f       ?unget@?$c_string_character_source@D@__crt_strtox@@QAEXD@Z 1002885f f i libucrt:atox.obj
 0001:00027887       ?unget@?$c_string_character_source@_W@__crt_strtox@@QAEX_W@Z 10028887 f i libucrt:atox.obj
 0001:000278b3       __chvalidchk_l             100288b3 f i libucrt:atox.obj
 0001:000278dd       __ischartype_l             100288dd f i libucrt:atox.obj
 0001:00027910       _atoi                      10028910 f   libucrt:atox.obj
 0001:0002793a       __isalpha_l                1002893a f i libucrt:_ctype.obj
 0001:00027975       __isdigit_l                10028975 f i libucrt:_ctype.obj
 0001:000279ad       __isspace_l                100289ad f i libucrt:_ctype.obj
 0001:000279e5       _isalpha                   100289e5 f i libucrt:_ctype.obj
 0001:00027a14       _isdigit                   10028a14 f i libucrt:_ctype.obj
 0001:00027a41       _isspace                   10028a41 f i libucrt:_ctype.obj
 0001:00027a6e       _calloc                    10028a6e f   libucrt:calloc.obj
 0001:00027ada       ___acrt_initialize_clock   10028ada f   libucrt:clock.obj
 0001:00027b40       _clock                     10028b40 f   libucrt:clock.obj
 0001:00027c67       _fgets                     10028c67 f   libucrt:fgets.obj
 0001:00027c72       __fread_nolock_s           10028c72 f   libucrt:fread.obj
 0001:00027e3e       _fread                     10028e3e f   libucrt:fread.obj
 0001:00027e5b       _fread_s                   10028e5b f   libucrt:fread.obj
 0001:00027eee       ___acrt_initialize_new_handler 10028eee f   libucrt:new_handler.obj
 0001:00027f02       __callnewh                 10028f02 f   libucrt:new_handler.obj
 0001:00027f46       __query_new_handler        10028f46 f   libucrt:new_handler.obj
 0001:00027f98       __initterm                 10028f98 f   libucrt:initterm.obj
 0001:00027ff4       __initterm_e               10028ff4 f   libucrt:initterm.obj
 0001:00028039       __seh_filter_dll           10029039 f   libucrt:exception_filter.obj
 0001:00028059       __seh_filter_exe           10029059 f   libucrt:exception_filter.obj
 0001:000283e7       ___acrt_initialize_thread_local_exit_callback 100293e7 f   libucrt:exit.obj
 0001:000283f6       __cexit                    100293f6 f   libucrt:exit.obj
 0001:00028405       __exit                     10029405 f   libucrt:exit.obj
 0001:0002841b       __is_c_termination_complete 1002941b f   libucrt:exit.obj
 0001:000286ba       ___acrt_allocate_buffer_for_argv 100296ba f   libucrt:argv_parsing.obj
 0001:0002870f       __configure_narrow_argv    1002970f f   libucrt:argv_parsing.obj
 0001:00028921       ??$uninitialize@A6AXAAPAPA_W@Z@?$dual_state_global@PAPA_W@__crt_state_management@@QAEXA6AXAAPAPA_W@Z@Z 10029921 f i libucrt:environment_initialization.obj
 0001:00028921       ??$uninitialize@A6AXAAPAPAD@Z@?$dual_state_global@PAPAD@__crt_state_management@@QAEXA6AXAAPAPAD@Z@Z 10029921 f i libucrt:environment_initialization.obj
 0001:00028997       ___dcrt_get_or_create_narrow_environment_nolock 10029997 f   libucrt:environment_initialization.obj
 0001:0002899c       ___dcrt_uninitialize_environments_nolock 1002999c f   libucrt:environment_initialization.obj
 0001:000289d3       __initialize_narrow_environment 100299d3 f   libucrt:environment_initialization.obj
 0001:000289d8       ??$?RV<lambda_800076c951b434888f4765a74a194fcc>@@AAV<lambda_4e60a939b0d047cfe11ddc22648dfba9>@@V<lambda_6dbb1268764f43b569ce7b67e331d33a>@@@?$__crt_seh_guarded_call@H@@QAEH$$QAV<lambda_800076c951b434888f4765a74a194fcc>@@AAV<lambda_4e60a939b0d047cfe11ddc22648dfba9>@@$$QAV<lambda_6dbb1268764f43b569ce7b67e331d33a>@@@Z 100299d8 f i libucrt:onexit.obj
 0001:00028a29       ??$?RV<lambda_995298e7d72eb4c2aab26c0585b3abe5>@@AAV<lambda_275893d493268fdec8709772e3fcec0e>@@V<lambda_293819299cbf9a7022e18b56a874bb5c>@@@?$__crt_seh_guarded_call@H@@QAEH$$QAV<lambda_995298e7d72eb4c2aab26c0585b3abe5>@@AAV<lambda_275893d493268fdec8709772e3fcec0e>@@$$QAV<lambda_293819299cbf9a7022e18b56a874bb5c>@@@Z 10029a29 f i libucrt:onexit.obj
 0001:00028a7a       ??$__acrt_lock_and_call@V<lambda_275893d493268fdec8709772e3fcec0e>@@@@YAHW4__acrt_lock_id@@$$QAV<lambda_275893d493268fdec8709772e3fcec0e>@@@Z 10029a7a f i libucrt:onexit.obj
 0001:00028aa2       ??$__acrt_lock_and_call@V<lambda_4e60a939b0d047cfe11ddc22648dfba9>@@@@YAHW4__acrt_lock_id@@$$QAV<lambda_4e60a939b0d047cfe11ddc22648dfba9>@@@Z 10029aa2 f i libucrt:onexit.obj
 0001:00028aca       ??$__crt_fast_encode_pointer@P6AHXZ@@YAP6AHXZQ6AHXZ@Z 10029aca f i libucrt:onexit.obj
 0001:00028d4a       __crt_atexit               10029d4a f   libucrt:onexit.obj
 0001:00028d60       __execute_onexit_table     10029d60 f   libucrt:onexit.obj
 0001:00028d7d       __initialize_onexit_table  10029d7d f   libucrt:onexit.obj
 0001:00028dba       __register_onexit_function 10029dba f   libucrt:onexit.obj
 0001:00028e12       ___acrt_uninitialize_command_line 10029e12 f   libucrt:argv_data.obj
 0001:00028ed2       ___acrt_initialize         10029ed2 f   libucrt:initialization.obj
 0001:00028ee4       ___acrt_thread_attach      10029ee4 f   libucrt:initialization.obj
 0001:00028eef       ___acrt_thread_detach      10029eef f   libucrt:initialization.obj
 0001:00028ef7       ___acrt_uninitialize       10029ef7 f   libucrt:initialization.obj
 0001:00028f09       ___acrt_uninitialize_critical 10029f09 f   libucrt:initialization.obj
 0001:00028f1b       _terminate                 10029f1b f   libucrt:terminate.obj
 0001:00028f57       _abort                     10029f57 f   libucrt:abort.obj
 0001:00028f9a       _strcpy_s                  10029f9a f   libucrt:strcpy_s.obj
 0001:00028ff4       __free_base                10029ff4 f   libucrt:free_base.obj
 0001:0002902e       __malloc_base              1002a02e f   libucrt:malloc_base.obj
 0001:0002907c       __calloc_base              1002a07c f   libucrt:calloc_base.obj
 0001:000290d9       __query_app_type           1002a0d9 f   libucrt:report_runtime_error.obj
 0001:000290df       ___acrt_errno_from_os_error 1002a0df f   libucrt:errno.obj
 0001:00029122       ___acrt_errno_map_os_error 1002a122 f   libucrt:errno.obj
 0001:00029145       ___doserrno                1002a145 f   libucrt:errno.obj
 0001:00029158       __errno                    1002a158 f   libucrt:errno.obj
 0001:00029258       __itow_s                   1002a258 f   libucrt:xtoa.obj
 0001:0002928d       __set_error_mode           1002a28d f   libucrt:set_error_mode.obj
 0001:000292cc       _wcscat_s                  1002a2cc f   libucrt:wcscat_s.obj
 0001:00029341       _wcscpy_s                  1002a341 f   libucrt:wcscpy_s.obj
 0001:0002948e       _wcsncat_s                 1002a48e f   libucrt:wcsncat_s.obj
 0001:00029594       ___acrt_show_wide_message_box 1002a594 f   libucrt:crtmbox.obj
 0001:0002959f       ___acrt_stdio_flush_nolock 1002a59f f   libucrt:fflush.obj
 0001:00029605       __fflush_nolock            1002a605 f   libucrt:fflush.obj
 0001:0002964c       __flushall                 1002a64c f   libucrt:fflush.obj
 0001:0002972d       _fflush                    1002a72d f   libucrt:fflush.obj
 0001:00029786       ??$?RV<lambda_d92cfe8357b99225085016881b624cb0>@@AAV<lambda_b721fa326cdb32351d23dfa67958c160>@@V<lambda_42d75b0848218ec137fa420c8ba9fdf9>@@@?$__crt_seh_guarded_call@H@@QAEH$$QAV<lambda_d92cfe8357b99225085016881b624cb0>@@AAV<lambda_b721fa326cdb32351d23dfa67958c160>@@$$QAV<lambda_42d75b0848218ec137fa420c8ba9fdf9>@@@Z 1002a786 f i libucrt:setvbuf.obj
 0001:000297d7       ??$__acrt_lock_stream_and_call@V<lambda_b721fa326cdb32351d23dfa67958c160>@@@@YAHQAU_iobuf@@$$QAV<lambda_b721fa326cdb32351d23dfa67958c160>@@@Z 1002a7d7 f i libucrt:setvbuf.obj
 0001:000298cc       _setvbuf                   1002a8cc f   libucrt:setvbuf.obj
 0001:00029942       ??$?RV<lambda_a048d3beccc847880fc8490e18b82769>@@AAV<lambda_ec61778202f4f5fc7e7711acc23c3bca>@@V<lambda_f7496a158712204296dd6628a163878e>@@@?$__crt_seh_guarded_call@P6AXH@Z@@QAEP6AXH@Z$$QAV<lambda_a048d3beccc847880fc8490e18b82769>@@AAV<lambda_ec61778202f4f5fc7e7711acc23c3bca>@@$$QAV<lambda_f7496a158712204296dd6628a163878e>@@@Z 1002a942 f i libucrt:signal.obj
 0001:0002999c       ??$__acrt_lock_and_call@V<lambda_ec61778202f4f5fc7e7711acc23c3bca>@@@@YAP6AXH@ZW4__acrt_lock_id@@$$QAV<lambda_ec61778202f4f5fc7e7711acc23c3bca>@@@Z 1002a99c f i libucrt:signal.obj
 0001:00029a06       ?initialize@?$dual_state_global@PAU__crt_locale_data@@@__crt_state_management@@QAEXQAU__crt_locale_data@@@Z 1002aa06 f i libucrt:initialization.obj
 0001:00029a06       ?initialize@?$dual_state_global@P6AHI@Z@__crt_state_management@@QAEXQ6AHI@Z@Z 1002aa06 f i libucrt:new_handler.obj
 0001:00029a06       ?initialize@?$dual_state_global@P6AXPB_W00II@Z@__crt_state_management@@QAEXQ6AXPB_W00II@Z@Z 1002aa06 f i libucrt:invalid_parameter.obj
 0001:00029a06       ?initialize@?$dual_state_global@P6AHPAU_exception@@@Z@__crt_state_management@@QAEXQ6AHPAU_exception@@@Z@Z 1002aa06 f i libucrt:matherr.obj
 0001:00029a06       ?initialize@?$dual_state_global@P6AXH@Z@__crt_state_management@@QAEXQ6AXH@Z@Z 1002aa06 f i libucrt:signal.obj
 0001:00029a06       ?initialize@?$dual_state_global@PAPAD@__crt_state_management@@QAEXQAPAD@Z 1002aa06 f i libucrt:environment_initialization.obj
 0001:00029a5f       ___acrt_get_sigabrt_handler 1002aa5f f   libucrt:signal.obj
 0001:00029a76       ___acrt_initialize_signal_handlers 1002aa76 f   libucrt:signal.obj
 0001:00029ab1       ___fpecode                 1002aab1 f   libucrt:signal.obj
 0001:00029aba       _raise                     1002aaba f   libucrt:signal.obj
 0001:00029cc2       ??$?RV<lambda_3518db117f0e7cdb002338c5d3c47b6c>@@AAV<lambda_b2ea41f6bbb362cd97d94c6828d90b61>@@V<lambda_abdedf541bb04549bc734292b4a045d4>@@@?$__crt_seh_guarded_call@X@@QAEX$$QAV<lambda_3518db117f0e7cdb002338c5d3c47b6c>@@AAV<lambda_b2ea41f6bbb362cd97d94c6828d90b61>@@$$QAV<lambda_abdedf541bb04549bc734292b4a045d4>@@@Z 1002acc2 f i libucrt:per_thread_data.obj
 0001:00029d12       ??$?RV<lambda_51b6e8b1eb166f2a3faf91f424b38130>@@AAV<lambda_6250bd4b2a391816dd638c3bf72b0bcb>@@V<lambda_0b5a4a3e68152e1d9b943535f5f47bed>@@@?$__crt_seh_guarded_call@X@@QAEX$$QAV<lambda_51b6e8b1eb166f2a3faf91f424b38130>@@AAV<lambda_6250bd4b2a391816dd638c3bf72b0bcb>@@$$QAV<lambda_0b5a4a3e68152e1d9b943535f5f47bed>@@@Z 1002ad12 f i libucrt:per_thread_data.obj
 0001:00029d73       ??$?RV<lambda_5b71d36f03204c0beab531769a5b5694>@@AAV<lambda_be2b3da3f62db62e9dad5dc70221a656>@@V<lambda_8f9ce462984622f9bf76b59e2aaaf805>@@@?$__crt_seh_guarded_call@X@@QAEX$$QAV<lambda_5b71d36f03204c0beab531769a5b5694>@@AAV<lambda_be2b3da3f62db62e9dad5dc70221a656>@@$$QAV<lambda_8f9ce462984622f9bf76b59e2aaaf805>@@@Z 1002ad73 f i libucrt:per_thread_data.obj
 0001:00029dbe       ??$?RV<lambda_9df27f884b057bc3edfc946cb5b7cf47>@@AAV<lambda_e69574bed617af4e071282c136b37893>@@V<lambda_cc0d902bcbbeb830f749456577db4721>@@@?$__crt_seh_guarded_call@X@@QAEX$$QAV<lambda_9df27f884b057bc3edfc946cb5b7cf47>@@AAV<lambda_e69574bed617af4e071282c136b37893>@@$$QAV<lambda_cc0d902bcbbeb830f749456577db4721>@@@Z 1002adbe f i libucrt:per_thread_data.obj
 0001:00029e06       ??$__acrt_lock_and_call@V<lambda_6250bd4b2a391816dd638c3bf72b0bcb>@@@@YAXW4__acrt_lock_id@@$$QAV<lambda_6250bd4b2a391816dd638c3bf72b0bcb>@@@Z 1002ae06 f i libucrt:per_thread_data.obj
 0001:00029e2e       ??$__acrt_lock_and_call@V<lambda_b2ea41f6bbb362cd97d94c6828d90b61>@@@@YAXW4__acrt_lock_id@@$$QAV<lambda_b2ea41f6bbb362cd97d94c6828d90b61>@@@Z 1002ae2e f i libucrt:per_thread_data.obj
 0001:00029e56       ??$__acrt_lock_and_call@V<lambda_be2b3da3f62db62e9dad5dc70221a656>@@@@YAXW4__acrt_lock_id@@$$QAV<lambda_be2b3da3f62db62e9dad5dc70221a656>@@@Z 1002ae56 f i libucrt:per_thread_data.obj
 0001:00029e7e       ??$__acrt_lock_and_call@V<lambda_e69574bed617af4e071282c136b37893>@@@@YAXW4__acrt_lock_id@@$$QAV<lambda_e69574bed617af4e071282c136b37893>@@@Z 1002ae7e f i libucrt:per_thread_data.obj
 0001:0002a034       ___acrt_freeptd            1002b034 f   libucrt:per_thread_data.obj
 0001:0002a060       ___acrt_getptd             1002b060 f   libucrt:per_thread_data.obj
 0001:0002a0e4       ___acrt_getptd_noexit      1002b0e4 f   libucrt:per_thread_data.obj
 0001:0002a169       ___acrt_initialize_ptd     1002b169 f   libucrt:per_thread_data.obj
 0001:0002a195       ___acrt_uninitialize_ptd   1002b195 f   libucrt:per_thread_data.obj
 0001:0002a1af       ?__acrt_stdio_allocate_stream@@YA?AV__crt_stdio_stream@@XZ 1002b1af f   libucrt:stream.obj
 0001:0002a20e       ?__acrt_stdio_free_stream@@YAXV__crt_stdio_stream@@@Z 1002b20e f   libucrt:stream.obj
 0001:0002a30c       ??$__acrt_stdio_parse_mode@D@@YA?AU__acrt_stdio_stream_mode@@QBD@Z 1002b30c f i libucrt:openfile.obj
 0001:0002a5c3       ?__acrt_stdio_parse_mode_D@@YA_NAAU__acrt_stdio_stream_mode@@@Z 1002b5c3 f i libucrt:openfile.obj
 0001:0002a5de       ?__acrt_stdio_parse_mode_T@@YA_NAAU__acrt_stdio_stream_mode@@@Z 1002b5de f i libucrt:openfile.obj
 0001:0002a5fd       ?__acrt_stdio_parse_mode_b@@YA_NAAU__acrt_stdio_stream_mode@@@Z 1002b5fd f i libucrt:openfile.obj
 0001:0002a61d       ?__acrt_stdio_parse_mode_c@@YA_NAAU__acrt_stdio_stream_mode@@AA_N@Z 1002b61d f i libucrt:openfile.obj
 0001:0002a63f       ?__acrt_stdio_parse_mode_n@@YA_NAAU__acrt_stdio_stream_mode@@AA_N@Z 1002b63f f i libucrt:openfile.obj
 0001:0002a661       ?__acrt_stdio_parse_mode_plus@@YA_NAAU__acrt_stdio_stream_mode@@AA_N@Z 1002b661 f i libucrt:openfile.obj
 0001:0002a696       ?__acrt_stdio_parse_mode_t@@YA_NAAU__acrt_stdio_stream_mode@@@Z 1002b696 f i libucrt:openfile.obj
 0001:0002a6b6       __openfile                 1002b6b6 f   libucrt:openfile.obj
 0001:0002a6c1       ??$?RV<lambda_123407a5e2ac06da108355a851863b7a>@@AAV<lambda_2fe9b910cf3cbf4a0ab98a02ba45b3ec>@@V<lambda_ae55bdf541ad94d75914d381c370e64d>@@@?$__crt_seh_guarded_call@H@@QAEH$$QAV<lambda_123407a5e2ac06da108355a851863b7a>@@AAV<lambda_2fe9b910cf3cbf4a0ab98a02ba45b3ec>@@$$QAV<lambda_ae55bdf541ad94d75914d381c370e64d>@@@Z 1002b6c1 f i libucrt:close.obj
 0001:0002a743       ??$__acrt_lowio_lock_fh_and_call@V<lambda_2fe9b910cf3cbf4a0ab98a02ba45b3ec>@@@@YAHH$$QAV<lambda_2fe9b910cf3cbf4a0ab98a02ba45b3ec>@@@Z 1002b743 f i libucrt:close.obj
 0001:0002a76b       __close                    1002b76b f   libucrt:close.obj
 0001:0002a7ea       __close_nolock             1002b7ea f   libucrt:close.obj
 0001:0002a886       __fileno                   1002b886 f   libucrt:fileno.obj
 0001:0002a8ac       ___acrt_stdio_free_buffer_nolock 1002b8ac f   libucrt:_freebuf.obj
 0001:0002a8ea       _iswctype                  1002b8ea f   libucrt:iswctype.obj
 0001:0002a949       ___acrt_update_locale_info 1002b949 f   libucrt:locale_update.obj
 0001:0002a976       ___acrt_update_multibyte_info 1002b976 f   libucrt:locale_update.obj
 0001:0002a9a3       ___acrt_set_locale_changed 1002b9a3 f   libucrt:wsetlocale.obj
 0001:0002a9ae       ___acrt_uninitialize_locale 1002b9ae f   libucrt:wsetlocale.obj
 0001:0002aa00       _strnlen                   1002ba00 f   libucrt:strnlen.obj
 0001:0002ab27       _wcsnlen                   1002bb27 f   libucrt:strnlen.obj
 0001:0002acde       __strnicoll                1002bcde f   libucrt:strnicol.obj
 0001:0002ad07       __strnicoll_l              1002bd07 f   libucrt:strnicol.obj
 0001:0002add1       ___acrt_initialize_locks   1002bdd1 f   libucrt:locks.obj
 0001:0002ae12       ___acrt_lock               1002be12 f   libucrt:locks.obj
 0001:0002ae29       ___acrt_uninitialize_locks 1002be29 f   libucrt:locks.obj
 0001:0002ae5a       ___acrt_unlock             1002be5a f   libucrt:locks.obj
 0001:0002afd8       __tolower_l                1002bfd8 f   libucrt:tolower_toupper.obj
 0001:0002aff2       _tolower                   1002bff2 f   libucrt:tolower_toupper.obj
 0001:0002b022       __realloc_base             1002c022 f   libucrt:realloc_base.obj
 0001:0002b08b       ??$make_c_string_character_source@D$$T@__crt_strtox@@YA?AV?$c_string_character_source@D@0@QBD$$T@Z 1002c08b f i libucrt:atox.obj
 0001:0002b08b       ??$make_c_string_character_source@DPAPAD@__crt_strtox@@YA?AV?$c_string_character_source@D@0@QBDQAPAD@Z 1002c08b f i libucrt:strtox.obj
 0001:0002b08b       ??$make_c_string_character_source@_WPAPA_W@__crt_strtox@@YA?AV?$c_string_character_source@_W@0@QB_WQAPA_W@Z 1002c08b f i libucrt:strtox.obj
 0001:0002b0a6       _strtol                    1002c0a6 f   libucrt:strtox.obj
 0001:0002b0d2       _wcstol                    1002c0d2 f   libucrt:strtox.obj
 0001:0002b0fe       __mbtowc_l                 1002c0fe f   libucrt:mbtowc.obj
 0001:0002b1f8       _mbtowc                    1002c1f8 f   libucrt:mbtowc.obj
 0001:0002b212       __wctomb_s_l               1002c212 f   libucrt:wctomb.obj
 0001:0002b333       _wctomb_s                  1002c333 f   libucrt:wctomb.obj
 0001:0002b350       ?__acrt_fp_classify@@YA?AW4__acrt_fp_class@@ABN@Z 1002c350 f i libucrt:cvt.obj
 0001:0002b3bc       ?__acrt_fp_is_negative@@YA_NABN@Z 1002c3bc f i libucrt:cvt.obj
 0001:0002bc1b       ___acrt_fp_format          1002cc1b f   libucrt:cvt.obj
 0001:0002bd97       __fputwc_nolock            1002cd97 f   libucrt:fputwc.obj
 0001:0002bebd       __fputc_nolock             1002cebd f   libucrt:fputc.obj
 0001:0002bee6       __get_printf_count_output  1002cee6 f   libucrt:printf_count_output.obj
 0001:0002befb       ___acrt_stdio_begin_temporary_buffering_nolock 1002cefb f   libucrt:_sftbuf.obj
 0001:0002bfb0       ___acrt_stdio_end_temporary_buffering_nolock 1002cfb0 f   libucrt:_sftbuf.obj
 0001:0002c155       ___acrt_initialize_lowio   1002d155 f   libucrt:ioinit.obj
 0001:0002c1ab       ___acrt_uninitialize_lowio 1002d1ab f   libucrt:ioinit.obj
 0001:0002c33c       ___acrt_AreFileApisANSI@0  1002d33c f   libucrt:winapi_thunks.obj
 0001:0002c38a       ___acrt_CompareStringEx@36 1002d38a f   libucrt:winapi_thunks.obj
 0001:0002c3fe       ___acrt_FlsAlloc@4         1002d3fe f   libucrt:winapi_thunks.obj
 0001:0002c454       ___acrt_FlsFree@4          1002d454 f   libucrt:winapi_thunks.obj
 0001:0002c4aa       ___acrt_FlsGetValue@4      1002d4aa f   libucrt:winapi_thunks.obj
 0001:0002c500       ___acrt_FlsSetValue@8      1002d500 f   libucrt:winapi_thunks.obj
 0001:0002c559       ___acrt_InitializeCriticalSectionEx@12 1002d559 f   libucrt:winapi_thunks.obj
 0001:0002c5bb       ___acrt_LCMapStringEx@36   1002d5bb f   libucrt:winapi_thunks.obj
 0001:0002c643       ___acrt_LocaleNameToLCID@8 1002d643 f   libucrt:winapi_thunks.obj
 0001:0002c69f       ___acrt_MessageBoxW@16     1002d69f f   libucrt:winapi_thunks.obj
 0001:0002c6e8       ___acrt_can_show_message_box 1002d6e8 f   libucrt:winapi_thunks.obj
 0001:0002c701       ___acrt_get_parent_window  1002d701 f   libucrt:winapi_thunks.obj
 0001:0002c780       ___acrt_initialize_winapi_thunks 1002d780 f   libucrt:winapi_thunks.obj
 0001:0002c7a6       ___acrt_is_interactive     1002d7a6 f   libucrt:winapi_thunks.obj
 0001:0002c84c       ___acrt_is_packaged_app    1002d84c f   libucrt:winapi_thunks.obj
 0001:0002c8d3       ___acrt_uninitialize_winapi_thunks 1002d8d3 f   libucrt:winapi_thunks.obj
 0001:0002c909       __fcloseall                1002d909 f   libucrt:closeall.obj
 0001:0002c9a9       ___pctype_func             1002d9a9 f   libucrt:ctype.obj
 0001:0002c9cf       __isctype_l                1002d9cf f   libucrt:isctype.obj
 0001:0002caa1       __fgetc_nolock             1002daa1 f   libucrt:fgetc.obj
 0001:0002cadd       __getc_nolock              1002dadd f   libucrt:fgetc.obj
 0001:0002cfd0       __read                     1002dfd0 f   libucrt:read.obj
 0001:0002d0e3       __read_nolock              1002e0e3 f   libucrt:read.obj
 0001:0002d619       ___acrt_stdio_refill_and_read_narrow_nolock 1002e619 f   libucrt:_filbuf.obj
 0001:0002d9e6       ??1?$argument_list@D@?A0xb0e4b824@@QAE@XZ 1002e9e6 f i libucrt:argv_wildcards.obj
 0001:0002da0b       ?append@?$argument_list@D@?A0xb0e4b824@@QAEHQAD@Z 1002ea0b f i libucrt:argv_wildcards.obj
 0001:0002da40       ?expand_if_necessary@?$argument_list@D@?A0xb0e4b824@@AAEHXZ 1002ea40 f i libucrt:argv_wildcards.obj
 0001:0002dac7       ___acrt_expand_narrow_argv_wildcards 1002eac7 f   libucrt:argv_wildcards.obj
 0001:0002dad2       ??$?RV<lambda_978dc153c237d78434369da87b74ff60>@@AAV<lambda_ad1ced32f4ac17aa236e5ef05d6b3b7c>@@V<lambda_4a8533e2866a575feecb8298ce776b0d>@@@?$__crt_seh_guarded_call@X@@QAEX$$QAV<lambda_978dc153c237d78434369da87b74ff60>@@AAV<lambda_ad1ced32f4ac17aa236e5ef05d6b3b7c>@@$$QAV<lambda_4a8533e2866a575feecb8298ce776b0d>@@@Z 1002ead2 f i libucrt:mbctype.obj
 0001:0002db15       ??$__acrt_lock_and_call@V<lambda_ad1ced32f4ac17aa236e5ef05d6b3b7c>@@@@YAXW4__acrt_lock_id@@$$QAV<lambda_ad1ced32f4ac17aa236e5ef05d6b3b7c>@@@Z 1002eb15 f i libucrt:mbctype.obj
 0001:0002dfac       ___acrt_initialize_multibyte 1002efac f   libucrt:mbctype.obj
 0001:0002dfca       ___acrt_update_thread_multibyte_data 1002efca f   libucrt:mbctype.obj
 0001:0002e06c       __setmbcp_nolock           1002f06c f   libucrt:mbctype.obj
 0001:0002e337       __ismbblead                1002f337 f   libucrt:ismbbyte.obj
 0001:0002e34f       ___acrt_initialize_command_line 1002f34f f   libucrt:argv_data.obj
 0001:0002e39f       ___dcrt_get_narrow_environment_from_os 1002f39f f   libucrt:get_environment_from_os.obj
 0001:0002e762       ___dcrt_set_variable_in_narrow_environment_nolock 1002f762 f   libucrt:setenv.obj
 0001:0002e76d       __recalloc                 1002f76d f   libucrt:recalloc.obj
 0001:0002e778       __recalloc_base            1002f778 f   libucrt:recalloc.obj
 0001:0002e7e5       ___acrt_initialize_heap    1002f7e5 f   libucrt:heap_handle.obj
 0001:0002e7f6       ___acrt_uninitialize_heap  1002f7f6 f   libucrt:heap_handle.obj
 0001:0002e800       ___acrt_execute_initializers 1002f800 f   libucrt:shared_initialization.obj
 0001:0002e883       ___acrt_execute_uninitializers 1002f883 f   libucrt:shared_initialization.obj
 0001:0002e8d0       ___acrt_has_user_matherr   1002f8d0 f   libucrt:matherr.obj
 0001:0002e8e9       ___acrt_initialize_user_matherr 1002f8e9 f   libucrt:matherr.obj
 0001:0002e8fd       ___acrt_invoke_user_matherr 1002f8fd f   libucrt:matherr.obj
 0001:0002e946       __query_new_mode           1002f946 f   libucrt:new_mode.obj
 0001:0002e94c       ??$?RV<lambda_61cee617f5178ae960314fd4d05640a0>@@AAV<lambda_6978c1fb23f02e42e1d9e99668cc68aa>@@V<lambda_9cd88cf8ad10232537feb2133f08c833>@@@?$__crt_seh_guarded_call@H@@QAEH$$QAV<lambda_61cee617f5178ae960314fd4d05640a0>@@AAV<lambda_6978c1fb23f02e42e1d9e99668cc68aa>@@$$QAV<lambda_9cd88cf8ad10232537feb2133f08c833>@@@Z 1002f94c f i libucrt:commit.obj
 0001:0002e9e4       ??$__acrt_lowio_lock_fh_and_call@V<lambda_6978c1fb23f02e42e1d9e99668cc68aa>@@@@YAHH$$QAV<lambda_6978c1fb23f02e42e1d9e99668cc68aa>@@@Z 1002f9e4 f i libucrt:commit.obj
 0001:0002ea0c       __commit                   1002fa0c f   libucrt:commit.obj
 0001:0002f00b       __write                    1003000b f   libucrt:write.obj
 0001:0002f0f6       __write_nolock             100300f6 f   libucrt:write.obj
 0001:0002f302       ___acrt_add_locale_ref     10030302 f   libucrt:locale_refcounting.obj
 0001:0002f37f       ___acrt_free_locale        1003037f f   libucrt:locale_refcounting.obj
 0001:0002f4c9       ___acrt_locale_add_lc_time_reference 100304c9 f   libucrt:locale_refcounting.obj
 0001:0002f4f2       ___acrt_locale_free_lc_time_if_unreferenced 100304f2 f   libucrt:locale_refcounting.obj
 0001:0002f522       ___acrt_locale_release_lc_time_reference 10030522 f   libucrt:locale_refcounting.obj
 0001:0002f54b       ___acrt_release_locale_ref 1003054b f   libucrt:locale_refcounting.obj
 0001:0002f5cc       ___acrt_update_thread_locale_data 100305cc f   libucrt:locale_refcounting.obj
 0001:0002f643       __updatetlocinfoEx_nolock  10030643 f   libucrt:locale_refcounting.obj
 0001:0002f693       __strnicmp                 10030693 f   libucrt:strnicmp.obj
 0001:0002f6ff       __strnicmp_l               100306ff f   libucrt:strnicmp.obj
 0001:0002fd90       __sopen_nolock             10030d90 f   libucrt:open.obj
 0001:0002fde1       __sopen_s                  10030de1 f   libucrt:open.obj
 0001:0002fe01       __wsopen_nolock            10030e01 f   libucrt:open.obj
 0001:0003012a       ___acrt_lowio_create_handle_array 1003112a f   libucrt:osfinfo.obj
 0001:000301a4       ___acrt_lowio_destroy_handle_array 100311a4 f   libucrt:osfinfo.obj
 0001:000301d9       ___acrt_lowio_ensure_fh_exists 100311d9 f   libucrt:osfinfo.obj
 0001:00030271       ___acrt_lowio_lock_fh      10031271 f   libucrt:osfinfo.obj
 0001:00030294       ___acrt_lowio_set_os_handle 10031294 f   libucrt:osfinfo.obj
 0001:00030328       ___acrt_lowio_unlock_fh    10031328 f   libucrt:osfinfo.obj
 0001:0003034b       __alloc_osfhnd             1003134b f   libucrt:osfinfo.obj
 0001:0003045d       __free_osfhnd              1003145d f   libucrt:osfinfo.obj
 0001:000304ee       __get_osfhandle            100314ee f   libucrt:osfinfo.obj
 0001:00030558       ___acrt_locale_free_monetary 10031558 f   libucrt:initmon.obj
 0001:00030656       ___acrt_locale_free_numeric 10031656 f   libucrt:initnum.obj
 0001:000306fb       ___acrt_locale_free_time   100316fb f   libucrt:inittime.obj
 0001:000307df       ___acrt_GetStringTypeA     100317df f   libucrt:getstringtypea.obj
 0001:000308fc       __freea_crt                100318fc f i libucrt:getstringtypea.obj
 0001:00030bc4       ___acrt_CompareStringA     10031bc4 f   libucrt:comparestringa.obj
 0001:00030e29       ___acrt_LCMapStringA       10031e29 f   libucrt:lcmapstringa.obj
 0001:00030e74       ___acrt_fp_strflt_to_string 10031e74 f   libucrt:_fptostr.obj
 0001:00030f30       ??0scoped_fp_state_reset@?A0x48fbfdd4@@QAE@XZ 10031f30 f i libucrt:cfout.obj
 0001:00030f60       ?divide@__crt_strtox@@YA_KAAUbig_integer@1@ABU21@@Z 10031f60 f i libucrt:cfout.obj
 0001:0003140e       ___acrt_fltout             1003240e f   libucrt:cfout.obj
 0001:00032b70       ___acrt_stdio_flush_and_write_narrow_nolock 10033b70 f   libucrt:_flsbuf.obj
 0001:00032b7b       ___acrt_stdio_flush_and_write_wide_nolock 10033b7b f   libucrt:_flsbuf.obj
 0001:00032b86       __isatty                   10033b86 f   libucrt:isatty.obj
 0001:00032c98       ___acrt_DownlevelLocaleNameToLCID 10033c98 f   libucrt:lcidtoname_downlevel.obj
 0001:00032e47       __lseeki64                 10033e47 f   libucrt:lseek.obj
 0001:00032e62       __lseeki64_nolock          10033e62 f   libucrt:lseek.obj
 0001:00032e7d       ___acrt_stdio_allocate_buffer_nolock 10033e7d f   libucrt:_getbuf.obj
 0001:00032fc0       _qsort                     10033fc0 f   libucrt:qsort.obj
 0001:0003340b       _strncpy_s                 1003440b f   libucrt:strncpy_s.obj
 0001:00033420       _strpbrk                   10034420 f   libucrt:strpbrk.obj
 0001:00033460       __mbsdec                   10034460 f   libucrt:mbsdec.obj
 0001:00033477       __mbsdec_l                 10034477 f   libucrt:mbsdec.obj
 0001:00033513       __msize                    10034513 f   libucrt:msize.obj
 0001:00033546       __putwch_nolock            10034546 f   libucrt:putwch.obj
 0001:00033590       ___ascii_strnicmp          10034590 f   libucrt:_strnicm.obj
 0001:000335f1       __get_fmode                100345f1 f   libucrt:setmode.obj
 0001:0003361d       __setmode_nolock           1003461d f   libucrt:setmode.obj
 0001:000336ee       ___acrt_copy_path_to_wide_string 100346ee f   libucrt:string_utilities.obj
 0001:000337b5       __chsize_nolock            100347b5 f   libucrt:chsize.obj
 0001:00033946       ___strncnt                 10034946 f   libucrt:strncnt.obj
 0001:00033962       _fegetenv                  10034962 f   libucrt:fegetenv.obj
 0001:0003397f       _fesetenv                  1003497f f   libucrt:fesetenv.obj
 0001:000339c8       _feholdexcept              100349c8 f   libucrt:feholdexcept.obj
 0001:00033a20       _log10                     10034a20 f   libucrt:log10.obj
 0001:00033a60       __CIlog10                  10034a60 f   libucrt:log10.obj
 0001:00033a9b       __CIlog10_default          10034a9b f   libucrt:log10.obj
 0001:00033aaf       __log10_default            10034aaf     libucrt:log10.obj
 0001:00033b70       _ceil                      10034b70 f   libucrt:ceil_pentium4.obj
 0001:00033bb0       __ceil_pentium4            10034bb0 f   libucrt:ceil_pentium4.obj
 0001:00033c8d       ___dcrt_lowio_initialize_console_output 10034c8d f   libucrt:initcon.obj
 0001:00033cac       ___dcrt_terminate_console_output 10034cac f   libucrt:initcon.obj
 0001:00033f66       __getfpcontrolword         10034f66 f   libucrt:_fenvutils.obj
 0001:00033fa9       __getfpstatusword          10034fa9 f   libucrt:_fenvutils.obj
 0001:00034051       __setfpcontrolword         10035051 f   libucrt:_fenvutils.obj
 0001:000340d1       __setfpstatusword          100350d1 f   libucrt:_fenvutils.obj
 0001:00034151       __clearfp                  10035151 f   libucrt:ieee87.obj
 0001:0003422f       ___acrt_initialize_sse2    1003522f f   libucrt:mathfcns.obj
 0001:00034240       __CIlog10_pentium4         10035240 f   libucrt:log10_pentium4.obj
 0001:00034258       __log10_pentium4           10035258     libucrt:log10_pentium4.obj
 0001:000344e1       __fFEXP                    100354e1     libucrt:87tran.obj
 0001:00034538       __rtinfpopse               10035538     libucrt:87tran.obj
 0001:0003453a       __rtinfnpopse              1003553a     libucrt:87tran.obj
 0001:0003454a       __fFLN                     1003554a     libucrt:87tran.obj
 0001:000345ff       __rtinfpop                 100355ff     libucrt:87tran.obj
 0001:00034601       __rtinfnpop                10035601     libucrt:87tran.obj
 0001:0003461e       __ffexpm1                  1003561e     libucrt:87tran.obj
 0001:000346d0       __trandisp1                100356d0 f   libucrt:87disp.obj
 0001:00034737       __trandisp2                10035737 f   libucrt:87disp.obj
 0001:000347c3       __rttospopde               100357c3     libucrt:87disp.obj
 0001:000347c8       __rttospop                 100357c8     libucrt:87disp.obj
 0001:000347ca       __rtnospop                 100357ca     libucrt:87disp.obj
 0001:000347cc       __rttosnpop                100357cc     libucrt:87disp.obj
 0001:000347cd       __rtnospopde               100357cd     libucrt:87disp.obj
 0001:000347d4       __rtzeropop                100357d4     libucrt:87disp.obj
 0001:000347d6       __rtzeronpop               100357d6     libucrt:87disp.obj
 0001:000347db       __rtzerospop               100357db     libucrt:87disp.obj
 0001:000347e8       __rtonepop                 100357e8     libucrt:87disp.obj
 0001:000347ea       __rtonenpop                100357ea     libucrt:87disp.obj
 0001:000347ef       __tosnan1                  100357ef     libucrt:87disp.obj
 0001:0003481a       __nosnan2                  1003581a     libucrt:87disp.obj
 0001:0003481c       __tosnan2                  1003581c     libucrt:87disp.obj
 0001:00034844       __nan2                     10035844     libucrt:87disp.obj
 0001:00034883       __rtindfpop                10035883     libucrt:87disp.obj
 0001:00034885       __rtindfnpop               10035885     libucrt:87disp.obj
 0001:00034896       __rttosnpopde              10035896     libucrt:87disp.obj
 0001:000348a0       __rtatan2inf               100358a0     libucrt:87disp.obj
 0001:000348bd       __rtchsifneg               100358bd     libucrt:87disp.obj
 0001:000348d0       __twoToTOS                 100358d0 f   libucrt:common.obj
 0001:000348e5       __load_CW                  100358e5 f   libucrt:common.obj
 0001:000348fc       __convertTOStoQNaN         100358fc f   libucrt:common.obj
 0001:00034915       __fload_withFB             10035915 f   libucrt:common.obj
 0001:00034958       __checkTOS_withFB          10035958 f   libucrt:common.obj
 0001:0003496e       __fast_exit                1003596e f   libucrt:common.obj
 0001:0003497b       __math_exit                1003597b f   libucrt:common.obj
 0001:000349a5       __check_overflow_exit      100359a5 f   libucrt:common.obj
 0001:000349b9       __check_range_exit         100359b9 f   libucrt:common.obj
 0001:00034a60       __startTwoArgErrorHandling 10035a60 f   libucrt:genexcep.obj
 0001:00034a77       __startOneArgErrorHandling 10035a77 f   libucrt:genexcep.obj
 0001:00034ab3       ___libm_error_support      10035ab3 f   libucrt:libm_error.obj
 0001:00034ccb       __ceil_default             10035ccb f   libucrt:ceil.obj
 0001:00034d84       __clrfp                    10035d84 f   libucrt:fpctrl.obj
 0001:00034d97       __ctrlfp                   10035d97 f   libucrt:fpctrl.obj
 0001:00034dc3       __set_statfp               10035dc3 f   libucrt:fpctrl.obj
 0001:00034e1e       __statfp                   10035e1e f   libucrt:fpctrl.obj
 0001:00034e30       __d_inttype                10035e30 f   libucrt:powhlp.obj
 0001:00034e9a       __powhlp                   10035e9a f   libucrt:powhlp.obj
 0001:00034fc5       __87except                 10035fc5 f   libucrt:87except.obj
 0001:000350d0       __frnd                     100360d0 f   libucrt:frnd.obj
 0001:000350e6       __errcode                  100360e6 f   libucrt:fpexcept.obj
 0001:0003511a       __except1                  1003611a f   libucrt:fpexcept.obj
 0001:000351e8       __handle_exc               100361e8 f   libucrt:fpexcept.obj
 0001:000353c8       __raise_exc                100363c8 f   libucrt:fpexcept.obj
 0001:000353eb       __raise_exc_ex             100363eb f   libucrt:fpexcept.obj
 0001:000356dc       __set_errno_from_matherr   100366dc f   libucrt:fpexcept.obj
 0001:0003570b       __umatherr                 1003670b f   libucrt:fpexcept.obj
 0001:000357ad       __decomp                   100367ad f   libucrt:util.obj
 0001:00035881       __set_exp                  10036881 f   libucrt:util.obj
 0001:000358b0       __sptype                   100368b0 f   libucrt:util.obj
 0001:0003590e       __fpclass                  1003690e f   libucrt:ieeemisc.obj
 0001:000359b2       _IsProcessorFeaturePresent@4 100369b2 f   kernel32:KERNEL32.dll
 0001:000359b8       _RtlUnwind@16              100369b8 f   kernel32:KERNEL32.dll
 0001:000359c0       __FindPESection            100369c0 f   LIBCMT:pesect.obj
 0001:00035a10       __IsNonwritableInCurrentImage 10036a10 f   LIBCMT:pesect.obj
 0001:00035ad0       __ValidateImageBase        10036ad0 f   LIBCMT:pesect.obj
 0001:00035b10       __aulldvrm                 10036b10 f   LIBCMT:ulldvrm.obj
 0001:00035bb0       __allmul                   10036bb0 f   LIBCMT:llmul.obj
 0001:00035bf0       __alldiv                   10036bf0 f   LIBCMT:lldiv.obj
 0001:00035ca0       __alldvrm                  10036ca0 f   LIBCMT:lldvrm.obj
 0001:00035d80       __SEH_prolog4_GS           10036d80 f   LIBCMT:_sehprolg4gs_.obj
 0001:00035dc9       __SEH_epilog4_GS           10036dc9 f   LIBCMT:_sehprolg4gs_.obj
 0001:00035de0       __aullshr                  10036de0 f   LIBCMT:ullshr.obj
 0001:00035e00       __alloca_probe             10036e00 f   LIBCMT:chkstk.obj
 0001:00035e00       __chkstk                   10036e00 f   LIBCMT:chkstk.obj
 0001:00035e30       __alloca_probe_16          10036e30 f   LIBCMT:alloca16.obj
 0001:00035e46       __alloca_probe_8           10036e46     LIBCMT:alloca16.obj
 0001:00035e60       __allshl                   10036e60 f   LIBCMT:llshl.obj
 0001:00035e80       __ftol2_sse                10036e80 f   LIBCMT:_ftol2_.obj
 0001:00035e89       __ftol2_pentium4           10036e89 f   LIBCMT:_ftol2_.obj
 0001:00035e9c       __ftol2_sse_excpt          10036e9c f   LIBCMT:_ftol2_.obj
 0001:00035ec0       __ftol2                    10036ec0 f   LIBCMT:_ftol2_.obj
 0001:00035f40       _memcpy                    10036f40 f   libvcruntime:memcpy.obj
 0001:000364c0       _strrchr                   100374c0 f   libvcruntime:strrchr.obj
 0002:00000000       __imp__MultiByteToWideChar@24 10038000     kernel32:KERNEL32.dll
 0002:00000004       __imp__WideCharToMultiByte@32 10038004     kernel32:KERNEL32.dll
 0002:00000008       __imp__SetEndOfFile@4      10038008     kernel32:KERNEL32.dll
 0002:0000000c       __imp__HeapSize@12         1003800c     kernel32:KERNEL32.dll
 0002:00000010       __imp__SetFilePointerEx@20 10038010     kernel32:KERNEL32.dll
 0002:00000014       __imp__SetStdHandle@8      10038014     kernel32:KERNEL32.dll
 0002:00000018       __imp__CreateFileW@28      10038018     kernel32:KERNEL32.dll
 0002:0000001c       __imp__GetConsoleCP@0      1003801c     kernel32:KERNEL32.dll
 0002:00000020       __imp__FlushFileBuffers@4  10038020     kernel32:KERNEL32.dll
 0002:00000024       __imp__GetProcessHeap@0    10038024     kernel32:KERNEL32.dll
 0002:00000028       __imp__SetEnvironmentVariableA@8 10038028     kernel32:KERNEL32.dll
 0002:0000002c       __imp__FreeEnvironmentStringsW@4 1003802c     kernel32:KERNEL32.dll
 0002:00000030       __imp__GetEnvironmentStringsW@0 10038030     kernel32:KERNEL32.dll
 0002:00000034       __imp__GetCommandLineW@0   10038034     kernel32:KERNEL32.dll
 0002:00000038       __imp__GetCommandLineA@0   10038038     kernel32:KERNEL32.dll
 0002:0000003c       __imp__GetCPInfo@8         1003803c     kernel32:KERNEL32.dll
 0002:00000040       __imp__GetOEMCP@0          10038040     kernel32:KERNEL32.dll
 0002:00000044       __imp__IsValidCodePage@4   10038044     kernel32:KERNEL32.dll
 0002:00000048       __imp__FindNextFileA@8     10038048     kernel32:KERNEL32.dll
 0002:0000004c       __imp__FindFirstFileExA@24 1003804c     kernel32:KERNEL32.dll
 0002:00000050       __imp__FindClose@4         10038050     kernel32:KERNEL32.dll
 0002:00000054       __imp__ReadConsoleW@20     10038054     kernel32:KERNEL32.dll
 0002:00000058       __imp__GetConsoleMode@8    10038058     kernel32:KERNEL32.dll
 0002:0000005c       __imp__ReadFile@20         1003805c     kernel32:KERNEL32.dll
 0002:00000060       __imp__LCMapStringW@24     10038060     kernel32:KERNEL32.dll
 0002:00000064       __imp__CompareStringW@24   10038064     kernel32:KERNEL32.dll
 0002:00000068       __imp__HeapReAlloc@16      10038068     kernel32:KERNEL32.dll
 0002:0000006c       __imp__GetACP@0            1003806c     kernel32:KERNEL32.dll
 0002:00000070       __imp__GetStringTypeW@16   10038070     kernel32:KERNEL32.dll
 0002:00000074       __imp__CreateThread@24     10038074     kernel32:KERNEL32.dll
 0002:00000078       __imp__WaitForSingleObjectEx@12 10038078     kernel32:KERNEL32.dll
 0002:0000007c       __imp__CloseHandle@4       1003807c     kernel32:KERNEL32.dll
 0002:00000080       __imp__OutputDebugStringW@4 10038080     kernel32:KERNEL32.dll
 0002:00000084       __imp__WriteFile@20        10038084     kernel32:KERNEL32.dll
 0002:00000088       __imp__HeapAlloc@12        10038088     kernel32:KERNEL32.dll
 0002:0000008c       __imp__HeapFree@12         1003808c     kernel32:KERNEL32.dll
 0002:00000090       __imp__ExitProcess@4       10038090     kernel32:KERNEL32.dll
 0002:00000094       __imp__QueryPerformanceFrequency@4 10038094     kernel32:KERNEL32.dll
 0002:00000098       __imp__WriteConsoleW@20    10038098     kernel32:KERNEL32.dll
 0002:0000009c       __imp__GetModuleHandleExW@12 1003809c     kernel32:KERNEL32.dll
 0002:000000a0       __imp__GetModuleFileNameW@12 100380a0     kernel32:KERNEL32.dll
 0002:000000a4       __imp__GetModuleFileNameA@12 100380a4     kernel32:KERNEL32.dll
 0002:000000a8       __imp__GetFileType@4       100380a8     kernel32:KERNEL32.dll
 0002:000000ac       __imp__GetStdHandle@4      100380ac     kernel32:KERNEL32.dll
 0002:000000b0       __imp__LoadLibraryExW@12   100380b0     kernel32:KERNEL32.dll
 0002:000000b4       __imp__GetProcAddress@8    100380b4     kernel32:KERNEL32.dll
 0002:000000b8       __imp__FreeLibrary@4       100380b8     kernel32:KERNEL32.dll
 0002:000000bc       __imp__UnhandledExceptionFilter@4 100380bc     kernel32:KERNEL32.dll
 0002:000000c0       __imp__SetUnhandledExceptionFilter@4 100380c0     kernel32:KERNEL32.dll
 0002:000000c4       __imp__GetCurrentProcess@0 100380c4     kernel32:KERNEL32.dll
 0002:000000c8       __imp__TerminateProcess@8  100380c8     kernel32:KERNEL32.dll
 0002:000000cc       __imp__IsProcessorFeaturePresent@4 100380cc     kernel32:KERNEL32.dll
 0002:000000d0       __imp__QueryPerformanceCounter@4 100380d0     kernel32:KERNEL32.dll
 0002:000000d4       __imp__GetCurrentProcessId@0 100380d4     kernel32:KERNEL32.dll
 0002:000000d8       __imp__GetCurrentThreadId@0 100380d8     kernel32:KERNEL32.dll
 0002:000000dc       __imp__GetSystemTimeAsFileTime@4 100380dc     kernel32:KERNEL32.dll
 0002:000000e0       __imp__InitializeSListHead@4 100380e0     kernel32:KERNEL32.dll
 0002:000000e4       __imp__IsDebuggerPresent@0 100380e4     kernel32:KERNEL32.dll
 0002:000000e8       __imp__GetStartupInfoW@4   100380e8     kernel32:KERNEL32.dll
 0002:000000ec       __imp__GetModuleHandleW@4  100380ec     kernel32:KERNEL32.dll
 0002:000000f0       __imp__RaiseException@16   100380f0     kernel32:KERNEL32.dll
 0002:000000f4       __imp__InterlockedFlushSList@4 100380f4     kernel32:KERNEL32.dll
 0002:000000f8       __imp__RtlUnwind@16        100380f8     kernel32:KERNEL32.dll
 0002:000000fc       __imp__GetLastError@0      100380fc     kernel32:KERNEL32.dll
 0002:00000100       __imp__SetLastError@4      10038100     kernel32:KERNEL32.dll
 0002:00000104       __imp__EnterCriticalSection@4 10038104     kernel32:KERNEL32.dll
 0002:00000108       __imp__LeaveCriticalSection@4 10038108     kernel32:KERNEL32.dll
 0002:0000010c       __imp__DeleteCriticalSection@4 1003810c     kernel32:KERNEL32.dll
 0002:00000110       __imp__InitializeCriticalSectionAndSpinCount@8 10038110     kernel32:KERNEL32.dll
 0002:00000114       __imp__TlsAlloc@0          10038114     kernel32:KERNEL32.dll
 0002:00000118       __imp__TlsGetValue@4       10038118     kernel32:KERNEL32.dll
 0002:0000011c       __imp__TlsSetValue@8       1003811c     kernel32:KERNEL32.dll
 0002:00000120       __imp__TlsFree@4           10038120     kernel32:KERNEL32.dll
 0002:00000124       __imp__DecodePointer@4     10038124     kernel32:KERNEL32.dll
 0002:00000128       \177KERNEL32_NULL_THUNK_DATA 10038128     kernel32:KERNEL32.dll
 0002:0000012c       __imp__node_module_register 1003812c     iojs:node.dll
 0002:00000130       __imp_?New@ObjectTemplate@v8@@SA?AV?$Local@VObjectTemplate@v8@@@2@PAVIsolate@2@V?$Local@VFunctionTemplate@v8@@@2@@Z 10038130     iojs:node.dll
 0002:00000134       __imp_?NewInstance@ObjectTemplate@v8@@QAE?AV?$MaybeLocal@VObject@v8@@@2@V?$Local@VContext@v8@@@2@@Z 10038134     iojs:node.dll
 0002:00000138       __imp_?SetInternalFieldCount@ObjectTemplate@v8@@QAEXH@Z 10038138     iojs:node.dll
 0002:0000013c       __imp_?Set@Object@v8@@QAE_NIV?$Local@VValue@v8@@@2@@Z 1003813c     iojs:node.dll
 0002:00000140       __imp_?Set@Object@v8@@QAE_NV?$Local@VValue@v8@@@2@0@Z 10038140     iojs:node.dll
 0002:00000144       __imp_?InternalFieldCount@Object@v8@@QAEHXZ 10038144     iojs:node.dll
 0002:00000148       __imp_?SetInternalField@Object@v8@@QAEXHV?$Local@VValue@v8@@@2@@Z 10038148     iojs:node.dll
 0002:0000014c       __imp_?SetAlignedPointerInInternalField@Object@v8@@QAEXHPAX@Z 1003814c     iojs:node.dll
 0002:00000150       __imp_?New@Object@v8@@SA?AV?$Local@VObject@v8@@@2@PAVIsolate@2@@Z 10038150     iojs:node.dll
 0002:00000154       __imp_?SlowGetInternalField@Object@v8@@AAE?AV?$Local@VValue@v8@@@2@H@Z 10038154     iojs:node.dll
 0002:00000158       __imp_?SlowGetAlignedPointerFromInternalField@Object@v8@@AAEPAXH@Z 10038158     iojs:node.dll
 0002:0000015c       __imp_?Length@String@v8@@QBEHXZ 1003815c     iojs:node.dll
 0002:00000160       __imp_?Write@String@v8@@QBEHPAGHHH@Z 10038160     iojs:node.dll
 0002:00000164       __imp_?NewFromUtf8@String@v8@@SA?AV?$MaybeLocal@VString@v8@@@2@PAVIsolate@2@PBDW4NewStringType@2@H@Z 10038164     iojs:node.dll
 0002:00000168       __imp_??0Utf8Value@String@v8@@QAE@V?$Local@VValue@v8@@@2@@Z 10038168     iojs:node.dll
 0002:0000016c       __imp_??1Utf8Value@String@v8@@QAE@XZ 1003816c     iojs:node.dll
 0002:00000170       __imp_??0EscapableHandleScope@v8@@QAE@PAVIsolate@1@@Z 10038170     iojs:node.dll
 0002:00000174       __imp_?Escape@EscapableHandleScope@v8@@AAEPAPAVObject@internal@2@PAPAV342@@Z 10038174     iojs:node.dll
 0002:00000178       __imp_?ToInteger@Value@v8@@QBE?AV?$MaybeLocal@VInteger@v8@@@2@V?$Local@VContext@v8@@@2@@Z 10038178     iojs:node.dll
 0002:0000017c       __imp_?GlobalizeReference@V8@v8@@CAPAPAVObject@internal@2@PAVIsolate@42@PAPAV342@@Z 1003817c     iojs:node.dll
 0002:00000180       __imp_?DisposeGlobal@V8@v8@@CAXPAPAVObject@internal@2@@Z 10038180     iojs:node.dll
 0002:00000184       __imp_?MakeWeak@V8@v8@@CAXPAPAVObject@internal@2@PAXP6AXABV?$WeakCallbackInfo@X@2@@ZW4WeakCallbackType@2@@Z 10038184     iojs:node.dll
 0002:00000188       __imp_?ClearWeak@V8@v8@@CAPAXPAPAVObject@internal@2@@Z 10038188     iojs:node.dll
 0002:0000018c       __imp_?ToLocalEmpty@V8@v8@@CAXXZ 1003818c     iojs:node.dll
 0002:00000190       __imp_?New@FunctionTemplate@v8@@SA?AV?$Local@VFunctionTemplate@v8@@@2@PAVIsolate@2@P6AXABV?$FunctionCallbackInfo@VValue@v8@@@2@@ZV?$Local@VValue@v8@@@2@V?$Local@VSignature@v8@@@2@HW4ConstructorBehavior@2@@Z 10038190     iojs:node.dll
 0002:00000194       __imp_?GetFunction@FunctionTemplate@v8@@QAE?AV?$Local@VFunction@v8@@@2@XZ 10038194     iojs:node.dll
 0002:00000198       __imp_?InstanceTemplate@FunctionTemplate@v8@@QAE?AV?$Local@VObjectTemplate@v8@@@2@XZ 10038198     iojs:node.dll
 0002:0000019c       __imp_?SetClassName@FunctionTemplate@v8@@QAEXV?$Local@VString@v8@@@2@@Z 1003819c     iojs:node.dll
 0002:000001a0       __imp_?New@Array@v8@@SA?AV?$Local@VArray@v8@@@2@PAVIsolate@2@H@Z 100381a0     iojs:node.dll
 0002:000001a4       __imp_?Error@Exception@v8@@SA?AV?$Local@VValue@v8@@@2@V?$Local@VString@v8@@@2@@Z 100381a4     iojs:node.dll
 0002:000001a8       __imp_?Set@Template@v8@@QAEXV?$Local@VName@v8@@@2@V?$Local@VData@v8@@@2@W4PropertyAttribute@2@@Z 100381a8     iojs:node.dll
 0002:000001ac       __imp_??0HandleScope@v8@@QAE@PAVIsolate@1@@Z 100381ac     iojs:node.dll
 0002:000001b0       __imp_??1HandleScope@v8@@QAE@XZ 100381b0     iojs:node.dll
 0002:000001b4       __imp_?CreateHandle@HandleScope@v8@@CAPAPAVObject@internal@2@PAVHeapObject@42@PAV342@@Z 100381b4     iojs:node.dll
 0002:000001b8       __imp_?CreateHandle@HandleScope@v8@@KAPAPAVObject@internal@2@PAVIsolate@42@PAV342@@Z 100381b8     iojs:node.dll
 0002:000001bc       __imp_?GetCurrent@Isolate@v8@@SAPAV12@XZ 100381bc     iojs:node.dll
 0002:000001c0       __imp_?GetCurrentContext@Isolate@v8@@QAE?AV?$Local@VContext@v8@@@2@XZ 100381c0     iojs:node.dll
 0002:000001c4       __imp_?ThrowException@Isolate@v8@@QAE?AV?$Local@VValue@v8@@@2@V32@@Z 100381c4     iojs:node.dll
 0002:000001c8       __imp_?NewFromUnsigned@Integer@v8@@SA?AV?$Local@VInteger@v8@@@2@PAVIsolate@2@I@Z 100381c8     iojs:node.dll
 0002:000001cc       __imp_?New@External@v8@@SA?AV?$Local@VExternal@v8@@@2@PAVIsolate@2@PAX@Z 100381cc     iojs:node.dll
 0002:000001d0       __imp_?Value@External@v8@@QBEPAXXZ 100381d0     iojs:node.dll
 0002:000001d4       \177node_NULL_THUNK_DATA   100381d4     iojs:node.dll
 0002:000001d8       __imp__CoCreateInstance@20 100381d8     ole32:ole32.dll
 0002:000001dc       __imp__CoUninitialize@0    100381dc     ole32:ole32.dll
 0002:000001e0       __imp__CoInitialize@4      100381e0     ole32:ole32.dll
 0002:000001e4       __imp__CoTaskMemFree@4     100381e4     ole32:ole32.dll
 0002:000001e8       \177ole32_NULL_THUNK_DATA  100381e8     ole32:ole32.dll
 0002:000001ec       ___guard_check_icall_fptr  100381ec     LIBCMT:guard_support.obj
 0002:000001f0       ___xc_a                    100381f0     LIBCMT:initializers.obj
 0002:000001f4       __register_spellchecker_   100381f4     main.obj
 0002:000001f8       ___xc_z                    100381f8     LIBCMT:initializers.obj
 0002:000001fc       ___xi_a                    100381fc     LIBCMT:initializers.obj
 0002:00000200       ___acrt_stdio_initializer  10038200     libucrt:stdio_initializer.obj
 0002:00000204       ___acrt_clock_initializer  10038204     libucrt:clock_initializer.obj
 0002:00000208       ___acrt_multibyte_initializer 10038208     libucrt:multibyte_initializer.obj
 0002:0000020c       ___acrt_tran_sse2_initializer 1003820c     libucrt:sse2_initializer.obj
 0002:00000210       ___xi_z                    10038210     LIBCMT:initializers.obj
 0002:00000214       ___xp_a                    10038214     LIBCMT:initializers.obj
 0002:00000218       ___acrt_locale_terminator  10038218     libucrt:locale_initializer.obj
 0002:0000021c       ___dcrt_console_output_terminator 1003821c     libucrt:console_output_initializer.obj
 0002:00000220       ___acrt_stdio_terminator   10038220     libucrt:stdio_initializer.obj
 0002:00000224       ___xp_z                    10038224     LIBCMT:initializers.obj
 0002:00000228       ___xt_a                    10038228     LIBCMT:initializers.obj
 0002:0000022c       ___xt_z                    1003822c     LIBCMT:initializers.obj
 0002:00000234       ??_7exception@std@@6B@     10038234     libcpmt:xthrow.obj
 0002:0000023c       ??_C@_0BC@EOODALEL@Unknown?5exception?$AA@ 1003823c     libcpmt:xthrow.obj
 0002:00000254       ??_7bad_alloc@std@@6B@     10038254     libcpmt:xthrow.obj
 0002:0000025c       ??_C@_0P@GHFPNOJB@bad?5allocation?$AA@ 1003825c     libcpmt:xthrow.obj
 0002:00000270       ??_7logic_error@std@@6B@   10038270     libcpmt:xthrow.obj
 0002:0000027c       ??_7length_error@std@@6B@  1003827c     libcpmt:xthrow.obj
 0002:00000288       ??_7out_of_range@std@@6B@  10038288     libcpmt:xthrow.obj
 0002:00000290       __pRawDllMain              10038290     LIBCMT:dll_dllmain.obj
 0002:00000290       __pDefaultRawDllMain       10038290     LIBCMT:dll_dllmain.obj
 0002:000002a0       ??_7type_info@@6B@         100382a0     LIBCMT:std_type_info_static.obj
 0002:000002a8       ??_7bad_array_new_length@std@@6B@ 100382a8     LIBCMT:throw_bad_alloc.obj
 0002:000002b0       ??_C@_0BF@KINCDENJ@bad?5array?5new?5length?$AA@ 100382b0     LIBCMT:throw_bad_alloc.obj
 0002:000002f8       ??_C@_1BC@DNHGCMLG@?$AAa?$AAd?$AAv?$AAa?$AAp?$AAi?$AA3?$AA2?$AA?$AA@ 100382f8     libvcruntime:winapi_downlevel.obj
 0002:0000030c       ??_C@_1DM@KHCHBNEB@?$AAa?$AAp?$AAi?$AA?9?$AAm?$AAs?$AA?9?$AAw?$AAi?$AAn?$AA?9?$AAc?$AAo?$AAr?$AAe?$AA?9?$AAf?$AAi?$AAb?$AAe?$AAr?$AAs?$AA?9?$AAl?$AA1?$AA?9?$AA1?$AA?9?$AA1?$AA?$AA@ 1003830c     libvcruntime:winapi_downlevel.obj
 0002:00000348       ??_C@_1DK@LPPGFMPP@?$AAa?$AAp?$AAi?$AA?9?$AAm?$AAs?$AA?9?$AAw?$AAi?$AAn?$AA?9?$AAc?$AAo?$AAr?$AAe?$AA?9?$AAs?$AAy?$AAn?$AAc?$AAh?$AA?9?$AAl?$AA1?$AA?9?$AA2?$AA?9?$AA0?$AA?$AA@ 10038348     libvcruntime:winapi_downlevel.obj
 0002:00000384       ??_C@_1BC@GDMECMAK@?$AAk?$AAe?$AAr?$AAn?$AAe?$AAl?$AA3?$AA2?$AA?$AA@ 10038384     libvcruntime:winapi_downlevel.obj
 0002:000003a0       ??_C@_08KNHFBNJ@FlsAlloc?$AA@ 100383a0     libvcruntime:winapi_downlevel.obj
 0002:000003b4       ??_C@_07PEJMOBNF@FlsFree?$AA@ 100383b4     libvcruntime:winapi_downlevel.obj
 0002:000003c4       ??_C@_0M@GDNOONDI@FlsGetValue?$AA@ 100383c4     libvcruntime:winapi_downlevel.obj
 0002:000003d8       ??_C@_0M@JCPCPOEF@FlsSetValue?$AA@ 100383d8     libvcruntime:winapi_downlevel.obj
 0002:000003ec       ??_C@_0BM@HCFOFFN@InitializeCriticalSectionEx?$AA@ 100383ec     libvcruntime:winapi_downlevel.obj
 0002:00000598       ??_C@_08EHJDFFNH@__based?$CI?$AA@ 10038598     libvcruntime:undname.obj
 0002:000005a4       ??_C@_07KOLFKCDI@__cdecl?$AA@ 100385a4     libvcruntime:undname.obj
 0002:000005ac       ??_C@_08GHMPAG@__pascal?$AA@ 100385ac     libvcruntime:undname.obj
 0002:000005b8       ??_C@_09IFJBGAPI@__stdcall?$AA@ 100385b8     libvcruntime:undname.obj
 0002:000005c4       ??_C@_0L@NPHFGOKO@__thiscall?$AA@ 100385c4     libvcruntime:undname.obj
 0002:000005d0       ??_C@_0L@JMKHOMEK@__fastcall?$AA@ 100385d0     libvcruntime:undname.obj
 0002:000005dc       ??_C@_0N@BCKKPABJ@__vectorcall?$AA@ 100385dc     libvcruntime:undname.obj
 0002:000005ec       ??_C@_09HIJEGCPM@__clrcall?$AA@ 100385ec     libvcruntime:undname.obj
 0002:000005f8       ??_C@_06GHPCKEAG@__eabi?$AA@ 100385f8     libvcruntime:undname.obj
 0002:00000600       ??_C@_07JOMMBBKO@__ptr64?$AA@ 10038600     libvcruntime:undname.obj
 0002:00000608       ??_C@_0L@PILCLIHE@__restrict?$AA@ 10038608     libvcruntime:undname.obj
 0002:00000614       ??_C@_0M@GFIIJFMG@__unaligned?$AA@ 10038614     libvcruntime:undname.obj
 0002:00000620       ??_C@_09DHDLOLLB@restrict?$CI?$AA@ 10038620     libvcruntime:undname.obj
 0002:0000062c       ??_C@_04NIHEBCM@?5new?$AA@ 1003862c     libvcruntime:undname.obj
 0002:00000634       ??_C@_07FPCDHGMM@?5delete?$AA@ 10038634     libvcruntime:undname.obj
 0002:0000063c       ??_C@_01NEMOKFLO@?$DN?$AA@ 1003863c     libvcruntime:undname.obj
 0002:00000640       ??_C@_02GPIOPFAK@?$DO?$DO?$AA@ 10038640     libvcruntime:undname.obj
 0002:00000644       ??_C@_02FODMEDOG@?$DM?$DM?$AA@ 10038644     libvcruntime:undname.obj
 0002:00000648       ??_C@_01DCLJPIOD@?$CB?$AA@ 10038648     libvcruntime:undname.obj
 0002:0000064c       ??_C@_02EGOFBIJA@?$DN?$DN?$AA@ 1003864c     libvcruntime:undname.obj
 0002:00000650       ??_C@_02FDNJECIE@?$CB?$DN?$AA@ 10038650     libvcruntime:undname.obj
 0002:00000654       ??_C@_02GPECMEKF@?$FL?$FN?$AA@ 10038654     libvcruntime:undname.obj
 0002:00000658       ??_C@_08LHJFAFGD@operator?$AA@ 10038658     libvcruntime:undname.obj
 0002:00000664       ??_C@_02HBOOOICD@?9?$DO?$AA@ 10038664     libvcruntime:undname.obj
 0002:00000668       ??_C@_01NBENCBCI@?$CK?$AA@ 10038668     libvcruntime:undname.obj
 0002:0000066c       ??_C@_02ECNGHCIF@?$CL?$CL?$AA@ 1003866c     libvcruntime:undname.obj
 0002:00000670       ??_C@_02BAABKJLB@?9?9?$AA@ 10038670     libvcruntime:undname.obj
 0002:00000674       ??_C@_03MNHNFDLC@?9?$DO?$CK?$AA@ 10038674     libvcruntime:undname.obj
 0002:00000678       ??_C@_01FGNFDNOH@?$CF?$AA@ 10038678     libvcruntime:undname.obj
 0002:0000067c       ??_C@_02EHCHHCKH@?$DM?$DN?$AA@ 1003867c     libvcruntime:undname.obj
 0002:00000680       ??_C@_01PPODPGHN@?$DO?$AA@ 10038680     libvcruntime:undname.obj
 0002:00000684       ??_C@_02EEKDKGMJ@?$DO?$DN?$AA@ 10038684     libvcruntime:undname.obj
 0002:00000688       ??_C@_01IHBHIGKO@?0?$AA@   10038688     libvcruntime:undname.obj
 0002:0000068c       ??_C@_02HCKGKOFO@?$CI?$CJ?$AA@ 1003868c     libvcruntime:undname.obj
 0002:00000690       ??_C@_01PJKLJHI@?$HO?$AA@  10038690     libvcruntime:undname.obj
 0002:00000694       ??_C@_01JKBOJNNK@?$FO?$AA@ 10038694     libvcruntime:undname.obj
 0002:00000698       ??_C@_01DNKMNLPK@?$HM?$AA@ 10038698     libvcruntime:undname.obj
 0002:0000069c       ??_C@_02PPKAJPJL@?$CG?$CG?$AA@ 1003869c     libvcruntime:undname.obj
 0002:000006a0       ??_C@_02NONPIBCD@?$HM?$HM?$AA@ 100386a0     libvcruntime:undname.obj
 0002:000006a4       ??_C@_02FPIMKNGF@?$CK?$DN?$AA@ 100386a4     libvcruntime:undname.obj
 0002:000006a8       ??_C@_02FOEOMHFC@?$CL?$DN?$AA@ 100386a8     libvcruntime:undname.obj
 0002:000006ac       ??_C@_02FKMDLLOA@?9?$DN?$AA@ 100386ac     libvcruntime:undname.obj
 0002:000006b0       ??_C@_02FJEHGPIO@?1?$DN?$AA@ 100386b0     libvcruntime:undname.obj
 0002:000006b4       ??_C@_02FENAOKFI@?$CF?$DN?$AA@ 100386b4     libvcruntime:undname.obj
 0002:000006b8       ??_C@_03IKFCCPFF@?$DO?$DO?$DN?$AA@ 100386b8     libvcruntime:undname.obj
 0002:000006bc       ??_C@_03CDNPDDLA@?$DM?$DM?$DN?$AA@ 100386bc     libvcruntime:undname.obj
 0002:000006c0       ??_C@_02FGJGFEAB@?$CG?$DN?$AA@ 100386c0     libvcruntime:undname.obj
 0002:000006c4       ??_C@_02DHLNPPGH@?$HM?$DN?$AA@ 100386c4     libvcruntime:undname.obj
 0002:000006c8       ??_C@_02MHEGNOJ@?$FO?$DN?$AA@ 100386c8     libvcruntime:undname.obj
 0002:000006cc       ??_C@_09IFPLHPGF@?$GAvftable?8?$AA@ 100386cc     libvcruntime:undname.obj
 0002:000006d8       ??_C@_09BLBHBJP@?$GAvbtable?8?$AA@ 100386d8     libvcruntime:undname.obj
 0002:000006e4       ??_C@_07FEEIOKP@?$GAvcall?8?$AA@ 100386e4     libvcruntime:undname.obj
 0002:000006ec       ??_C@_08LLFFHHDJ@?$GAtypeof?8?$AA@ 100386ec     libvcruntime:undname.obj
 0002:000006f8       ??_C@_0BF@KDPPACIK@?$GAlocal?5static?5guard?8?$AA@ 100386f8     libvcruntime:undname.obj
 0002:00000710       ??_C@_08OBABFOLI@?$GAstring?8?$AA@ 10038710     libvcruntime:undname.obj
 0002:0000071c       ??_C@_0BD@JDLKDPAB@?$GAvbase?5destructor?8?$AA@ 1003871c     libvcruntime:undname.obj
 0002:00000730       ??_C@_0BN@DEGPLNFK@?$GAvector?5deleting?5destructor?8?$AA@ 10038730     libvcruntime:undname.obj
 0002:00000750       ??_C@_0BO@OBMKPJIG@?$GAdefault?5constructor?5closure?8?$AA@ 10038750     libvcruntime:undname.obj
 0002:00000770       ??_C@_0BN@IMDCHIKM@?$GAscalar?5deleting?5destructor?8?$AA@ 10038770     libvcruntime:undname.obj
 0002:00000790       ??_C@_0BO@PFGOCPJJ@?$GAvector?5constructor?5iterator?8?$AA@ 10038790     libvcruntime:undname.obj
 0002:000007b0       ??_C@_0BN@LFPFMEDL@?$GAvector?5destructor?5iterator?8?$AA@ 100387b0     libvcruntime:undname.obj
 0002:000007d0       ??_C@_0CE@IKBNEHA@?$GAvector?5vbase?5constructor?5iterat@ 100387d0     libvcruntime:undname.obj
 0002:000007f4       ??_C@_0BL@NILFHHPC@?$GAvirtual?5displacement?5map?8?$AA@ 100387f4     libvcruntime:undname.obj
 0002:00000810       ??_C@_0CB@JONCMFFK@?$GAeh?5vector?5constructor?5iterator?8@ 10038810     libvcruntime:undname.obj
 0002:00000834       ??_C@_0CA@GCEOPDGL@?$GAeh?5vector?5destructor?5iterator?8?$AA@ 10038834     libvcruntime:undname.obj
 0002:00000854       ??_C@_0CH@OOJPLCPH@?$GAeh?5vector?5vbase?5constructor?5ite@ 10038854     libvcruntime:undname.obj
 0002:0000087c       ??_C@_0BL@LLKPOHJI@?$GAcopy?5constructor?5closure?8?$AA@ 1003887c     libvcruntime:undname.obj
 0002:00000898       ??_C@_0BA@KBCDOMBN@?$GAudt?5returning?8?$AA@ 10038898     libvcruntime:undname.obj
 0002:000008a8       ??_C@_03KLGMFNMG@?$GAEH?$AA@ 100388a8     libvcruntime:undname.obj
 0002:000008ac       ??_C@_05KHLCHHI@?$GARTTI?$AA@ 100388ac     libvcruntime:undname.obj
 0002:000008b4       ??_C@_0BA@KKLDJDLB@?$GAlocal?5vftable?8?$AA@ 100388b4     libvcruntime:undname.obj
 0002:000008c4       ??_C@_0CE@IIHCMGGL@?$GAlocal?5vftable?5constructor?5closu@ 100388c4     libvcruntime:undname.obj
 0002:000008e8       ??_C@_06FHBGPFGH@?5new?$FL?$FN?$AA@ 100388e8     libvcruntime:undname.obj
 0002:000008f0       ??_C@_09LBNFPBCA@?5delete?$FL?$FN?$AA@ 100388f0     libvcruntime:undname.obj
 0002:000008fc       ??_C@_0P@HJKNJFNN@?$GAomni?5callsig?8?$AA@ 100388fc     libvcruntime:undname.obj
 0002:0000090c       ??_C@_0BL@CNOONJFP@?$GAplacement?5delete?5closure?8?$AA@ 1003890c     libvcruntime:undname.obj
 0002:00000928       ??_C@_0BN@CKNJLHMB@?$GAplacement?5delete?$FL?$FN?5closure?8?$AA@ 10038928     libvcruntime:undname.obj
 0002:00000948       ??_C@_0CG@CFDHKGGD@?$GAmanaged?5vector?5constructor?5iter@ 10038948     libvcruntime:undname.obj
 0002:00000970       ??_C@_0CF@IMGKMJNO@?$GAmanaged?5vector?5destructor?5itera@ 10038970     libvcruntime:undname.obj
 0002:00000998       ??_C@_0CG@HLDDJMAG@?$GAeh?5vector?5copy?5constructor?5iter@ 10038998     libvcruntime:undname.obj
 0002:000009c0       ??_C@_0CM@FCBBDIGB@?$GAeh?5vector?5vbase?5copy?5constructo@ 100389c0     libvcruntime:undname.obj
 0002:000009ec       ??_C@_0BL@CLIPGLGB@?$GAdynamic?5initializer?5for?5?8?$AA@ 100389ec     libvcruntime:undname.obj
 0002:00000a08       ??_C@_0CB@PDBIFEP@?$GAdynamic?5atexit?5destructor?5for?5?8@ 10038a08     libvcruntime:undname.obj
 0002:00000a2c       ??_C@_0CD@CGAJBKEJ@?$GAvector?5copy?5constructor?5iterato@ 10038a2c     libvcruntime:undname.obj
 0002:00000a50       ??_C@_0CJ@GJELGAMM@?$GAvector?5vbase?5copy?5constructor?5i@ 10038a50     libvcruntime:undname.obj
 0002:00000a7c       ??_C@_0CL@FGIJHLCE@?$GAmanaged?5vector?5copy?5constructor@ 10038a7c     libvcruntime:undname.obj
 0002:00000aa8       ??_C@_0BM@PMGGMLDN@?$GAlocal?5static?5thread?5guard?8?$AA@ 10038aa8     libvcruntime:undname.obj
 0002:00000ac4       ??_C@_0N@BDNMDMOL@operator?5?$CC?$CC?5?$AA@ 10038ac4     libvcruntime:undname.obj
 0002:00000ad4       ??_C@_0BC@DAFEJGAK@?5Type?5Descriptor?8?$AA@ 10038ad4     libvcruntime:undname.obj
 0002:00000ae8       ??_C@_0BM@LDKODKLH@?5Base?5Class?5Descriptor?5at?5?$CI?$AA@ 10038ae8     libvcruntime:undname.obj
 0002:00000b04       ??_C@_0BD@LGICGFMM@?5Base?5Class?5Array?8?$AA@ 10038b04     libvcruntime:undname.obj
 0002:00000b18       ??_C@_0BN@MECKDCOJ@?5Class?5Hierarchy?5Descriptor?8?$AA@ 10038b18     libvcruntime:undname.obj
 0002:00000b38       ??_C@_0BK@CFCOFLF@?5Complete?5Object?5Locator?8?$AA@ 10038b38     libvcruntime:undname.obj
 0002:00000b58       ??_C@_1EK@MBDPDCGA@?$AAM?$AAi?$AAc?$AAr?$AAo?$AAs?$AAo?$AAf?$AAt?$AA?5?$AAV?$AAi?$AAs?$AAu?$AAa?$AAl?$AA?5?$AAC?$AA?$CL?$AA?$CL?$AA?5?$AAR?$AAu?$AAn?$AAt?$AAi?$AAm?$AAe?$AA?5?$AAL?$AAi?$AAb@ 10038b58     libucrt:assert.obj
 0002:00000ba8       ??_C@_1FE@LHBLIKM@?$AAA?$AAs?$AAs?$AAe?$AAr?$AAt?$AAi?$AAo?$AAn?$AA?5?$AAf?$AAa?$AAi?$AAl?$AAe?$AAd?$AA?3?$AA?5?$AA?$CF?$AAT?$AAs?$AA?0?$AA?5?$AAf?$AAi?$AAl?$AAe?$AA?5?$AA?$CF?$AAT?$AAs?$AA?0@ 10038ba8     libucrt:assert.obj
 0002:00000bfc       ??_C@_1CE@OJBNHDMO@?$AAA?$AAs?$AAs?$AAe?$AAr?$AAt?$AAi?$AAo?$AAn?$AA?5?$AAf?$AAa?$AAi?$AAl?$AAe?$AAd?$AA?$CB?$AA?$AA@ 10038bfc     libucrt:assert.obj
 0002:00000c20       ??_C@_1BE@PHKBBGE@?$AAP?$AAr?$AAo?$AAg?$AAr?$AAa?$AAm?$AA?3?$AA?5?$AA?$AA@ 10038c20     libucrt:assert.obj
 0002:00000c34       ??_C@_1O@HEMHKNDC@?$AAF?$AAi?$AAl?$AAe?$AA?3?$AA?5?$AA?$AA@ 10038c34     libucrt:assert.obj
 0002:00000c44       ??_C@_1O@KCAFKHJE@?$AAL?$AAi?$AAn?$AAe?$AA?3?$AA?5?$AA?$AA@ 10038c44     libucrt:assert.obj
 0002:00000c54       ??_C@_1BK@PEDCIPMA@?$AAE?$AAx?$AAp?$AAr?$AAe?$AAs?$AAs?$AAi?$AAo?$AAn?$AA?3?$AA?5?$AA?$AA@ 10038c54     libucrt:assert.obj
 0002:00000c70       ??_C@_1OA@EGMLFBHJ@?$AAF?$AAo?$AAr?$AA?5?$AAi?$AAn?$AAf?$AAo?$AAr?$AAm?$AAa?$AAt?$AAi?$AAo?$AAn?$AA?5?$AAo?$AAn?$AA?5?$AAh?$AAo?$AAw?$AA?5?$AAy?$AAo?$AAu?$AAr?$AA?5?$AAp?$AAr?$AAo?$AAg@ 10038c70     libucrt:assert.obj
 0002:00000d50       ??_C@_1HK@POCJMFGK@?$AA?$CI?$AAP?$AAr?$AAe?$AAs?$AAs?$AA?5?$AAR?$AAe?$AAt?$AAr?$AAy?$AA?5?$AAt?$AAo?$AA?5?$AAd?$AAe?$AAb?$AAu?$AAg?$AA?5?$AAt?$AAh?$AAe?$AA?5?$AAa?$AAp?$AAp?$AAl?$AAi?$AAc@ 10038d50     libucrt:assert.obj
 0002:00000dcc       ??_C@_17LGKOMLJ@?$AA?4?$AA?4?$AA?4?$AA?$AA@ 10038dcc     libucrt:assert.obj
 0002:00000dd4       ??_C@_13LBAGMAIH@?$AA?6?$AA?$AA@ 10038dd4     libucrt:assert.obj
 0002:00000dd8       ??_C@_15IABLJNFO@?$AA?6?$AA?6?$AA?$AA@ 10038dd8     libucrt:assert.obj
 0002:00000de0       ??_C@_1CO@EAEJAADC@?$AA?$DM?$AAp?$AAr?$AAo?$AAg?$AAr?$AAa?$AAm?$AA?5?$AAn?$AAa?$AAm?$AAe?$AA?5?$AAu?$AAn?$AAk?$AAn?$AAo?$AAw?$AAn?$AA?$DO?$AA?$AA@ 10038de0     libucrt:assert.obj
 0002:00000e10       _standard_lookup_table     10038e10     libucrt:output.obj
 0002:00000e6c       ??_C@_06OJHGLDPL@?$CInull?$CJ?$AA@ 10038e6c     libucrt:output.obj
 0002:00000e74       ??_C@_1O@CEDCILHN@?$AA?$CI?$AAn?$AAu?$AAl?$AAl?$AA?$CJ?$AA?$AA@ 10038e74     libucrt:output.obj
 0002:00000e88       ___acrt_exception_action_table 10038e88     libucrt:exception_filter.obj
 0002:00000f18       ___acrt_signal_action_table_count 10038f18     libucrt:exception_filter.obj
 0002:00000f1c       ___acrt_signal_action_first_fpe_index 10038f1c     libucrt:exception_filter.obj
 0002:00000f20       ___acrt_signal_action_fpe_count 10038f20     libucrt:exception_filter.obj
 0002:00000f24       ??_C@_1BI@BGOHAHKC@?$AAm?$AAs?$AAc?$AAo?$AAr?$AAe?$AAe?$AA?4?$AAd?$AAl?$AAl?$AA?$AA@ 10038f24     libucrt:exit.obj
 0002:00000f3c       ??_C@_0P@MIGLKIOC@CorExitProcess?$AA@ 10038f3c     libucrt:exit.obj
 0002:00001130       ?ccs@?BL@???$__acrt_stdio_parse_mode@D@@YA?AU__acrt_stdio_stream_mode@@QBD@Z@4QBDB 10039130     libucrt:openfile.obj
 0002:00001134       ?utf8_encoding@?BL@???$__acrt_stdio_parse_mode@D@@YA?AU__acrt_stdio_stream_mode@@QBD@Z@4QBDB 10039134     libucrt:openfile.obj
 0002:0000113c       ?utf16_encoding@?BL@???$__acrt_stdio_parse_mode@D@@YA?AU__acrt_stdio_stream_mode@@QBD@Z@4QBDB 1003913c     libucrt:openfile.obj
 0002:00001144       ?unicode_encoding@?BL@???$__acrt_stdio_parse_mode@D@@YA?AU__acrt_stdio_stream_mode@@QBD@Z@4QBDB 10039144     libucrt:openfile.obj
 0002:0000114c       ??_C@_03KOEHGMDN@Sun?$AA@  1003914c     libucrt:nlsdata.obj
 0002:00001150       ??_C@_03PDAGKDH@Mon?$AA@   10039150     libucrt:nlsdata.obj
 0002:00001154       ??_C@_03NAGEINEP@Tue?$AA@  10039154     libucrt:nlsdata.obj
 0002:00001158       ??_C@_03MHOMLAJA@Wed?$AA@  10039158     libucrt:nlsdata.obj
 0002:0000115c       ??_C@_03IOFIKPDN@Thu?$AA@  1003915c     libucrt:nlsdata.obj
 0002:00001160       ??_C@_03IDIOELNC@Fri?$AA@  10039160     libucrt:nlsdata.obj
 0002:00001164       ??_C@_03FEFJNEK@Sat?$AA@   10039164     libucrt:nlsdata.obj
 0002:00001168       ??_C@_06OOPIFAJ@Sunday?$AA@ 10039168     libucrt:nlsdata.obj
 0002:00001170       ??_C@_06JLEDEDGH@Monday?$AA@ 10039170     libucrt:nlsdata.obj
 0002:00001178       ??_C@_07BAAGCFCM@Tuesday?$AA@ 10039178     libucrt:nlsdata.obj
 0002:00001180       ??_C@_09DLIGFAKA@Wednesday?$AA@ 10039180     libucrt:nlsdata.obj
 0002:0000118c       ??_C@_08HACCIKIA@Thursday?$AA@ 1003918c     libucrt:nlsdata.obj
 0002:00001198       ??_C@_06JECMNKMI@Friday?$AA@ 10039198     libucrt:nlsdata.obj
 0002:000011a0       ??_C@_08INBOOONO@Saturday?$AA@ 100391a0     libucrt:nlsdata.obj
 0002:000011ac       ??_C@_03JIHJHPIE@Jan?$AA@  100391ac     libucrt:nlsdata.obj
 0002:000011b0       ??_C@_03HJBDCHOM@Feb?$AA@  100391b0     libucrt:nlsdata.obj
 0002:000011b4       ??_C@_03ODNJBKGA@Mar?$AA@  100391b4     libucrt:nlsdata.obj
 0002:000011b8       ??_C@_03LEOLGMJP@Apr?$AA@  100391b8     libucrt:nlsdata.obj
 0002:000011bc       ??_C@_03CNMDKL@May?$AA@    100391bc     libucrt:nlsdata.obj
 0002:000011c0       ??_C@_03IDFGHECI@Jun?$AA@  100391c0     libucrt:nlsdata.obj
 0002:000011c4       ??_C@_03LBGABGKK@Jul?$AA@  100391c4     libucrt:nlsdata.obj
 0002:000011c8       ??_C@_03IFJFEIGA@Aug?$AA@  100391c8     libucrt:nlsdata.obj
 0002:000011cc       ??_C@_03GGCAPAJC@Sep?$AA@  100391cc     libucrt:nlsdata.obj
 0002:000011d0       ??_C@_03BMAOKBAD@Oct?$AA@  100391d0     libucrt:nlsdata.obj
 0002:000011d4       ??_C@_03JPJOFNIA@Nov?$AA@  100391d4     libucrt:nlsdata.obj
 0002:000011d8       ??_C@_03MKABNOCG@Dec?$AA@  100391d8     libucrt:nlsdata.obj
 0002:000011dc       ??_C@_07CGJPFGJA@January?$AA@ 100391dc     libucrt:nlsdata.obj
 0002:000011e4       ??_C@_08GNJGEPFN@February?$AA@ 100391e4     libucrt:nlsdata.obj
 0002:000011f0       ??_C@_05HPCKOFNC@March?$AA@ 100391f0     libucrt:nlsdata.obj
 0002:000011f8       ??_C@_05DMJDNLEJ@April?$AA@ 100391f8     libucrt:nlsdata.obj
 0002:00001200       ??_C@_04CNLMGBGM@June?$AA@ 10039200     libucrt:nlsdata.obj
 0002:00001208       ??_C@_04MIEPOIFP@July?$AA@ 10039208     libucrt:nlsdata.obj
 0002:00001210       ??_C@_06LBBHFDDG@August?$AA@ 10039210     libucrt:nlsdata.obj
 0002:00001218       ??_C@_09BHHEALKD@September?$AA@ 10039218     libucrt:nlsdata.obj
 0002:00001224       ??_C@_07JJNFCEND@October?$AA@ 10039224     libucrt:nlsdata.obj
 0002:0000122c       ??_C@_08HCHEGEOA@November?$AA@ 1003922c     libucrt:nlsdata.obj
 0002:00001238       ??_C@_08EDHMEBNP@December?$AA@ 10039238     libucrt:nlsdata.obj
 0002:00001244       ??_C@_02CJNFDJBF@PM?$AA@   10039244     libucrt:nlsdata.obj
 0002:00001248       ??_C@_08BPBNCDIB@MM?1dd?1yy?$AA@ 10039248     libucrt:nlsdata.obj
 0002:00001254       ??_C@_0BE@CKGJFCPC@dddd?0?5MMMM?5dd?0?5yyyy?$AA@ 10039254     libucrt:nlsdata.obj
 0002:00001268       ??_C@_08JCCMCCIL@HH?3mm?3ss?$AA@ 10039268     libucrt:nlsdata.obj
 0002:00001274       ??_C@_17MBGCMIPB@?$AAS?$AAu?$AAn?$AA?$AA@ 10039274     libucrt:nlsdata.obj
 0002:0000127c       ??_C@_17KBOMKBF@?$AAM?$AAo?$AAn?$AA?$AA@ 1003927c     libucrt:nlsdata.obj
 0002:00001284       ??_C@_17BMKGEGOJ@?$AAT?$AAu?$AAe?$AA?$AA@ 10039284     libucrt:nlsdata.obj
 0002:0000128c       ??_C@_17CJEDCEPE@?$AAW?$AAe?$AAd?$AA?$AA@ 1003928c     libucrt:nlsdata.obj
 0002:00001294       ??_C@_17PDPHAADD@?$AAT?$AAh?$AAu?$AA?$AA@ 10039294     libucrt:nlsdata.obj
 0002:0000129c       ??_C@_17HFOLPPLP@?$AAF?$AAr?$AAi?$AA?$AA@ 1003929c     libucrt:nlsdata.obj
 0002:000012a4       ??_C@_17GGIBDPIH@?$AAS?$AAa?$AAt?$AA?$AA@ 100392a4     libucrt:nlsdata.obj
 0002:000012ac       ??_C@_1O@IHNHDHPB@?$AAS?$AAu?$AAn?$AAd?$AAa?$AAy?$AA?$AA@ 100392ac     libucrt:nlsdata.obj
 0002:000012bc       ??_C@_1O@MMNBFLIA@?$AAM?$AAo?$AAn?$AAd?$AAa?$AAy?$AA?$AA@ 100392bc     libucrt:nlsdata.obj
 0002:000012cc       ??_C@_1BA@ENFBFFEK@?$AAT?$AAu?$AAe?$AAs?$AAd?$AAa?$AAy?$AA?$AA@ 100392cc     libucrt:nlsdata.obj
 0002:000012dc       ??_C@_1BE@EBOGMDOH@?$AAW?$AAe?$AAd?$AAn?$AAe?$AAs?$AAd?$AAa?$AAy?$AA?$AA@ 100392dc     libucrt:nlsdata.obj
 0002:000012f0       ??_C@_1BC@HHMNLIHE@?$AAT?$AAh?$AAu?$AAr?$AAs?$AAd?$AAa?$AAy?$AA?$AA@ 100392f0     libucrt:nlsdata.obj
 0002:00001304       ??_C@_1O@PDICJHAG@?$AAF?$AAr?$AAi?$AAd?$AAa?$AAy?$AA?$AA@ 10039304     libucrt:nlsdata.obj
 0002:00001314       ??_C@_1BC@ENMNNPAJ@?$AAS?$AAa?$AAt?$AAu?$AAr?$AAd?$AAa?$AAy?$AA?$AA@ 10039314     libucrt:nlsdata.obj
 0002:00001328       ??_C@_17DKNBKCHM@?$AAJ?$AAa?$AAn?$AA?$AA@ 10039328     libucrt:nlsdata.obj
 0002:00001330       ??_C@_17LMDJEKJN@?$AAF?$AAe?$AAb?$AA?$AA@ 10039330     libucrt:nlsdata.obj
 0002:00001338       ??_C@_17CKNLEDEC@?$AAM?$AAa?$AAr?$AA?$AA@ 10039338     libucrt:nlsdata.obj
 0002:00001340       ??_C@_17LFPOIHDD@?$AAA?$AAp?$AAr?$AA?$AA@ 10039340     libucrt:nlsdata.obj
 0002:00001348       ??_C@_17PNNKMEED@?$AAM?$AAa?$AAy?$AA?$AA@ 10039348     libucrt:nlsdata.obj
 0002:00001350       ??_C@_17KCJGOCPB@?$AAJ?$AAu?$AAn?$AA?$AA@ 10039350     libucrt:nlsdata.obj
 0002:00001358       ??_C@_17IJPCKHK@?$AAJ?$AAu?$AAl?$AA?$AA@ 10039358     libucrt:nlsdata.obj
 0002:00001360       ??_C@_17ICPELBCN@?$AAA?$AAu?$AAg?$AA?$AA@ 10039360     libucrt:nlsdata.obj
 0002:00001368       ??_C@_17HCHCOKMG@?$AAS?$AAe?$AAp?$AA?$AA@ 10039368     libucrt:nlsdata.obj
 0002:00001370       ??_C@_17FNLKOI@?$AAO?$AAc?$AAt?$AA?$AA@ 10039370     libucrt:nlsdata.obj
 0002:00001378       ??_C@_17BBDMLCIG@?$AAN?$AAo?$AAv?$AA?$AA@ 10039378     libucrt:nlsdata.obj
 0002:00001380       ??_C@_17EGKACKIF@?$AAD?$AAe?$AAc?$AA?$AA@ 10039380     libucrt:nlsdata.obj
 0002:00001388       ??_C@_1BA@EFMEIEBA@?$AAJ?$AAa?$AAn?$AAu?$AAa?$AAr?$AAy?$AA?$AA@ 10039388     libucrt:nlsdata.obj
 0002:00001398       ??_C@_1BC@JGDDFFAM@?$AAF?$AAe?$AAb?$AAr?$AAu?$AAa?$AAr?$AAy?$AA?$AA@ 10039398     libucrt:nlsdata.obj
 0002:000013ac       ??_C@_1M@IKEENEDF@?$AAM?$AAa?$AAr?$AAc?$AAh?$AA?$AA@ 100393ac     libucrt:nlsdata.obj
 0002:000013b8       ??_C@_1M@GJNLMHFD@?$AAA?$AAp?$AAr?$AAi?$AAl?$AA?$AA@ 100393b8     libucrt:nlsdata.obj
 0002:000013c4       ??_C@_19EPFLPGAP@?$AAJ?$AAu?$AAn?$AAe?$AA?$AA@ 100393c4     libucrt:nlsdata.obj
 0002:000013d0       ??_C@_19BIFMLPCD@?$AAJ?$AAu?$AAl?$AAy?$AA?$AA@ 100393d0     libucrt:nlsdata.obj
 0002:000013dc       ??_C@_1O@PAHLKOAC@?$AAA?$AAu?$AAg?$AAu?$AAs?$AAt?$AA?$AA@ 100393dc     libucrt:nlsdata.obj
 0002:000013ec       ??_C@_1BE@DKAAMBJL@?$AAS?$AAe?$AAp?$AAt?$AAe?$AAm?$AAb?$AAe?$AAr?$AA?$AA@ 100393ec     libucrt:nlsdata.obj
 0002:00001400       ??_C@_1BA@EPANDLNG@?$AAO?$AAc?$AAt?$AAo?$AAb?$AAe?$AAr?$AA?$AA@ 10039400     libucrt:nlsdata.obj
 0002:00001410       ??_C@_1BC@BGLIFPF@?$AAN?$AAo?$AAv?$AAe?$AAm?$AAb?$AAe?$AAr?$AA?$AA@ 10039410     libucrt:nlsdata.obj
 0002:00001424       ??_C@_1BC@FEMKIFH@?$AAD?$AAe?$AAc?$AAe?$AAm?$AAb?$AAe?$AAr?$AA?$AA@ 10039424     libucrt:nlsdata.obj
 0002:00001438       ??_C@_15ODEHAHHF@?$AAA?$AAM?$AA?$AA@ 10039438     libucrt:nlsdata.obj
 0002:00001440       ??_C@_15CLMNNGEL@?$AAP?$AAM?$AA?$AA@ 10039440     libucrt:nlsdata.obj
 0002:00001448       ??_C@_1BC@IEBCMHCM@?$AAM?$AAM?$AA?1?$AAd?$AAd?$AA?1?$AAy?$AAy?$AA?$AA@ 10039448     libucrt:nlsdata.obj
 0002:0000145c       ??_C@_1CI@KNAKOEBC@?$AAd?$AAd?$AAd?$AAd?$AA?0?$AA?5?$AAM?$AAM?$AAM?$AAM?$AA?5?$AAd?$AAd?$AA?0?$AA?5?$AAy?$AAy?$AAy?$AAy?$AA?$AA@ 1003945c     libucrt:nlsdata.obj
 0002:00001484       ??_C@_1BC@GDGBMEMK@?$AAH?$AAH?$AA?3?$AAm?$AAm?$AA?3?$AAs?$AAs?$AA?$AA@ 10039484     libucrt:nlsdata.obj
 0002:00001498       ??_C@_1M@BMHNFIME@?$AAe?$AAn?$AA?9?$AAU?$AAS?$AA?$AA@ 10039498     libucrt:nlsdata.obj
 0002:000014a8       ___lc_time_c               100394a8     libucrt:nlsdata.obj
 0002:0000160c       ??_C@_03OEIAHPBN@INF?$AA@  1003960c     libucrt:cvt.obj
 0002:00001610       ??_C@_03OJHLLCGB@inf?$AA@  10039610     libucrt:cvt.obj
 0002:00001614       ??_C@_03LKNCIKJB@NAN?$AA@  10039614     libucrt:cvt.obj
 0002:00001618       ??_C@_03LHCJEHON@nan?$AA@  10039618     libucrt:cvt.obj
 0002:0000161c       ??_C@_09OFJJIMPC@NAN?$CISNAN?$CJ?$AA@ 1003961c     libucrt:cvt.obj
 0002:00001628       ??_C@_09IPFBKMDL@nan?$CIsnan?$CJ?$AA@ 10039628     libucrt:cvt.obj
 0002:00001634       ??_C@_08IKHNHAJ@NAN?$CIIND?$CJ?$AA@ 10039634     libucrt:cvt.obj
 0002:00001640       ??_C@_08OFCDMILK@nan?$CIind?$CJ?$AA@ 10039640     libucrt:cvt.obj
 0002:0000164c       ??_C@_05KLBDPFGC@e?$CL000?$AA@ 1003964c     libucrt:cvt.obj
 0002:000016a8       ??_C@_1EG@CNNIPFIM@?$AAa?$AAp?$AAi?$AA?9?$AAm?$AAs?$AA?9?$AAw?$AAi?$AAn?$AA?9?$AAa?$AAp?$AAp?$AAm?$AAo?$AAd?$AAe?$AAl?$AA?9?$AAr?$AAu?$AAn?$AAt?$AAi?$AAm?$AAe?$AA?9?$AAl?$AA1?$AA?9?$AA1@ 100396a8     libucrt:winapi_thunks.obj
 0002:000016f0       ??_C@_1EA@JGEFHKEI@?$AAa?$AAp?$AAi?$AA?9?$AAm?$AAs?$AA?9?$AAw?$AAi?$AAn?$AA?9?$AAc?$AAo?$AAr?$AAe?$AA?9?$AAd?$AAa?$AAt?$AAe?$AAt?$AAi?$AAm?$AAe?$AA?9?$AAl?$AA1?$AA?9?$AA1?$AA?9?$AA1?$AA?$AA@ 100396f0     libucrt:winapi_thunks.obj
 0002:00001730       ??_C@_1DI@GCIAAENM@?$AAa?$AAp?$AAi?$AA?9?$AAm?$AAs?$AA?9?$AAw?$AAi?$AAn?$AA?9?$AAc?$AAo?$AAr?$AAe?$AA?9?$AAf?$AAi?$AAl?$AAe?$AA?9?$AAl?$AA2?$AA?9?$AA1?$AA?9?$AA1?$AA?$AA@ 10039730     libucrt:winapi_thunks.obj
 0002:00001768       ??_C@_1EI@MPIAOHOC@?$AAa?$AAp?$AAi?$AA?9?$AAm?$AAs?$AA?9?$AAw?$AAi?$AAn?$AA?9?$AAc?$AAo?$AAr?$AAe?$AA?9?$AAl?$AAo?$AAc?$AAa?$AAl?$AAi?$AAz?$AAa?$AAt?$AAi?$AAo?$AAn?$AA?9?$AAl?$AA1?$AA?9@ 10039768     libucrt:winapi_thunks.obj
 0002:000017b0       ??_C@_1FK@FPHCKFIE@?$AAa?$AAp?$AAi?$AA?9?$AAm?$AAs?$AA?9?$AAw?$AAi?$AAn?$AA?9?$AAc?$AAo?$AAr?$AAe?$AA?9?$AAl?$AAo?$AAc?$AAa?$AAl?$AAi?$AAz?$AAa?$AAt?$AAi?$AAo?$AAn?$AA?9?$AAo?$AAb?$AAs@ 100397b0     libucrt:winapi_thunks.obj
 0002:00001810       ??_C@_1EM@DILCGIIO@?$AAa?$AAp?$AAi?$AA?9?$AAm?$AAs?$AA?9?$AAw?$AAi?$AAn?$AA?9?$AAc?$AAo?$AAr?$AAe?$AA?9?$AAp?$AAr?$AAo?$AAc?$AAe?$AAs?$AAs?$AAt?$AAh?$AAr?$AAe?$AAa?$AAd?$AAs?$AA?9?$AAl@ 10039810     libucrt:winapi_thunks.obj
 0002:0000185c       ??_C@_1DM@LNCGDDPN@?$AAa?$AAp?$AAi?$AA?9?$AAm?$AAs?$AA?9?$AAw?$AAi?$AAn?$AA?9?$AAc?$AAo?$AAr?$AAe?$AA?9?$AAs?$AAt?$AAr?$AAi?$AAn?$AAg?$AA?9?$AAl?$AA1?$AA?9?$AA1?$AA?9?$AA0?$AA?$AA@ 1003985c     libucrt:winapi_thunks.obj
 0002:00001898       ??_C@_1DO@FPAPJEMD@?$AAa?$AAp?$AAi?$AA?9?$AAm?$AAs?$AA?9?$AAw?$AAi?$AAn?$AA?9?$AAc?$AAo?$AAr?$AAe?$AA?9?$AAs?$AAy?$AAs?$AAi?$AAn?$AAf?$AAo?$AA?9?$AAl?$AA1?$AA?9?$AA2?$AA?9?$AA1?$AA?$AA@ 10039898     libucrt:winapi_thunks.obj
 0002:000018d8       ??_C@_1DK@NDHNAHIO@?$AAa?$AAp?$AAi?$AA?9?$AAm?$AAs?$AA?9?$AAw?$AAi?$AAn?$AA?9?$AAc?$AAo?$AAr?$AAe?$AA?9?$AAw?$AAi?$AAn?$AAr?$AAt?$AA?9?$AAl?$AA1?$AA?9?$AA1?$AA?9?$AA0?$AA?$AA@ 100398d8     libucrt:winapi_thunks.obj
 0002:00001914       ??_C@_1DM@KGHDGBCM@?$AAa?$AAp?$AAi?$AA?9?$AAm?$AAs?$AA?9?$AAw?$AAi?$AAn?$AA?9?$AAc?$AAo?$AAr?$AAe?$AA?9?$AAx?$AAs?$AAt?$AAa?$AAt?$AAe?$AA?9?$AAl?$AA2?$AA?9?$AA1?$AA?9?$AA0?$AA?$AA@ 10039914     libucrt:winapi_thunks.obj
 0002:00001950       ??_C@_1EO@IJIOEFOH@?$AAa?$AAp?$AAi?$AA?9?$AAm?$AAs?$AA?9?$AAw?$AAi?$AAn?$AA?9?$AAr?$AAt?$AAc?$AAo?$AAr?$AAe?$AA?9?$AAn?$AAt?$AAu?$AAs?$AAe?$AAr?$AA?9?$AAw?$AAi?$AAn?$AAd?$AAo?$AAw?$AA?9@ 10039950     libucrt:winapi_thunks.obj
 0002:000019a0       ??_C@_1FG@HHGEKANL@?$AAa?$AAp?$AAi?$AA?9?$AAm?$AAs?$AA?9?$AAw?$AAi?$AAn?$AA?9?$AAs?$AAe?$AAc?$AAu?$AAr?$AAi?$AAt?$AAy?$AA?9?$AAs?$AAy?$AAs?$AAt?$AAe?$AAm?$AAf?$AAu?$AAn?$AAc?$AAt?$AAi@ 100399a0     libucrt:winapi_thunks.obj
 0002:000019f8       ??_C@_1FG@NCKKOLKO@?$AAe?$AAx?$AAt?$AA?9?$AAm?$AAs?$AA?9?$AAw?$AAi?$AAn?$AA?9?$AAk?$AAe?$AAr?$AAn?$AAe?$AAl?$AA3?$AA2?$AA?9?$AAp?$AAa?$AAc?$AAk?$AAa?$AAg?$AAe?$AA?9?$AAc?$AAu?$AAr?$AAr@ 100399f8     libucrt:winapi_thunks.obj
 0002:00001a50       ??_C@_1EG@DBIOJECG@?$AAe?$AAx?$AAt?$AA?9?$AAm?$AAs?$AA?9?$AAw?$AAi?$AAn?$AA?9?$AAn?$AAt?$AAu?$AAs?$AAe?$AAr?$AA?9?$AAd?$AAi?$AAa?$AAl?$AAo?$AAg?$AAb?$AAo?$AAx?$AA?9?$AAl?$AA1?$AA?9?$AA1@ 10039a50     libucrt:winapi_thunks.obj
 0002:00001a98       ??_C@_1EO@FIHMJCLF@?$AAe?$AAx?$AAt?$AA?9?$AAm?$AAs?$AA?9?$AAw?$AAi?$AAn?$AA?9?$AAn?$AAt?$AAu?$AAs?$AAe?$AAr?$AA?9?$AAw?$AAi?$AAn?$AAd?$AAo?$AAw?$AAs?$AAt?$AAa?$AAt?$AAi?$AAo?$AAn?$AA?9@ 10039a98     libucrt:winapi_thunks.obj
 0002:00001ae8       ??_C@_1O@BCCLBEOE@?$AAu?$AAs?$AAe?$AAr?$AA3?$AA2?$AA?$AA@ 10039ae8     libucrt:winapi_thunks.obj
 0002:00001afc       ??_C@_0BA@FHFNEAED@AreFileApisANSI?$AA@ 10039afc     libucrt:winapi_thunks.obj
 0002:00001b14       ??_C@_0BA@IHGNDAEB@CompareStringEx?$AA@ 10039b14     libucrt:winapi_thunks.obj
 0002:00001b4c       ??_C@_0BA@HNOPNCHB@GetActiveWindow?$AA@ 10039b4c     libucrt:winapi_thunks.obj
 0002:00001b64       ??_C@_0BE@JOGNEJCI@GetCurrentPackageId?$AA@ 10039b64     libucrt:winapi_thunks.obj
 0002:00001b80       ??_C@_0BD@HHGDFDBJ@GetLastActivePopup?$AA@ 10039b80     libucrt:winapi_thunks.obj
 0002:00001b9c       ??_C@_0BI@DFKBFLJE@GetProcessWindowStation?$AA@ 10039b9c     libucrt:winapi_thunks.obj
 0002:00001bbc       ??_C@_0BK@DEKFELLI@GetUserObjectInformationW?$AA@ 10039bbc     libucrt:winapi_thunks.obj
 0002:00001be8       ??_C@_0O@KKBNKAPF@LCMapStringEx?$AA@ 10039be8     libucrt:winapi_thunks.obj
 0002:00001c00       ??_C@_0BB@HBDEELFH@LocaleNameToLCID?$AA@ 10039c00     libucrt:winapi_thunks.obj
 0002:00001c1c       ??_C@_0M@CHKKJDAI@MessageBoxA?$AA@ 10039c1c     libucrt:winapi_thunks.obj
 0002:00001c30       ??_C@_0M@DLDCCGNP@MessageBoxW?$AA@ 10039c30     libucrt:winapi_thunks.obj
 0002:00001c40       __wctype                   10039c40     libucrt:ctype.obj
 0002:00001e48       ___newctype                10039e48     libucrt:ctype.obj
 0002:00002148       ___newclmap                1003a148     libucrt:ctype.obj
 0002:000022c8       ___newcumap                1003a2c8     libucrt:ctype.obj
 0002:00002458       ??_C@_1M@HPNHIDJI@?$AAj?$AAa?$AA?9?$AAJ?$AAP?$AA?$AA@ 1003a458     libucrt:mbctype.obj
 0002:00002464       ??_C@_1M@BIBDDEMK@?$AAz?$AAh?$AA?9?$AAC?$AAN?$AA?$AA@ 1003a464     libucrt:mbctype.obj
 0002:00002470       ??_C@_1M@JLOOOEGK@?$AAk?$AAo?$AA?9?$AAK?$AAR?$AA?$AA@ 1003a470     libucrt:mbctype.obj
 0002:0000247c       ??_C@_1M@CLNBBOPM@?$AAz?$AAh?$AA?9?$AAT?$AAW?$AA?$AA@ 1003a47c     libucrt:mbctype.obj
 0002:00002488       ??_C@_15PJPFLCCM@?$AAu?$AAk?$AA?$AA@ 1003a488     libucrt:get_qualified_locale.obj
 0002:00002490       ?large_power_data@?1??multiply_by_power_of_ten@__crt_strtox@@YA_NAAUbig_integer@2@I@Z@4QBIB 1003a490     libucrt:cfout.obj
 0002:00002d98       ?large_power_indices@?1??multiply_by_power_of_ten@__crt_strtox@@YA_NAAUbig_integer@2@I@Z@4QBUunpack_index@?1??12@YA_N0I@Z@B 1003ad98     libucrt:cfout.obj
 0002:00002e30       ?small_powers_of_ten@?6??multiply_by_power_of_ten@__crt_strtox@@YA_NAAUbig_integer@2@I@Z@4QBIB 1003ae30     libucrt:cfout.obj
 0002:00002e54       ??_C@_05DNEBIAHO@1?$CDINF?$AA@ 1003ae54     libucrt:cfout.obj
 0002:00002e5c       ??_C@_06IMKFLFPG@1?$CDQNAN?$AA@ 1003ae5c     libucrt:cfout.obj
 0002:00002e64       ??_C@_06PGGFOGJG@1?$CDSNAN?$AA@ 1003ae64     libucrt:cfout.obj
 0002:00002e6c       ??_C@_05PHHOCPM@1?$CDIND?$AA@ 1003ae6c     libucrt:cfout.obj
 0002:00003598       ??_C@_15EMKDOKLE@?$AAa?$AAr?$AA?$AA@ 1003b598     libucrt:lcidtoname_downlevel.obj
 0002:000035a0       ??_C@_15KNPADPLH@?$AAb?$AAg?$AA?$AA@ 1003b5a0     libucrt:lcidtoname_downlevel.obj
 0002:000035a8       ??_C@_15EDMHLDMO@?$AAc?$AAa?$AA?$AA@ 1003b5a8     libucrt:lcidtoname_downlevel.obj
 0002:000035b0       ??_C@_1O@BPEAJADD@?$AAz?$AAh?$AA?9?$AAC?$AAH?$AAS?$AA?$AA@ 1003b5b0     libucrt:lcidtoname_downlevel.obj
 0002:000035c0       ??_C@_15LJNHCMNK@?$AAc?$AAs?$AA?$AA@ 1003b5c0     libucrt:lcidtoname_downlevel.obj
 0002:000035c8       ??_C@_15FOMCIDHG@?$AAd?$AAa?$AA?$AA@ 1003b5c8     libucrt:lcidtoname_downlevel.obj
 0002:000035d0       ??_C@_15NBKABECB@?$AAd?$AAe?$AA?$AA@ 1003b5d0     libucrt:lcidtoname_downlevel.obj
 0002:000035d8       ??_C@_15GHPEIIAO@?$AAe?$AAl?$AA?$AA@ 1003b5d8     libucrt:lcidtoname_downlevel.obj
 0002:000035e0       ??_C@_15MNPNEAIF@?$AAe?$AAn?$AA?$AA@ 1003b5e0     libucrt:lcidtoname_downlevel.obj
 0002:000035e8       ??_C@_15GPIOMPMH@?$AAe?$AAs?$AA?$AA@ 1003b5e8     libucrt:lcidtoname_downlevel.obj
 0002:000035f0       ??_C@_15NGLOAKJC@?$AAf?$AAi?$AA?$AA@ 1003b5f0     libucrt:lcidtoname_downlevel.obj
 0002:000035f8       ??_C@_15FBKGNKAM@?$AAf?$AAr?$AA?$AA@ 1003b5f8     libucrt:lcidtoname_downlevel.obj
 0002:00003600       ??_C@_15KGGCNEFK@?$AAh?$AAe?$AA?$AA@ 1003b600     libucrt:lcidtoname_downlevel.obj
 0002:00003608       ??_C@_15PGHLIDMF@?$AAh?$AAu?$AA?$AA@ 1003b608     libucrt:lcidtoname_downlevel.obj
 0002:00003610       ??_C@_15BIEMAPLM@?$AAi?$AAs?$AA?$AA@ 1003b610     libucrt:lcidtoname_downlevel.obj
 0002:00003618       ??_C@_15IFJLDHAF@?$AAi?$AAt?$AA?$AA@ 1003b618     libucrt:lcidtoname_downlevel.obj
 0002:00003620       ??_C@_15GEMIOCAG@?$AAj?$AAa?$AA?$AA@ 1003b620     libucrt:lcidtoname_downlevel.obj
 0002:00003628       ??_C@_15EPELEGJA@?$AAk?$AAo?$AA?$AA@ 1003b628     libucrt:lcidtoname_downlevel.obj
 0002:00003630       ??_C@_15NDDHIMN@?$AAn?$AAl?$AA?$AA@ 1003b630     libucrt:lcidtoname_downlevel.obj
 0002:00003638       ??_C@_15BPIGNHCD@?$AAn?$AAo?$AA?$AA@ 1003b638     libucrt:lcidtoname_downlevel.obj
 0002:00003640       ??_C@_15DEOPBLCG@?$AAp?$AAl?$AA?$AA@ 1003b640     libucrt:lcidtoname_downlevel.obj
 0002:00003648       ??_C@_15KBECGEFG@?$AAp?$AAt?$AA?$AA@ 1003b648     libucrt:lcidtoname_downlevel.obj
 0002:00003650       ??_C@_15GLJCBFMD@?$AAr?$AAo?$AA?$AA@ 1003b650     libucrt:lcidtoname_downlevel.obj
 0002:00003658       ??_C@_15FEDGKCDI@?$AAr?$AAu?$AA?$AA@ 1003b658     libucrt:lcidtoname_downlevel.obj
 0002:00003660       ??_C@_15GLKMLLHM@?$AAh?$AAr?$AA?$AA@ 1003b660     libucrt:lcidtoname_downlevel.obj
 0002:00003668       ??_C@_15CPKMFBDB@?$AAs?$AAk?$AA?$AA@ 1003b668     libucrt:lcidtoname_downlevel.obj
 0002:00003670       ??_C@_15BAAIOGMK@?$AAs?$AAq?$AA?$AA@ 1003b670     libucrt:lcidtoname_downlevel.obj
 0002:00003678       ??_C@_15INNPNOHD@?$AAs?$AAv?$AA?$AA@ 1003b678     libucrt:lcidtoname_downlevel.obj
 0002:00003680       ??_C@_15CABMMOGH@?$AAt?$AAh?$AA?$AA@ 1003b680     libucrt:lcidtoname_downlevel.obj
 0002:00003688       ??_C@_15BPLIHJJM@?$AAt?$AAr?$AA?$AA@ 1003b688     libucrt:lcidtoname_downlevel.obj
 0002:00003690       ??_C@_15NEOEKKDJ@?$AAu?$AAr?$AA?$AA@ 1003b690     libucrt:lcidtoname_downlevel.obj
 0002:00003698       ??_C@_15NFICGAJK@?$AAi?$AAd?$AA?$AA@ 1003b698     libucrt:lcidtoname_downlevel.obj
 0002:000036a0       ??_C@_15HPJPHDM@?$AAb?$AAe?$AA?$AA@ 1003b6a0     libucrt:lcidtoname_downlevel.obj
 0002:000036a8       ??_C@_15LCHLGJII@?$AAs?$AAl?$AA?$AA@ 1003b6a8     libucrt:lcidtoname_downlevel.obj
 0002:000036b0       ??_C@_15PCFJPHHO@?$AAe?$AAt?$AA?$AA@ 1003b6b0     libucrt:lcidtoname_downlevel.obj
 0002:000036b8       ??_C@_15HPFPGODN@?$AAl?$AAv?$AA?$AA@ 1003b6b8     libucrt:lcidtoname_downlevel.obj
 0002:000036c0       ??_C@_15NFFGKGLG@?$AAl?$AAt?$AA?$AA@ 1003b6c0     libucrt:lcidtoname_downlevel.obj
 0002:000036c8       ??_C@_15BDAKCCHN@?$AAf?$AAa?$AA?$AA@ 1003b6c8     libucrt:lcidtoname_downlevel.obj
 0002:000036d0       ??_C@_15NFGIAIAJ@?$AAv?$AAi?$AA?$AA@ 1003b6d0     libucrt:lcidtoname_downlevel.obj
 0002:000036d8       ??_C@_15LMKNDMHN@?$AAh?$AAy?$AA?$AA@ 1003b6d8     libucrt:lcidtoname_downlevel.obj
 0002:000036e0       ??_C@_15IJBHMCFL@?$AAa?$AAz?$AA?$AA@ 1003b6e0     libucrt:lcidtoname_downlevel.obj
 0002:000036e8       ??_C@_15EKOFJABL@?$AAe?$AAu?$AA?$AA@ 1003b6e8     libucrt:lcidtoname_downlevel.obj
 0002:000036f0       ??_C@_15BGHADCNK@?$AAm?$AAk?$AA?$AA@ 1003b6f0     libucrt:lcidtoname_downlevel.obj
 0002:000036f8       ??_C@_15JDNICKHM@?$AAa?$AAf?$AA?$AA@ 1003b6f8     libucrt:lcidtoname_downlevel.obj
 0002:00003700       ??_C@_15KPJEDBKD@?$AAk?$AAa?$AA?$AA@ 1003b700     libucrt:lcidtoname_downlevel.obj
 0002:00003708       ??_C@_15PDNFFFEO@?$AAf?$AAo?$AA?$AA@ 1003b708     libucrt:lcidtoname_downlevel.obj
 0002:00003710       ??_C@_15OMLEGLOC@?$AAh?$AAi?$AA?$AA@ 1003b710     libucrt:lcidtoname_downlevel.obj
 0002:00003718       ??_C@_15IDNNENKK@?$AAm?$AAs?$AA?$AA@ 1003b718     libucrt:lcidtoname_downlevel.obj
 0002:00003720       ??_C@_15MACJNBMH@?$AAk?$AAk?$AA?$AA@ 1003b720     libucrt:lcidtoname_downlevel.obj
 0002:00003728       ??_C@_15DKDJEOND@?$AAk?$AAy?$AA?$AA@ 1003b728     libucrt:lcidtoname_downlevel.obj
 0002:00003730       ??_C@_15DFGDLJBG@?$AAs?$AAw?$AA?$AA@ 1003b730     libucrt:lcidtoname_downlevel.obj
 0002:00003738       ??_C@_15BBFAICNG@?$AAu?$AAz?$AA?$AA@ 1003b738     libucrt:lcidtoname_downlevel.obj
 0002:00003740       ??_C@_15DKNDCGEA@?$AAt?$AAt?$AA?$AA@ 1003b740     libucrt:lcidtoname_downlevel.obj
 0002:00003748       ??_C@_15MGIFMDPL@?$AAp?$AAa?$AA?$AA@ 1003b748     libucrt:lcidtoname_downlevel.obj
 0002:00003750       ??_C@_15HCNDBBA@?$AAg?$AAu?$AA?$AA@ 1003b750     libucrt:lcidtoname_downlevel.obj
 0002:00003758       ??_C@_15FNBEIBON@?$AAt?$AAa?$AA?$AA@ 1003b758     libucrt:lcidtoname_downlevel.obj
 0002:00003760       ??_C@_15NCHGBGLK@?$AAt?$AAe?$AA?$AA@ 1003b760     libucrt:lcidtoname_downlevel.obj
 0002:00003768       ??_C@_15PHPHCBPF@?$AAk?$AAn?$AA?$AA@ 1003b768     libucrt:lcidtoname_downlevel.obj
 0002:00003770       ??_C@_15DLGBCKMP@?$AAm?$AAr?$AA?$AA@ 1003b770     libucrt:lcidtoname_downlevel.obj
 0002:00003778       ??_C@_15EABBLBFF@?$AAs?$AAa?$AA?$AA@ 1003b778     libucrt:lcidtoname_downlevel.obj
 0002:00003780       ??_C@_15CBKOMCOI@?$AAm?$AAn?$AA?$AA@ 1003b780     libucrt:lcidtoname_downlevel.obj
 0002:00003788       ??_C@_15CKDMCJAF@?$AAg?$AAl?$AA?$AA@ 1003b788     libucrt:lcidtoname_downlevel.obj
 0002:00003790       ??_C@_17CNJFBPG@?$AAk?$AAo?$AAk?$AA?$AA@ 1003b790     libucrt:lcidtoname_downlevel.obj
 0002:00003798       ??_C@_17FFBJICPL@?$AAs?$AAy?$AAr?$AA?$AA@ 1003b798     libucrt:lcidtoname_downlevel.obj
 0002:000037a0       ??_C@_17KPNDCPAF@?$AAd?$AAi?$AAv?$AA?$AA@ 1003b7a0     libucrt:lcidtoname_downlevel.obj
 0002:000037a8       ??_C@_11LOCGONAA@?$AA?$AA@ 1003b7a8     libucrt:lcidtoname_downlevel.obj
 0002:000037ac       ??_C@_1M@OKAHONE@?$AAa?$AAr?$AA?9?$AAS?$AAA?$AA?$AA@ 1003b7ac     libucrt:lcidtoname_downlevel.obj
 0002:000037b8       ??_C@_1M@FFFIGIGK@?$AAb?$AAg?$AA?9?$AAB?$AAG?$AA?$AA@ 1003b7b8     libucrt:lcidtoname_downlevel.obj
 0002:000037c4       ??_C@_1M@BJNKEDC@?$AAc?$AAa?$AA?9?$AAE?$AAS?$AA?$AA@ 1003b7c4     libucrt:lcidtoname_downlevel.obj
 0002:000037d0       ??_C@_1M@IJJHFJHA@?$AAc?$AAs?$AA?9?$AAC?$AAZ?$AA?$AA@ 1003b7d0     libucrt:lcidtoname_downlevel.obj
 0002:000037dc       ??_C@_1M@CLPEOBGI@?$AAd?$AAa?$AA?9?$AAD?$AAK?$AA?$AA@ 1003b7dc     libucrt:lcidtoname_downlevel.obj
 0002:000037e8       ??_C@_1M@MCMADGCB@?$AAd?$AAe?$AA?9?$AAD?$AAE?$AA?$AA@ 1003b7e8     libucrt:lcidtoname_downlevel.obj
 0002:000037f4       ??_C@_1M@OOCKEMAM@?$AAe?$AAl?$AA?9?$AAG?$AAR?$AA?$AA@ 1003b7f4     libucrt:lcidtoname_downlevel.obj
 0002:00003800       ??_C@_1M@DDNJFGID@?$AAf?$AAi?$AA?9?$AAF?$AAI?$AA?$AA@ 1003b800     libucrt:lcidtoname_downlevel.obj
 0002:0000380c       ??_C@_1M@GLIPPMAC@?$AAf?$AAr?$AA?9?$AAF?$AAR?$AA?$AA@ 1003b80c     libucrt:lcidtoname_downlevel.obj
 0002:00003818       ??_C@_1M@GFMCHPE@?$AAh?$AAe?$AA?9?$AAI?$AAL?$AA?$AA@ 1003b818     libucrt:lcidtoname_downlevel.obj
 0002:00003824       ??_C@_1M@MHLPGNKM@?$AAh?$AAu?$AA?9?$AAH?$AAU?$AA?$AA@ 1003b824     libucrt:lcidtoname_downlevel.obj
 0002:00003830       ??_C@_1M@LPDDNNPN@?$AAi?$AAs?$AA?9?$AAI?$AAS?$AA?$AA@ 1003b830     libucrt:lcidtoname_downlevel.obj
 0002:0000383c       ??_C@_1M@MADIPODN@?$AAi?$AAt?$AA?9?$AAI?$AAT?$AA?$AA@ 1003b83c     libucrt:lcidtoname_downlevel.obj
 0002:00003848       ??_C@_1M@IHBJJGG@?$AAn?$AAl?$AA?9?$AAN?$AAL?$AA?$AA@ 1003b848     libucrt:lcidtoname_downlevel.obj
 0002:00003854       ??_C@_1M@EANAGDL@?$AAn?$AAb?$AA?9?$AAN?$AAO?$AA?$AA@ 1003b854     libucrt:lcidtoname_downlevel.obj
 0002:00003860       ??_C@_1M@NEIEMEGP@?$AAp?$AAl?$AA?9?$AAP?$AAL?$AA?$AA@ 1003b860     libucrt:lcidtoname_downlevel.obj
 0002:0000386c       ??_C@_1M@BOCFIGEP@?$AAp?$AAt?$AA?9?$AAB?$AAR?$AA?$AA@ 1003b86c     libucrt:lcidtoname_downlevel.obj
 0002:00003878       ??_C@_1M@IMPFOPBG@?$AAr?$AAo?$AA?9?$AAR?$AAO?$AA?$AA@ 1003b878     libucrt:lcidtoname_downlevel.obj
 0002:00003884       ??_C@_1M@IDNNEJMM@?$AAr?$AAu?$AA?9?$AAR?$AAU?$AA?$AA@ 1003b884     libucrt:lcidtoname_downlevel.obj
 0002:00003890       ??_C@_1M@LILEEOGM@?$AAh?$AAr?$AA?9?$AAH?$AAR?$AA?$AA@ 1003b890     libucrt:lcidtoname_downlevel.obj
 0002:0000389c       ??_C@_1M@FKIFEHPB@?$AAs?$AAk?$AA?9?$AAS?$AAK?$AA?$AA@ 1003b89c     libucrt:lcidtoname_downlevel.obj
 0002:000038a8       ??_C@_1M@LJMAMNPJ@?$AAs?$AAq?$AA?9?$AAA?$AAL?$AA?$AA@ 1003b8a8     libucrt:lcidtoname_downlevel.obj
 0002:000038b4       ??_C@_1M@GIAKDKJK@?$AAs?$AAv?$AA?9?$AAS?$AAE?$AA?$AA@ 1003b8b4     libucrt:lcidtoname_downlevel.obj
 0002:000038c0       ??_C@_1M@MKJKIKCL@?$AAt?$AAh?$AA?9?$AAT?$AAH?$AA?$AA@ 1003b8c0     libucrt:lcidtoname_downlevel.obj
 0002:000038cc       ??_C@_1M@MFLCCMPB@?$AAt?$AAr?$AA?9?$AAT?$AAR?$AA?$AA@ 1003b8cc     libucrt:lcidtoname_downlevel.obj
 0002:000038d8       ??_C@_1M@OIJHDKJN@?$AAu?$AAr?$AA?9?$AAP?$AAK?$AA?$AA@ 1003b8d8     libucrt:lcidtoname_downlevel.obj
 0002:000038e4       ??_C@_1M@LHIPCIEK@?$AAi?$AAd?$AA?9?$AAI?$AAD?$AA?$AA@ 1003b8e4     libucrt:lcidtoname_downlevel.obj
 0002:000038f0       ??_C@_1M@MFMOBGI@?$AAu?$AAk?$AA?9?$AAU?$AAA?$AA?$AA@ 1003b8f0     libucrt:lcidtoname_downlevel.obj
 0002:000038fc       ??_C@_1M@OBGLJIPL@?$AAb?$AAe?$AA?9?$AAB?$AAY?$AA?$AA@ 1003b8fc     libucrt:lcidtoname_downlevel.obj
 0002:00003908       ??_C@_1M@BCFAJEAD@?$AAs?$AAl?$AA?9?$AAS?$AAI?$AA?$AA@ 1003b908     libucrt:lcidtoname_downlevel.obj
 0002:00003914       ??_C@_1M@FKFFEDDN@?$AAe?$AAt?$AA?9?$AAE?$AAE?$AA?$AA@ 1003b914     libucrt:lcidtoname_downlevel.obj
 0002:00003920       ??_C@_1M@KGKKAACI@?$AAl?$AAv?$AA?9?$AAL?$AAV?$AA?$AA@ 1003b920     libucrt:lcidtoname_downlevel.obj
 0002:0000392c       ??_C@_1M@IFGBIJO@?$AAl?$AAt?$AA?9?$AAL?$AAT?$AA?$AA@ 1003b92c     libucrt:lcidtoname_downlevel.obj
 0002:00003938       ??_C@_1M@FGEAHEDM@?$AAf?$AAa?$AA?9?$AAI?$AAR?$AA?$AA@ 1003b938     libucrt:lcidtoname_downlevel.obj
 0002:00003944       ??_C@_1M@KBMAIBFN@?$AAv?$AAi?$AA?9?$AAV?$AAN?$AA?$AA@ 1003b944     libucrt:lcidtoname_downlevel.obj
 0002:00003950       ??_C@_1M@GPCBKDJK@?$AAh?$AAy?$AA?9?$AAA?$AAM?$AA?$AA@ 1003b950     libucrt:lcidtoname_downlevel.obj
 0002:0000395c       ??_C@_1BG@BECMDDJB@?$AAa?$AAz?$AA?9?$AAA?$AAZ?$AA?9?$AAL?$AAa?$AAt?$AAn?$AA?$AA@ 1003b95c     libucrt:lcidtoname_downlevel.obj
 0002:00003974       ??_C@_1M@MAOFCAEA@?$AAe?$AAu?$AA?9?$AAE?$AAS?$AA?$AA@ 1003b974     libucrt:lcidtoname_downlevel.obj
 0002:00003980       ??_C@_1M@IGHABKPI@?$AAm?$AAk?$AA?9?$AAM?$AAK?$AA?$AA@ 1003b980     libucrt:lcidtoname_downlevel.obj
 0002:0000398c       ??_C@_1M@IAIGNEJG@?$AAt?$AAn?$AA?9?$AAZ?$AAA?$AA?$AA@ 1003b98c     libucrt:lcidtoname_downlevel.obj
 0002:00003998       ??_C@_1M@IIJCOJFA@?$AAx?$AAh?$AA?9?$AAZ?$AAA?$AA?$AA@ 1003b998     libucrt:lcidtoname_downlevel.obj
 0002:000039a4       ??_C@_1M@LGPJHNJH@?$AAz?$AAu?$AA?9?$AAZ?$AAA?$AA?$AA@ 1003b9a4     libucrt:lcidtoname_downlevel.obj
 0002:000039b0       ??_C@_1M@HOKAOIO@?$AAa?$AAf?$AA?9?$AAZ?$AAA?$AA?$AA@ 1003b9b0     libucrt:lcidtoname_downlevel.obj
 0002:000039bc       ??_C@_1M@DPCLHLIE@?$AAk?$AAa?$AA?9?$AAG?$AAE?$AA?$AA@ 1003b9bc     libucrt:lcidtoname_downlevel.obj
 0002:000039c8       ??_C@_1M@BLKMHJBI@?$AAf?$AAo?$AA?9?$AAF?$AAO?$AA?$AA@ 1003b9c8     libucrt:lcidtoname_downlevel.obj
 0002:000039d4       ??_C@_1M@LGGJAPPB@?$AAh?$AAi?$AA?9?$AAI?$AAN?$AA?$AA@ 1003b9d4     libucrt:lcidtoname_downlevel.obj
 0002:000039e0       ??_C@_1M@FIKPIHFE@?$AAm?$AAt?$AA?9?$AAM?$AAT?$AA?$AA@ 1003b9e0     libucrt:lcidtoname_downlevel.obj
 0002:000039ec       ??_C@_1M@HEGGPBFA@?$AAs?$AAe?$AA?9?$AAN?$AAO?$AA?$AA@ 1003b9ec     libucrt:lcidtoname_downlevel.obj
 0002:000039f8       ??_C@_1M@EIBJEEPA@?$AAm?$AAs?$AA?9?$AAM?$AAY?$AA?$AA@ 1003b9f8     libucrt:lcidtoname_downlevel.obj
 0002:00003a04       ??_C@_1M@FHLBGMPP@?$AAk?$AAk?$AA?9?$AAK?$AAZ?$AA?$AA@ 1003ba04     libucrt:lcidtoname_downlevel.obj
 0002:00003a10       ??_C@_1M@NGJJLCGI@?$AAk?$AAy?$AA?9?$AAK?$AAG?$AA?$AA@ 1003ba10     libucrt:lcidtoname_downlevel.obj
 0002:00003a1c       ??_C@_1M@GIENNBFC@?$AAs?$AAw?$AA?9?$AAK?$AAE?$AA?$AA@ 1003ba1c     libucrt:lcidtoname_downlevel.obj
 0002:00003a28       ??_C@_1BG@NDGMJIMJ@?$AAu?$AAz?$AA?9?$AAU?$AAZ?$AA?9?$AAL?$AAa?$AAt?$AAn?$AA?$AA@ 1003ba28     libucrt:lcidtoname_downlevel.obj
 0002:00003a40       ??_C@_1M@IDCCIHBC@?$AAt?$AAt?$AA?9?$AAR?$AAU?$AA?$AA@ 1003ba40     libucrt:lcidtoname_downlevel.obj
 0002:00003a4c       ??_C@_1M@LOICPMOJ@?$AAb?$AAn?$AA?9?$AAI?$AAN?$AA?$AA@ 1003ba4c     libucrt:lcidtoname_downlevel.obj
 0002:00003a58       ??_C@_1M@KPKKNEAH@?$AAp?$AAa?$AA?9?$AAI?$AAN?$AA?$AA@ 1003ba58     libucrt:lcidtoname_downlevel.obj
 0002:00003a64       ??_C@_1M@PJGPPBOG@?$AAg?$AAu?$AA?9?$AAI?$AAN?$AA?$AA@ 1003ba64     libucrt:lcidtoname_downlevel.obj
 0002:00003a70       ??_C@_1M@KMKMOPHI@?$AAt?$AAa?$AA?9?$AAI?$AAN?$AA?$AA@ 1003ba70     libucrt:lcidtoname_downlevel.obj
 0002:00003a7c       ??_C@_1M@KFEHEPAC@?$AAt?$AAe?$AA?9?$AAI?$AAN?$AA?$AA@ 1003ba7c     libucrt:lcidtoname_downlevel.obj
 0002:00003a88       ??_C@_1M@CDCLMGHI@?$AAk?$AAn?$AA?9?$AAI?$AAN?$AA?$AA@ 1003ba88     libucrt:lcidtoname_downlevel.obj
 0002:00003a94       ??_C@_1M@MIODLDKF@?$AAm?$AAl?$AA?9?$AAI?$AAN?$AA?$AA@ 1003ba94     libucrt:lcidtoname_downlevel.obj
 0002:00003aa0       ??_C@_1M@PBIEACPO@?$AAm?$AAr?$AA?9?$AAI?$AAN?$AA?$AA@ 1003baa0     libucrt:lcidtoname_downlevel.obj
 0002:00003aac       ??_C@_1M@NIDEAGPH@?$AAs?$AAa?$AA?9?$AAI?$AAN?$AA?$AA@ 1003baac     libucrt:lcidtoname_downlevel.obj
 0002:00003ab8       ??_C@_1M@FHIHCBIO@?$AAm?$AAn?$AA?9?$AAM?$AAN?$AA?$AA@ 1003bab8     libucrt:lcidtoname_downlevel.obj
 0002:00003ac4       ??_C@_1M@JAIJPENP@?$AAc?$AAy?$AA?9?$AAG?$AAB?$AA?$AA@ 1003bac4     libucrt:lcidtoname_downlevel.obj
 0002:00003ad0       ??_C@_1M@PHGFBEPN@?$AAg?$AAl?$AA?9?$AAE?$AAS?$AA?$AA@ 1003bad0     libucrt:lcidtoname_downlevel.obj
 0002:00003adc       ??_C@_1O@KPIPDNCP@?$AAk?$AAo?$AAk?$AA?9?$AAI?$AAN?$AA?$AA@ 1003badc     libucrt:lcidtoname_downlevel.obj
 0002:00003aec       ??_C@_1O@KNHJLDJA@?$AAs?$AAy?$AAr?$AA?9?$AAS?$AAY?$AA?$AA@ 1003baec     libucrt:lcidtoname_downlevel.obj
 0002:00003afc       ??_C@_1O@MKEKBLAH@?$AAd?$AAi?$AAv?$AA?9?$AAM?$AAV?$AA?$AA@ 1003bafc     libucrt:lcidtoname_downlevel.obj
 0002:00003b0c       ??_C@_1O@OHDCKDDF@?$AAq?$AAu?$AAz?$AA?9?$AAB?$AAO?$AA?$AA@ 1003bb0c     libucrt:lcidtoname_downlevel.obj
 0002:00003b1c       ??_C@_1M@LEPJNLFD@?$AAn?$AAs?$AA?9?$AAZ?$AAA?$AA?$AA@ 1003bb1c     libucrt:lcidtoname_downlevel.obj
 0002:00003b28       ??_C@_1M@OMLEIIJB@?$AAm?$AAi?$AA?9?$AAN?$AAZ?$AA?$AA@ 1003bb28     libucrt:lcidtoname_downlevel.obj
 0002:00003b34       ??_C@_1M@PMPEAILG@?$AAa?$AAr?$AA?9?$AAI?$AAQ?$AA?$AA@ 1003bb34     libucrt:lcidtoname_downlevel.obj
 0002:00003b40       ??_C@_1M@CNKPNOEE@?$AAd?$AAe?$AA?9?$AAC?$AAH?$AA?$AA@ 1003bb40     libucrt:lcidtoname_downlevel.obj
 0002:00003b4c       ??_C@_1M@LKMGMLKO@?$AAe?$AAn?$AA?9?$AAG?$AAB?$AA?$AA@ 1003bb4c     libucrt:lcidtoname_downlevel.obj
 0002:00003b58       ??_C@_1M@PGKJFFGL@?$AAe?$AAs?$AA?9?$AAM?$AAX?$AA?$AA@ 1003bb58     libucrt:lcidtoname_downlevel.obj
 0002:00003b64       ??_C@_1M@DNNANBDC@?$AAf?$AAr?$AA?9?$AAB?$AAE?$AA?$AA@ 1003bb64     libucrt:lcidtoname_downlevel.obj
 0002:00003b70       ??_C@_1M@HLGMDFHM@?$AAi?$AAt?$AA?9?$AAC?$AAH?$AA?$AA@ 1003bb70     libucrt:lcidtoname_downlevel.obj
 0002:00003b7c       ??_C@_1M@CLLBGJH@?$AAn?$AAl?$AA?9?$AAB?$AAE?$AA?$AA@ 1003bb7c     libucrt:lcidtoname_downlevel.obj
 0002:00003b88       ??_C@_1M@BODBOGLF@?$AAn?$AAn?$AA?9?$AAN?$AAO?$AA?$AA@ 1003bb88     libucrt:lcidtoname_downlevel.obj
 0002:00003b94       ??_C@_1M@HFFAHKAD@?$AAp?$AAt?$AA?9?$AAP?$AAT?$AA?$AA@ 1003bb94     libucrt:lcidtoname_downlevel.obj
 0002:00003ba0       ??_C@_1BG@LNOAKHIE@?$AAs?$AAr?$AA?9?$AAS?$AAP?$AA?9?$AAL?$AAa?$AAt?$AAn?$AA?$AA@ 1003bba0     libucrt:lcidtoname_downlevel.obj
 0002:00003bb8       ??_C@_1M@HBMHBGAK@?$AAs?$AAv?$AA?9?$AAF?$AAI?$AA?$AA@ 1003bbb8     libucrt:lcidtoname_downlevel.obj
 0002:00003bc4       ??_C@_1BG@DGCJGJBE@?$AAa?$AAz?$AA?9?$AAA?$AAZ?$AA?9?$AAC?$AAy?$AAr?$AAl?$AA?$AA@ 1003bbc4     libucrt:lcidtoname_downlevel.obj
 0002:00003bdc       ??_C@_1M@KEJDAAHB@?$AAs?$AAe?$AA?9?$AAS?$AAE?$AA?$AA@ 1003bbdc     libucrt:lcidtoname_downlevel.obj
 0002:00003be8       ??_C@_1M@HEIBJJAD@?$AAm?$AAs?$AA?9?$AAB?$AAN?$AA?$AA@ 1003bbe8     libucrt:lcidtoname_downlevel.obj
 0002:00003bf4       ??_C@_1BG@PBGJMCEM@?$AAu?$AAz?$AA?9?$AAU?$AAZ?$AA?9?$AAC?$AAy?$AAr?$AAl?$AA?$AA@ 1003bbf4     libucrt:lcidtoname_downlevel.obj
 0002:00003c0c       ??_C@_1O@LAOBCMDF@?$AAq?$AAu?$AAz?$AA?9?$AAE?$AAC?$AA?$AA@ 1003bc0c     libucrt:lcidtoname_downlevel.obj
 0002:00003c1c       ??_C@_1M@POEEMAIO@?$AAa?$AAr?$AA?9?$AAE?$AAG?$AA?$AA@ 1003bc1c     libucrt:lcidtoname_downlevel.obj
 0002:00003c28       ??_C@_1M@EFAKDEDL@?$AAz?$AAh?$AA?9?$AAH?$AAK?$AA?$AA@ 1003bc28     libucrt:lcidtoname_downlevel.obj
 0002:00003c34       ??_C@_1M@HKKIJHGI@?$AAd?$AAe?$AA?9?$AAA?$AAT?$AA?$AA@ 1003bc34     libucrt:lcidtoname_downlevel.obj
 0002:00003c40       ??_C@_1M@KBFBEHJF@?$AAe?$AAn?$AA?9?$AAA?$AAU?$AA?$AA@ 1003bc40     libucrt:lcidtoname_downlevel.obj
 0002:00003c4c       ??_C@_1M@MNPLFAAH@?$AAe?$AAs?$AA?9?$AAE?$AAS?$AA?$AA@ 1003bc4c     libucrt:lcidtoname_downlevel.obj
 0002:00003c58       ??_C@_1M@HJOOJFMA@?$AAf?$AAr?$AA?9?$AAC?$AAA?$AA?$AA@ 1003bc58     libucrt:lcidtoname_downlevel.obj
 0002:00003c64       ??_C@_1BG@JPOFPNAB@?$AAs?$AAr?$AA?9?$AAS?$AAP?$AA?9?$AAC?$AAy?$AAr?$AAl?$AA?$AA@ 1003bc64     libucrt:lcidtoname_downlevel.obj
 0002:00003c7c       ??_C@_1M@LNFOCMOB@?$AAs?$AAe?$AA?9?$AAF?$AAI?$AA?$AA@ 1003bc7c     libucrt:lcidtoname_downlevel.obj
 0002:00003c88       ??_C@_1O@MGJBOAMB@?$AAq?$AAu?$AAz?$AA?9?$AAP?$AAE?$AA?$AA@ 1003bc88     libucrt:lcidtoname_downlevel.obj
 0002:00003c98       ??_C@_1M@GJINLBOK@?$AAa?$AAr?$AA?9?$AAL?$AAY?$AA?$AA@ 1003bc98     libucrt:lcidtoname_downlevel.obj
 0002:00003ca4       ??_C@_1M@GGMNHJNL@?$AAz?$AAh?$AA?9?$AAS?$AAG?$AA?$AA@ 1003bca4     libucrt:lcidtoname_downlevel.obj
 0002:00003cb0       ??_C@_1M@HOIKODND@?$AAd?$AAe?$AA?9?$AAL?$AAU?$AA?$AA@ 1003bcb0     libucrt:lcidtoname_downlevel.obj
 0002:00003cbc       ??_C@_1M@DDOCCGFG@?$AAe?$AAn?$AA?9?$AAC?$AAA?$AA?$AA@ 1003bcbc     libucrt:lcidtoname_downlevel.obj
 0002:00003cc8       ??_C@_1M@BNOEMJLF@?$AAe?$AAs?$AA?9?$AAG?$AAT?$AA?$AA@ 1003bcc8     libucrt:lcidtoname_downlevel.obj
 0002:00003cd4       ??_C@_1M@EOGNKEK@?$AAf?$AAr?$AA?9?$AAC?$AAH?$AA?$AA@ 1003bcd4     libucrt:lcidtoname_downlevel.obj
 0002:00003ce0       ??_C@_1M@FLIDJFHL@?$AAh?$AAr?$AA?9?$AAB?$AAA?$AA?$AA@ 1003bce0     libucrt:lcidtoname_downlevel.obj
 0002:00003cec       ??_C@_1O@FMCELNAJ@?$AAs?$AAm?$AAj?$AA?9?$AAN?$AAO?$AA?$AA@ 1003bcec     libucrt:lcidtoname_downlevel.obj
 0002:00003cfc       ??_C@_1M@JHGLJMGJ@?$AAa?$AAr?$AA?9?$AAD?$AAZ?$AA?$AA@ 1003bcfc     libucrt:lcidtoname_downlevel.obj
 0002:00003d08       ??_C@_1M@JKKFDCNP@?$AAz?$AAh?$AA?9?$AAM?$AAO?$AA?$AA@ 1003bd08     libucrt:lcidtoname_downlevel.obj
 0002:00003d14       ??_C@_1M@GEEFALPE@?$AAd?$AAe?$AA?9?$AAL?$AAI?$AA?$AA@ 1003bd14     libucrt:lcidtoname_downlevel.obj
 0002:00003d20       ??_C@_1M@IGEOFBG@?$AAe?$AAn?$AA?9?$AAN?$AAZ?$AA?$AA@ 1003bd20     libucrt:lcidtoname_downlevel.obj
 0002:00003d2c       ??_C@_1M@KDBONEHP@?$AAe?$AAs?$AA?9?$AAC?$AAR?$AA?$AA@ 1003bd2c     libucrt:lcidtoname_downlevel.obj
 0002:00003d38       ??_C@_1M@FHMDOHNN@?$AAf?$AAr?$AA?9?$AAL?$AAU?$AA?$AA@ 1003bd38     libucrt:lcidtoname_downlevel.obj
 0002:00003d44       ??_C@_1BG@NFKKMAFG@?$AAb?$AAs?$AA?9?$AAB?$AAA?$AA?9?$AAL?$AAa?$AAt?$AAn?$AA?$AA@ 1003bd44     libucrt:lcidtoname_downlevel.obj
 0002:00003d5c       ??_C@_1O@IMNBEMCI@?$AAs?$AAm?$AAj?$AA?9?$AAS?$AAE?$AA?$AA@ 1003bd5c     libucrt:lcidtoname_downlevel.obj
 0002:00003d6c       ??_C@_1M@DHHMBNDP@?$AAa?$AAr?$AA?9?$AAM?$AAA?$AA?$AA@ 1003bd6c     libucrt:lcidtoname_downlevel.obj
 0002:00003d78       ??_C@_1M@BNBLJCGH@?$AAe?$AAn?$AA?9?$AAI?$AAE?$AA?$AA@ 1003bd78     libucrt:lcidtoname_downlevel.obj
 0002:00003d84       ??_C@_1M@GEPAFMDL@?$AAe?$AAs?$AA?9?$AAP?$AAA?$AA?$AA@ 1003bd84     libucrt:lcidtoname_downlevel.obj
 0002:00003d90       ??_C@_1M@OJONDMDL@?$AAf?$AAr?$AA?9?$AAM?$AAC?$AA?$AA@ 1003bd90     libucrt:lcidtoname_downlevel.obj
 0002:00003d9c       ??_C@_1BG@OBCNFJB@?$AAs?$AAr?$AA?9?$AAB?$AAA?$AA?9?$AAL?$AAa?$AAt?$AAn?$AA?$AA@ 1003bd9c     libucrt:lcidtoname_downlevel.obj
 0002:00003db4       ??_C@_1O@KEMEEGPO@?$AAs?$AAm?$AAa?$AA?9?$AAN?$AAO?$AA?$AA@ 1003bdb4     libucrt:lcidtoname_downlevel.obj
 0002:00003dc4       ??_C@_1M@ELMGFODK@?$AAa?$AAr?$AA?9?$AAT?$AAN?$AA?$AA@ 1003bdc4     libucrt:lcidtoname_downlevel.obj
 0002:00003dd0       ??_C@_1M@BHDLHFAF@?$AAe?$AAn?$AA?9?$AAZ?$AAA?$AA?$AA@ 1003bdd0     libucrt:lcidtoname_downlevel.obj
 0002:00003ddc       ??_C@_1M@BMGIGLIF@?$AAe?$AAs?$AA?9?$AAD?$AAO?$AA?$AA@ 1003bddc     libucrt:lcidtoname_downlevel.obj
 0002:00003de8       ??_C@_1BG@CMBHIPBE@?$AAs?$AAr?$AA?9?$AAB?$AAA?$AA?9?$AAC?$AAy?$AAr?$AAl?$AA?$AA@ 1003bde8     libucrt:lcidtoname_downlevel.obj
 0002:00003e00       ??_C@_1O@HEDBLHNP@?$AAs?$AAm?$AAa?$AA?9?$AAS?$AAE?$AA?$AA@ 1003be00     libucrt:lcidtoname_downlevel.obj
 0002:00003e10       ??_C@_1M@DAGCADIM@?$AAa?$AAr?$AA?9?$AAO?$AAM?$AA?$AA@ 1003be10     libucrt:lcidtoname_downlevel.obj
 0002:00003e1c       ??_C@_1M@FODLMICG@?$AAe?$AAn?$AA?9?$AAJ?$AAM?$AA?$AA@ 1003be1c     libucrt:lcidtoname_downlevel.obj
 0002:00003e28       ??_C@_1M@DNMLCIHB@?$AAe?$AAs?$AA?9?$AAV?$AAE?$AA?$AA@ 1003be28     libucrt:lcidtoname_downlevel.obj
 0002:00003e34       ??_C@_1O@EOKHMKJK@?$AAs?$AAm?$AAs?$AA?9?$AAF?$AAI?$AA?$AA@ 1003be34     libucrt:lcidtoname_downlevel.obj
 0002:00003e44       ??_C@_1M@CAFJMKOF@?$AAa?$AAr?$AA?9?$AAY?$AAE?$AA?$AA@ 1003be44     libucrt:lcidtoname_downlevel.obj
 0002:00003e50       ??_C@_1M@CBFHIJLI@?$AAe?$AAn?$AA?9?$AAC?$AAB?$AA?$AA@ 1003be50     libucrt:lcidtoname_downlevel.obj
 0002:00003e5c       ??_C@_1M@BGNFLDN@?$AAe?$AAs?$AA?9?$AAC?$AAO?$AA?$AA@ 1003be5c     libucrt:lcidtoname_downlevel.obj
 0002:00003e68       ??_C@_1O@JMPHMAMC@?$AAs?$AAm?$AAn?$AA?9?$AAF?$AAI?$AA?$AA@ 1003be68     libucrt:lcidtoname_downlevel.obj
 0002:00003e78       ??_C@_1M@JLANABKE@?$AAa?$AAr?$AA?9?$AAS?$AAY?$AA?$AA@ 1003be78     libucrt:lcidtoname_downlevel.obj
 0002:00003e84       ??_C@_1M@HPKGCFGN@?$AAe?$AAn?$AA?9?$AAB?$AAZ?$AA?$AA@ 1003be84     libucrt:lcidtoname_downlevel.obj
 0002:00003e90       ??_C@_1M@OLJCMLGM@?$AAe?$AAs?$AA?9?$AAP?$AAE?$AA?$AA@ 1003be90     libucrt:lcidtoname_downlevel.obj
 0002:00003e9c       ??_C@_1M@MKKGFKLE@?$AAa?$AAr?$AA?9?$AAJ?$AAO?$AA?$AA@ 1003be9c     libucrt:lcidtoname_downlevel.obj
 0002:00003ea8       ??_C@_1M@EKPGLDNI@?$AAe?$AAn?$AA?9?$AAT?$AAT?$AA?$AA@ 1003bea8     libucrt:lcidtoname_downlevel.obj
 0002:00003eb4       ??_C@_1M@OONGHFHE@?$AAe?$AAs?$AA?9?$AAA?$AAR?$AA?$AA@ 1003beb4     libucrt:lcidtoname_downlevel.obj
 0002:00003ec0       ??_C@_1M@OOJFGBHE@?$AAa?$AAr?$AA?9?$AAL?$AAB?$AA?$AA@ 1003bec0     libucrt:lcidtoname_downlevel.obj
 0002:00003ecc       ??_C@_1M@GCEJHNEG@?$AAe?$AAn?$AA?9?$AAZ?$AAW?$AA?$AA@ 1003becc     libucrt:lcidtoname_downlevel.obj
 0002:00003ed8       ??_C@_1M@JNOCAHJI@?$AAe?$AAs?$AA?9?$AAE?$AAC?$AA?$AA@ 1003bed8     libucrt:lcidtoname_downlevel.obj
 0002:00003ee4       ??_C@_1M@JEFHPGGB@?$AAa?$AAr?$AA?9?$AAK?$AAW?$AA?$AA@ 1003bee4     libucrt:lcidtoname_downlevel.obj
 0002:00003ef0       ??_C@_1M@MLKIBJOJ@?$AAe?$AAn?$AA?9?$AAP?$AAH?$AA?$AA@ 1003bef0     libucrt:lcidtoname_downlevel.obj
 0002:00003efc       ??_C@_1M@BDNIPEND@?$AAe?$AAs?$AA?9?$AAC?$AAL?$AA?$AA@ 1003befc     libucrt:lcidtoname_downlevel.obj
 0002:00003f08       ??_C@_1M@MPNMEKBD@?$AAa?$AAr?$AA?9?$AAA?$AAE?$AA?$AA@ 1003bf08     libucrt:lcidtoname_downlevel.obj
 0002:00003f14       ??_C@_1M@KBJALCPI@?$AAe?$AAs?$AA?9?$AAU?$AAY?$AA?$AA@ 1003bf14     libucrt:lcidtoname_downlevel.obj
 0002:00003f20       ??_C@_1M@LLCCOAGA@?$AAa?$AAr?$AA?9?$AAB?$AAH?$AA?$AA@ 1003bf20     libucrt:lcidtoname_downlevel.obj
 0002:00003f2c       ??_C@_1M@PBFNCDEL@?$AAe?$AAs?$AA?9?$AAP?$AAY?$AA?$AA@ 1003bf2c     libucrt:lcidtoname_downlevel.obj
 0002:00003f38       ??_C@_1M@EDGINPNP@?$AAa?$AAr?$AA?9?$AAQ?$AAA?$AA?$AA@ 1003bf38     libucrt:lcidtoname_downlevel.obj
 0002:00003f44       ??_C@_1M@MKDBIIJI@?$AAe?$AAs?$AA?9?$AAB?$AAO?$AA?$AA@ 1003bf44     libucrt:lcidtoname_downlevel.obj
 0002:00003f50       ??_C@_1M@CPKKEBLD@?$AAe?$AAs?$AA?9?$AAS?$AAV?$AA?$AA@ 1003bf50     libucrt:lcidtoname_downlevel.obj
 0002:00003f5c       ??_C@_1M@NDBGMMJL@?$AAe?$AAs?$AA?9?$AAH?$AAN?$AA?$AA@ 1003bf5c     libucrt:lcidtoname_downlevel.obj
 0002:00003f68       ??_C@_1M@JIJIBHDP@?$AAe?$AAs?$AA?9?$AAN?$AAI?$AA?$AA@ 1003bf68     libucrt:lcidtoname_downlevel.obj
 0002:00003f74       ??_C@_1M@CGFMKEEK@?$AAe?$AAs?$AA?9?$AAP?$AAR?$AA?$AA@ 1003bf74     libucrt:lcidtoname_downlevel.obj
 0002:00003f80       ??_C@_1O@ICJHKIIK@?$AAz?$AAh?$AA?9?$AAC?$AAH?$AAT?$AA?$AA@ 1003bf80     libucrt:lcidtoname_downlevel.obj
 0002:00003f90       ??_C@_15CLNEJCE@?$AAs?$AAr?$AA?$AA@ 1003bf90     libucrt:lcidtoname_downlevel.obj
 0002:000046b8       ??_C@_1M@KAHEKEIG@?$AAa?$AAf?$AA?9?$AAz?$AAa?$AA?$AA@ 1003c6b8     libucrt:lcidtoname_downlevel.obj
 0002:000046c4       ??_C@_1M@GIECOABL@?$AAa?$AAr?$AA?9?$AAa?$AAe?$AA?$AA@ 1003c6c4     libucrt:lcidtoname_downlevel.obj
 0002:000046d0       ??_C@_1M@BMLMEKGI@?$AAa?$AAr?$AA?9?$AAb?$AAh?$AA?$AA@ 1003c6d0     libucrt:lcidtoname_downlevel.obj
 0002:000046dc       ??_C@_1M@DAPFDGGB@?$AAa?$AAr?$AA?9?$AAd?$AAz?$AA?$AA@ 1003c6dc     libucrt:lcidtoname_downlevel.obj
 0002:000046e8       ??_C@_1M@FJNKGKIG@?$AAa?$AAr?$AA?9?$AAe?$AAg?$AA?$AA@ 1003c6e8     libucrt:lcidtoname_downlevel.obj
 0002:000046f4       ??_C@_1M@FLGKKCLO@?$AAa?$AAr?$AA?9?$AAi?$AAq?$AA?$AA@ 1003c6f4     libucrt:lcidtoname_downlevel.obj
 0002:00004700       ??_C@_1M@GNDIPALM@?$AAa?$AAr?$AA?9?$AAj?$AAo?$AA?$AA@ 1003c700     libucrt:lcidtoname_downlevel.obj
 0002:0000470c       ??_C@_1M@DDMJFMGJ@?$AAa?$AAr?$AA?9?$AAk?$AAw?$AA?$AA@ 1003c70c     libucrt:lcidtoname_downlevel.obj
 0002:00004718       ??_C@_1M@EJALMLHM@?$AAa?$AAr?$AA?9?$AAl?$AAb?$AA?$AA@ 1003c718     libucrt:lcidtoname_downlevel.obj
 0002:00004724       ??_C@_1M@MOBDBLOC@?$AAa?$AAr?$AA?9?$AAl?$AAy?$AA?$AA@ 1003c724     libucrt:lcidtoname_downlevel.obj
 0002:00004730       ??_C@_1M@JAOCLHDH@?$AAa?$AAr?$AA?9?$AAm?$AAa?$AA?$AA@ 1003c730     libucrt:lcidtoname_downlevel.obj
 0002:0000473c       ??_C@_1M@JHPMKJIE@?$AAa?$AAr?$AA?9?$AAo?$AAm?$AA?$AA@ 1003c73c     libucrt:lcidtoname_downlevel.obj
 0002:00004748       ??_C@_1M@OEPGHFNH@?$AAa?$AAr?$AA?9?$AAq?$AAa?$AA?$AA@ 1003c748     libucrt:lcidtoname_downlevel.obj
 0002:00004754       ??_C@_1M@KJDONENM@?$AAa?$AAr?$AA?9?$AAs?$AAa?$AA?$AA@ 1003c754     libucrt:lcidtoname_downlevel.obj
 0002:00004760       ??_C@_1M@DMJDKLKM@?$AAa?$AAr?$AA?9?$AAs?$AAy?$AA?$AA@ 1003c760     libucrt:lcidtoname_downlevel.obj
 0002:0000476c       ??_C@_1M@OMFIPEDC@?$AAa?$AAr?$AA?9?$AAt?$AAn?$AA?$AA@ 1003c76c     libucrt:lcidtoname_downlevel.obj
 0002:00004778       ??_C@_1M@IHMHGAON@?$AAa?$AAr?$AA?9?$AAy?$AAe?$AA?$AA@ 1003c778     libucrt:lcidtoname_downlevel.obj
 0002:00004784       ??_C@_1BG@KDCPGJGB@?$AAa?$AAz?$AA?9?$AAa?$AAz?$AA?9?$AAc?$AAy?$AAr?$AAl?$AA?$AA@ 1003c784     libucrt:lcidtoname_downlevel.obj
 0002:0000479c       ??_C@_1BG@IBCKDDOE@?$AAa?$AAz?$AA?9?$AAa?$AAz?$AA?9?$AAl?$AAa?$AAt?$AAn?$AA?$AA@ 1003c79c     libucrt:lcidtoname_downlevel.obj
 0002:000047b4       ??_C@_1M@EGPFDCPD@?$AAb?$AAe?$AA?9?$AAb?$AAy?$AA?$AA@ 1003c7b4     libucrt:lcidtoname_downlevel.obj
 0002:000047c0       ??_C@_1M@PCMGMCGC@?$AAb?$AAg?$AA?9?$AAb?$AAg?$AA?$AA@ 1003c7c0     libucrt:lcidtoname_downlevel.obj
 0002:000047cc       ??_C@_1M@BJBMFGOB@?$AAb?$AAn?$AA?9?$AAi?$AAn?$AA?$AA@ 1003c7cc     libucrt:lcidtoname_downlevel.obj
 0002:000047d8       ??_C@_1BG@EAKMMACD@?$AAb?$AAs?$AA?9?$AAb?$AAa?$AA?9?$AAl?$AAa?$AAt?$AAn?$AA?$AA@ 1003c7d8     libucrt:lcidtoname_downlevel.obj
 0002:000047f0       ??_C@_1M@KGADAODK@?$AAc?$AAa?$AA?9?$AAe?$AAs?$AA?$AA@ 1003c7f0     libucrt:lcidtoname_downlevel.obj
 0002:000047fc       ??_C@_1M@COAJPDHI@?$AAc?$AAs?$AA?9?$AAc?$AAz?$AA?$AA@ 1003c7fc     libucrt:lcidtoname_downlevel.obj
 0002:00004808       ??_C@_1M@DHBHFONH@?$AAc?$AAy?$AA?9?$AAg?$AAb?$AA?$AA@ 1003c808     libucrt:lcidtoname_downlevel.obj
 0002:00004814       ??_C@_1M@IMGKELGA@?$AAd?$AAa?$AA?9?$AAd?$AAk?$AA?$AA@ 1003c814     libucrt:lcidtoname_downlevel.obj
 0002:00004820       ??_C@_1M@NNDGDNGA@?$AAd?$AAe?$AA?9?$AAa?$AAt?$AA?$AA@ 1003c820     libucrt:lcidtoname_downlevel.obj
 0002:0000482c       ??_C@_1M@IKDBHEEM@?$AAd?$AAe?$AA?9?$AAc?$AAh?$AA?$AA@ 1003c82c     libucrt:lcidtoname_downlevel.obj
 0002:00004838       ??_C@_1M@GFFOJMCJ@?$AAd?$AAe?$AA?9?$AAd?$AAe?$AA?$AA@ 1003c838     libucrt:lcidtoname_downlevel.obj
 0002:00004844       ??_C@_1M@MDNLKBPM@?$AAd?$AAe?$AA?9?$AAl?$AAi?$AA?$AA@ 1003c844     libucrt:lcidtoname_downlevel.obj
 0002:00004850       ??_C@_1M@NJBEEJNL@?$AAd?$AAe?$AA?9?$AAl?$AAu?$AA?$AA@ 1003c850     libucrt:lcidtoname_downlevel.obj
 0002:0000485c       ??_C@_1O@GNNELBAP@?$AAd?$AAi?$AAv?$AA?9?$AAm?$AAv?$AA?$AA@ 1003c85c     libucrt:lcidtoname_downlevel.obj
 0002:0000486c       ??_C@_1M@EJLEOGAE@?$AAe?$AAl?$AA?9?$AAg?$AAr?$AA?$AA@ 1003c86c     libucrt:lcidtoname_downlevel.obj
 0002:00004878       ??_C@_1M@GMPONJN@?$AAe?$AAn?$AA?9?$AAa?$AAu?$AA?$AA@ 1003c878     libucrt:lcidtoname_downlevel.obj
 0002:00004884       ??_C@_1M@NIDIIPGF@?$AAe?$AAn?$AA?9?$AAb?$AAz?$AA?$AA@ 1003c884     libucrt:lcidtoname_downlevel.obj
 0002:00004890       ??_C@_1M@JEHMIMFO@?$AAe?$AAn?$AA?9?$AAc?$AAa?$AA?$AA@ 1003c890     libucrt:lcidtoname_downlevel.obj
 0002:0000489c       ??_C@_1M@IGMJCDLA@?$AAe?$AAn?$AA?9?$AAc?$AAb?$AA?$AA@ 1003c89c     libucrt:lcidtoname_downlevel.obj
 0002:000048a8       ??_C@_1M@BNFIGBKG@?$AAe?$AAn?$AA?9?$AAg?$AAb?$AA?$AA@ 1003c8a8     libucrt:lcidtoname_downlevel.obj
 0002:000048b4       ??_C@_1M@LKIFDIGP@?$AAe?$AAn?$AA?9?$AAi?$AAe?$AA?$AA@ 1003c8b4     libucrt:lcidtoname_downlevel.obj
 0002:000048c0       ??_C@_1M@PJKFGCCO@?$AAe?$AAn?$AA?9?$AAj?$AAm?$AA?$AA@ 1003c8c0     libucrt:lcidtoname_downlevel.obj
 0002:000048cc       ??_C@_1M@KPPKEPBO@?$AAe?$AAn?$AA?9?$AAn?$AAz?$AA?$AA@ 1003c8cc     libucrt:lcidtoname_downlevel.obj
 0002:000048d8       ??_C@_1M@GMDGLDOB@?$AAe?$AAn?$AA?9?$AAp?$AAh?$AA?$AA@ 1003c8d8     libucrt:lcidtoname_downlevel.obj
 0002:000048e4       ??_C@_1M@ONGIBJNA@?$AAe?$AAn?$AA?9?$AAt?$AAt?$AA?$AA@ 1003c8e4     libucrt:lcidtoname_downlevel.obj
 0002:000048f0       ??_C@_1M@LLODPCMM@?$AAe?$AAn?$AA?9?$AAu?$AAs?$AA?$AA@ 1003c8f0     libucrt:lcidtoname_downlevel.obj
 0002:000048fc       ??_C@_1M@LAKFNPAN@?$AAe?$AAn?$AA?9?$AAz?$AAa?$AA?$AA@ 1003c8fc     libucrt:lcidtoname_downlevel.obj
 0002:00004908       ??_C@_1M@MFNHNHEO@?$AAe?$AAn?$AA?9?$AAz?$AAw?$AA?$AA@ 1003c908     libucrt:lcidtoname_downlevel.obj
 0002:00004914       ??_C@_1M@EJEINPHM@?$AAe?$AAs?$AA?9?$AAa?$AAr?$AA?$AA@ 1003c914     libucrt:lcidtoname_downlevel.obj
 0002:00004920       ??_C@_1M@GNKPCCJA@?$AAe?$AAs?$AA?9?$AAb?$AAo?$AA?$AA@ 1003c920     libucrt:lcidtoname_downlevel.obj
 0002:0000492c       ??_C@_1M@LEEGFONL@?$AAe?$AAs?$AA?9?$AAc?$AAl?$AA?$AA@ 1003c92c     libucrt:lcidtoname_downlevel.obj
 0002:00004938       ??_C@_1M@KGPDPBDF@?$AAe?$AAs?$AA?9?$AAc?$AAo?$AA?$AA@ 1003c938     libucrt:lcidtoname_downlevel.obj
 0002:00004944       ??_C@_1M@EIAHOHH@?$AAe?$AAs?$AA?9?$AAc?$AAr?$AA?$AA@ 1003c944     libucrt:lcidtoname_downlevel.obj
 0002:00004950       ??_C@_1M@LLPGMBIN@?$AAe?$AAs?$AA?9?$AAd?$AAo?$AA?$AA@ 1003c950     libucrt:lcidtoname_downlevel.obj
 0002:0000495c       ??_C@_1M@DKHMKNJA@?$AAe?$AAs?$AA?9?$AAe?$AAc?$AA?$AA@ 1003c95c     libucrt:lcidtoname_downlevel.obj
 0002:00004968       ??_C@_1M@GKGFPKAP@?$AAe?$AAs?$AA?9?$AAe?$AAs?$AA?$AA@ 1003c968     libucrt:lcidtoname_downlevel.obj
 0002:00004974       ??_C@_1M@LKHKGDLN@?$AAe?$AAs?$AA?9?$AAg?$AAt?$AA?$AA@ 1003c974     libucrt:lcidtoname_downlevel.obj
 0002:00004980       ??_C@_1M@HEIIGGJD@?$AAe?$AAs?$AA?9?$AAh?$AAn?$AA?$AA@ 1003c980     libucrt:lcidtoname_downlevel.obj
 0002:0000498c       ??_C@_1M@FBDHPPGD@?$AAe?$AAs?$AA?9?$AAm?$AAx?$AA?$AA@ 1003c98c     libucrt:lcidtoname_downlevel.obj
 0002:00004998       ??_C@_1M@DPAGLNDH@?$AAe?$AAs?$AA?9?$AAn?$AAi?$AA?$AA@ 1003c998     libucrt:lcidtoname_downlevel.obj
 0002:000049a4       ??_C@_1M@MDGOPGDD@?$AAe?$AAs?$AA?9?$AAp?$AAa?$AA?$AA@ 1003c9a4     libucrt:lcidtoname_downlevel.obj
 0002:000049b0       ??_C@_1M@EMAMGBGE@?$AAe?$AAs?$AA?9?$AAp?$AAe?$AA?$AA@ 1003c9b0     libucrt:lcidtoname_downlevel.obj
 0002:000049bc       ??_C@_1M@IBMCAOEC@?$AAe?$AAs?$AA?9?$AAp?$AAr?$AA?$AA@ 1003c9bc     libucrt:lcidtoname_downlevel.obj
 0002:000049c8       ??_C@_1M@FGMDIJED@?$AAe?$AAs?$AA?9?$AAp?$AAy?$AA?$AA@ 1003c9c8     libucrt:lcidtoname_downlevel.obj
 0002:000049d4       ??_C@_1M@IIDEOLLL@?$AAe?$AAs?$AA?9?$AAs?$AAv?$AA?$AA@ 1003c9d4     libucrt:lcidtoname_downlevel.obj
 0002:000049e0       ??_C@_1M@GAOBIPA@?$AAe?$AAs?$AA?9?$AAu?$AAy?$AA?$AA@ 1003c9e0     libucrt:lcidtoname_downlevel.obj
 0002:000049ec       ??_C@_1M@JKFFICHJ@?$AAe?$AAs?$AA?9?$AAv?$AAe?$AA?$AA@ 1003c9ec     libucrt:lcidtoname_downlevel.obj
 0002:000049f8       ??_C@_1M@PNMLOJDF@?$AAe?$AAt?$AA?9?$AAe?$AAe?$AA?$AA@ 1003c9f8     libucrt:lcidtoname_downlevel.obj
 0002:00004a04       ??_C@_1M@GHHLIKEI@?$AAe?$AAu?$AA?9?$AAe?$AAs?$AA?$AA@ 1003ca04     libucrt:lcidtoname_downlevel.obj
 0002:00004a10       ??_C@_1M@PBNONODE@?$AAf?$AAa?$AA?9?$AAi?$AAr?$AA?$AA@ 1003ca10     libucrt:lcidtoname_downlevel.obj
 0002:00004a1c       ??_C@_1M@JEEHPMIL@?$AAf?$AAi?$AA?9?$AAf?$AAi?$AA?$AA@ 1003ca1c     libucrt:lcidtoname_downlevel.obj
 0002:00004a28       ??_C@_1M@LMDCNDBA@?$AAf?$AAo?$AA?9?$AAf?$AAo?$AA?$AA@ 1003ca28     libucrt:lcidtoname_downlevel.obj
 0002:00004a34       ??_C@_1M@JKEOHLDK@?$AAf?$AAr?$AA?9?$AAb?$AAe?$AA?$AA@ 1003ca34     libucrt:lcidtoname_downlevel.obj
 0002:00004a40       ??_C@_1M@NOHADPMI@?$AAf?$AAr?$AA?9?$AAc?$AAa?$AA?$AA@ 1003ca40     libucrt:lcidtoname_downlevel.obj
 0002:00004a4c       ??_C@_1M@KDHIHAEC@?$AAf?$AAr?$AA?9?$AAc?$AAh?$AA?$AA@ 1003ca4c     libucrt:lcidtoname_downlevel.obj
 0002:00004a58       ??_C@_1M@MMBBFGAK@?$AAf?$AAr?$AA?9?$AAf?$AAr?$AA?$AA@ 1003ca58     libucrt:lcidtoname_downlevel.obj
 0002:00004a64       ??_C@_1M@PAFNENNF@?$AAf?$AAr?$AA?9?$AAl?$AAu?$AA?$AA@ 1003ca64     libucrt:lcidtoname_downlevel.obj
 0002:00004a70       ??_C@_1M@EOHDJGDD@?$AAf?$AAr?$AA?9?$AAm?$AAc?$AA?$AA@ 1003ca70     libucrt:lcidtoname_downlevel.obj
 0002:00004a7c       ??_C@_1M@FAPLLOPF@?$AAg?$AAl?$AA?9?$AAe?$AAs?$AA?$AA@ 1003ca7c     libucrt:lcidtoname_downlevel.obj
 0002:00004a88       ??_C@_1M@FOPBFLOO@?$AAg?$AAu?$AA?9?$AAi?$AAn?$AA?$AA@ 1003ca88     libucrt:lcidtoname_downlevel.obj
 0002:00004a94       ??_C@_1M@KBMCINPM@?$AAh?$AAe?$AA?9?$AAi?$AAl?$AA?$AA@ 1003ca94     libucrt:lcidtoname_downlevel.obj
 0002:00004aa0       ??_C@_1M@BBPHKFPJ@?$AAh?$AAi?$AA?9?$AAi?$AAn?$AA?$AA@ 1003caa0     libucrt:lcidtoname_downlevel.obj
 0002:00004aac       ??_C@_1M@PMBNDPHD@?$AAh?$AAr?$AA?9?$AAb?$AAa?$AA?$AA@ 1003caac     libucrt:lcidtoname_downlevel.obj
 0002:00004ab8       ??_C@_1M@BPCKOEGE@?$AAh?$AAr?$AA?9?$AAh?$AAr?$AA?$AA@ 1003cab8     libucrt:lcidtoname_downlevel.obj
 0002:00004ac4       ??_C@_1M@GACBMHKE@?$AAh?$AAu?$AA?9?$AAh?$AAu?$AA?$AA@ 1003cac4     libucrt:lcidtoname_downlevel.obj
 0002:00004ad0       ??_C@_1M@MILPAJJC@?$AAh?$AAy?$AA?9?$AAa?$AAm?$AA?$AA@ 1003cad0     libucrt:lcidtoname_downlevel.obj
 0002:00004adc       ??_C@_1M@BABBICEC@?$AAi?$AAd?$AA?9?$AAi?$AAd?$AA?$AA@ 1003cadc     libucrt:lcidtoname_downlevel.obj
 0002:00004ae8       ??_C@_1M@BIKNHHPF@?$AAi?$AAs?$AA?9?$AAi?$AAs?$AA?$AA@ 1003cae8     libucrt:lcidtoname_downlevel.obj
 0002:00004af4       ??_C@_1M@NMPCJPHE@?$AAi?$AAt?$AA?9?$AAc?$AAh?$AA?$AA@ 1003caf4     libucrt:lcidtoname_downlevel.obj
 0002:00004b00       ??_C@_1M@GHKGFEDF@?$AAi?$AAt?$AA?9?$AAi?$AAt?$AA?$AA@ 1003cb00     libucrt:lcidtoname_downlevel.obj
 0002:00004b0c       ??_C@_1M@NIEJCJJA@?$AAj?$AAa?$AA?9?$AAj?$AAp?$AA?$AA@ 1003cb0c     libucrt:lcidtoname_downlevel.obj
 0002:00004b18       ??_C@_1M@JILFNBIM@?$AAk?$AAa?$AA?9?$AAg?$AAe?$AA?$AA@ 1003cb18     libucrt:lcidtoname_downlevel.obj
 0002:00004b24       ??_C@_1M@PACPMGPH@?$AAk?$AAk?$AA?9?$AAk?$AAz?$AA?$AA@ 1003cb24     libucrt:lcidtoname_downlevel.obj
 0002:00004b30       ??_C@_1M@IELFGMHA@?$AAk?$AAn?$AA?9?$AAi?$AAn?$AA?$AA@ 1003cb30     libucrt:lcidtoname_downlevel.obj
 0002:00004b3c       ??_C@_1O@IBBJHCH@?$AAk?$AAo?$AAk?$AA?9?$AAi?$AAn?$AA?$AA@ 1003cb3c     libucrt:lcidtoname_downlevel.obj
 0002:00004b4c       ??_C@_1M@DMHAEOGC@?$AAk?$AAo?$AA?9?$AAk?$AAr?$AA?$AA@ 1003cb4c     libucrt:lcidtoname_downlevel.obj
 0002:00004b58       ??_C@_1M@HBAHBIGA@?$AAk?$AAy?$AA?9?$AAk?$AAg?$AA?$AA@ 1003cb58     libucrt:lcidtoname_downlevel.obj
 0002:00004b64       ??_C@_1M@KPMILCJG@?$AAl?$AAt?$AA?9?$AAl?$AAt?$AA?$AA@ 1003cb64     libucrt:lcidtoname_downlevel.obj
 0002:00004b70       ??_C@_1M@BDEKKCA@?$AAl?$AAv?$AA?9?$AAl?$AAv?$AA?$AA@ 1003cb70     libucrt:lcidtoname_downlevel.obj
 0002:00004b7c       ??_C@_1M@ELCKCCJJ@?$AAm?$AAi?$AA?9?$AAn?$AAz?$AA?$AA@ 1003cb7c     libucrt:lcidtoname_downlevel.obj
 0002:00004b88       ??_C@_1M@CBOOLAPA@?$AAm?$AAk?$AA?9?$AAm?$AAk?$AA?$AA@ 1003cb88     libucrt:lcidtoname_downlevel.obj
 0002:00004b94       ??_C@_1M@GPHNBJKN@?$AAm?$AAl?$AA?9?$AAi?$AAn?$AA?$AA@ 1003cb94     libucrt:lcidtoname_downlevel.obj
 0002:00004ba0       ??_C@_1M@PABJILIG@?$AAm?$AAn?$AA?9?$AAm?$AAn?$AA?$AA@ 1003cba0     libucrt:lcidtoname_downlevel.obj
 0002:00004bac       ??_C@_1M@FGBKKIPG@?$AAm?$AAr?$AA?9?$AAi?$AAn?$AA?$AA@ 1003cbac     libucrt:lcidtoname_downlevel.obj
 0002:00004bb8       ??_C@_1M@NDBPDDAL@?$AAm?$AAs?$AA?9?$AAb?$AAn?$AA?$AA@ 1003cbb8     libucrt:lcidtoname_downlevel.obj
 0002:00004bc4       ??_C@_1M@OPIHOOPI@?$AAm?$AAs?$AA?9?$AAm?$AAy?$AA?$AA@ 1003cbc4     libucrt:lcidtoname_downlevel.obj
 0002:00004bd0       ??_C@_1M@PPDBCNFM@?$AAm?$AAt?$AA?9?$AAm?$AAt?$AA?$AA@ 1003cbd0     libucrt:lcidtoname_downlevel.obj
 0002:00004bdc       ??_C@_1M@KDJDKMDD@?$AAn?$AAb?$AA?9?$AAn?$AAo?$AA?$AA@ 1003cbdc     libucrt:lcidtoname_downlevel.obj
 0002:00004be8       ??_C@_1M@KFCFLMJP@?$AAn?$AAl?$AA?9?$AAb?$AAe?$AA?$AA@ 1003cbe8     libucrt:lcidtoname_downlevel.obj
 0002:00004bf4       ??_C@_1M@KPOPDDGO@?$AAn?$AAl?$AA?9?$AAn?$AAl?$AA?$AA@ 1003cbf4     libucrt:lcidtoname_downlevel.obj
 0002:00004c00       ??_C@_1M@LJKPEMLN@?$AAn?$AAn?$AA?9?$AAn?$AAo?$AA?$AA@ 1003cc00     libucrt:lcidtoname_downlevel.obj
 0002:00004c0c       ??_C@_1M@BDGHHBFL@?$AAn?$AAs?$AA?9?$AAz?$AAa?$AA?$AA@ 1003cc0c     libucrt:lcidtoname_downlevel.obj
 0002:00004c18       ??_C@_1M@IDEHOAP@?$AAp?$AAa?$AA?9?$AAi?$AAn?$AA?$AA@ 1003cc18     libucrt:lcidtoname_downlevel.obj
 0002:00004c24       ??_C@_1M@HDBKGOGH@?$AAp?$AAl?$AA?9?$AAp?$AAl?$AA?$AA@ 1003cc24     libucrt:lcidtoname_downlevel.obj
 0002:00004c30       ??_C@_1M@LJLLCMEH@?$AAp?$AAt?$AA?9?$AAb?$AAr?$AA?$AA@ 1003cc30     libucrt:lcidtoname_downlevel.obj
 0002:00004c3c       ??_C@_1M@NCMONAAL@?$AAp?$AAt?$AA?9?$AAp?$AAt?$AA?$AA@ 1003cc3c     libucrt:lcidtoname_downlevel.obj
 0002:00004c48       ??_C@_1O@EAKMAJDN@?$AAq?$AAu?$AAz?$AA?9?$AAb?$AAo?$AA?$AA@ 1003cc48     libucrt:lcidtoname_downlevel.obj
 0002:00004c58       ??_C@_1O@BHHPIGDN@?$AAq?$AAu?$AAz?$AA?9?$AAe?$AAc?$AA?$AA@ 1003cc58     libucrt:lcidtoname_downlevel.obj
 0002:00004c68       ??_C@_1O@GBAPEKMJ@?$AAq?$AAu?$AAz?$AA?9?$AAp?$AAe?$AA?$AA@ 1003cc68     libucrt:lcidtoname_downlevel.obj
 0002:00004c78       ??_C@_1M@CLGLEFBO@?$AAr?$AAo?$AA?9?$AAr?$AAo?$AA?$AA@ 1003cc78     libucrt:lcidtoname_downlevel.obj
 0002:00004c84       ??_C@_1M@CEEDODME@?$AAr?$AAu?$AA?9?$AAr?$AAu?$AA?$AA@ 1003cc84     libucrt:lcidtoname_downlevel.obj
 0002:00004c90       ??_C@_1M@HPKKKMPP@?$AAs?$AAa?$AA?9?$AAi?$AAn?$AA?$AA@ 1003cc90     libucrt:lcidtoname_downlevel.obj
 0002:00004c9c       ??_C@_1M@BKMAIGOJ@?$AAs?$AAe?$AA?9?$AAf?$AAi?$AA?$AA@ 1003cc9c     libucrt:lcidtoname_downlevel.obj
 0002:00004ca8       ??_C@_1M@NDPIFLFI@?$AAs?$AAe?$AA?9?$AAn?$AAo?$AA?$AA@ 1003cca8     libucrt:lcidtoname_downlevel.obj
 0002:00004cb4       ??_C@_1M@DANKKHJ@?$AAs?$AAe?$AA?9?$AAs?$AAe?$AA?$AA@ 1003ccb4     libucrt:lcidtoname_downlevel.obj
 0002:00004cc0       ??_C@_1M@PNBLONPJ@?$AAs?$AAk?$AA?9?$AAs?$AAk?$AA?$AA@ 1003ccc0     libucrt:lcidtoname_downlevel.obj
 0002:00004ccc       ??_C@_1M@LFMODOAL@?$AAs?$AAl?$AA?9?$AAs?$AAi?$AA?$AA@ 1003cccc     libucrt:lcidtoname_downlevel.obj
 0002:00004cd8       ??_C@_1O@DFKOMPG@?$AAs?$AAm?$AAa?$AA?9?$AAn?$AAo?$AA?$AA@ 1003ccd8     libucrt:lcidtoname_downlevel.obj
 0002:00004ce8       ??_C@_1O@NDKPBNNH@?$AAs?$AAm?$AAa?$AA?9?$AAs?$AAe?$AA?$AA@ 1003cce8     libucrt:lcidtoname_downlevel.obj
 0002:00004cf8       ??_C@_1O@PLLKBHAB@?$AAs?$AAm?$AAj?$AA?9?$AAn?$AAo?$AA?$AA@ 1003ccf8     libucrt:lcidtoname_downlevel.obj
 0002:00004d08       ??_C@_1O@CLEPOGCA@?$AAs?$AAm?$AAj?$AA?9?$AAs?$AAe?$AA?$AA@ 1003cd08     libucrt:lcidtoname_downlevel.obj
 0002:00004d18       ??_C@_1O@DLGJGKMK@?$AAs?$AAm?$AAn?$AA?9?$AAf?$AAi?$AA?$AA@ 1003cd18     libucrt:lcidtoname_downlevel.obj
 0002:00004d28       ??_C@_1O@OJDJGAJC@?$AAs?$AAm?$AAs?$AA?9?$AAf?$AAi?$AA?$AA@ 1003cd28     libucrt:lcidtoname_downlevel.obj
 0002:00004d38       ??_C@_1M@BOFOGHPB@?$AAs?$AAq?$AA?9?$AAa?$AAl?$AA?$AA@ 1003cd38     libucrt:lcidtoname_downlevel.obj
 0002:00004d44       ??_C@_1BG@LJBBIPGB@?$AAs?$AAr?$AA?9?$AAb?$AAa?$AA?9?$AAc?$AAy?$AAr?$AAl?$AA?$AA@ 1003cd44     libucrt:lcidtoname_downlevel.obj
 0002:00004d5c       ??_C@_1BG@JLBENFOE@?$AAs?$AAr?$AA?9?$AAb?$AAa?$AA?9?$AAl?$AAa?$AAt?$AAn?$AA?$AA@ 1003cd5c     libucrt:lcidtoname_downlevel.obj
 0002:00004d74       ??_C@_1BG@KODPNHE@?$AAs?$AAr?$AA?9?$AAs?$AAp?$AA?9?$AAc?$AAy?$AAr?$AAl?$AA?$AA@ 1003cd74     libucrt:lcidtoname_downlevel.obj
 0002:00004d8c       ??_C@_1BG@CIOGKHPB@?$AAs?$AAr?$AA?9?$AAs?$AAp?$AA?9?$AAl?$AAa?$AAt?$AAn?$AA?$AA@ 1003cd8c     libucrt:lcidtoname_downlevel.obj
 0002:00004da4       ??_C@_1M@NGFJLMAC@?$AAs?$AAv?$AA?9?$AAf?$AAi?$AA?$AA@ 1003cda4     libucrt:lcidtoname_downlevel.obj
 0002:00004db0       ??_C@_1M@MPJEJAJC@?$AAs?$AAv?$AA?9?$AAs?$AAe?$AA?$AA@ 1003cdb0     libucrt:lcidtoname_downlevel.obj
 0002:00004dbc       ??_C@_1M@MPNDHLFK@?$AAs?$AAw?$AA?9?$AAk?$AAe?$AA?$AA@ 1003cdbc     libucrt:lcidtoname_downlevel.obj
 0002:00004dc8       ??_C@_1O@KOHBJJI@?$AAs?$AAy?$AAr?$AA?9?$AAs?$AAy?$AA?$AA@ 1003cdc8     libucrt:lcidtoname_downlevel.obj
 0002:00004dd8       ??_C@_1M@LDCEFHA@?$AAt?$AAa?$AA?9?$AAi?$AAn?$AA?$AA@ 1003cdd8     libucrt:lcidtoname_downlevel.obj
 0002:00004de4       ??_C@_1M@CNJOFAK@?$AAt?$AAe?$AA?9?$AAi?$AAn?$AA?$AA@ 1003cde4     libucrt:lcidtoname_downlevel.obj
 0002:00004df0       ??_C@_1M@GNAECACD@?$AAt?$AAh?$AA?9?$AAt?$AAh?$AA?$AA@ 1003cdf0     libucrt:lcidtoname_downlevel.obj
 0002:00004dfc       ??_C@_1M@CHBIHOJO@?$AAt?$AAn?$AA?9?$AAz?$AAa?$AA?$AA@ 1003cdfc     libucrt:lcidtoname_downlevel.obj
 0002:00004e08       ??_C@_1M@GCCMIGPJ@?$AAt?$AAr?$AA?9?$AAt?$AAr?$AA?$AA@ 1003ce08     libucrt:lcidtoname_downlevel.obj
 0002:00004e14       ??_C@_1M@CELMCNBK@?$AAt?$AAt?$AA?9?$AAr?$AAu?$AA?$AA@ 1003ce14     libucrt:lcidtoname_downlevel.obj
 0002:00004e20       ??_C@_1M@KLMCELGA@?$AAu?$AAk?$AA?9?$AAu?$AAa?$AA?$AA@ 1003ce20     libucrt:lcidtoname_downlevel.obj
 0002:00004e2c       ??_C@_1M@EPAJJAJF@?$AAu?$AAr?$AA?9?$AAp?$AAk?$AA?$AA@ 1003ce2c     libucrt:lcidtoname_downlevel.obj
 0002:00004e38       ??_C@_1BG@GEGPMCDJ@?$AAu?$AAz?$AA?9?$AAu?$AAz?$AA?9?$AAc?$AAy?$AAr?$AAl?$AA?$AA@ 1003ce38     libucrt:lcidtoname_downlevel.obj
 0002:00004e50       ??_C@_1BG@EGGKJILM@?$AAu?$AAz?$AA?9?$AAu?$AAz?$AA?9?$AAl?$AAa?$AAt?$AAn?$AA?$AA@ 1003ce50     libucrt:lcidtoname_downlevel.obj
 0002:00004e68       ??_C@_1M@GFOCLFF@?$AAv?$AAi?$AA?9?$AAv?$AAn?$AA?$AA@ 1003ce68     libucrt:lcidtoname_downlevel.obj
 0002:00004e74       ??_C@_1M@CPAMEDFI@?$AAx?$AAh?$AA?9?$AAz?$AAa?$AA?$AA@ 1003ce74     libucrt:lcidtoname_downlevel.obj
 0002:00004e80       ??_C@_1O@EBKIFIGN@?$AAz?$AAh?$AA?9?$AAc?$AAh?$AAs?$AA?$AA@ 1003ce80     libucrt:lcidtoname_downlevel.obj
 0002:00004e90       ??_C@_1O@NMHPGANE@?$AAz?$AAh?$AA?9?$AAc?$AAh?$AAt?$AA?$AA@ 1003ce90     libucrt:lcidtoname_downlevel.obj
 0002:00004ea0       ??_C@_1M@LPINJOMC@?$AAz?$AAh?$AA?9?$AAc?$AAn?$AA?$AA@ 1003cea0     libucrt:lcidtoname_downlevel.obj
 0002:00004eac       ??_C@_1M@OCJEJODD@?$AAz?$AAh?$AA?9?$AAh?$AAk?$AA?$AA@ 1003ceac     libucrt:lcidtoname_downlevel.obj
 0002:00004eb8       ??_C@_1M@DNDLJINH@?$AAz?$AAh?$AA?9?$AAm?$AAo?$AA?$AA@ 1003ceb8     libucrt:lcidtoname_downlevel.obj
 0002:00004ec4       ??_C@_1M@MBFDNDND@?$AAz?$AAh?$AA?9?$AAs?$AAg?$AA?$AA@ 1003cec4     libucrt:lcidtoname_downlevel.obj
 0002:00004ed0       ??_C@_1M@IMEPLEPE@?$AAz?$AAh?$AA?9?$AAt?$AAw?$AA?$AA@ 1003ced0     libucrt:lcidtoname_downlevel.obj
 0002:00004edc       ??_C@_1M@BBGHNHJP@?$AAz?$AAu?$AA?9?$AAz?$AAa?$AA?$AA@ 1003cedc     libucrt:lcidtoname_downlevel.obj
 0002:00004f48       ??_C@_1BA@BALFACEM@?$AAC?$AAO?$AAN?$AAO?$AAU?$AAT?$AA$?$AA?$AA@ 1003cf48     libucrt:initcon.obj
 0002:00005060       __infinity                 1003d060     libucrt:87tran.obj
 0002:0000506a       __minfinity                1003d06a     libucrt:87tran.obj
 0002:00005074       __logemax                  1003d074     libucrt:87tran.obj
 0002:0000509a       __OP_EXPjmptab             1003d09a     libucrt:87tran.obj
 0002:000050c0       __indefinite               1003d0c0     libucrt:87disp.obj
 0002:000050ca       __piby2                    1003d0ca     libucrt:87disp.obj
 0002:000050d4       __piby4                    1003d0d4     libucrt:87disp.obj
 0002:00005108       __DEFAULT_CW_in_mem        1003d108     libucrt:common.obj
 0002:0000510a       __pi_by_2_to_61            1003d10a     libucrt:common.obj
 0002:00005144       ??_C@_03MGHMBJCF@log?$AA@  1003d144     libucrt:libm_error.obj
 0002:00005148       ??_C@_05HGHHAHAP@log10?$AA@ 1003d148     libucrt:libm_error.obj
 0002:00005150       ??_C@_03KHJOGHMM@exp?$AA@  1003d150     libucrt:libm_error.obj
 0002:00005154       ??_C@_03JGHBODFD@pow?$AA@  1003d154     libucrt:libm_error.obj
 0002:00005158       ??_C@_04FIHNOPOL@asin?$AA@ 1003d158     libucrt:libm_error.obj
 0002:00005160       ??_C@_04PDIFKINK@acos?$AA@ 1003d160     libucrt:libm_error.obj
 0002:00005168       ??_C@_04EIAKFFMI@sqrt?$AA@ 1003d168     libucrt:libm_error.obj
 0002:00005190       ___acrt_log10_table_t      1003d190     libucrt:log10_tables.obj
 0002:000055a0       ___acrt_log10_table_cb     1003d5a0     libucrt:log10_tables.obj
 0002:000059b0       __real@3fe0000000000000    1003d9b0     libucrt:powhlp.obj
 0002:000059b8       ??_C@_04FJHINJAO@tanh?$AA@ 1003d9b8     libucrt:fpexcept.obj
 0002:000059c0       ??_C@_04MLLJIGOK@atan?$AA@ 1003d9c0     libucrt:fpexcept.obj
 0002:000059c8       ??_C@_05KNGEOGJB@atan2?$AA@ 1003d9c8     libucrt:fpexcept.obj
 0002:000059d0       ??_C@_03BLEJJJBH@sin?$AA@  1003d9d0     libucrt:fpexcept.obj
 0002:000059d4       ??_C@_03LALBNOCG@cos?$AA@  1003d9d4     libucrt:fpexcept.obj
 0002:000059d8       ??_C@_03IIINPABG@tan?$AA@  1003d9d8     libucrt:fpexcept.obj
 0002:000059dc       ??_C@_04GFPJNGEK@ceil?$AA@ 1003d9dc     libucrt:fpexcept.obj
 0002:000059e4       ??_C@_05PBJFFIGL@floor?$AA@ 1003d9e4     libucrt:fpexcept.obj
 0002:000059ec       ??_C@_04ODHECPBC@fabs?$AA@ 1003d9ec     libucrt:fpexcept.obj
 0002:000059f4       ??_C@_04EHEDPDJG@modf?$AA@ 1003d9f4     libucrt:fpexcept.obj
 0002:000059fc       ??_C@_05CEJMAHNP@ldexp?$AA@ 1003d9fc     libucrt:fpexcept.obj
 0002:00005a04       ??_C@_05KBKMEMPO@_cabs?$AA@ 1003da04     libucrt:fpexcept.obj
 0002:00005a0c       ??_C@_06MEIMCGCF@_hypot?$AA@ 1003da0c     libucrt:fpexcept.obj
 0002:00005a14       ??_C@_04KEPJIHGP@fmod?$AA@ 1003da14     libucrt:fpexcept.obj
 0002:00005a1c       ??_C@_05GKKHEGJL@frexp?$AA@ 1003da1c     libucrt:fpexcept.obj
 0002:00005a24       ??_C@_03MJLDFKDL@_y0?$AA@  1003da24     libucrt:fpexcept.obj
 0002:00005a28       ??_C@_03NAKIGLHK@_y1?$AA@  1003da28     libucrt:fpexcept.obj
 0002:00005a2c       ??_C@_03ONILCKOB@_yn?$AA@  1003da2c     libucrt:fpexcept.obj
 0002:00005a30       ??_C@_05JGDBENOH@_logb?$AA@ 1003da30     libucrt:fpexcept.obj
 0002:00005a38       ??_C@_0L@KDOEJCKC@_nextafter?$AA@ 1003da38     libucrt:fpexcept.obj
 0002:00005b30       ??_C@_04COOMCNPB@sinh?$AA@ 1003db30     libucrt:fpexcept.obj
 0002:00005b38       ??_C@_04HPJJNFIM@cosh?$AA@ 1003db38     libucrt:fpexcept.obj
 0002:00005b40       __d_inf                    1003db40     libucrt:util.obj
 0002:00005b48       __d_max                    1003db48     libucrt:util.obj
 0002:00005b50       __d_mzero                  1003db50     libucrt:util.obj
 0002:00005b58       ??_C@_1DG@OKCGPKIB@?$AAp?$AAe?$AAr?$AAs?$AAi?$AAs?$AAt?$AAe?$AAn?$AAt?$AA?$CI?$AA?$CJ?$AA?4?$AAI?$AAs?$AAN?$AAe?$AAa?$AAr?$AAD?$AAe?$AAa?$AAt?$AAh?$AA?$CI?$AA?$CJ?$AA?$AA@ 1003db58     main.obj
 0002:00005b90       ??_C@_1CO@EGNPJLKI@?$AAp?$AAe?$AAr?$AAs?$AAi?$AAs?$AAt?$AAe?$AAn?$AAt?$AA?$CI?$AA?$CJ?$AA?4?$AAI?$AAs?$AAE?$AAm?$AAp?$AAt?$AAy?$AA?$CI?$AA?$CJ?$AA?$AA@ 1003db90     main.obj
 0002:00005bc0       ??_C@_1DA@FBGAEOIO@?$AA?$CB?$AAp?$AAe?$AAr?$AAs?$AAi?$AAs?$AAt?$AAe?$AAn?$AAt?$AA?$CI?$AA?$CJ?$AA?4?$AAI?$AAs?$AAE?$AAm?$AAp?$AAt?$AAy?$AA?$CI?$AA?$CJ?$AA?$AA@ 1003dbc0     main.obj
 0002:00005bf0       ??_C@_1CO@JCKLEFMA@?$AA?$CB?$AAp?$AAe?$AAr?$AAs?$AAi?$AAs?$AAt?$AAe?$AAn?$AAt?$AA?$CI?$AA?$CJ?$AA?4?$AAI?$AAs?$AAW?$AAe?$AAa?$AAk?$AA?$CI?$AA?$CJ?$AA?$AA@ 1003dbf0     main.obj
 0002:00005c20       ??_C@_1BE@GMLLOIPJ@?$AAr?$AAe?$AAf?$AAs?$AA_?$AA?5?$AA?$DO?$AA?5?$AA0?$AA?$AA@ 1003dc20     main.obj
 0002:00005c34       ??_C@_1CC@GBFLAAPF@?$AAw?$AAr?$AAa?$AAp?$AA?9?$AA?$DO?$AAr?$AAe?$AAf?$AAs?$AA_?$AA?5?$AA?$DN?$AA?$DN?$AA?5?$AA0?$AA?$AA@ 1003dc34     main.obj
 0002:00005c58       ??_C@_0BA@JFNIOLAK@string?5too?5long?$AA@ 1003dc58     main.obj
 0002:00005c68       ??_C@_1GI@MBLPPIG@?$AAc?$AA?3?$AA?2?$AAp?$AAr?$AAo?$AAj?$AAe?$AAc?$AAt?$AAs?$AA?2?$AAa?$AAt?$AAo?$AAm?$AA?2?$AAn?$AAo?$AAd?$AAe?$AA_?$AAm?$AAo?$AAd?$AAu?$AAl?$AAe?$AAs?$AA?2?$AAn?$AAa@ 1003dc68     main.obj
 0002:00005cd0       ??_C@_1EC@MGGLMBLC@?$AAo?$AAb?$AAj?$AAe?$AAc?$AAt?$AA?9?$AA?$DO?$AAI?$AAn?$AAt?$AAe?$AAr?$AAn?$AAa?$AAl?$AAF?$AAi?$AAe?$AAl?$AAd?$AAC?$AAo?$AAu?$AAn?$AAt?$AA?$CI?$AA?$CJ?$AA?5?$AA?$DO?$AA?5?$AA0@ 1003dcd0     main.obj
 0002:00005d14       ??_C@_1DI@ELDBKNAK@?$AAw?$AAr?$AAa?$AAp?$AA?9?$AA?$DO?$AAh?$AAa?$AAn?$AAd?$AAl?$AAe?$AA_?$AA?4?$AAI?$AAs?$AAN?$AAe?$AAa?$AAr?$AAD?$AAe?$AAa?$AAt?$AAh?$AA?$CI?$AA?$CJ?$AA?$AA@ 1003dd14     main.obj
 0002:00005d4c       ??_C@_0N@OFCOFIJG@Bad?5argument?$AA@ 1003dd4c     main.obj
 0002:00005d5c       ??_C@_01LFCBOECM@?4?$AA@   1003dd5c     main.obj
 0002:00005d60       ??_C@_05FAGFPHJG@start?$AA@ 1003dd60     main.obj
 0002:00005d68       ??_C@_03JBJLGPFL@end?$AA@  1003dd68     main.obj
 0002:00005d6c       ??_C@_0N@OPCKJLBB@Spellchecker?$AA@ 1003dd6c     main.obj
 0002:00005d7c       ??_C@_0O@GBNBDHMO@setDictionary?$AA@ 1003dd7c     main.obj
 0002:00005d8c       ??_C@_0BJ@DHBHFHDL@getAvailableDictionaries?$AA@ 1003dd8c     main.obj
 0002:00005da8       ??_C@_0BN@KAEFFPMB@getCorrectionsForMisspelling?$AA@ 1003dda8     main.obj
 0002:00005dc8       ??_C@_0N@CHAIBDKD@isMisspelled?$AA@ 1003ddc8     main.obj
 0002:00005dd8       ??_C@_0O@OJOGEIJA@checkSpelling?$AA@ 1003ddd8     main.obj
 0002:00005de8       ??_C@_03BDGOHNNK@add?$AA@  1003dde8     main.obj
 0002:00005dec       ??_C@_0P@KIADDMJD@?4?4?2src?2main?4cc?$AA@ 1003ddec     main.obj
 0002:00005dfc       ??_C@_0N@FMFENAOE@spellchecker?$AA@ 1003ddfc     main.obj
 0002:00005e0c       ??_C@_0BD@OLBABOEK@vector?$DMT?$DO?5too?5long?$AA@ 1003de0c     main.obj
 0002:00005e20       ??_C@_0BI@CFPLBAOH@invalid?5string?5position?$AA@ 1003de20     main.obj
 0002:00005e38       ??_C@_1CE@LNAGEONJ@?$AA?$CB?$AAo?$AAb?$AAj?$AAe?$AAc?$AAt?$AA?4?$AAI?$AAs?$AAE?$AAm?$AAp?$AAt?$AAy?$AA?$CI?$AA?$CJ?$AA?$AA@ 1003de38     main.obj
 0002:00005e5c       ??_7Spellchecker@?A0x29701496@@6B@ 1003de5c     main.obj
 0002:00005e68       ??_7ObjectWrap@Nan@@6B@    1003de68     main.obj
 0002:00005e74       ??_C@_04LLELHCFC@?4aff?$AA@ 1003de74     spellchecker_hunspell.obj
 0002:00005e7c       ??_C@_01KMDKNFGN@?1?$AA@   1003de7c     spellchecker_hunspell.obj
 0002:00005e80       ??_C@_04PKLODBBI@?4dic?$AA@ 1003de80     spellchecker_hunspell.obj
 0002:00005e88       ??_C@_01KDCPPGHE@r?$AA@    1003de88     spellchecker_hunspell.obj
 0002:00005e8c       ??_7HunspellSpellchecker@spellchecker@@6B@ 1003de8c     spellchecker_hunspell.obj
 0002:00005ea8       ??_7SpellcheckerImplementation@spellchecker@@6B@ 1003dea8     spellchecker_hunspell.obj
 0002:00005ec4       ??_C@_0BN@BAIIPJJD@SPELLCHECKER_PREFER_HUNSPELL?$AA@ 1003dec4     spellchecker_win.obj
 0002:00005ee4       _CLSID_SpellCheckerFactory 1003dee4     spellchecker_win.obj
 0002:00005ef4       _IID_ISpellCheckerFactory  1003def4     spellchecker_win.obj
 0002:00005f04       ??_7WindowsSpellchecker@spellchecker@@6B@ 1003df04     spellchecker_win.obj
 0002:00005f20       ??_C@_02FCBLNKNB@ss?$AA@   1003df20     hunspell:hunspell.obj
 0002:00005f24       ??_C@_07IPEFHOCE@?$DM?$DPxml?$DP?$DO?$AA@ 1003df24     hunspell:hunspell.obj
 0002:00005f2c       ??_C@_02PPNCLIJD@SS?$AA@   1003df2c     hunspell:hunspell.obj
 0002:00005f30       ??_C@_02GFIOJICB@?C?$JP?$AA@ 1003df30     hunspell:hunspell.obj
 0002:00005f34       ??_C@_01JOAMLHOP@?9?$AA@   1003df34     hunspell:hunspell.obj
 0002:00005f38       ??_C@_01LIIGDENA@?$NP?$AA@ 1003df38     hunspell:hunspell.obj
 0002:00005f3c       ??_C@_03NJDIPPBB@pa?3?$AA@ 1003df3c     hunspell:hunspell.obj
 0002:00005f40       ??_C@_03LGOGDKEL@?5?$HM?5?$AA@ 1003df40     hunspell:hunspell.obj
 0002:00005f44       ??_C@_03BJOBEIMH@ds?3?$AA@ 1003df44     hunspell:hunspell.obj
 0002:00005f48       ??_C@_03OLILJABK@is?3?$AA@ 1003df48     hunspell:hunspell.obj
 0002:00005f4c       ??_C@_06DLEJEKHG@?$CFc?$CFs?$CFs?$AA@ 1003df4c     hunspell:hunspell.obj
 0002:00005f54       ??_C@_04CDPLFOEF@?$CFc?$CFs?$AA@ 1003df54     hunspell:hunspell.obj
 0002:00005f5c       ??_C@_03NGGJJJLI@sp?3?$AA@ 1003df5c     hunspell:hunspell.obj
 0002:00005f60       ??_C@_03NBGADBGE@st?3?$AA@ 1003df60     hunspell:hunspell.obj
 0002:00005f64       ??_C@_01EEMJAFIK@?6?$AA@   1003df64     hunspell:hunspell.obj
 0002:00005f68       ??_C@_01MIFGBAGJ@?$CL?$AA@ 1003df68     hunspell:hunspell.obj
 0002:00005f6c       ??_C@_02CIKBGMLM@?9e?$AA@  1003df6c     hunspell:hunspell.obj
 0002:00005f70       ??_C@_01MNNFJEPP@?$DM?$AA@ 1003df70     hunspell:hunspell.obj
 0002:00005f74       ??_C@_04GJOGLFEJ@?$CGlt?$DL?$AA@ 1003df74     hunspell:hunspell.obj
 0002:00005f7c       ??_C@_01HNPIGOCE@?$CG?$AA@ 1003df7c     hunspell:hunspell.obj
 0002:00005f80       ??_C@_05JKJFEODM@?$CGamp?$DL?$AA@ 1003df80     hunspell:hunspell.obj
 0002:00005f88       ??_C@_06FJGMCHMM@?$DMquery?$AA@ 1003df88     hunspell:hunspell.obj
 0002:00005f90       ??_C@_05EDNGFAJN@?$DMword?$AA@ 1003df90     hunspell:hunspell.obj
 0002:00005f98       ??_C@_07JFKEGMMK@analyze?$AA@ 1003df98     hunspell:hunspell.obj
 0002:00005fa0       ??_C@_05GFIHHCNM@type?$DN?$AA@ 1003dfa0     hunspell:hunspell.obj
 0002:00005fa8       ??_C@_06CDMPAACN@?$DMcode?$DO?$AA@ 1003dfa8     hunspell:hunspell.obj
 0002:00005fb0       ??_C@_03GMJGNNJA@?$DMa?$DO?$AA@ 1003dfb0     hunspell:hunspell.obj
 0002:00005fb4       ??_C@_01CLKCMJKC@?5?$AA@   1003dfb4     hunspell:hunspell.obj
 0002:00005fb8       ??_C@_01GPOEFGEJ@?7?$AA@   1003dfb8     hunspell:hunspell.obj
 0002:00005fbc       ??_C@_04KNINFIGH@?$DM?1a?$DO?$AA@ 1003dfbc     hunspell:hunspell.obj
 0002:00005fc4       ??_C@_07FPNFMAFL@?$DM?1code?$DO?$AA@ 1003dfc4     hunspell:hunspell.obj
 0002:00005fcc       ??_C@_04PNLNLJBH@stem?$AA@ 1003dfcc     hunspell:hunspell.obj
 0002:00005fd4       ??_C@_08HBLFHMBF@generate?$AA@ 1003dfd4     hunspell:hunspell.obj
 0002:00005fe0       ??_C@_05NHAGIPFM@?$DMcode?$AA@ 1003dfe0     hunspell:hunspell.obj
 0002:00005fe8       ??_C@_0FD@EEPPDLMD@UTF?98?5encoding?5error?4?5Unexpected@ 1003dfe8     hunspell:csutil.obj
 0002:00006040       ??_C@_0FA@FLAHNLML@UTF?98?5encoding?5error?4?5Missing?5co@ 1003e040     hunspell:csutil.obj
 0002:00006090       ??_C@_0DB@DOKALABA@This?5UTF?98?5encoding?5can?8t?5conver@ 1003e090     hunspell:csutil.obj
 0002:000060c4       ??_C@_02HAOIJKIC@?$CFc?$AA@ 1003e0c4     hunspell:csutil.obj
 0002:000060c8       ??_C@_04HDOCAJNK@?$CFs?$CFs?$AA@ 1003e0c8     hunspell:csutil.obj
 0002:000060d0       ??_C@_03EJPIBPFI@ts?3?$AA@ 1003e0d0     hunspell:csutil.obj
 0002:000060d4       ??_C@_08OFHNNBGI@iso88591?$AA@ 1003e0d4     hunspell:csutil.obj
 0002:000060e0       ??_C@_08MOFAICKL@iso88592?$AA@ 1003e0e0     hunspell:csutil.obj
 0002:000060ec       ??_C@_08NHELLDOK@iso88593?$AA@ 1003e0ec     hunspell:csutil.obj
 0002:000060f8       ??_C@_08JIAKCFCN@iso88594?$AA@ 1003e0f8     hunspell:csutil.obj
 0002:00006104       ??_C@_08IBBBBEGM@iso88595?$AA@ 1003e104     hunspell:csutil.obj
 0002:00006110       ??_C@_08KKDMEHKP@iso88596?$AA@ 1003e110     hunspell:csutil.obj
 0002:0000611c       ??_C@_08LDCHHGOO@iso88597?$AA@ 1003e11c     hunspell:csutil.obj
 0002:00006128       ??_C@_08DELPGKCB@iso88598?$AA@ 1003e128     hunspell:csutil.obj
 0002:00006134       ??_C@_08CNKEFLGA@iso88599?$AA@ 1003e134     hunspell:csutil.obj
 0002:00006140       ??_C@_09JMMKKCEI@iso885910?$AA@ 1003e140     hunspell:csutil.obj
 0002:0000614c       ??_C@_06MGNELAEE@tis620?$AA@ 1003e14c     hunspell:csutil.obj
 0002:00006154       ??_C@_0L@IICJILGI@tis6202533?$AA@ 1003e154     hunspell:csutil.obj
 0002:00006160       ??_C@_09IFNBJDAJ@iso885911?$AA@ 1003e160     hunspell:csutil.obj
 0002:0000616c       ??_C@_09LHOHPBIL@iso885913?$AA@ 1003e16c     hunspell:csutil.obj
 0002:00006178       ??_C@_09PIKGGHEM@iso885914?$AA@ 1003e178     hunspell:csutil.obj
 0002:00006184       ??_C@_09OBLNFGAN@iso885915?$AA@ 1003e184     hunspell:csutil.obj
 0002:00006190       ??_C@_05EGDDFGIM@koi8r?$AA@ 1003e190     hunspell:csutil.obj
 0002:00006198       ??_C@_05JHCMAEL@koi8u?$AA@ 1003e198     hunspell:csutil.obj
 0002:000061a0       ??_C@_06PBHBPKON@cp1251?$AA@ 1003e1a0     hunspell:csutil.obj
 0002:000061a8       ??_C@_0BA@LEHMGPJL@microsoftcp1251?$AA@ 1003e1a8     hunspell:csutil.obj
 0002:000061b8       ??_C@_08FBMCKANJ@xisciias?$AA@ 1003e1b8     hunspell:csutil.obj
 0002:000061c4       ??_C@_0BA@DHKGCHKD@isciidevanagari?$AA@ 1003e1c4     hunspell:csutil.obj
 0002:000061d4       ??_C@_0DC@GDCCJAFK@error?3?5unknown?5encoding?5?$CFs?3?5usin@ 1003e1d4     hunspell:csutil.obj
 0002:00006208       ??_C@_02FEKCJMIO@ar?$AA@   1003e208     hunspell:csutil.obj
 0002:0000620c       ??_C@_02JMHLBGIG@az?$AA@   1003e20c     hunspell:csutil.obj
 0002:00006210       ??_C@_05JMJFDHBA@az_AZ?$AA@ 1003e210     hunspell:csutil.obj
 0002:00006218       ??_C@_02GBFBMEMD@bg?$AA@   1003e218     hunspell:csutil.obj
 0002:0000621c       ??_C@_02DGMJAJHC@ca?$AA@   1003e21c     hunspell:csutil.obj
 0002:00006220       ??_C@_02EODNHJKB@cs?$AA@   1003e220     hunspell:csutil.obj
 0002:00006224       ??_C@_02DDIGBPPH@da?$AA@   1003e224     hunspell:csutil.obj
 0002:00006228       ??_C@_02FHOKNKPD@de?$AA@   1003e228     hunspell:csutil.obj
 0002:0000622c       ??_C@_02IHOKALIN@el?$AA@   1003e22c     hunspell:csutil.obj
 0002:00006230       ??_C@_02LFNMGJAP@en?$AA@   1003e230     hunspell:csutil.obj
 0002:00006234       ??_C@_02EKLAAFBD@es?$AA@   1003e234     hunspell:csutil.obj
 0002:00006238       ??_C@_02BMOKKCJF@eu?$AA@   1003e238     hunspell:csutil.obj
 0002:0000623c       ??_C@_02IEGONPOD@gl?$AA@   1003e23c     hunspell:csutil.obj
 0002:00006240       ??_C@_02FBONIKAL@fr?$AA@   1003e240     hunspell:csutil.obj
 0002:00006244       ??_C@_02FLHDKHAB@hr?$AA@   1003e244     hunspell:csutil.obj
 0002:00006248       ??_C@_02BEDCDBMG@hu?$AA@   1003e248     hunspell:csutil.obj
 0002:0000624c       ??_C@_05LBIDNGEJ@hu_HU?$AA@ 1003e24c     hunspell:csutil.obj
 0002:00006254       ??_C@_02MOLGKLA@it?$AA@    1003e254     hunspell:csutil.obj
 0002:00006258       ??_C@_02DNJFEOEP@la?$AA@   1003e258     hunspell:csutil.obj
 0002:0000625c       ??_C@_02DIBGMKNJ@lv?$AA@   1003e25c     hunspell:csutil.obj
 0002:00006260       ??_C@_02ILLPOEGM@nl?$AA@   1003e260     hunspell:csutil.obj
 0002:00006264       ??_C@_02JNAHGKBG@pl?$AA@   1003e264     hunspell:csutil.obj
 0002:00006268       ??_C@_02BPBMPCEP@pt?$AA@   1003e268     hunspell:csutil.obj
 0002:0000626c       ??_C@_02CPGMCOJE@sv?$AA@   1003e26c     hunspell:csutil.obj
 0002:00006270       ??_C@_02EOEPPNBF@tr?$AA@   1003e270     hunspell:csutil.obj
 0002:00006274       ??_C@_05CNMKAEGK@tr_TR?$AA@ 1003e274     hunspell:csutil.obj
 0002:0000627c       ??_C@_02FIDBHGA@ru?$AA@    1003e27c     hunspell:csutil.obj
 0002:00006280       ??_C@_02NEINDODK@uk?$AA@   1003e280     hunspell:csutil.obj
 0002:00006284       ??_C@_03NGOJMEJO@ph?3?$AA@ 1003e284     hunspell:hashmgr.obj
 0002:00006288       ??_C@_03PKPBNCAL@?o?$LL?$LP?$AA@ 1003e288     hunspell:hashmgr.obj
 0002:0000628c       ??_C@_06LHGEHABH@?$CINULL?$CJ?$AA@ 1003e28c     hunspell:hashmgr.obj
 0002:00006294       ??_C@_02DPKJAMEF@?$CFd?$AA@ 1003e294     hunspell:hashmgr.obj
 0002:00006298       ??_C@_0DC@GBGBFMCI@Error?5?9?5could?5not?5open?5affix?5des@ 1003e298     hunspell:hashmgr.obj
 0002:000062cc       ??_C@_04PBMMHMLL@FLAG?$AA@ 1003e2cc     hunspell:hashmgr.obj
 0002:000062d4       ??_C@_04GOKPGOLB@long?$AA@ 1003e2d4     hunspell:hashmgr.obj
 0002:000062dc       ??_C@_03IHCLBPIC@num?$AA@  1003e2dc     hunspell:hashmgr.obj
 0002:000062e0       ??_C@_05EGJIMALK@UTF?98?$AA@ 1003e2e0     hunspell:hashmgr.obj
 0002:000062e8       ??_C@_0O@IOKILCIH@FORBIDDENWORD?$AA@ 1003e2e8     hunspell:hashmgr.obj
 0002:000062f8       ??_C@_03KPIFFHNE@SET?$AA@  1003e2f8     hunspell:hashmgr.obj
 0002:000062fc       ??_C@_04ECEKPLPK@LANG?$AA@ 1003e2fc     hunspell:hashmgr.obj
 0002:00006304       ??_C@_06GHNPMFCC@IGNORE?$AA@ 1003e304     hunspell:hashmgr.obj
 0002:0000630c       ??_C@_02NHMFCJJJ@AF?$AA@   1003e30c     hunspell:hashmgr.obj
 0002:00006310       ??_C@_02DEDBPAFC@AM?$AA@   1003e310     hunspell:hashmgr.obj
 0002:00006314       ??_C@_0BA@FLADCNFC@COMPLEXPREFIXES?$AA@ 1003e314     hunspell:hashmgr.obj
 0002:00006324       ??_C@_03BHGKGIB@SFX?$AA@   1003e324     hunspell:hashmgr.obj
 0002:00006328       ??_C@_03BDMDAJGP@PFX?$AA@  1003e328     hunspell:hashmgr.obj
 0002:0000632c       ??_C@_09KEDHCKDI@ISO8859?91?$AA@ 1003e32c     hunspell:hashmgr.obj
 0002:00006338       ??_C@_01IDAFKMJL@_?$AA@    1003e338     hunspell:replist.obj
 0002:0000633a       ??_C@_00CNPNBAHC@?$AA@     1003e33a     hunspell:suggestmgr.obj
 0002:0000633c       ??_C@_03DJEFFMLI@al?3?$AA@ 1003e33c     hunspell:suggestmgr.obj
 0002:00006344       ??_C@_0BN@NNBJIGA@Failure?5loading?5aff?5file?5?$CFs?6?$AA@ 1003e344     hunspell:affixmgr.obj
 0002:00006364       ??_C@_0DB@PNJHIABK@error?3?5could?5not?5open?5affix?5desc@ 1003e364     hunspell:affixmgr.obj
 0002:00006398       ??_C@_03IPIGFGOJ@KEY?$AA@  1003e398     hunspell:affixmgr.obj
 0002:0000639c       ??_C@_03JOJFKENF@TRY?$AA@  1003e39c     hunspell:affixmgr.obj
 0002:000063a0       ??_C@_0N@ECPCLNEK@COMPOUNDFLAG?$AA@ 1003e3a0     hunspell:affixmgr.obj
 0002:000063b0       ??_C@_0O@EBMFGKAJ@COMPOUNDBEGIN?$AA@ 1003e3b0     hunspell:affixmgr.obj
 0002:000063c0       ??_C@_0P@MDFHAAHP@COMPOUNDMIDDLE?$AA@ 1003e3c0     hunspell:affixmgr.obj
 0002:000063d0       ??_C@_0M@MENLHNNP@COMPOUNDEND?$AA@ 1003e3d0     hunspell:affixmgr.obj
 0002:000063dc       ??_C@_0BA@FGIKNKBH@COMPOUNDWORDMAX?$AA@ 1003e3dc     hunspell:affixmgr.obj
 0002:000063ec       ??_C@_0N@KOFGEPHO@COMPOUNDROOT?$AA@ 1003e3ec     hunspell:affixmgr.obj
 0002:000063fc       ??_C@_0BD@CJKDCLAB@COMPOUNDPERMITFLAG?$AA@ 1003e3fc     hunspell:affixmgr.obj
 0002:00006410       ??_C@_0BD@KCDEKFHH@COMPOUNDFORBIDFLAG?$AA@ 1003e410     hunspell:affixmgr.obj
 0002:00006424       ??_C@_0BB@DNNBNILN@CHECKCOMPOUNDDUP?$AA@ 1003e424     hunspell:affixmgr.obj
 0002:00006438       ??_C@_0BB@FEIFHDIO@CHECKCOMPOUNDREP?$AA@ 1003e438     hunspell:affixmgr.obj
 0002:0000644c       ??_C@_0BE@FNBLFJOI@CHECKCOMPOUNDTRIPLE?$AA@ 1003e44c     hunspell:affixmgr.obj
 0002:00006460       ??_C@_0BB@NOKHNNAJ@SIMPLIFIEDTRIPLE?$AA@ 1003e460     hunspell:affixmgr.obj
 0002:00006474       ??_C@_0BC@FHPOAHCI@CHECKCOMPOUNDCASE?$AA@ 1003e474     hunspell:affixmgr.obj
 0002:00006488       ??_C@_09NDAAEAEC@NOSUGGEST?$AA@ 1003e488     hunspell:affixmgr.obj
 0002:00006494       ??_C@_0P@CLEDNPFG@NONGRAMSUGGEST?$AA@ 1003e494     hunspell:affixmgr.obj
 0002:000064a4       ??_C@_0O@EDHKHHJK@LEMMA_PRESENT?$AA@ 1003e4a4     hunspell:affixmgr.obj
 0002:000064b4       ??_C@_09DGFPGGGH@CIRCUMFIX?$AA@ 1003e4b4     hunspell:affixmgr.obj
 0002:000064c0       ??_C@_0P@GBHPFHDD@ONLYINCOMPOUND?$AA@ 1003e4c0     hunspell:affixmgr.obj
 0002:000064d0       ??_C@_0L@FNNJHKCI@PSEUDOROOT?$AA@ 1003e4d0     hunspell:affixmgr.obj
 0002:000064dc       ??_C@_09HJNLGJOD@NEEDAFFIX?$AA@ 1003e4dc     hunspell:affixmgr.obj
 0002:000064e8       ??_C@_0M@POMPKLDP@COMPOUNDMIN?$AA@ 1003e4e8     hunspell:affixmgr.obj
 0002:000064f4       ??_C@_0BB@POGLPBEA@COMPOUNDSYLLABLE?$AA@ 1003e4f4     hunspell:affixmgr.obj
 0002:00006508       ??_C@_0M@PKFNAMOA@SYLLABLENUM?$AA@ 1003e508     hunspell:affixmgr.obj
 0002:00006514       ??_C@_08OACGLEJC@CHECKNUM?$AA@ 1003e514     hunspell:affixmgr.obj
 0002:00006520       ??_C@_09NNJIMDOE@WORDCHARS?$AA@ 1003e520     hunspell:affixmgr.obj
 0002:0000652c       ??_C@_03HDFFPFLF@REP?$AA@  1003e52c     hunspell:affixmgr.obj
 0002:00006530       ??_C@_05CMKLDFBC@ICONV?$AA@ 1003e530     hunspell:affixmgr.obj
 0002:00006538       ??_C@_05PKPCNGAP@OCONV?$AA@ 1003e538     hunspell:affixmgr.obj
 0002:00006540       ??_C@_05BOENBGMC@PHONE?$AA@ 1003e540     hunspell:affixmgr.obj
 0002:00006548       ??_C@_0BF@DMKDNGML@CHECKCOMPOUNDPATTERN?$AA@ 1003e548     hunspell:affixmgr.obj
 0002:00006560       ??_C@_0N@MAGNGFMM@COMPOUNDRULE?$AA@ 1003e560     hunspell:affixmgr.obj
 0002:00006570       ??_C@_03HMCGBKKA@MAP?$AA@  1003e570     hunspell:affixmgr.obj
 0002:00006574       ??_C@_05IAGBLAKG@BREAK?$AA@ 1003e574     hunspell:affixmgr.obj
 0002:0000657c       ??_C@_07NCHCCDCP@VERSION?$AA@ 1003e57c     hunspell:affixmgr.obj
 0002:00006584       ??_C@_0N@HIILJKBG@MAXNGRAMSUGS?$AA@ 1003e584     hunspell:affixmgr.obj
 0002:00006594       ??_C@_0M@DBPGOAFP@ONLYMAXDIFF?$AA@ 1003e594     hunspell:affixmgr.obj
 0002:000065a0       ??_C@_07LDLPPDDC@MAXDIFF?$AA@ 1003e5a0     hunspell:affixmgr.obj
 0002:000065a8       ??_C@_0L@EGHLCOJB@MAXCPDSUGS?$AA@ 1003e5a8     hunspell:affixmgr.obj
 0002:000065b4       ??_C@_0M@GHCELONK@NOSPLITSUGS?$AA@ 1003e5b4     hunspell:affixmgr.obj
 0002:000065c0       ??_C@_09KJPABDJI@FULLSTRIP?$AA@ 1003e5c0     hunspell:affixmgr.obj
 0002:000065cc       ??_C@_0N@MNBEHADM@SUGSWITHDOTS?$AA@ 1003e5cc     hunspell:affixmgr.obj
 0002:000065dc       ??_C@_08OBPONOED@KEEPCASE?$AA@ 1003e5dc     hunspell:affixmgr.obj
 0002:000065e8       ??_C@_0L@KLPNJIJO@FORCEUCASE?$AA@ 1003e5e8     hunspell:affixmgr.obj
 0002:000065f4       ??_C@_04JBIELMDE@WARN?$AA@ 1003e5f4     hunspell:affixmgr.obj
 0002:000065fc       ??_C@_0L@BPCLKBPE@FORBIDWARN?$AA@ 1003e5fc     hunspell:affixmgr.obj
 0002:00006608       ??_C@_0M@GEACDDMH@SUBSTANDARD?$AA@ 1003e608     hunspell:affixmgr.obj
 0002:00006614       ??_C@_0M@EMKMGEHL@CHECKSHARPS?$AA@ 1003e614     hunspell:affixmgr.obj
 0002:00006620       ??_C@_02EGLGHPLI@?$FO?9?$AA@ 1003e620     hunspell:affixmgr.obj
 0002:00006624       ??_C@_02MBMDBCPI@?9$?$AA@  1003e624     hunspell:affixmgr.obj
 0002:00006628       ??_C@_03KEJCGEAB@fl?3?$AA@ 1003e628     hunspell:affixmgr.obj
 0002:0000662c       ??_C@_08NFPIODIJ@?$CFc?$CFs?$CFs?$CFs?$AA@ 1003e62c     hunspell:affixmgr.obj
 0002:00006638       ??_C@_0BN@DPANBNIL@qwertyuiop?$HMasdfghjkl?$HMzxcvbnm?$AA@ 1003e638     hunspell:affixmgr.obj
 0002:00006658       ??_C@_0L@HLLGMIBA@aeiouAEIOU?$AA@ 1003e658     hunspell:affixmgr.obj
 0002:00006664       ??_C@_0CF@OAPHLBEI@error?3?5line?5?$CFd?3?5affix?5?$CFs?5is?5corr@ 1003e664     hunspell:affixmgr.obj
 0002:0000668c       ??_C@_01GBGANLPD@0?$AA@    1003e68c     hunspell:affixmgr.obj
 0002:00006690       ??_C@_0CD@MHBOHPNC@error?3?5bad?5affix?5flag?5alias?3?5?$CC?$CFs@ 1003e690     hunspell:affixmgr.obj
 0002:000066b4       ??_C@_0CM@HCAAOIMI@error?3?5line?5?$CFd?3?5missing?5?$FN?5in?5con@ 1003e6b4     hunspell:affixmgr.obj
 0002:000066e0       ??_C@_0CN@JOKFNJDA@error?3?5line?3?5?$CFd?3?5missing?5?$FN?5in?5co@ 1003e6e0     hunspell:affixmgr.obj
 0002:00006710       ??_C@_03NECPDAK@?4hz?$AA@  1003e710     hunspell:filemgr.obj
 0002:00006714       ??_C@_0BI@CKHBECJD@error?3?5?$CFs?3?5cannot?5open?6?$AA@ 1003e714     hunspell:filemgr.obj
 0002:0000672c       ??_C@_05LBKEJHLH@?$CI?9?$DM?$FO$?$AA@ 1003e72c     hunspell:phonet.obj
 0002:00006734       ??_C@_02ECKEFFIN@?$FO?$FO?$AA@ 1003e734     hunspell:phonet.obj
 0002:00006738       ??_C@_02JDPG@rb?$AA@       1003e738     hunspell:hunzip.obj
 0002:0000673c       ??_C@_03KGAJCEHK@hz0?$AA@  1003e73c     hunspell:hunzip.obj
 0002:00006740       ??_C@_03LPBCBFDL@hz1?$AA@  1003e740     hunspell:hunzip.obj
 0002:00006744       ??_C@_0BP@DAEACJGO@error?3?5?$CFs?3?5not?5in?5hzip?5format?6?$AA@ 1003e744     hunspell:hunzip.obj
 0002:00006764       ??_C@_0CE@NCPPEKPN@error?3?5?$CFs?3?5missing?5or?5bad?5passwo@ 1003e764     hunspell:hunzip.obj
 0002:00006788       ??_C@_0BL@FJFIEOJK@error?3?5?$CFs?3?5missing?5memory?6?$AA@ 1003e788     hunspell:hunzip.obj
 0002:000067a8       __real@3ff0000000000000    1003e7a8     hunspell:suggestmgr.obj
 0002:000067b0       __real@4014000000000000    1003e7b0     hunspell:suggestmgr.obj
 0002:000067b8       __real@4024000000000000    1003e7b8     hunspell:suggestmgr.obj
 0002:000067c0       __xmm@00000003000000020000000100000000 1003e7c0     hunspell:suggestmgr.obj
 0002:000067d0       __xmm@ffffff9cffffff9cffffff9cffffff9c 1003e7d0     hunspell:suggestmgr.obj
 0002:00006838       __load_config_used         1003e838     LIBCMT:loadcfg.obj
 0002:00006894       ??_R4exception@std@@6B@    1003e894     libcpmt:xthrow.obj
 0002:000068a8       ??_R3exception@std@@8      1003e8a8     libcpmt:xthrow.obj
 0002:000068b8       ??_R2exception@std@@8      1003e8b8     libcpmt:xthrow.obj
 0002:000068c0       ??_R1A@?0A@EA@exception@std@@8 1003e8c0     libcpmt:xthrow.obj
 0002:000068dc       ??_R4bad_alloc@std@@6B@    1003e8dc     libcpmt:xthrow.obj
 0002:000068f0       ??_R3bad_alloc@std@@8      1003e8f0     libcpmt:xthrow.obj
 0002:00006900       ??_R2bad_alloc@std@@8      1003e900     libcpmt:xthrow.obj
 0002:0000690c       ??_R1A@?0A@EA@bad_alloc@std@@8 1003e90c     libcpmt:xthrow.obj
 0002:00006928       ??_R4logic_error@std@@6B@  1003e928     libcpmt:xthrow.obj
 0002:0000693c       ??_R3logic_error@std@@8    1003e93c     libcpmt:xthrow.obj
 0002:0000694c       ??_R2logic_error@std@@8    1003e94c     libcpmt:xthrow.obj
 0002:00006958       ??_R1A@?0A@EA@logic_error@std@@8 1003e958     libcpmt:xthrow.obj
 0002:00006974       ??_R4length_error@std@@6B@ 1003e974     libcpmt:xthrow.obj
 0002:00006988       ??_R3length_error@std@@8   1003e988     libcpmt:xthrow.obj
 0002:00006998       ??_R2length_error@std@@8   1003e998     libcpmt:xthrow.obj
 0002:000069a8       ??_R1A@?0A@EA@length_error@std@@8 1003e9a8     libcpmt:xthrow.obj
 0002:000069c4       ??_R4out_of_range@std@@6B@ 1003e9c4     libcpmt:xthrow.obj
 0002:000069d8       ??_R3out_of_range@std@@8   1003e9d8     libcpmt:xthrow.obj
 0002:000069e8       ??_R2out_of_range@std@@8   1003e9e8     libcpmt:xthrow.obj
 0002:000069f8       ??_R1A@?0A@EA@out_of_range@std@@8 1003e9f8     libcpmt:xthrow.obj
 0002:00006a14       ??_R4type_info@@6B@        1003ea14     LIBCMT:std_type_info_static.obj
 0002:00006a28       ??_R3type_info@@8          1003ea28     LIBCMT:std_type_info_static.obj
 0002:00006a38       ??_R2type_info@@8          1003ea38     LIBCMT:std_type_info_static.obj
 0002:00006a40       ??_R1A@?0A@EA@type_info@@8 1003ea40     LIBCMT:std_type_info_static.obj
 0002:00006a5c       ??_R4bad_array_new_length@std@@6B@ 1003ea5c     LIBCMT:throw_bad_alloc.obj
 0002:00006a70       ??_R3bad_array_new_length@std@@8 1003ea70     LIBCMT:throw_bad_alloc.obj
 0002:00006a80       ??_R2bad_array_new_length@std@@8 1003ea80     LIBCMT:throw_bad_alloc.obj
 0002:00006a90       ??_R1A@?0A@EA@bad_array_new_length@std@@8 1003ea90     LIBCMT:throw_bad_alloc.obj
 0002:00006ab0       ___safe_se_handler_table   1003eab0     <linker-defined>
 0002:00006df8       ___rtc_iaa                 1003edf8     LIBCMT:_initsect_.obj
 0002:00006dfc       ___rtc_izz                 1003edfc     LIBCMT:_initsect_.obj
 0002:00006e00       ___rtc_taa                 1003ee00     LIBCMT:_initsect_.obj
 0002:00006e04       ___rtc_tzz                 1003ee04     LIBCMT:_initsect_.obj
 0002:00006e08       __TI2?AVbad_alloc@std@@    1003ee08     libcpmt:xthrow.obj
 0002:00006e18       __CTA2?AVbad_alloc@std@@   1003ee18     libcpmt:xthrow.obj
 0002:00006e24       __CT??_R0?AVbad_alloc@std@@@8??0bad_alloc@std@@QAE@ABV01@@Z12 1003ee24     libcpmt:xthrow.obj
 0002:00006e40       __CT??_R0?AVexception@std@@@8??0exception@std@@QAE@ABV01@@Z12 1003ee40     libcpmt:xthrow.obj
 0002:00006e5c       __CT??_R0?AVlogic_error@std@@@8??0logic_error@std@@QAE@ABV01@@Z12 1003ee5c     libcpmt:xthrow.obj
 0002:00006e78       __TI3?AVlength_error@std@@ 1003ee78     libcpmt:xthrow.obj
 0002:00006e88       __CTA3?AVlength_error@std@@ 1003ee88     libcpmt:xthrow.obj
 0002:00006e98       __CT??_R0?AVlength_error@std@@@8??0length_error@std@@QAE@ABV01@@Z12 1003ee98     libcpmt:xthrow.obj
 0002:00006eb4       __TI3?AVout_of_range@std@@ 1003eeb4     libcpmt:xthrow.obj
 0002:00006ec4       __CTA3?AVout_of_range@std@@ 1003eec4     libcpmt:xthrow.obj
 0002:00006ed4       __CT??_R0?AVout_of_range@std@@@8??0out_of_range@std@@QAE@ABV01@@Z12 1003eed4     libcpmt:xthrow.obj
 0002:00006f4c       __TI3?AVbad_array_new_length@std@@ 1003ef4c     LIBCMT:throw_bad_alloc.obj
 0002:00006f5c       __CTA3?AVbad_array_new_length@std@@ 1003ef5c     LIBCMT:throw_bad_alloc.obj
 0002:00006f6c       __CT??_R0?AVbad_array_new_length@std@@@8??0bad_array_new_length@std@@QAE@ABV01@@Z12 1003ef6c     LIBCMT:throw_bad_alloc.obj
 0002:000074bc       __IMPORT_DESCRIPTOR_KERNEL32 1003f4bc     kernel32:KERNEL32.dll
 0002:000074d0       __IMPORT_DESCRIPTOR_ole32  1003f4d0     ole32:ole32.dll
 0002:000074e4       __IMPORT_DESCRIPTOR_node   1003f4e4     iojs:node.dll
 0002:000074f8       __NULL_IMPORT_DESCRIPTOR   1003f4f8     kernel32:KERNEL32.dll
 0003:00000000       ___security_cookie_complement 10041000     LIBCMT:gs_cookie.obj
 0003:00000004       ___security_cookie         10041004     LIBCMT:gs_cookie.obj
 0003:00000008       ___scrt_native_dllmain_reason 10041008     LIBCMT:utility.obj
 0003:00000010       ___isa_enabled             10041010     LIBCMT:_cpu_disp_.obj
 0003:00000030       __NLG_Destination          10041030     libvcruntime:_exsup_.obj
 0003:00000040       __iob                      10041040     libucrt:_file.obj
 0003:000000e8       ___abort_behavior          100410e8     libucrt:abort.obj
 0003:000000f8       ___acrt_initial_locale_data 100410f8     libucrt:nlsdata.obj
 0003:000001b0       ___acrt_initial_locale_pointers 100411b0     libucrt:nlsdata.obj
 0003:000001b8       ___acrt_wide_c_locale_string 100411b8     libucrt:nlsdata.obj
 0003:000001c0       ___badioinfo               100411c0     libucrt:ioinit.obj
 0003:000001f0       __pwctype                  100411f0     libucrt:ctype.obj
 0003:000001f8       __lookuptrailbytes         100411f8     libucrt:read.obj
 0003:000003f0       __mbctype                  100413f0     libucrt:mbctype.obj
 0003:000004f8       __mbcasemap                100414f8     libucrt:mbctype.obj
 0003:000005f8       ___acrt_initial_multibyte_data 100415f8     libucrt:mbctype.obj
 0003:00000818       ___acrt_current_multibyte_data 10041818     libucrt:mbctype.obj
 0003:0000081c       ___globallocalestatus      1004181c     libucrt:glstatus.obj
 0003:00000820       ___acrt_lconv_static_decimal 10041820     libucrt:localeconv.obj
 0003:00000824       ___acrt_lconv_static_W_decimal 10041824     libucrt:localeconv.obj
 0003:00000828       ___acrt_lconv_c            10041828     libucrt:localeconv.obj
 0003:00000880       ___dcrt_lowio_console_output_handle 10041880     libucrt:initcon.obj
 0003:00000890       __fltused                  10041890     LIBCMT:fltused.obj
 0003:00020d70       ??_R0?AVbad_alloc@std@@@8  10061d70     libcpmt:xthrow.obj
 0003:00020d8c       ??_R0?AVexception@std@@@8  10061d8c     libcpmt:xthrow.obj
 0003:00020da8       ??_R0?AVlogic_error@std@@@8 10061da8     libcpmt:xthrow.obj
 0003:00020dc8       ??_R0?AVlength_error@std@@@8 10061dc8     libcpmt:xthrow.obj
 0003:00020de8       ??_R0?AVout_of_range@std@@@8 10061de8     libcpmt:xthrow.obj
 0003:00020e08       ??_R0?AVtype_info@@@8      10061e08     LIBCMT:std_type_info_static.obj
 0003:00020e20       ??_R0?AVbad_array_new_length@std@@@8 10061e20     LIBCMT:throw_bad_alloc.obj
 0003:0002116c       ___scrt_current_native_startup_state 1006216c     LIBCMT:utility.obj
 0003:00021170       ___scrt_native_startup_lock 10062170     LIBCMT:utility.obj
 0003:00021190       ?__type_info_root_node@@3U__type_info_node@@A 10062190     LIBCMT:tncleanup.obj
 0003:00021198       ?_OptionsStorage@?1??__local_stdio_scanf_options@@9@4_KA 10062198     LIBCMT:default_local_stdio_options.obj
 0003:000211a0       ___scrt_debugger_hook_flag 100621a0     LIBCMT:utility_desktop.obj
 0003:000211a4       ___isa_available           100621a4     LIBCMT:_cpu_disp_.obj
 0003:000211a8       ___favor                   100621a8     LIBCMT:_cpu_disp_.obj
 0003:000211ac       ___pPurecall               100621ac     libvcruntime:purevirt_data.obj
 0003:00021228       ?pArgList@UnDecorator@@0PAVReplicator@@A 10062228     libvcruntime:undname.obj
 0003:0002122c       ?pZNameList@UnDecorator@@0PAVReplicator@@A 1006222c     libvcruntime:undname.obj
 0003:00021230       ?pTemplateArgList@UnDecorator@@0PAVReplicator@@A 10062230     libvcruntime:undname.obj
 0003:00021234       ?gName@UnDecorator@@0PBDB  10062234     libvcruntime:undname.obj
 0003:00021238       ?name@UnDecorator@@0PBDB   10062238     libvcruntime:undname.obj
 0003:0002123c       ?outputString@UnDecorator@@0PADA 1006223c     libvcruntime:undname.obj
 0003:00021240       ?maxStringLength@UnDecorator@@0HA 10062240     libvcruntime:undname.obj
 0003:00021244       ?disableFlags@UnDecorator@@0KA 10062244     libvcruntime:undname.obj
 0003:00021248       ?fExplicitTemplateParams@UnDecorator@@0_NA 10062248     libvcruntime:undname.obj
 0003:00021249       ?fGetTemplateArgumentList@UnDecorator@@0_NA 10062249     libvcruntime:undname.obj
 0003:0002124c       ?m_pGetParameter@UnDecorator@@0P6APADJ@ZA 1006224c     libvcruntime:undname.obj
 0003:00021268       __nstream                  10062268     libucrt:_file.obj
 0003:0002126c       ___piob                    1006226c     libucrt:_file.obj
 0003:00021270       __cflush                   10062270     libucrt:_file.obj
 0003:000213a0       __environ_table            100623a0     libucrt:environment_initialization.obj
 0003:000213a4       __wenviron_table           100623a4     libucrt:environment_initialization.obj
 0003:000213a8       ___dcrt_initial_wide_environment 100623a8     libucrt:environment_initialization.obj
 0003:000213ac       ___dcrt_initial_narrow_environment 100623ac     libucrt:environment_initialization.obj
 0003:000213b0       ___acrt_atexit_table       100623b0     libucrt:onexit.obj
 0003:000213bc       ___acrt_at_quick_exit_table 100623bc     libucrt:onexit.obj
 0003:000213e0       ___acrt_locale_changed_data 100623e0     libucrt:wsetlocale.obj
 0003:000213e4       ___acrt_current_locale_data 100623e4     libucrt:nlsdata.obj
 0003:00021528       ___acrt_stdout_buffer      10062528     libucrt:_sftbuf.obj
 0003:0002152c       ___acrt_stderr_buffer      1006252c     libucrt:_sftbuf.obj
 0003:00021530       ___pioinfo                 10062530     libucrt:ioinit.obj
 0003:00021730       __nhandle                  10062730     libucrt:ioinit.obj
 0003:0002180c       ___mblocalename            1006280c     libucrt:mbctype.obj
 0003:00021810       ___mbcodepage              10062810     libucrt:mbctype.obj
 0003:00021814       ___ismbcodepage            10062814     libucrt:mbctype.obj
 0003:00021818       ___mbulinfo                10062818     libucrt:mbctype.obj
 0003:0002182c       ___argc                    1006282c     libucrt:argv_data.obj
 0003:00021830       ___argv                    10062830     libucrt:argv_data.obj
 0003:00021834       ___wargv                   10062834     libucrt:argv_data.obj
 0003:00021838       __acmdln                   10062838     libucrt:argv_data.obj
 0003:0002183c       __wcmdln                   1006283c     libucrt:argv_data.obj
 0003:00021840       __pgmptr                   10062840     libucrt:argv_data.obj
 0003:00021844       ___acrt_heap               10062844     libucrt:heap_handle.obj
 0003:00021850       __commode                  10062850     libucrt:ncommode.obj
 0003:00021854       ___acrt_lconv_static_null  10062854     libucrt:localeconv.obj
 0003:00021858       ___acrt_lconv_static_W_null 10062858     libucrt:localeconv.obj
 0003:0002185c       __umaskval                 1006285c     libucrt:umask.obj
 0003:00021860       __fmode                    10062860     libucrt:txtmode.obj
 0003:00021864       ___fastflag                10062864     libucrt:fp_flags.obj
 0003:0002186c       ?g_COMRefcount@spellchecker@@3JA 1006286c     spellchecker_win.obj
 0003:00021870       ?g_COMFailed@spellchecker@@3_NA 10062870     spellchecker_win.obj
 0003:00021880       ?_OptionsStorage@?1??__local_stdio_printf_options@@9@4_KA 10062880     hunspell:hunspell.obj
 0003:00021888       ___scrt_ucrt_dll_is_in_use 10062888     <common>
 0003:0002188c       ___dyn_tls_init_callback   1006288c     <common>
 0003:00021890       __pDestructExceptionObject 10062890     <common>
 0003:00021894       __pmatherr                 10062894     <common>
 0003:00021898       ___use_sse2_mathfcns       10062898     <common>

 entry point at        0001:00020c82

 Static symbols

 0000:fff99000       .debug$S                   10000000     iojs:node.dll
 0000:fff99000       .debug$S                   10000000     iojs:node.dll
 0000:fff99000       .debug$S                   10000000     iojs:node.dll
 0000:fff99000       .debug$S                   10000000     iojs:node.dll
 0000:fff99000       .debug$S                   10000000     iojs:node.dll
 0000:fff99000       .debug$S                   10000000     iojs:node.dll
 0000:fff99000       .debug$S                   10000000     iojs:node.dll
 0000:fff99000       .debug$S                   10000000     iojs:node.dll
 0000:fff99000       .debug$S                   10000000     iojs:node.dll
 0000:fff99000       .debug$S                   10000000     iojs:node.dll
 0000:fff99000       .debug$S                   10000000     iojs:node.dll
 0000:fff99000       .debug$S                   10000000     iojs:node.dll
 0000:fff99000       .debug$S                   10000000     iojs:node.dll
 0000:fff99000       .debug$S                   10000000     iojs:node.dll
 0000:fff99000       .debug$S                   10000000     iojs:node.dll
 0000:fff99000       .debug$S                   10000000     iojs:node.dll
 0000:fff99000       .debug$S                   10000000     iojs:node.dll
 0000:fff99000       .debug$S                   10000000     iojs:node.dll
 0000:fff99000       .debug$S                   10000000     iojs:node.dll
 0000:fff99000       .debug$S                   10000000     iojs:node.dll
 0000:fff99000       .debug$S                   10000000     iojs:node.dll
 0000:fff99000       .debug$S                   10000000     iojs:node.dll
 0000:fff99000       .debug$S                   10000000     iojs:node.dll
 0000:fff99000       .debug$S                   10000000     iojs:node.dll
 0000:fff99000       .debug$S                   10000000     iojs:node.dll
 0000:fff99000       .debug$S                   10000000     iojs:node.dll
 0000:fff99000       .debug$S                   10000000     iojs:node.dll
 0000:fff99000       .debug$S                   10000000     iojs:node.dll
 0000:fff99000       .debug$S                   10000000     iojs:node.dll
 0000:fff99000       .debug$S                   10000000     iojs:node.dll
 0000:fff99000       .debug$S                   10000000     iojs:node.dll
 0000:fff99000       .debug$S                   10000000     iojs:node.dll
 0000:fff99000       .debug$S                   10000000     iojs:node.dll
 0000:fff99000       .debug$S                   10000000     iojs:node.dll
 0000:fff99000       .debug$S                   10000000     iojs:node.dll
 0000:fff99000       .debug$S                   10000000     iojs:node.dll
 0000:fff99000       .debug$S                   10000000     iojs:node.dll
 0000:fff99000       .debug$S                   10000000     iojs:node.dll
 0000:fff99000       .debug$S                   10000000     iojs:node.dll
 0000:fff99000       .debug$S                   10000000     iojs:node.dll
 0000:fff99000       .debug$S                   10000000     iojs:node.dll
 0000:fff99000       .debug$S                   10000000     iojs:node.dll
 0000:fff99000       .debug$S                   10000000     iojs:node.dll
 0000:fff99000       .debug$S                   10000000     iojs:node.dll
 0000:fff99000       .debug$S                   10000000     iojs:node.dll
 0000:fff99000       .debug$S                   10000000     iojs:node.dll
 0000:fff99000       .debug$S                   10000000     iojs:node.dll
 0000:fff99000       .debug$S                   10000000     iojs:node.dll
 0000:fff99000       .debug$S                   10000000     iojs:node.dll
 0000:fff99000       .debug$S                   10000000     iojs:node.dll
 0000:fff99000       .debug$S                   10000000     iojs:node.dll
 0000:fff99000       .debug$S                   10000000     iojs:node.dll
 0000:fff99000       .debug$S                   10000000     ole32:ole32.dll
 0000:fff99000       .debug$S                   10000000     ole32:ole32.dll
 0000:fff99000       .debug$S                   10000000     ole32:ole32.dll
 0000:fff99000       .debug$S                   10000000     ole32:ole32.dll
 0000:fff99000       .debug$S                   10000000     kernel32:KERNEL32.dll
 0000:fff99000       .debug$S                   10000000     kernel32:KERNEL32.dll
 0000:fff99000       .debug$S                   10000000     kernel32:KERNEL32.dll
 0000:fff99000       .debug$S                   10000000     spellchecker.exp
 0000:fff99000       .debug$S                   10000000     kernel32:KERNEL32.dll
 0000:fff99000       .debug$S                   10000000     kernel32:KERNEL32.dll
 0000:fff99000       .debug$S                   10000000     kernel32:KERNEL32.dll
 0000:fff99000       .debug$S                   10000000     kernel32:KERNEL32.dll
 0000:fff99000       .debug$S                   10000000     kernel32:KERNEL32.dll
 0000:fff99000       .debug$S                   10000000     kernel32:KERNEL32.dll
 0000:fff99000       .debug$S                   10000000     kernel32:KERNEL32.dll
 0000:fff99000       .debug$S                   10000000     kernel32:KERNEL32.dll
 0000:fff99000       .debug$S                   10000000     kernel32:KERNEL32.dll
 0000:fff99000       .debug$S                   10000000     kernel32:KERNEL32.dll
 0000:fff99000       .debug$S                   10000000     kernel32:KERNEL32.dll
 0000:fff99000       .debug$S                   10000000     kernel32:KERNEL32.dll
 0000:fff99000       .debug$S                   10000000     kernel32:KERNEL32.dll
 0000:fff99000       .debug$S                   10000000     kernel32:KERNEL32.dll
 0000:fff99000       .debug$S                   10000000     kernel32:KERNEL32.dll
 0000:fff99000       .debug$S                   10000000     kernel32:KERNEL32.dll
 0000:fff99000       .debug$S                   10000000     kernel32:KERNEL32.dll
 0000:fff99000       .debug$S                   10000000     kernel32:KERNEL32.dll
 0000:fff99000       .debug$S                   10000000     kernel32:KERNEL32.dll
 0000:fff99000       .debug$S                   10000000     kernel32:KERNEL32.dll
 0000:fff99000       .debug$S                   10000000     kernel32:KERNEL32.dll
 0000:fff99000       .debug$S                   10000000     kernel32:KERNEL32.dll
 0000:fff99000       .debug$S                   10000000     kernel32:KERNEL32.dll
 0000:fff99000       .debug$S                   10000000     kernel32:KERNEL32.dll
 0000:fff99000       .debug$S                   10000000     kernel32:KERNEL32.dll
 0000:fff99000       .debug$S                   10000000     kernel32:KERNEL32.dll
 0000:fff99000       .debug$S                   10000000     kernel32:KERNEL32.dll
 0000:fff99000       .debug$S                   10000000     kernel32:KERNEL32.dll
 0000:fff99000       .debug$S                   10000000     kernel32:KERNEL32.dll
 0000:fff99000       .debug$S                   10000000     kernel32:KERNEL32.dll
 0000:fff99000       .debug$S                   10000000     kernel32:KERNEL32.dll
 0000:fff99000       .debug$S                   10000000     kernel32:KERNEL32.dll
 0000:fff99000       .debug$S                   10000000     kernel32:KERNEL32.dll
 0000:fff99000       .debug$S                   10000000     kernel32:KERNEL32.dll
 0000:fff99000       .debug$S                   10000000     kernel32:KERNEL32.dll
 0000:fff99000       .debug$S                   10000000     kernel32:KERNEL32.dll
 0000:fff99000       .debug$S                   10000000     kernel32:KERNEL32.dll
 0000:fff99000       .debug$S                   10000000     kernel32:KERNEL32.dll
 0000:fff99000       .debug$S                   10000000     kernel32:KERNEL32.dll
 0000:fff99000       .debug$S                   10000000     kernel32:KERNEL32.dll
 0000:fff99000       .debug$S                   10000000     kernel32:KERNEL32.dll
 0000:fff99000       .debug$S                   10000000     kernel32:KERNEL32.dll
 0000:fff99000       .debug$S                   10000000     kernel32:KERNEL32.dll
 0000:fff99000       .debug$S                   10000000     kernel32:KERNEL32.dll
 0000:fff99000       .debug$S                   10000000     kernel32:KERNEL32.dll
 0000:fff99000       .debug$S                   10000000     kernel32:KERNEL32.dll
 0000:fff99000       .debug$S                   10000000     kernel32:KERNEL32.dll
 0000:fff99000       .debug$S                   10000000     kernel32:KERNEL32.dll
 0000:fff99000       .debug$S                   10000000     kernel32:KERNEL32.dll
 0000:fff99000       .debug$S                   10000000     kernel32:KERNEL32.dll
 0000:fff99000       .debug$S                   10000000     kernel32:KERNEL32.dll
 0000:fff99000       .debug$S                   10000000     kernel32:KERNEL32.dll
 0000:fff99000       .debug$S                   10000000     kernel32:KERNEL32.dll
 0000:fff99000       .debug$S                   10000000     kernel32:KERNEL32.dll
 0000:fff99000       .debug$S                   10000000     kernel32:KERNEL32.dll
 0000:fff99000       .debug$S                   10000000     kernel32:KERNEL32.dll
 0000:fff99000       .debug$S                   10000000     kernel32:KERNEL32.dll
 0000:fff99000       .debug$S                   10000000     kernel32:KERNEL32.dll
 0000:fff99000       .debug$S                   10000000     kernel32:KERNEL32.dll
 0000:fff99000       .debug$S                   10000000     kernel32:KERNEL32.dll
 0000:fff99000       .debug$S                   10000000     kernel32:KERNEL32.dll
 0000:fff99000       .debug$S                   10000000     kernel32:KERNEL32.dll
 0000:fff99000       .debug$S                   10000000     kernel32:KERNEL32.dll
 0000:fff99000       .debug$S                   10000000     kernel32:KERNEL32.dll
 0000:fff99000       .debug$S                   10000000     kernel32:KERNEL32.dll
 0000:fff99000       .debug$S                   10000000     kernel32:KERNEL32.dll
 0000:fff99000       .debug$S                   10000000     kernel32:KERNEL32.dll
 0000:fff99000       .debug$S                   10000000     kernel32:KERNEL32.dll
 0000:fff99000       .debug$S                   10000000     kernel32:KERNEL32.dll
 0000:fff99000       .debug$S                   10000000     kernel32:KERNEL32.dll
 0000:fff99000       .debug$S                   10000000     kernel32:KERNEL32.dll
 0000:fff99000       .debug$S                   10000000     kernel32:KERNEL32.dll
 0000:fff99000       .debug$S                   10000000     kernel32:KERNEL32.dll
 0000:fff99000       .debug$S                   10000000     kernel32:KERNEL32.dll
 0000:fff99000       .debug$S                   10000000     kernel32:KERNEL32.dll
 0000:fff99000       .debug$S                   10000000     kernel32:KERNEL32.dll
 0000:fff99000       .debug$S                   10000000     kernel32:KERNEL32.dll
 0000:fff99000       .debug$S                   10000000     kernel32:KERNEL32.dll
 0000:fff99000       .debug$S                   10000000     kernel32:KERNEL32.dll
 0000:fff99000       .debug$S                   10000000     kernel32:KERNEL32.dll
 0000:fff99000       .debug$S                   10000000     kernel32:KERNEL32.dll
 0000:fff99000       .debug$S                   10000000     kernel32:KERNEL32.dll
 0000:fff99000       .debug$S                   10000000     kernel32:KERNEL32.dll
 0000:fff99000       .debug$S                   10000000     kernel32:KERNEL32.dll
 0000:fff99000       .debug$S                   10000000     kernel32:KERNEL32.dll
 0000:fff99000       .debug$S                   10000000     kernel32:KERNEL32.dll
 0001:00000000       ?FunctionCallbackWrapper@imp@Nan@@YAXABV?$FunctionCallbackInfo@VValue@v8@@@v8@@@Z 10001000 f   main.obj
 0001:00000500       ?New@Spellchecker@?A0x29701496@@CAXABV?$FunctionCallbackInfo@VValue@v8@@@Nan@@@Z 10001500 f   main.obj
 0001:00000590       ?SetDictionary@Spellchecker@?A0x29701496@@CAXABV?$FunctionCallbackInfo@VValue@v8@@@Nan@@@Z 10001590 f   main.obj
 0001:00000720       ?IsMisspelled@Spellchecker@?A0x29701496@@CAXABV?$FunctionCallbackInfo@VValue@v8@@@Nan@@@Z 10001720 f   main.obj
 0001:00000830       ?CheckSpelling@Spellchecker@?A0x29701496@@CAXABV?$FunctionCallbackInfo@VValue@v8@@@Nan@@@Z 10001830 f   main.obj
 0001:00000af0       ?Add@Spellchecker@?A0x29701496@@CAXABV?$FunctionCallbackInfo@VValue@v8@@@Nan@@@Z 10001af0 f   main.obj
 0001:00000bd0       ?GetAvailableDictionaries@Spellchecker@?A0x29701496@@CAXABV?$FunctionCallbackInfo@VValue@v8@@@Nan@@@Z 10001bd0 f   main.obj
 0001:00000eb0       ?GetCorrectionsForMisspelling@Spellchecker@?A0x29701496@@CAXABV?$FunctionCallbackInfo@VValue@v8@@@Nan@@@Z 10001eb0 f   main.obj
 0001:00001180       ??1Spellchecker@?A0x29701496@@EAE@XZ 10002180 f   main.obj
 0001:00001200       ?Init@Spellchecker@?A0x29701496@@SAXV?$Local@VObject@v8@@@v8@@@Z 10002200 f   main.obj
 0001:000013b0       ?Init@?A0x29701496@@YAXV?$Local@VObject@v8@@@v8@@0@Z 100023b0 f   main.obj
 0001:000013c0       __register_spellchecker    100023c0 f   main.obj
 0001:00005128       $LN184                     10006128     hunspell:hunspell.obj
 0001:000066a4       $LN467                     100076a4     hunspell:hunspell.obj
 0001:000066b8       $LN468                     100076b8     hunspell:hunspell.obj
 0001:00007500       $LN228                     10008500     hunspell:hunspell.obj
 0001:00007db0       ?HUNSPELL_WARNING@@YAXPAU_iobuf@@PBDZZ 10008db0 f   hunspell:hashmgr.obj
 0001:00007db0       ?HUNSPELL_WARNING@@YAXPAU_iobuf@@PBDZZ 10008db0 f   hunspell:csutil.obj
 0001:00007db0       ?HUNSPELL_WARNING@@YAXPAU_iobuf@@PBDZZ 10008db0 f   hunspell:affixmgr.obj
 0001:00007f8c       $LN26                      10008f8c     hunspell:csutil.obj
 0001:00007fa4       $LN22                      10008fa4     hunspell:csutil.obj
 0001:00008b4c       $LN50                      10009b4c     hunspell:csutil.obj
 0001:00008b54       $LN46                      10009b54     hunspell:csutil.obj
 0001:00008b78       $LN51                      10009b78     hunspell:csutil.obj
 0001:00008b80       $LN47                      10009b80     hunspell:csutil.obj
 0001:0001c628       $LN176                     1001d628     hunspell:affixmgr.obj
 0001:0001db7c       $LN902                     1001eb7c     hunspell:affixmgr.obj
 0001:0001db8c       $LN903                     1001eb8c     hunspell:affixmgr.obj
 0001:0001ec64       $LN153                     1001fc64     hunspell:affentry.obj
 0001:0001ec7c       $LN143                     1001fc7c     hunspell:affentry.obj
 0001:0001f85c       $LN171                     1002085c     hunspell:affentry.obj
 0001:0001f874       $LN154                     10020874     hunspell:affentry.obj
 0001:0002097a       ?dllmain_crt_dispatch@@YGHQAUHINSTANCE__@@KQAX@Z 1002197a f   LIBCMT:dll_dllmain.obj
 0001:000209cd       ?dllmain_crt_process_attach@@YAHQAUHINSTANCE__@@QAX@Z 100219cd f   LIBCMT:dll_dllmain.obj
 0001:00020adf       ?dllmain_crt_process_detach@@YAH_N@Z 10021adf f   LIBCMT:dll_dllmain.obj
 0001:00020b5c       ?dllmain_dispatch@@YAHQAUHINSTANCE__@@KQAX@Z 10021b5c f   LIBCMT:dll_dllmain.obj
 0001:00020c58       ?dllmain_raw@@YGHQAUHINSTANCE__@@KQAX@Z 10021c58 f   LIBCMT:dll_dllmain.obj
 0001:00020f66       ?find_pe_section@@YAPAU_IMAGE_SECTION_HEADER@@QAEI@Z 10021f66 f   LIBCMT:utility.obj
 0001:00021500       $$000000                   10022500     LIBCMT:_sehprolg4_.obj
 0001:00021710       $$000000                   10022710     libvcruntime:memmove.obj
 0001:00021974       TrailingUpVec              10022974     libvcruntime:memmove.obj
 0001:00021a20       TrailingDownVec            10022a20     libvcruntime:memmove.obj
 0001:00021cc0       $$000000                   10022cc0     libvcruntime:strstr.obj
 0001:00021f30       $$000000                   10022f30     libvcruntime:strchr.obj
 0001:00022150       _ValidateLocalCookies      10023150 f   libvcruntime:_chandler4_.obj
 0001:00022380       $$000000                   10023380     libvcruntime:memset.obj
 0001:00022500       $$000000                   10023500     libvcruntime:_exsup4_.obj
 0001:00022590       __unwind_handler4          10023590 f   libvcruntime:_exsup4_.obj
 0001:000227fb       ?try_get_function@@YAPAXW4function_id@?A0x89697e75@@QBDQBW4module_id@2@2@Z 100237fb f   libvcruntime:winapi_downlevel.obj
 0001:0002289b       ?try_get_module@@YAPAUHINSTANCE__@@W4module_id@?A0x89697e75@@@Z 1002389b f   libvcruntime:winapi_downlevel.obj
 0001:00022ac0       $$000000                   10023ac0     libvcruntime:_exsup_.obj
 0001:00022ae0       __unwind_handler           10023ae0 f   libvcruntime:_exsup_.obj
 0001:00022bf7       ??$common_assert_to_message_box@_W@@YAXQB_W0IQAX@Z 10023bf7 f   libucrt:assert.obj
 0001:00022c93       ??$common_assert_to_message_box_build_string@_W@@YAXQA_WIQB_W1IQAX@Z 10023c93 f   libucrt:assert.obj
 0001:000231d8       ??$common_assert_to_stderr@_W@@YAXQB_W0I@Z 100241d8 f   libucrt:assert.obj
 0001:00023283       ?common_assert_to_stderr_direct@@YAXQB_W0I@Z 10024283 f   libucrt:assert.obj
 0001:00023334       ?get_assert_format@@YAPB_W_W@Z 10024334 f   libucrt:assert.obj
 0001:00023639       ??$common_fsopen@D@@YAPAU_iobuf@@QBD0H@Z 10024639 f   libucrt:fopen.obj
 0001:000238ff       ??$common_getenv@D@@YAPADQBD@Z 100248ff f   libucrt:getenv.obj
 0001:0002397f       ??$common_getenv_nolock@D@@YAPADQBD@Z 1002497f f   libucrt:getenv.obj
 0001:00023a10       $$000000                   10024a10     libucrt:strncpy.obj
 0001:00023b40       $$000000                   10024b40     libucrt:strncmp.obj
 0001:00023caa       ??$common_vsprintf@Vstandard_base@__crt_stdio_output@@D@@YAH_KQADIQBDQAU__crt_locale_pointers@@1@Z 10024caa f   libucrt:output.obj
 0001:00023e26       ??$common_vsprintf@Vstandard_base@__crt_stdio_output@@_W@@YAH_KQA_WIQB_WQAU__crt_locale_pointers@@QAD@Z 10024e26 f   libucrt:output.obj
 0001:00024460       ??R<lambda_481dd5778c961fbcd3b60b650e9b9dc4>@@QBEHXZ 10025460 f   libucrt:output.obj
 0001:0002451d       ??R<lambda_4f2c1eaeead2a5fc776db5b62ea0fb9b>@@QBEHXZ 1002551d f   libucrt:output.obj
 0001:000248a9       $LN54                      100258a9     libucrt:output.obj
 0001:000249c5       $LN54                      100259c5     libucrt:output.obj
 0001:00024ae5       $LN54                      10025ae5     libucrt:output.obj
 0001:00024c05       $LN54                      10025c05     libucrt:output.obj
 0001:00025e1d       $LN19                      10026e1d     libucrt:output.obj
 0001:00027a79       ?scale_count@@YA_J_J@Z     10028a79 f   libucrt:clock.obj
 0001:00027ba2       ??$common_fgets@D@@YAPADQADHV__crt_stdio_stream@@@Z 10028ba2 f   libucrt:fgets.obj
 0001:000281cc       ?atexit_exception_filter@@YAHK@Z 100291cc f   libucrt:exit.obj
 0001:000281df       ?common_exit@@YAXHW4_crt_exit_cleanup_mode@@W4_crt_exit_return_mode@@@Z 100291df f   libucrt:exit.obj
 0001:000282f8       ?exit_or_terminate_process@@YAXI@Z 100292f8 f   libucrt:exit.obj
 0001:00028339       ?is_managed_app@@YA_NXZ    10029339 f   libucrt:exit.obj
 0001:0002837d       ?try_cor_exit_process@@YAXI@Z 1002937d f   libucrt:exit.obj
 0001:00028421       ??$common_configure_argv@D@@YAHW4_crt_argv_mode@@@Z 10029421 f   libucrt:argv_parsing.obj
 0001:00028545       ??$parse_command_line@D@@YAXPADPAPAD0PAI2@Z 10029545 f   libucrt:argv_parsing.obj
 0001:0002871a       ??$common_get_or_create_environment_nolock@D@@YAPAPADXZ 1002971a f   libucrt:environment_initialization.obj
 0001:00028749       ??$common_initialize_environment_nolock@D@@YAHXZ 10029749 f   libucrt:environment_initialization.obj
 0001:000287a2       ??$create_environment@D@@YAQAPADQAD@Z 100297a2 f   libucrt:environment_initialization.obj
 0001:00028873       ??$free_environment@_W@@YAXQAPA_W@Z 10029873 f   libucrt:environment_initialization.obj
 0001:00028873       ??$free_environment@D@@YAXQAPAD@Z 10029873 f   libucrt:environment_initialization.obj
 0001:000288a2       ??$initialize_environment_by_cloning_nolock@D@@YAHXZ 100298a2 f   libucrt:environment_initialization.obj
 0001:00028961       ??$uninitialize_environment_internal@D@@YAXAAPAPAD@Z 10029961 f   libucrt:environment_initialization.obj
 0001:0002897c       ??$uninitialize_environment_internal@_W@@YAXAAPAPA_W@Z 1002997c f   libucrt:environment_initialization.obj
 0001:00028ae9       ??R<lambda_275893d493268fdec8709772e3fcec0e>@@QBEHXZ 10029ae9 f   libucrt:onexit.obj
 0001:00028c09       ??R<lambda_4e60a939b0d047cfe11ddc22648dfba9>@@QBEHXZ 10029c09 f   libucrt:onexit.obj
 0001:00028dde       _initialize_global_variables 10029dde f   libucrt:initialization.obj
 0001:00028df0       _initialize_c              10029df0 f   libucrt:initialization.obj
 0001:00028e0a       _uninitialize_environment  10029e0a f   libucrt:initialization.obj
 0001:00028e12       _uninitialize_c            10029e12 f   libucrt:initialization.obj
 0001:00028e12       _initialize_global_state_isolation 10029e12 f   libucrt:initialization.obj
 0001:00028e12       _report_memory_leaks       10029e12 f   libucrt:initialization.obj
 0001:00028e12       _initialize_environment    10029e12 f   libucrt:initialization.obj
 0001:00028e12       _uninitialize_global_state_isolation 10029e12 f   libucrt:initialization.obj
 0001:00028e15       _initialize_pointers       10029e15 f   libucrt:initialization.obj
 0001:00028e52       _uninitialize_vcruntime    10029e52 f   libucrt:initialization.obj
 0001:00028e5b       _uninitialize_allocated_memory 10029e5b f   libucrt:initialization.obj
 0001:0002916b       ??$common_xtox@K_W@@YAHKQA_WII_N@Z 1002a16b f   libucrt:xtoa.obj
 0001:000291f9       ??$common_xtox_s@K_W@@YAHKQA_WII_N@Z 1002a1f9 f   libucrt:xtoa.obj
 0001:000293a5       ??$common_tcsncat_s@_W@@YAHQA_WIQB_WI@Z 1002a3a5 f   libucrt:wcsncat_s.obj
 0001:00029499       ??$common_show_message_box@_W@@YAHQB_W0I@Z 1002a499 f   libucrt:crtmbox.obj
 0001:00029572       ??$message_box_wait_thread@_W@@YGKQAX@Z 1002a572 f   libucrt:crtmbox.obj
 0001:00029655       _common_flush_all          1002a655 f   libucrt:fflush.obj
 0001:000297ff       ??R<lambda_b721fa326cdb32351d23dfa67958c160>@@QBEHXZ 1002a7ff f   libucrt:setvbuf.obj
 0001:00029899       ?set_buffer@@YAHV__crt_stdio_stream@@QADIH@Z 1002a899 f   libucrt:setvbuf.obj
 0001:000299c4       ?get_global_action_nolock@@YAPAP6AXH@ZH@Z 1002a9c4 f   libucrt:signal.obj
 0001:00029a37       ?siglookup@@YAPAU__crt_signal_action_t@@HQAU1@@Z 1002aa37 f   libucrt:signal.obj
 0001:00029ea6       ?construct_ptd@@YAXQAU__acrt_ptd@@QAPAU__crt_locale_data@@@Z 1002aea6 f   libucrt:per_thread_data.obj
 0001:00029f1f       ?destroy_fls@@YGXPAX@Z     1002af1f f   libucrt:per_thread_data.obj
 0001:00029f40       ?destroy_ptd@@YAXQAU__acrt_ptd@@@Z 1002af40 f   libucrt:per_thread_data.obj
 0001:00029fe9       ?replace_current_thread_locale_nolock@@YAXQAU__acrt_ptd@@QAU__crt_locale_data@@@Z 1002afe9 f   libucrt:per_thread_data.obj
 0001:0002a249       ?find_or_allocate_unused_stream_nolock@@YA?AV__crt_stdio_stream@@XZ 1002b249 f   libucrt:stream.obj
 0001:0002a53e       ??$common_openfile@D@@YAPAU_iobuf@@QBD0HV__crt_stdio_stream@@@Z 1002b53e f   libucrt:openfile.obj
 0001:0002ae71       ??$common_tox_l@$1?internal_isupper_l@@YA_NHQAU__crt_locale_pointers@@@Z$1?internal_map_lower@@YAHH0@Z@@YAHHKQAU__crt_locale_pointers@@@Z 1002be71 f   libucrt:tolower_toupper.obj
 0001:0002afbb       ?internal_isupper_l@@YA_NHQAU__crt_locale_pointers@@@Z 1002bfbb f   libucrt:tolower_toupper.obj
 0001:0002b3da       ?fp_format_a@@YAHQBNPADIQADIH_NIQAU__crt_locale_pointers@@@Z 1002c3da f   libucrt:cvt.obj
 0001:0002b6dd       ?fp_format_e@@YAHQBNQADI1IH_NIQAU__crt_locale_pointers@@@Z 1002c6dd f   libucrt:cvt.obj
 0001:0002b778       ?fp_format_e_internal@@YAHQADIH_NIQAU_strflt@@1QAU__crt_locale_pointers@@@Z 1002c778 f   libucrt:cvt.obj
 0001:0002b8c3       ?fp_format_f@@YAHQBNQADI1IHQAU__crt_locale_pointers@@@Z 1002c8c3 f   libucrt:cvt.obj
 0001:0002b950       ?fp_format_f_internal@@YAHQADIHQAU_strflt@@_NQAU__crt_locale_pointers@@@Z 1002c950 f   libucrt:cvt.obj
 0001:0002ba27       ?fp_format_g@@YAHQBNQADI1IH_NIQAU__crt_locale_pointers@@@Z 1002ca27 f   libucrt:cvt.obj
 0001:0002baef       ?fp_format_nan_or_infinity@@YAHW4__acrt_fp_class@@_NPADI1@Z 1002caef f   libucrt:cvt.obj
 0001:0002bbe7       ?shift_bytes@@YAXQADI0H@Z  1002cbe7 f   libucrt:cvt.obj
 0001:0002bd65       ?fputwc_binary_nolock@@YAG_WV__crt_stdio_stream@@@Z 1002cd65 f   libucrt:fputwc.obj
 0001:0002bfe9       ?initialize_inherited_file_handles_nolock@@YAXXZ 1002cfe9 f   libucrt:ioinit.obj
 0001:0002c09f       ?initialize_stdio_handles_nolock@@YAXXZ 1002d09f f   libucrt:ioinit.obj
 0001:0002c1d7       ?try_get_CompareStringEx@@YAP6GHPB_WK0H0HPAU_nlsversioninfo@@PAXJ@ZXZ 1002d1d7 f   libucrt:winapi_thunks.obj
 0001:0002c1f1       ?try_get_MessageBoxA@@YAP6GHPAUHWND__@@PBD1I@ZXZ 1002d1f1 f   libucrt:winapi_thunks.obj
 0001:0002c20b       ?try_get_MessageBoxW@@YAP6GHPAUHWND__@@PB_W1I@ZXZ 1002d20b f   libucrt:winapi_thunks.obj
 0001:0002c225       ?try_get_function@@YAPAXW4function_id@?A0x352e5c4b@@QBDQBW4module_id@2@2@Z 1002d225 f   libucrt:winapi_thunks.obj
 0001:0002c2c1       ?try_get_module@@YAPAUHINSTANCE__@@W4module_id@?A0x352e5c4b@@@Z 1002d2c1 f   libucrt:winapi_thunks.obj
 0001:0002cae8       ??$translate_text_mode_nolock@D@@YAHHQADI@Z 1002dae8 f   libucrt:read.obj
 0001:0002cc3f       ??$translate_text_mode_nolock@_W@@YAHHQA_WI@Z 1002dc3f f   libucrt:read.obj
 0001:0002cdff       ?translate_ansi_or_utf8_nolock@@YAHHQADIQA_WI@Z 1002ddff f   libucrt:read.obj
 0001:0002cf4f       ?translate_utf16_from_console_nolock@@YAHHQA_WI@Z 1002df4f f   libucrt:read.obj
 0001:0002d498       ??$common_refill_and_read_nolock@D@@YAHV__crt_stdio_stream@@@Z 1002e498 f   libucrt:_filbuf.obj
 0001:0002d624       ?<helper_func_cdecl>@<lambda_62bb7ecb46d0a77b591a051c43eb5ad1>@@CAHPBX0@Z 1002e624 f   libucrt:argv_wildcards.obj
 0001:0002d63c       ??$common_expand_argv_wildcards@D@@YAHQAPADQAPAPAD@Z 1002e63c f   libucrt:argv_wildcards.obj
 0001:0002d7cc       ??$copy_and_add_argument_to_buffer@D@@YAHQBD0IAAV?$argument_list@D@?A0xb0e4b824@@@Z 1002e7cc f   libucrt:argv_wildcards.obj
 0001:0002d862       ??$expand_argument_wildcards@D@@YAHQAD0AAV?$argument_list@D@?A0xb0e4b824@@@Z 1002e862 f   libucrt:argv_wildcards.obj
 0001:0002db3d       ??R<lambda_ad1ced32f4ac17aa236e5ef05d6b3b7c>@@QBEXXZ 1002eb3d f   libucrt:mbctype.obj
 0001:0002dc01       ?CPtoLocaleName@@YAPB_WH@Z 1002ec01 f   libucrt:mbctype.obj
 0001:0002dc3f       ?getSystemCP@@YAHH@Z       1002ec3f f   libucrt:mbctype.obj
 0001:0002dcb2       ?setSBCS@@YAXPAU__crt_multibyte_data@@@Z 1002ecb2 f   libucrt:mbctype.obj
 0001:0002dd17       ?setSBUpLow@@YAXPAU__crt_multibyte_data@@@Z 1002ed17 f   libucrt:mbctype.obj
 0001:0002deab       ?setmbcp_internal@@YAHH_N@Z 1002eeab f   libucrt:mbctype.obj
 0001:0002e25d       _memcpy_s                  1002f25d f   libucrt:cfout.obj
 0001:0002e25d       _memcpy_s                  1002f25d f   libucrt:fread.obj
 0001:0002e25d       _memcpy_s                  1002f25d f   libucrt:assert.obj
 0001:0002e25d       _memcpy_s                  1002f25d f   libucrt:mbctype.obj
 0001:0002e2de       ?x_ismbbtype_l@@YAHPAU__crt_locale_pointers@@IHH@Z 1002f2de f   libucrt:ismbbyte.obj
 0001:0002e368       ?find_end_of_double_null_terminated_sequence@@YAPB_WQB_W@Z 1002f368 f   libucrt:get_environment_from_os.obj
 0001:0002e422       ??$common_set_variable_in_environment_nolock@D@@YAHQADH@Z 1002f422 f   libucrt:setenv.obj
 0001:0002e65d       ??$copy_environment@D@@YAPAPADQAPAD@Z 1002f65d f   libucrt:setenv.obj
 0001:0002e70e       ??$find_in_environment_nolock@D@@YAHQBDI@Z 1002f70e f   libucrt:setenv.obj
 0001:0002ea7b       ?write_double_translated_ansi_nolock@@YA?AUwrite_result@?A0x47fa6670@@HQBDI@Z 1002fa7b f   libucrt:write.obj
 0001:0002ec2e       ?write_double_translated_unicode_nolock@@YA?AUwrite_result@?A0x47fa6670@@QBDI@Z 1002fc2e f   libucrt:write.obj
 0001:0002ec9b       ?write_requires_double_translation_nolock@@YA_NH@Z 1002fc9b f   libucrt:write.obj
 0001:0002ed11       ?write_text_ansi_nolock@@YA?AUwrite_result@?A0x47fa6670@@HQBDI@Z 1002fd11 f   libucrt:write.obj
 0001:0002edf0       ?write_text_utf16le_nolock@@YA?AUwrite_result@?A0x47fa6670@@HQBDI@Z 1002fdf0 f   libucrt:write.obj
 0001:0002eede       ?write_text_utf8_nolock@@YA?AUwrite_result@?A0x47fa6670@@HQBDI@Z 1002fede f   libucrt:write.obj
 0001:0002f7b6       ??$common_sopen_dispatch@D@@YAHQBDHHHQAHH@Z 100307b6 f   libucrt:open.obj
 0001:0002f882       ?configure_text_mode@@YAHHUfile_options@?A0x704126de@@HAAW4__crt_lowio_text_mode@@@Z 10030882 f   libucrt:open.obj
 0001:0002facf       ?create_file@@YAPAXQB_WQAU_SECURITY_ATTRIBUTES@@Ufile_options@?A0x704126de@@@Z 10030acf f   libucrt:open.obj
 0001:0002faf4       ?decode_open_create_flags@@YAKH@Z 10030af4 f   libucrt:open.obj
 0001:0002fb64       ?decode_options@@YA?AUfile_options@?A0x704126de@@HHH@Z 10030b64 f   libucrt:open.obj
 0001:0002fce0       ?truncate_ctrl_z_if_present@@YAHH@Z 10030ce0 f   libucrt:open.obj
 0001:000306bf       ?free_crt_array_internal@@YAXQAPBXI@Z 100316bf f   libucrt:inittime.obj
 0001:0003091c       ?InternalCompareStringA@@YAHPAU__crt_locale_pointers@@PB_WKPBDH2HH@Z 1003191c f   libucrt:comparestringa.obj
 0001:00030c0c       ?__acrt_LCMapStringA_stat@@YAHPAU__crt_locale_pointers@@PB_WKPBDHPADHHH@Z 10031c0c f   libucrt:lcmapstringa.obj
 0001:000327aa       ??$common_flush_and_write_nolock@D@@YAHHV__crt_stdio_stream@@@Z 100337aa f   libucrt:_flsbuf.obj
 0001:000328bb       ??$common_flush_and_write_nolock@_W@@YAHHV__crt_stdio_stream@@@Z 100338bb f   libucrt:_flsbuf.obj
 0001:000329d0       ??$write_buffer_nolock@D@@YA_NDV__crt_stdio_stream@@@Z 100339d0 f   libucrt:_flsbuf.obj
 0001:00032a9c       ??$write_buffer_nolock@_W@@YA_N_WV__crt_stdio_stream@@@Z 10033a9c f   libucrt:_flsbuf.obj
 0001:00032bdc       ?GetTableIndexFromLocaleName@@YAHPB_W@Z 10033bdc f   libucrt:lcidtoname_downlevel.obj
 0001:00032cc4       ??$common_lseek@_J@@YA_JH_JH@Z 10033cc4 f   libucrt:lseek.obj
 0001:00032dc9       ??$common_lseek_nolock@_J@@YA_JH_JH@Z 10033dc9 f   libucrt:lseek.obj
 0001:00032ee0       ?shortsort@@YAXPAD0IP6AHPBX1@Z@Z 10033ee0 f   libucrt:qsort.obj
 0001:00032f80       ?swap@@YAXPAD0I@Z          10033f80 f   libucrt:qsort.obj
 0001:0003335a       ??$common_tcsncpy_s@D@@YAHQADIQBDI@Z 1003435a f   libucrt:strncpy_s.obj
 0001:00033420       $$000000                   10034420     libucrt:strpbrk.obj
 0001:00033504       ?initialize_multibyte@@YAHXZ 10034504 f   libucrt:multibyte_initializer.obj
 0001:00033590       $$000000                   10034590     libucrt:_strnicm.obj
 0001:00033a20       $$000000                   10034a20     libucrt:log10.obj
 0001:00033b70       $$000000                   10034b70     libucrt:ceil_pentium4.obj
 0001:00033cc3       ___get_abstract_control_sse2 10034cc3 f   libucrt:_fenvutils.obj
 0001:00033d40       ___get_abstract_control_x87 10034d40 f   libucrt:_fenvutils.obj
 0001:00033db3       ___get_machine_control     10034db3 f   libucrt:_fenvutils.obj
 0001:00033e24       ___get_machine_control_sse2 10034e24 f   libucrt:_fenvutils.obj
 0001:00033ea4       ___get_machine_status_sse2 10034ea4 f   libucrt:_fenvutils.obj
 0001:00033f05       ___get_machine_status_x87  10034f05 f   libucrt:_fenvutils.obj
 0001:00034240       $$000000                   10035240     libucrt:log10_pentium4.obj
 0001:000344d0       $$000000                   100354d0     libucrt:87tran.obj
 0001:000346d0       $$000000                   100356d0     libucrt:87disp.obj
 0001:000348d0       $$000000                   100358d0     libucrt:common.obj
 0001:00034a60       $$000000                   10035a60     libucrt:genexcep.obj
 0001:00035b10       $$000000                   10036b10     LIBCMT:ulldvrm.obj
 0001:00035bb0       $$000000                   10036bb0     LIBCMT:llmul.obj
 0001:00035bf0       $$000000                   10036bf0     LIBCMT:lldiv.obj
 0001:00035ca0       $$000000                   10036ca0     LIBCMT:lldvrm.obj
 0001:00035d80       $$000000                   10036d80     LIBCMT:_sehprolg4gs_.obj
 0001:00035de0       $$000000                   10036de0     LIBCMT:ullshr.obj
 0001:00035e00       $$000000                   10036e00     LIBCMT:chkstk.obj
 0001:00035e30       $$000000                   10036e30     LIBCMT:alloca16.obj
 0001:00035e60       $$000000                   10036e60     LIBCMT:llshl.obj
 0001:00035e80       $$000000                   10036e80     LIBCMT:_ftol2_.obj
 0001:00035f40       $$000000                   10036f40     libvcruntime:memcpy.obj
 0001:000361a4       TrailingUpVec              100371a4     libvcruntime:memcpy.obj
 0001:00036250       TrailingDownVec            10037250     libvcruntime:memcpy.obj
 0001:000364c0       $$000000                   100374c0     libvcruntime:strrchr.obj
 0002:00000294       _GS_ExceptionPointers      10038294     LIBCMT:gs_report.obj
 0002:000002c8       ?ExceptionTemplate@?1??_CxxThrowException@@9@8@4UEHExceptionRecord@@B 100382c8     libvcruntime:throw.obj
 0002:000002e8       ?module_names@?A0x89697e75@@3QBQB_WB 100382e8     libvcruntime:winapi_downlevel.obj
 0002:00000398       ?candidate_modules@?1??try_get_FlsAlloc@@YAP6GKP6GXPAX@Z@ZXZ@4QBW4module_id@?A0x89697e75@@B 10038398     libvcruntime:winapi_downlevel.obj
 0002:000003ac       ?candidate_modules@?1??try_get_FlsFree@@YAP6GHK@ZXZ@4QBW4module_id@?A0x89697e75@@B 100383ac     libvcruntime:winapi_downlevel.obj
 0002:000003bc       ?candidate_modules@?1??try_get_FlsGetValue@@YAP6GPAXK@ZXZ@4QBW4module_id@?A0x89697e75@@B 100383bc     libvcruntime:winapi_downlevel.obj
 0002:000003d0       ?candidate_modules@?1??try_get_FlsSetValue@@YAP6GHKPAX@ZXZ@4QBW4module_id@?A0x89697e75@@B 100383d0     libvcruntime:winapi_downlevel.obj
 0002:000003e4       ?candidate_modules@?1??try_get_InitializeCriticalSectionEx@@YAP6GHPAU_RTL_CRITICAL_SECTION@@KK@ZXZ@4QBW4module_id@?A0x89697e75@@B 100383e4     libvcruntime:winapi_downlevel.obj
 0002:00000408       ?tokenTable@@3QBQBDB       10038408     libvcruntime:undname.obj
 0002:00000440       ?nameTable@@3QBQBDB        10038440     libvcruntime:undname.obj
 0002:00000584       ?rttiTable@@3QBQBDB        10038584     libvcruntime:undname.obj
 0002:00000f50       ___acrt_initializers       10038f50     libucrt:initialization.obj
 0002:00000fc8       _errtable                  10038fc8     libucrt:errno.obj
 0002:00001658       _module_names              10039658     libucrt:winapi_thunks.obj
 0002:00001af8       ?candidate_modules@?1??try_get_AreFileApisANSI@@YAP6GHXZXZ@4QBW4module_id@?A0x352e5c4b@@B 10039af8     libucrt:winapi_thunks.obj
 0002:00001b0c       ?candidate_modules@?1??try_get_CompareStringEx@@YAP6GHPB_WK0H0HPAU_nlsversioninfo@@PAXJ@ZXZ@4QBW4module_id@?A0x352e5c4b@@B 10039b0c     libucrt:winapi_thunks.obj
 0002:00001b24       ?candidate_modules@?1??try_get_FlsAlloc@@YAP6GKP6GXPAX@Z@ZXZ@4QBW4module_id@?A0x352e5c4b@@B 10039b24     libucrt:winapi_thunks.obj
 0002:00001b2c       ?candidate_modules@?1??try_get_FlsFree@@YAP6GHK@ZXZ@4QBW4module_id@?A0x352e5c4b@@B 10039b2c     libucrt:winapi_thunks.obj
 0002:00001b34       ?candidate_modules@?1??try_get_FlsGetValue@@YAP6GPAXK@ZXZ@4QBW4module_id@?A0x352e5c4b@@B 10039b34     libucrt:winapi_thunks.obj
 0002:00001b3c       ?candidate_modules@?1??try_get_FlsSetValue@@YAP6GHKPAX@ZXZ@4QBW4module_id@?A0x352e5c4b@@B 10039b3c     libucrt:winapi_thunks.obj
 0002:00001b44       ?candidate_modules@?1??try_get_GetActiveWindow@@YAP6GPAUHWND__@@XZXZ@4QBW4module_id@?A0x352e5c4b@@B 10039b44     libucrt:winapi_thunks.obj
 0002:00001b5c       ?candidate_modules@?1??try_get_GetCurrentPackageId@@YAP6GJPAIPAE@ZXZ@4QBW4module_id@?A0x352e5c4b@@B 10039b5c     libucrt:winapi_thunks.obj
 0002:00001b78       ?candidate_modules@?1??try_get_GetLastActivePopup@@YAP6GPAUHWND__@@PAU2@@ZXZ@4QBW4module_id@?A0x352e5c4b@@B 10039b78     libucrt:winapi_thunks.obj
 0002:00001b94       ?candidate_modules@?1??try_get_GetProcessWindowStation@@YAP6GPAUHWINSTA__@@XZXZ@4QBW4module_id@?A0x352e5c4b@@B 10039b94     libucrt:winapi_thunks.obj
 0002:00001bb4       ?candidate_modules@?1??try_get_GetUserObjectInformationW@@YAP6GHPAXH0KPAK@ZXZ@4QBW4module_id@?A0x352e5c4b@@B 10039bb4     libucrt:winapi_thunks.obj
 0002:00001bd8       ?candidate_modules@?1??try_get_InitializeCriticalSectionEx@@YAP6GHPAU_RTL_CRITICAL_SECTION@@KK@ZXZ@4QBW4module_id@?A0x352e5c4b@@B 10039bd8     libucrt:winapi_thunks.obj
 0002:00001be0       ?candidate_modules@?1??try_get_LCMapStringEx@@YAP6GHPB_WK0HPA_WHPAU_nlsversioninfo@@PAXJ@ZXZ@4QBW4module_id@?A0x352e5c4b@@B 10039be0     libucrt:winapi_thunks.obj
 0002:00001bf8       ?candidate_modules@?1??try_get_LocaleNameToLCID@@YAP6GKPB_WK@ZXZ@4QBW4module_id@?A0x352e5c4b@@B 10039bf8     libucrt:winapi_thunks.obj
 0002:00001c14       ?candidate_modules@?1??try_get_MessageBoxA@@YAP6GHPAUHWND__@@PBD1I@ZXZ@4QBW4module_id@?A0x352e5c4b@@B 10039c14     libucrt:winapi_thunks.obj
 0002:00001c28       ?candidate_modules@?1??try_get_MessageBoxW@@YAP6GHPAUHWND__@@PB_W1I@ZXZ@4QBW4module_id@?A0x352e5c4b@@B 10039c28     libucrt:winapi_thunks.obj
 0002:00002448       __mb_locale_names          1003a448     libucrt:mbctype.obj
 0002:00002e78       _LcidToLocaleNameTable     1003ae78     libucrt:lcidtoname_downlevel.obj
 0002:00003f98       _LocaleNameToIndexTable    1003bf98     libucrt:lcidtoname_downlevel.obj
 0002:00004ef0       LOG_name                   1003cef0     libucrt:log10.obj
 0002:00004f00       _One                       1003cf00     libucrt:ceil_pentium4.obj
 0002:00004f10       _Bns                       1003cf10     libucrt:ceil_pentium4.obj
 0002:00004f20       _Zero                      1003cf20     libucrt:ceil_pentium4.obj
 0002:00004f30       _S                         1003cf30     libucrt:ceil_pentium4.obj
 0002:00004f40       _NegZero                   1003cf40     libucrt:ceil_pentium4.obj
 0002:00004f60       emask                      1003cf60     libucrt:log10_pentium4.obj
 0002:00004f70       CC                         1003cf70     libucrt:log10_pentium4.obj
 0002:00004f80       Magic                      1003cf80     libucrt:log10_pentium4.obj
 0002:00004f90       hi_mask                    1003cf90     libucrt:log10_pentium4.obj
 0002:00004fa0       LOG10_2                    1003cfa0     libucrt:log10_pentium4.obj
 0002:00004fb0       place_L                    1003cfb0     libucrt:log10_pentium4.obj
 0002:00004fd0       One                        1003cfd0     libucrt:log10_pentium4.obj
 0002:00004fe0       Zero                       1003cfe0     libucrt:log10_pentium4.obj
 0002:00004ff0       Two52                      1003cff0     libucrt:log10_pentium4.obj
 0002:00005000       Infs                       1003d000     libucrt:log10_pentium4.obj
 0002:00005010       NaN                        1003d010     libucrt:log10_pentium4.obj
 0002:00005020       coeff                      1003d020     libucrt:log10_pentium4.obj
 0002:0000507e       _log2max                   1003d07e     libucrt:87tran.obj
 0002:00005088       _smallarg                  1003d088     libucrt:87tran.obj
 0002:00005092       _half                      1003d092     libucrt:87tran.obj
 0002:000050de       One                        1003d0de     libucrt:87disp.obj
 0002:000050e6       Three                      1003d0e6     libucrt:87disp.obj
 0002:000050ee       XAMtoTagTab                1003d0ee     libucrt:87disp.obj
 0002:00005100       One                        1003d100     libucrt:common.obj
 0002:00005114       DblMax                     1003d114     libucrt:common.obj
 0002:0000511c       DblMin                     1003d11c     libucrt:common.obj
 0002:00005124       IeeeAdjO                   1003d124     libucrt:common.obj
 0002:0000512c       IeeeAdjU                   1003d12c     libucrt:common.obj
 0002:00005134       _infinity                  1003d134     libucrt:common.obj
 0002:0000513c       _zero                      1003d13c     libucrt:common.obj
 0002:00005170       _over                      1003d170     libucrt:fpctrl.obj
 0002:0000517c       _under                     1003d17c     libucrt:fpctrl.obj
 0002:00005a48       ?_names@?1??_get_fname@@9@9 1003da48     libucrt:fpexcept.obj
 0002:00006340       ?W_VLINE@@3Uw_char@@B      1003e340     hunspell:suggestmgr.obj
 0002:00006ef0       __sehtable$?dllmain_crt_process_attach@@YAHQAUHINSTANCE__@@QAX@Z 1003eef0     LIBCMT:dll_dllmain.obj
 0002:00006f10       __sehtable$?dllmain_crt_process_detach@@YAH_N@Z 1003ef10     LIBCMT:dll_dllmain.obj
 0002:00006f30       __sehtable$?dllmain_dispatch@@YAHQAUHINSTANCE__@@KQAX@Z 1003ef30     LIBCMT:dll_dllmain.obj
 0002:00006f88       __sehtable$___scrt_is_nonwritable_in_current_image 1003ef88     LIBCMT:utility.obj
 0002:00006fa8       __sehtable$??$common_fsopen@D@@YAPAU_iobuf@@QBD0H@Z 1003efa8     libucrt:fopen.obj
 0002:00006fc8       __sehtable$_fclose         1003efc8     libucrt:fclose.obj
 0002:00006fe8       __sehtable$??$common_getenv@D@@YAPADQBD@Z 1003efe8     libucrt:getenv.obj
 0002:00007008       __sehtable$??$?RV<lambda_db08b09ef7aa9d4f8620ce68402612bc>@@AAV<lambda_4f2c1eaeead2a5fc776db5b62ea0fb9b>@@V<lambda_3ae262bc35d4ba6a3825c4f6bcaaf95c>@@@?$__crt_seh_guarded_call@H@@QAEH$$QAV<lambda_db08b09ef7aa9d4f8620ce68402612bc>@@AAV<lambda_4f2c1eaeead2a5fc776db5b62ea0fb9b>@@$$QAV<lambda_3ae262bc35d4ba6a3825c4f6bcaaf95c>@@@Z 1003f008     libucrt:output.obj
 0002:00007028       __sehtable$??$?RV<lambda_ab9923ffb5d694ec0d78876dd103e44f>@@AAV<lambda_481dd5778c961fbcd3b60b650e9b9dc4>@@V<lambda_7923d86c9e3f319b415918ec4b39749c>@@@?$__crt_seh_guarded_call@H@@QAEH$$QAV<lambda_ab9923ffb5d694ec0d78876dd103e44f>@@AAV<lambda_481dd5778c961fbcd3b60b650e9b9dc4>@@$$QAV<lambda_7923d86c9e3f319b415918ec4b39749c>@@@Z 1003f028     libucrt:output.obj
 0002:00007048       __sehtable$??$common_fgets@D@@YAPADQADHV__crt_stdio_stream@@@Z 1003f048     libucrt:fgets.obj
 0002:00007068       __sehtable$_fread_s        1003f068     libucrt:fread.obj
 0002:00007088       __sehtable$__query_new_handler 1003f088     libucrt:new_handler.obj
 0002:000070a8       __sehtable$?common_exit@@YAXHW4_crt_exit_cleanup_mode@@W4_crt_exit_return_mode@@@Z 1003f0a8     libucrt:exit.obj
 0002:000070d0       __sehtable$??$?RV<lambda_800076c951b434888f4765a74a194fcc>@@AAV<lambda_4e60a939b0d047cfe11ddc22648dfba9>@@V<lambda_6dbb1268764f43b569ce7b67e331d33a>@@@?$__crt_seh_guarded_call@H@@QAEH$$QAV<lambda_800076c951b434888f4765a74a194fcc>@@AAV<lambda_4e60a939b0d047cfe11ddc22648dfba9>@@$$QAV<lambda_6dbb1268764f43b569ce7b67e331d33a>@@@Z 1003f0d0     libucrt:onexit.obj
 0002:000070f0       __sehtable$??$?RV<lambda_995298e7d72eb4c2aab26c0585b3abe5>@@AAV<lambda_275893d493268fdec8709772e3fcec0e>@@V<lambda_293819299cbf9a7022e18b56a874bb5c>@@@?$__crt_seh_guarded_call@H@@QAEH$$QAV<lambda_995298e7d72eb4c2aab26c0585b3abe5>@@AAV<lambda_275893d493268fdec8709772e3fcec0e>@@$$QAV<lambda_293819299cbf9a7022e18b56a874bb5c>@@@Z 1003f0f0     libucrt:onexit.obj
 0002:00007110       __sehtable$_terminate      1003f110     libucrt:terminate.obj
 0002:00007130       __sehtable$_fflush         1003f130     libucrt:fflush.obj
 0002:00007150       __sehtable$_common_flush_all 1003f150     libucrt:fflush.obj
 0002:00007178       __sehtable$??$?RV<lambda_d92cfe8357b99225085016881b624cb0>@@AAV<lambda_b721fa326cdb32351d23dfa67958c160>@@V<lambda_42d75b0848218ec137fa420c8ba9fdf9>@@@?$__crt_seh_guarded_call@H@@QAEH$$QAV<lambda_d92cfe8357b99225085016881b624cb0>@@AAV<lambda_b721fa326cdb32351d23dfa67958c160>@@$$QAV<lambda_42d75b0848218ec137fa420c8ba9fdf9>@@@Z 1003f178     libucrt:setvbuf.obj
 0002:00007198       __sehtable$_raise          1003f198     libucrt:signal.obj
 0002:000071b8       __sehtable$??$?RV<lambda_a048d3beccc847880fc8490e18b82769>@@AAV<lambda_ec61778202f4f5fc7e7711acc23c3bca>@@V<lambda_f7496a158712204296dd6628a163878e>@@@?$__crt_seh_guarded_call@P6AXH@Z@@QAEP6AXH@Z$$QAV<lambda_a048d3beccc847880fc8490e18b82769>@@AAV<lambda_ec61778202f4f5fc7e7711acc23c3bca>@@$$QAV<lambda_f7496a158712204296dd6628a163878e>@@@Z 1003f1b8     libucrt:signal.obj
 0002:000071d8       __sehtable$??$?RV<lambda_9df27f884b057bc3edfc946cb5b7cf47>@@AAV<lambda_e69574bed617af4e071282c136b37893>@@V<lambda_cc0d902bcbbeb830f749456577db4721>@@@?$__crt_seh_guarded_call@X@@QAEX$$QAV<lambda_9df27f884b057bc3edfc946cb5b7cf47>@@AAV<lambda_e69574bed617af4e071282c136b37893>@@$$QAV<lambda_cc0d902bcbbeb830f749456577db4721>@@@Z 1003f1d8     libucrt:per_thread_data.obj
 0002:000071f8       __sehtable$??$?RV<lambda_3518db117f0e7cdb002338c5d3c47b6c>@@AAV<lambda_b2ea41f6bbb362cd97d94c6828d90b61>@@V<lambda_abdedf541bb04549bc734292b4a045d4>@@@?$__crt_seh_guarded_call@X@@QAEX$$QAV<lambda_3518db117f0e7cdb002338c5d3c47b6c>@@AAV<lambda_b2ea41f6bbb362cd97d94c6828d90b61>@@$$QAV<lambda_abdedf541bb04549bc734292b4a045d4>@@@Z 1003f1f8     libucrt:per_thread_data.obj
 0002:00007218       __sehtable$??$?RV<lambda_51b6e8b1eb166f2a3faf91f424b38130>@@AAV<lambda_6250bd4b2a391816dd638c3bf72b0bcb>@@V<lambda_0b5a4a3e68152e1d9b943535f5f47bed>@@@?$__crt_seh_guarded_call@X@@QAEX$$QAV<lambda_51b6e8b1eb166f2a3faf91f424b38130>@@AAV<lambda_6250bd4b2a391816dd638c3bf72b0bcb>@@$$QAV<lambda_0b5a4a3e68152e1d9b943535f5f47bed>@@@Z 1003f218     libucrt:per_thread_data.obj
 0002:00007238       __sehtable$??$?RV<lambda_5b71d36f03204c0beab531769a5b5694>@@AAV<lambda_be2b3da3f62db62e9dad5dc70221a656>@@V<lambda_8f9ce462984622f9bf76b59e2aaaf805>@@@?$__crt_seh_guarded_call@X@@QAEX$$QAV<lambda_5b71d36f03204c0beab531769a5b5694>@@AAV<lambda_be2b3da3f62db62e9dad5dc70221a656>@@$$QAV<lambda_8f9ce462984622f9bf76b59e2aaaf805>@@@Z 1003f238     libucrt:per_thread_data.obj
 0002:00007258       __sehtable$?__acrt_stdio_allocate_stream@@YA?AV__crt_stdio_stream@@XZ 1003f258     libucrt:stream.obj
 0002:00007278       __sehtable$??$?RV<lambda_123407a5e2ac06da108355a851863b7a>@@AAV<lambda_2fe9b910cf3cbf4a0ab98a02ba45b3ec>@@V<lambda_ae55bdf541ad94d75914d381c370e64d>@@@?$__crt_seh_guarded_call@H@@QAEH$$QAV<lambda_123407a5e2ac06da108355a851863b7a>@@AAV<lambda_2fe9b910cf3cbf4a0ab98a02ba45b3ec>@@$$QAV<lambda_ae55bdf541ad94d75914d381c370e64d>@@@Z 1003f278     libucrt:close.obj
 0002:00007298       __sehtable$___acrt_uninitialize_locale 1003f298     libucrt:wsetlocale.obj
 0002:000072b8       __sehtable$___acrt_initialize_lowio 1003f2b8     libucrt:ioinit.obj
 0002:000072d8       __sehtable$__fcloseall     1003f2d8     libucrt:closeall.obj
 0002:000072f8       __sehtable$__read          1003f2f8     libucrt:read.obj
 0002:00007318       __sehtable$___acrt_update_thread_multibyte_data 1003f318     libucrt:mbctype.obj
 0002:00007338       __sehtable$??$?RV<lambda_978dc153c237d78434369da87b74ff60>@@AAV<lambda_ad1ced32f4ac17aa236e5ef05d6b3b7c>@@V<lambda_4a8533e2866a575feecb8298ce776b0d>@@@?$__crt_seh_guarded_call@X@@QAEX$$QAV<lambda_978dc153c237d78434369da87b74ff60>@@AAV<lambda_ad1ced32f4ac17aa236e5ef05d6b3b7c>@@$$QAV<lambda_4a8533e2866a575feecb8298ce776b0d>@@@Z 1003f338     libucrt:mbctype.obj
 0002:00007358       __sehtable$??$?RV<lambda_61cee617f5178ae960314fd4d05640a0>@@AAV<lambda_6978c1fb23f02e42e1d9e99668cc68aa>@@V<lambda_9cd88cf8ad10232537feb2133f08c833>@@@?$__crt_seh_guarded_call@H@@QAEH$$QAV<lambda_61cee617f5178ae960314fd4d05640a0>@@AAV<lambda_6978c1fb23f02e42e1d9e99668cc68aa>@@$$QAV<lambda_9cd88cf8ad10232537feb2133f08c833>@@@Z 1003f358     libucrt:commit.obj
 0002:00007378       __sehtable$__write         1003f378     libucrt:write.obj
 0002:00007398       __sehtable$___acrt_update_thread_locale_data 1003f398     libucrt:locale_refcounting.obj
 0002:000073b8       __sehtable$??$common_sopen_dispatch@D@@YAHQBDHHHQAHH@Z 1003f3b8     libucrt:open.obj
 0002:000073d8       __sehtable$__alloc_osfhnd  1003f3d8     libucrt:osfinfo.obj
 0002:000073f8       __sehtable$___acrt_lowio_ensure_fh_exists 1003f3f8     libucrt:osfinfo.obj
 0002:00007418       __sehtable$??$common_lseek@_J@@YA_JH_JH@Z 1003f418     libucrt:lseek.obj
 0002:00007438       __sehtable$__IsNonwritableInCurrentImage 1003f438     LIBCMT:pesect.obj
 0002:00007460       .edata                     1003f460     spellchecker.exp
 0002:00007488       rgpv                       1003f488     spellchecker.exp
 0002:0000748c       rgszName                   1003f48c     spellchecker.exp
 0002:00007490       rgwOrd                     1003f490     spellchecker.exp
 0002:00007492       szName                     1003f492     spellchecker.exp
 0002:000074a4       $N00001                    1003f4a4     spellchecker.exp
 0002:00007724       .idata$6                   1003f724     kernel32:KERNEL32.dll
 0002:00007778       .idata$6                   1003f778     ole32:ole32.dll
 0002:0000824c       .idata$6                   1004024c     iojs:node.dll
 0003:00000020       ?__vcrt_flsindex@@3KA      10041020     libvcruntime:per_thread_data.obj
 0003:000000ec       _errno_no_memory           100410ec     libucrt:errno.obj
 0003:000000f0       _doserrno_no_memory        100410f0     libucrt:errno.obj
 0003:000000f4       ___acrt_flsindex           100410f4     libucrt:per_thread_data.obj
 0003:000002f8       ___rgctypeflag             100412f8     libucrt:mbctype.obj
 0003:00000300       ___rgcode_page_info        10041300     libucrt:mbctype.obj
 0003:000008a0       __module                   100418a0     main.obj
 0003:000008c8       ?koi8u_tbl@@3PAUcs_info@@A 100418c8     hunspell:csutil.obj
 0003:00000bc8       ?iso3_tbl@@3PAUcs_info@@A  10041bc8     hunspell:csutil.obj
 0003:00000ec8       ?iso1_tbl@@3PAUcs_info@@A  10041ec8     hunspell:csutil.obj
 0003:000011c8       ?cp1251_tbl@@3PAUcs_info@@A 100421c8     hunspell:csutil.obj
 0003:000014d0       ?lang2enc@@3PAUlang_map@@A 100424d0     hunspell:csutil.obj
 0003:000015b0       ?iso7_tbl@@3PAUcs_info@@A  100425b0     hunspell:csutil.obj
 0003:000018b0       ?iso2_tbl@@3PAUcs_info@@A  100428b0     hunspell:csutil.obj
 0003:00001bb0       ?iso14_tbl@@3PAUcs_info@@A 10042bb0     hunspell:csutil.obj
 0003:00001eb0       ?utf_lst@@3PAUunicode_info@@A 10042eb0     hunspell:csutil.obj
 0003:0001ebc0       ?iso8_tbl@@3PAUcs_info@@A  1005fbc0     hunspell:csutil.obj
 0003:0001eec0       ?iso4_tbl@@3PAUcs_info@@A  1005fec0     hunspell:csutil.obj
 0003:0001f1c0       ?encds@@3PAUenc_entry@@A   100601c0     hunspell:csutil.obj
 0003:0001f270       ?iso10_tbl@@3PAUcs_info@@A 10060270     hunspell:csutil.obj
 0003:0001f570       ?iso13_tbl@@3PAUcs_info@@A 10060570     hunspell:csutil.obj
 0003:0001f870       ?koi8r_tbl@@3PAUcs_info@@A 10060870     hunspell:csutil.obj
 0003:0001fb70       ?iscii_devanagari_tbl@@3PAUcs_info@@A 10060b70     hunspell:csutil.obj
 0003:0001fe70       ?tis620_tbl@@3PAUcs_info@@A 10060e70     hunspell:csutil.obj
 0003:00020170       ?iso5_tbl@@3PAUcs_info@@A  10061170     hunspell:csutil.obj
 0003:00020470       ?iso15_tbl@@3PAUcs_info@@A 10061470     hunspell:csutil.obj
 0003:00020770       ?iso6_tbl@@3PAUcs_info@@A  10061770     hunspell:csutil.obj
 0003:00020a70       ?iso9_tbl@@3PAUcs_info@@A  10061a70     hunspell:csutil.obj
 0003:00020e48       ?__proc_attached@@3HA      10061e48     LIBCMT:dll_dllmain.obj
 0003:00020e50       _GS_ExceptionRecord        10061e50     LIBCMT:gs_report.obj
 0003:00020ea0       _GS_ContextRecord          10061ea0     LIBCMT:gs_report.obj
 0003:00021174       ?module_local_atexit_table@@3U_onexit_table_t@@A 10062174     LIBCMT:utility.obj
 0003:00021180       ?module_local_at_quick_exit_table@@3U_onexit_table_t@@A 10062180     LIBCMT:utility.obj
 0003:0002118c       ?is_initialized_as_dll@@3_NA 1006218c     LIBCMT:utility.obj
 0003:000211b0       ?__vcrt_startup_thread_ptd@@3U__vcrt_ptd@@A 100621b0     libvcruntime:per_thread_data.obj
 0003:000211d8       ___vcrt_lock_table         100621d8     libvcruntime:locks.obj
 0003:000211f0       ___vcrt_locks_initialized  100621f0     libvcruntime:locks.obj
 0003:000211f4       ?module_handles@@3PAPAUHINSTANCE__@@A 100621f4     libvcruntime:winapi_downlevel.obj
 0003:00021204       ?encoded_function_pointers@@3PAPAXA 10062204     libvcruntime:winapi_downlevel.obj
 0003:00021250       ?heap@@3V_HeapManager@@A   10062250     libvcruntime:undname.obj
 0003:00021264       ___acrt_invalid_parameter_handler 10062264     libucrt:invalid_parameter.obj
 0003:00021278       _source_frequency          10062278     libucrt:clock.obj
 0003:00021280       _start_count               10062280     libucrt:clock.obj
 0003:00021288       ___acrt_new_handler        10062288     libucrt:new_handler.obj
 0003:0002128c       _c_termination_complete    1006228c     libucrt:exit.obj
 0003:00021290       _thread_local_exit_callback_func 10062290     libucrt:exit.obj
 0003:00021294       ?c_exit_complete@?5??common_exit@@YAXHW4_crt_exit_cleanup_mode@@W4_crt_exit_return_mode@@@Z@4_NA 10062294     libucrt:exit.obj
 0003:00021298       ?program_name@?5???$common_configure_argv@D@@YAHW4_crt_argv_mode@@@Z@4PADA 10062298     libucrt:argv_parsing.obj
 0003:000213c8       ___acrt_app_type           100623c8     libucrt:report_runtime_error.obj
 0003:000213cc       ___acrt_error_mode         100623cc     libucrt:set_error_mode.obj
 0003:000213d0       _ctrlc_action              100623d0     libucrt:signal.obj
 0003:000213d4       _ctrlbreak_action          100623d4     libucrt:signal.obj
 0003:000213d8       _abort_action              100623d8     libucrt:signal.obj
 0003:000213dc       _term_action               100623dc     libucrt:signal.obj
 0003:000213e8       ___acrt_lock_table         100623e8     libucrt:locks.obj
 0003:00021520       ___acrt_locks_initialized  10062520     libucrt:locks.obj
 0003:00021524       _enable_percent_n          10062524     libucrt:printf_count_output.obj
 0003:00021738       _module_handles            10062738     libucrt:winapi_thunks.obj
 0003:00021788       _encoded_function_pointers 10062788     libucrt:winapi_thunks.obj
 0003:00021808       ?state_cache@?1??__acrt_is_packaged_app@@9@4JA 10062808     libucrt:winapi_thunks.obj
 0003:00021824       _fSystemSet                10062824     libucrt:mbctype.obj
 0003:00021828       ?initialized@?1??__acrt_initialize_multibyte@@9@4_NA 10062828     libucrt:mbctype.obj
 0003:00021848       _user_matherr              10062848     libucrt:matherr.obj
 0003:0002184c       ___acrt_global_new_mode    1006284c     libucrt:new_mode.obj
 0003:00021868       __pmatherr_set             10062868     libucrt:libm_error.obj
 0003:00021874       ?utf_tbl@@3PAUunicode_info2@@A 10062874     hunspell:csutil.obj
 0003:00021878       ?utf_tbl_count@@3HA        10062878     hunspell:csutil.obj
 0004:00000000       __guard_fids____dcrt_uninitialize_environments_nolock 10063000     libucrt:environment_initialization.obj
 0004:00000008       __guard_fids__             10063008     libucrt:initialization.obj
 0004:00000068       __guard_fids_??$common_show_message_box@_W@@YAHQB_W0I@Z 10063068     libucrt:crtmbox.obj
 0004:0000006c       __guard_fids____acrt_initialize_ptd 1006306c     libucrt:per_thread_data.obj
 0004:00000070       __guard_fids__             10063070     libucrt:stdio_initializer.obj
 0004:00000074       __guard_fids__             10063074     libucrt:stdio_initializer.obj
 0004:00000078       __guard_fids__             10063078     libucrt:clock_initializer.obj
 0004:0000007c       __guard_fids_??$expand_argument_wildcards@D@@YAHQAD0AAV?$argument_list@D@?A0xb0e4b824@@@Z 1006307c     libucrt:argv_wildcards.obj
 0004:00000080       __guard_fids__             10063080     libucrt:locale_initializer.obj
 0004:00000084       __guard_fids__             10063084     libucrt:multibyte_initializer.obj
 0004:00000088       __guard_fids____libm_error_support 10063088     libucrt:libm_error.obj
 0004:0000008c       __guard_fids__             1006308c     libucrt:console_output_initializer.obj
 0004:00000090       __guard_fids__             10063090     libucrt:sse2_initializer.obj
 0004:00000094       __guard_fids__             10063094     libcpmt:xthrow.obj
 0004:0000009c       __guard_fids__             1006309c     libcpmt:xthrow.obj
 0004:000000a4       __guard_fids__             100630a4     libcpmt:xthrow.obj
 0004:000000ac       __guard_fids__             100630ac     libcpmt:xthrow.obj
 0004:000000b4       __guard_fids__             100630b4     libcpmt:xthrow.obj
 0004:000000bc       __guard_fids__             100630bc     libcpmt:xthrow.obj
 0004:000000c0       __guard_fids__             100630c0     libcpmt:xthrow.obj
 0004:000000c4       __guard_fids__             100630c4     libcpmt:xthrow.obj
 0004:000000c8       __guard_fids__             100630c8     libcpmt:xthrow.obj
 0004:000000cc       __guard_fids__             100630cc     libcpmt:xthrow.obj
 0004:000000d0       __guard_fids__             100630d0     libcpmt:xthrow.obj
 0004:000000d4       __guard_fids__             100630d4     libcpmt:xthrow.obj
 0004:000000d8       __guard_fids__             100630d8     libcpmt:xthrow.obj
 0004:000000dc       __guard_fids_?dllmain_crt_process_attach@@YAHQAUHINSTANCE__@@QAX@Z 100630dc     LIBCMT:dll_dllmain.obj
 0004:000000e4       __guard_fids_?dllmain_dispatch@@YAHQAUHINSTANCE__@@KQAX@Z 100630e4     LIBCMT:dll_dllmain.obj
 0004:000000e8       __guard_fids__             100630e8     LIBCMT:std_type_info_static.obj
 0004:000000ec       __guard_fids__             100630ec     LIBCMT:throw_bad_alloc.obj
 0004:000000f4       __guard_fids__             100630f4     LIBCMT:throw_bad_alloc.obj
 0004:000000f8       __guard_fids__             100630f8     LIBCMT:throw_bad_alloc.obj
 0004:000000fc       __guard_fids__             100630fc     LIBCMT:guard_support.obj
 0004:00000100       __guard_fids____vcrt_initialize_ptd 10063100     libvcruntime:per_thread_data.obj
 0005:00000060       $R000000                   10064060     * linker generated manifest res *

 Exports

  ordinal    name

        1    __register_spellchecker_
               exported name: _register_spellchecker_
