 onig_scanner

 Timestamp is 58a72c5f (Fri Feb 17 17:01:19 2017)

 Preferred load address is 10000000

 Start         Length     Name                   Class
 0001:00000000 0002a940H .text$mn                CODE
 0001:0002a940 00000673H .text$x                 CODE
 0002:00000000 0000012cH .idata$5                DATA
 0002:0000012c 00000004H .00cfg                  DATA
 0002:00000130 00000004H .CRT$XCA                DATA
 0002:00000134 00000004H .CRT$XCU                DATA
 0002:00000138 00000004H .CRT$XCZ                DATA
 0002:0000013c 00000004H .CRT$XIA                DATA
 0002:00000140 0000000cH .CRT$XIC                DATA
 0002:0000014c 00000004H .CRT$XIZ                DATA
 0002:00000150 00000004H .CRT$XPA                DATA
 0002:00000154 00000008H .CRT$XPX                DATA
 0002:0000015c 00000004H .CRT$XPXA               DATA
 0002:00000160 00000004H .CRT$XPZ                DATA
 0002:00000164 00000004H .CRT$XTA                DATA
 0002:00000168 00000008H .CRT$XTZ                DATA
 0002:00000170 000205b4H .rdata                  DATA
 0002:00020724 0000026cH .rdata$r                DATA
 0002:00020990 00000088H .rdata$sxdata           DATA
 0002:00020a18 000003e8H .rdata$zzzdbg           DATA
 0002:00020e00 00000004H .rtc$IAA                DATA
 0002:00020e04 00000004H .rtc$IZZ                DATA
 0002:00020e08 00000004H .rtc$TAA                DATA
 0002:00020e0c 00000004H .rtc$TZZ                DATA
 0002:00020e10 00000c0cH .xdata$x                DATA
 0002:00021a1c 00000020H .didat$2                DATA
 0002:00021a3c 00000020H .didat$3                DATA
 0002:00021a5c 000000d4H .didat$4                DATA
 0002:00021b30 00000c60H .didat$6                DATA
 0002:00022790 000000e0H .didat$7                DATA
 0002:00022870 0000005cH .edata                  DATA
 0002:000228cc 00000014H .idata$2                DATA
 0002:000228e0 00000014H .idata$3                DATA
 0002:000228f4 0000012cH .idata$4                DATA
 0002:00022a20 0000056aH .idata$6                DATA
 0003:00000000 00000f90H .data                   DATA
 0003:00000f90 000000f8H .data$r                 DATA
 0003:00001088 000000d8H .didat$5                DATA
 0003:00001160 00000c50H .bss                    DATA
 0004:00000000 00000090H .gfids$x                DATA
 0004:00000090 00000084H .gfids$y                DATA
 0005:00000000 00000060H .rsrc$01                DATA
 0005:00000060 00000180H .rsrc$02                DATA

  Address         Publics by Value              Rva+Base       Lib:Object

 0000:00000000       __except_list              00000000     <absolute>
 0000:00000000       ___guard_longjmp_count     00000000     <absolute>
 0000:00000000       ___guard_fids_count        00000000     <absolute>
 0000:00000000       ___guard_longjmp_table     00000000     <absolute>
 0000:00000000       ___guard_iat_table         00000000     <absolute>
 0000:00000000       ___guard_iat_count         00000000     <absolute>
 0000:00000000       ___guard_fids_table        00000000     <absolute>
 0000:00000000       ___dynamic_value_reloc_table 00000000     <absolute>
 0000:00000022       ___safe_se_handler_count   00000022     <absolute>
 0000:00000100       ___guard_flags             00000100     <absolute>
 0000:00000000       ___ImageBase               10000000     <linker-defined>
 0001:00000000       ?_Get_deleter@_Ref_count_base@std@@UBEPAXABVtype_info@@@Z 10001000 f i onig-reg-exp.obj
 0001:00000010       ??_G_Ref_count_base@std@@UAEPAXI@Z 10001010 f i onig-reg-exp.obj
 0001:00000010       ??_E_Ref_count_base@std@@UAEPAXI@Z 10001010 f i * CIL library *:* CIL module *
 0001:00000040       ??0OnigRegExp@@QAE@ABV?$basic_string@DU?$char_traits@D@std@@V?$allocator@D@2@@std@@@Z 10001040 f   onig-reg-exp.obj
 0001:00000230       ?Search@OnigRegExp@@QAE?AV?$shared_ptr@VOnigResult@@@std@@PAVOnigString@@H@Z 10001230 f   onig-reg-exp.obj
 0001:00000370       ?Search@OnigRegExp@@AAE?AV?$shared_ptr@VOnigResult@@@std@@PBDII@Z 10001370 f   onig-reg-exp.obj
 0001:000004e0       ??1?$shared_ptr@VOnigResult@@@std@@QAE@XZ 100014e0 f i onig-reg-exp.obj
 0001:000004e0       ??1?$shared_ptr@VOnigSearcher@@@std@@QAE@XZ 100014e0 f i onig-scanner.obj
 0001:00000510       ??0?$shared_ptr@VOnigResult@@@std@@QAE@ABV01@@Z 10001510 f i onig-reg-exp.obj
 0001:00000580       ??1?$basic_string@DU?$char_traits@D@std@@V?$allocator@D@2@@std@@QAE@XZ 10001580 f i onig-reg-exp.obj
 0001:000005f0       ?assign@?$basic_string@DU?$char_traits@D@std@@V?$allocator@D@2@@std@@QAEAAV12@ABV12@II@Z 100015f0 f i onig-reg-exp.obj
 0001:00000700       ?erase@?$basic_string@DU?$char_traits@D@std@@V?$allocator@D@2@@std@@QAEAAV12@II@Z 10001700 f i onig-reg-exp.obj
 0001:00000780       ?_Copy@?$basic_string@DU?$char_traits@D@std@@V?$allocator@D@2@@std@@QAEXII@Z 10001780 f i onig-reg-exp.obj
 0001:000008b0       ??$?0VOnigResult@@@?$shared_ptr@VOnigResult@@@std@@QAE@PAVOnigResult@@@Z 100018b0 f i onig-reg-exp.obj
 0001:00000930       ??_GOnigResult@@QAEPAXI@Z  10001930 f i onig-reg-exp.obj
 0001:000009e0       ?_Delete_this@?$_Ref_count@VOnigSearcher@@@std@@EAEXXZ 100019e0 f i onig-scanner.obj
 0001:000009e0       ?_Delete_this@?$_Ref_count@VOnigResult@@@std@@EAEXXZ 100019e0 f i onig-reg-exp.obj
 0001:000009e0       ?_Delete_this@?$_Ref_count@VOnigRegExp@@@std@@EAEXXZ 100019e0 f i onig-scanner.obj
 0001:000009f0       ?_Destroy@?$_Ref_count@VOnigResult@@@std@@EAEXXZ 100019f0 f i onig-reg-exp.obj
 0001:00000a00       ??_G?$_Ref_count@VOnigSearcher@@@std@@UAEPAXI@Z 10001a00 f i onig-scanner.obj
 0001:00000a00       ??_E?$_Ref_count@VOnigResult@@@std@@UAEPAXI@Z 10001a00 f i * CIL library *:* CIL module *
 0001:00000a00       ??_E?$_Ref_count@VOnigSearcher@@@std@@UAEPAXI@Z 10001a00 f i * CIL library *:* CIL module *
 0001:00000a00       ??_E?$_Ref_count@VOnigRegExp@@@std@@UAEPAXI@Z 10001a00 f i * CIL library *:* CIL module *
 0001:00000a00       ??_G?$_Ref_count@VOnigRegExp@@@std@@UAEPAXI@Z 10001a00 f i onig-scanner.obj
 0001:00000a00       ??_G?$_Ref_count@VOnigResult@@@std@@UAEPAXI@Z 10001a00 f i onig-reg-exp.obj
 0001:00000a30       ??1ObjectWrap@node@@UAE@XZ 10001a30 f i onig-scanner.obj
 0001:00000ae0       ?Wrap@ObjectWrap@node@@IAEXV?$Local@VObject@v8@@@v8@@@Z 10001ae0 f i onig-scanner.obj
 0001:00000b90       ?Ref@ObjectWrap@node@@MAEXXZ 10001b90 f i onig-scanner.obj
 0001:00000bc0       ?Unref@ObjectWrap@node@@MAEXXZ 10001bc0 f i onig-scanner.obj
 0001:00000c50       ?WeakCallback@ObjectWrap@node@@CAXABV?$WeakCallbackData@VObject@v8@@VObjectWrap@node@@@v8@@@Z 10001c50 f i onig-scanner.obj
 0001:00000d50       ??_GObjectWrap@node@@UAEPAXI@Z 10001d50 f i onig-scanner.obj
 0001:00000d50       ??_EObjectWrap@node@@UAEPAXI@Z 10001d50 f i * CIL library *:* CIL module *
 0001:00000e10       ?NewInstance@Nan@@YA?AV?$MaybeLocal@VObject@v8@@@v8@@V?$Local@VObjectTemplate@v8@@@3@@Z 10001e10 f i onig-scanner.obj
 0001:00000ea0       ?New@?$Factory@VFunctionTemplate@v8@@@imp@Nan@@SA?AV?$Local@VFunctionTemplate@v8@@@v8@@P6AXABV?$FunctionCallbackInfo@VValue@v8@@@3@@ZV?$Local@VValue@v8@@@5@V?$Local@VSignature@v8@@@5@@Z 10001ea0 f i onig-scanner.obj
 0001:00000fe0       ??1HandleScope@Nan@@QAE@XZ 10001fe0 f i onig-scanner.obj
 0001:00000fe0       ??1EscapableHandleScope@Nan@@QAE@XZ 10001fe0 f i onig-scanner.obj
 0001:00000ff0       ?Call@Callback@Nan@@QBE?AV?$Local@VValue@v8@@@v8@@HQAV34@@Z 10001ff0 f i onig-scanner.obj
 0001:00001090       ?Call_@Callback@Nan@@ABE?AV?$Local@VValue@v8@@@v8@@PAVIsolate@4@V?$Local@VObject@v8@@@4@HQAV34@@Z 10002090 f i onig-scanner.obj
 0001:00001140       ??0AsyncWorker@Nan@@QAE@PAVCallback@1@@Z 10002140 f i onig-scanner.obj
 0001:00001210       ??1AsyncWorker@Nan@@UAE@XZ 10002210 f i onig-scanner.obj
 0001:000012d0       ?WorkComplete@AsyncWorker@Nan@@UAEXXZ 100022d0 f i onig-scanner.obj
 0001:00001370       ?Destroy@AsyncWorker@Nan@@UAEXXZ 10002370 f i onig-scanner.obj
 0001:00001380       ?HandleOKCallback@AsyncWorker@Nan@@MAEXXZ 10002380 f i onig-scanner.obj
 0001:000013f0       ?HandleErrorCallback@AsyncWorker@Nan@@MAEXXZ 100023f0 f i onig-scanner.obj
 0001:000014a0       ??_GAsyncWorker@Nan@@UAEPAXI@Z 100024a0 f i onig-scanner.obj
 0001:000014a0       ??_EAsyncWorker@Nan@@UAEPAXI@Z 100024a0 f i * CIL library *:* CIL module *
 0001:000014c0       ??1?$Persistent@VObject@v8@@V?$NonCopyablePersistentTraits@VObject@v8@@@2@@Nan@@QAE@XZ 100024c0 f i onig-scanner.obj
 0001:00001500       ?AsyncExecute@Nan@@YAXPAUuv_work_s@@@Z 10002500 f i onig-scanner.obj
 0001:00001510       ?AsyncExecuteComplete@Nan@@YAXPAUuv_work_s@@@Z 10002510 f i onig-scanner.obj
 0001:00001540       ??0OnigScannerWorker@@QAE@PAVCallback@Nan@@V?$vector@V?$shared_ptr@VOnigRegExp@@@std@@V?$allocator@V?$shared_ptr@VOnigRegExp@@@std@@@2@@std@@V?$Local@VString@v8@@@v8@@H@Z 10002540 f i onig-scanner.obj
 0001:000016a0       ??1OnigScannerWorker@@UAE@XZ 100026a0 f i onig-scanner.obj
 0001:00001750       ??_EOnigScannerWorker@@UAEPAXI@Z 10002750 f i * CIL library *:* CIL module *
 0001:00001750       ??_GOnigScannerWorker@@UAEPAXI@Z 10002750 f i onig-scanner.obj
 0001:00001780       ?Init@OnigScanner@@SAXV?$Local@VObject@v8@@@v8@@@Z 10002780 f   onig-scanner.obj
 0001:00001910       ?InitModule@@YAXV?$Local@VObject@v8@@@v8@@@Z 10002910 f   onig-scanner.obj
 0001:00001940       ?New@OnigScanner@@CAXABV?$FunctionCallbackInfo@VValue@v8@@@Nan@@@Z 10002940 f   onig-scanner.obj
 0001:000019f0       ?FindNextMatchSync@OnigScanner@@CAXABV?$FunctionCallbackInfo@VValue@v8@@@Nan@@@Z 100029f0 f   onig-scanner.obj
 0001:00001b80       ?FindNextMatch@OnigScanner@@CAXABV?$FunctionCallbackInfo@VValue@v8@@@Nan@@@Z 10002b80 f   onig-scanner.obj
 0001:00001c90       ??0OnigScanner@@AAE@V?$Local@VArray@v8@@@v8@@@Z 10002c90 f   onig-scanner.obj
 0001:00002010       ??_GOnigScanner@@EAEPAXI@Z 10003010 f i onig-scanner.obj
 0001:00002010       ??_EOnigScanner@@EAEPAXI@Z 10003010 f i * CIL library *:* CIL module *
 0001:000020a0       ?FindNextMatch@OnigScanner@@AAEXV?$Local@VString@v8@@@v8@@V?$Local@VNumber@v8@@@3@V?$Local@VFunction@v8@@@3@@Z 100030a0 f   onig-scanner.obj
 0001:00002180       ?FindNextMatchSync@OnigScanner@@AAE?AV?$Local@VValue@v8@@@v8@@V?$Local@VString@v8@@@3@V?$Local@VNumber@v8@@@3@@Z 10003180 f   onig-scanner.obj
 0001:00002200       ?FindNextMatchSync@OnigScanner@@AAE?AV?$Local@VValue@v8@@@v8@@PAVOnigString@@V?$Local@VNumber@v8@@@3@@Z 10003200 f   onig-scanner.obj
 0001:00002370       ?CaptureIndicesForMatch@OnigScanner@@CA?AV?$Local@VValue@v8@@@v8@@PAVOnigResult@@PAVOnigString@@@Z 10003370 f   onig-scanner.obj
 0001:00002650       ?resize@?$vector@V?$shared_ptr@VOnigRegExp@@@std@@V?$allocator@V?$shared_ptr@VOnigRegExp@@@std@@@2@@std@@QAEXI@Z 10003650 f i onig-scanner.obj
 0001:000026d0       ??1?$vector@V?$shared_ptr@VOnigRegExp@@@std@@V?$allocator@V?$shared_ptr@VOnigRegExp@@@std@@@2@@std@@QAE@XZ 100036d0 f i onig-scanner.obj
 0001:000026e0       ??0?$vector@V?$shared_ptr@VOnigRegExp@@@std@@V?$allocator@V?$shared_ptr@VOnigRegExp@@@std@@@2@@std@@QAE@ABV01@@Z 100036e0 f i onig-scanner.obj
 0001:00002770       ?_Tidy@?$vector@V?$shared_ptr@VOnigRegExp@@@std@@V?$allocator@V?$shared_ptr@VOnigRegExp@@@std@@@2@@std@@IAEXXZ 10003770 f i onig-scanner.obj
 0001:00002800       ?_Reserve@?$vector@V?$shared_ptr@VOnigRegExp@@@std@@V?$allocator@V?$shared_ptr@VOnigRegExp@@@std@@@2@@std@@IAEXI@Z 10003800 f i onig-scanner.obj
 0001:00002860       ?assign@?$basic_string@DU?$char_traits@D@std@@V?$allocator@D@2@@std@@QAEAAV12@PBDI@Z 10003860 f i onig-scanner.obj
 0001:00002960       ?allocate@?$_Wrap_alloc@V?$allocator@V?$shared_ptr@VOnigRegExp@@@std@@@std@@@std@@QAEPAV?$shared_ptr@VOnigRegExp@@@2@I@Z 10003960 f i onig-scanner.obj
 0001:000029c0       ?_Reallocate@?$vector@V?$shared_ptr@VOnigRegExp@@@std@@V?$allocator@V?$shared_ptr@VOnigRegExp@@@std@@@2@@std@@IAEXI@Z 100039c0 f i onig-scanner.obj
 0001:00002ad0       ??$?0VOnigSearcher@@@?$shared_ptr@VOnigSearcher@@@std@@QAE@PAVOnigSearcher@@@Z 10003ad0 f i onig-scanner.obj
 0001:00002b50       ??$Unwrap@VOnigString@@@ObjectWrap@node@@SAPAVOnigString@@V?$Local@VObject@v8@@@v8@@@Z 10003b50 f i onig-scanner.obj
 0001:00002bb0       ??$New@VNumber@v8@@H@Nan@@YA?AV?$Local@VNumber@v8@@@v8@@H@Z 10003bb0 f i onig-scanner.obj
 0001:00002bf0       ??$_Destroy_range1@V?$allocator@V?$shared_ptr@VOnigRegExp@@@std@@@std@@PAV?$shared_ptr@VOnigRegExp@@@2@@std@@YAXPAV?$shared_ptr@VOnigRegExp@@@0@0AAU?$_Wrap_alloc@V?$allocator@V?$shared_ptr@VOnigRegExp@@@std@@@std@@@0@U?$integral_constant@_N$0A@@0@@Z 10003bf0 f i onig-scanner.obj
 0001:00002c40       ??_GOnigRegExp@@QAEPAXI@Z  10003c40 f i onig-scanner.obj
 0001:00002ce0       ?_Destroy@?$_Ref_count@VOnigRegExp@@@std@@EAEXXZ 10003ce0 f i onig-scanner.obj
 0001:00002cf0       ?_Destroy@?$_Ref_count@VOnigSearcher@@@std@@EAEXXZ 10003cf0 f i onig-scanner.obj
 0001:00002d10       ??$_Uninitialized_copy_al_unchecked1@PBV?$shared_ptr@VOnigRegExp@@@std@@PAV12@V?$allocator@V?$shared_ptr@VOnigRegExp@@@std@@@2@@std@@YAPAV?$shared_ptr@VOnigRegExp@@@0@PBV10@0PAV10@AAU?$_Wrap_alloc@V?$allocator@V?$shared_ptr@VOnigRegExp@@@std@@@std@@@0@U_General_ptr_iterator_tag@0@U_Any_tag@0@@Z 10003d10 f i onig-scanner.obj
 0001:00002da0       ??$_Uninitialized_move_al_unchecked1@PAV?$shared_ptr@VOnigRegExp@@@std@@PAV12@V?$allocator@V?$shared_ptr@VOnigRegExp@@@std@@@2@@std@@YAPAV?$shared_ptr@VOnigRegExp@@@0@PAV10@00AAU?$_Wrap_alloc@V?$allocator@V?$shared_ptr@VOnigRegExp@@@std@@@std@@@0@U_General_ptr_iterator_tag@0@U_Any_tag@0@@Z 10003da0 f i onig-scanner.obj
 0001:00002de0       ?Execute@OnigScannerWorker@@UAEXXZ 10003de0 f   onig-scanner-worker.obj
 0001:00002e80       ?HandleOKCallback@OnigScannerWorker@@UAEXXZ 10003e80 f   onig-scanner-worker.obj
 0001:000031d0       ?Search@OnigSearcher@@QAE?AV?$shared_ptr@VOnigResult@@@std@@PAVOnigString@@H@Z 100041d0 f   onig-searcher.obj
 0001:00003370       ?Init@OnigString@@SAXV?$Local@VObject@v8@@@v8@@@Z 10004370 f   onig-string.obj
 0001:00003440       ?New@OnigString@@CAXABV?$FunctionCallbackInfo@VValue@v8@@@Nan@@@Z 10004440 f   onig-string.obj
 0001:000034f0       ??0OnigString@@QAE@V?$Local@VString@v8@@@v8@@@Z 100044f0 f   onig-string.obj
 0001:00003730       ??_GOnigString@@UAEPAXI@Z  10004730 f i onig-string.obj
 0001:00003730       ??_EOnigString@@UAEPAXI@Z  10004730 f i * CIL library *:* CIL module *
 0001:00003900       _onig_region_clear         10004900 f   oniguruma:regexec.obj
 0001:00003950       _onig_region_resize        10004950 f   oniguruma:regexec.obj
 0001:000039d0       _onig_region_free          100049d0 f   oniguruma:regexec.obj
 0001:00007460       _onig_search               10008460 f   oniguruma:regexec.obj
 0001:00007b20       _onigenc_is_mbc_newline_0x0a 10008b20 f   oniguruma:regenc.obj
 0001:0000d5c0       _onig_free_body            1000e5c0 f   oniguruma:regcomp.obj
 0001:0000d670       _onig_compile              1000e670 f   oniguruma:regcomp.obj
 0001:0000d9e0       _onig_reg_init             1000e9e0 f   oniguruma:regcomp.obj
 0001:0000da80       _onig_is_in_code_range     1000ea80 f   oniguruma:regcomp.obj
 0001:0000dac0       _onig_is_code_in_cc_len    1000eac0 f   oniguruma:regcomp.obj
 0001:0000db50       _onig_is_code_in_cc        1000eb50 f   oniguruma:regcomp.obj
 0001:0000db90       @_guard_check_icall_nop@4  1000eb90 f   LIBCMT:guard_support.obj
 0001:0000db90       ___except_validate_context_record 1000eb90 f   libvcruntime:jbcxrval.obj
 0001:0000db90       _onig_null_warn            1000eb90 f   oniguruma:regparse.obj
 0001:0000db90       ___except_validate_jump_buffer 1000eb90 f   libvcruntime:jbcxrval.obj
 0001:0000de40       _onig_st_init_strend_table_with_size 1000ee40 f   oniguruma:regparse.obj
 0001:0000dea0       _onig_st_insert_strend     1000eea0 f   oniguruma:regparse.obj
 0001:0000e120       _onig_name_to_group_numbers 1000f120 f   oniguruma:regparse.obj
 0001:0000e2a0       _onig_node_free            1000f2a0 f   oniguruma:regparse.obj
 0001:0000e640       _onig_node_list_add        1000f640 f   oniguruma:regparse.obj
 0001:0000e6a0       _onig_node_new_alt         1000f6a0 f   oniguruma:regparse.obj
 0001:0000e6f0       _onig_node_new_anchor      1000f6f0 f   oniguruma:regparse.obj
 0001:0000e980       _onig_node_new_enclose     1000f980 f   oniguruma:regparse.obj
 0001:0000ead0       _onig_node_str_cat         1000fad0 f   oniguruma:regparse.obj
 0001:0000eb80       _onig_node_new_str         1000fb80 f   oniguruma:regparse.obj
 0001:0000ed20       _onig_scan_unsigned_number 1000fd20 f   oniguruma:regparse.obj
 0001:0000feb0       _onig_reduce_nested_quantifier 10010eb0 f   oniguruma:regparse.obj
 0001:00014870       _onig_parse_make_tree      10015870 f   oniguruma:regparse.obj
 0001:000148f0       ___local_stdio_printf_options 100158f0 f i oniguruma:regerror.obj
 0001:00014900       __vsnprintf_l              10015900 f i oniguruma:regerror.obj
 0001:00014940       _sprintf                   10015940 f i oniguruma:regerror.obj
 0001:00014960       _onig_error_code_to_format 10015960 f   oniguruma:regerror.obj
 0001:00014ee0       _onig_error_code_to_str    10015ee0 f   oniguruma:regerror.obj
 0001:00014fe0       _onigenc_get_right_adjust_char_head 10015fe0 f   oniguruma:regenc.obj
 0001:00015010       _onigenc_get_right_adjust_char_head_with_prev 10016010 f   oniguruma:regenc.obj
 0001:00015050       _onigenc_get_prev_char_head 10016050 f   oniguruma:regenc.obj
 0001:00015070       _onigenc_step_back         10016070 f   oniguruma:regenc.obj
 0001:000150b0       _onigenc_strlen            100160b0 f   oniguruma:regenc.obj
 0001:000150e0       _onigenc_str_bytelen_null  100160e0 f   oniguruma:regenc.obj
 0001:00015130       _onigenc_ascii_apply_all_case_fold 10016130 f   oniguruma:regenc.obj
 0001:00015190       _onigenc_ascii_get_case_fold_codes_by_str 10016190 f   oniguruma:regenc.obj
 0001:000151f0       _onigenc_not_support_get_ctype_code_range 100161f0 f   oniguruma:regenc.obj
 0001:00015200       _onigenc_ascii_mbc_case_fold 10016200 f   oniguruma:regenc.obj
 0001:00015220       _onigenc_always_true_is_allowed_reverse_match 10016220 f   oniguruma:regenc.obj
 0001:00015220       _onigenc_single_byte_mbc_enc_len 10016220 f   oniguruma:regenc.obj
 0001:00015230       _onigenc_single_byte_mbc_to_code 10016230 f   oniguruma:regenc.obj
 0001:00015240       _onigenc_single_byte_code_to_mbclen 10016240 f   oniguruma:regenc.obj
 0001:00015260       _onigenc_single_byte_code_to_mbc 10016260 f   oniguruma:regenc.obj
 0001:00015270       _onigenc_single_byte_left_adjust_char_head 10016270 f   oniguruma:regenc.obj
 0001:00015280       _onigenc_minimum_property_name_to_ctype 10016280 f   oniguruma:regenc.obj
 0001:00015300       _onigenc_with_ascii_strncmp 10016300 f   oniguruma:regenc.obj
 0001:00015800       _onigenc_unicode_is_code_ctype 10016800 f   oniguruma:unicode.obj
 0001:00015930       _onigenc_unicode_property_name_to_ctype 10016930 f   oniguruma:unicode.obj
 0001:00015a70       _onigenc_end_unicode       10016a70 f   oniguruma:unicode.obj
 0001:00015d00       _onigenc_unicode_mbc_case_fold 10016d00 f   oniguruma:unicode.obj
 0001:00015dd0       _onigenc_unicode_apply_all_case_fold 10016dd0 f   oniguruma:unicode.obj
 0001:000161f0       _onigenc_unicode_get_case_fold_codes_by_str 100171f0 f   oniguruma:unicode.obj
 0001:000167b0       _onig_st_init_table_with_size 100177b0 f   oniguruma:st.obj
 0001:00016810       _onig_st_init_numtable_with_size 10017810 f   oniguruma:st.obj
 0001:00016870       _onig_st_free_table        10017870 f   oniguruma:st.obj
 0001:000168c0       _onig_st_lookup            100178c0 f   oniguruma:st.obj
 0001:00016970       _onig_st_insert            10017970 f   oniguruma:st.obj
 0001:00016a70       _onig_st_add_direct        10017a70 f   oniguruma:st.obj
 0001:00016c40       _onig_st_foreach           10017c40 f   oniguruma:st.obj
 0001:00016d7a       __imp_load_?ThrowException@Isolate@v8@@QAE?AV?$Local@VValue@v8@@@2@V32@@Z 10017d7a f   node:node.exe
 0001:00016d84       __tailMerge_node_exe       10017d84 f i node:node.exe
 0001:00016d95       __imp_load_?GetCurrent@Isolate@v8@@SAPAV12@XZ 10017d95 f   node:node.exe
 0001:00016d9f       __imp_load_?Error@Exception@v8@@SA?AV?$Local@VValue@v8@@@2@V?$Local@VString@v8@@@2@@Z 10017d9f f   node:node.exe
 0001:00016da9       __imp_load_?ToLocalEmpty@V8@v8@@CAXXZ 10017da9 f   node:node.exe
 0001:00016db3       __imp_load_?NewFromUtf8@String@v8@@SA?AV?$MaybeLocal@VString@v8@@@2@PAVIsolate@2@PBDW4NewStringType@2@H@Z 10017db3 f   node:node.exe
 0001:00016dbd       __imp_load__uv_queue_work  10017dbd f   node:node.exe
 0001:00016dc7       __imp_load_?Global@Context@v8@@QAE?AV?$Local@VObject@v8@@@2@XZ 10017dc7 f   node:node.exe
 0001:00016dd1       __imp_load_?Value@External@v8@@QBEPAXXZ 10017dd1 f   node:node.exe
 0001:00016ddb       __imp_load_?New@External@v8@@SA?AV?$Local@VExternal@v8@@@2@PAVIsolate@2@PAX@Z 10017ddb f   node:node.exe
 0001:00016de5       __imp_load_?GetCurrentContext@Isolate@v8@@QAE?AV?$Local@VContext@v8@@@2@XZ 10017de5 f   node:node.exe
 0001:00016def       __imp_load_?CreateHandle@HandleScope@v8@@KAPAPAVObject@internal@2@PAVIsolate@42@PAV342@@Z 10017def f   node:node.exe
 0001:00016df9       __imp_load_?CreateHandle@HandleScope@v8@@CAPAPAVObject@internal@2@PAVHeapObject@42@PAV342@@Z 10017df9 f   node:node.exe
 0001:00016e03       __imp_load_??1HandleScope@v8@@QAE@XZ 10017e03 f   node:node.exe
 0001:00016e0d       __imp_load_??0HandleScope@v8@@QAE@PAVIsolate@1@@Z 10017e0d f   node:node.exe
 0001:00016e17       __imp_load_?Set@Template@v8@@QAEXV?$Local@VName@v8@@@2@V?$Local@VData@v8@@@2@W4PropertyAttribute@2@@Z 10017e17 f   node:node.exe
 0001:00016e21       __imp_load_?New@Array@v8@@SA?AV?$Local@VArray@v8@@@2@PAVIsolate@2@H@Z 10017e21 f   node:node.exe
 0001:00016e2b       __imp_load_?Length@Array@v8@@QBEIXZ 10017e2b f   node:node.exe
 0001:00016e35       __imp_load_?SetClassName@FunctionTemplate@v8@@QAEXV?$Local@VString@v8@@@2@@Z 10017e35 f   node:node.exe
 0001:00016e3f       __imp_load_?PrototypeTemplate@FunctionTemplate@v8@@QAE?AV?$Local@VObjectTemplate@v8@@@2@XZ 10017e3f f   node:node.exe
 0001:00016e49       __imp_load_?InstanceTemplate@FunctionTemplate@v8@@QAE?AV?$Local@VObjectTemplate@v8@@@2@XZ 10017e49 f   node:node.exe
 0001:00016e53       __imp_load_?GetFunction@FunctionTemplate@v8@@QAE?AV?$Local@VFunction@v8@@@2@XZ 10017e53 f   node:node.exe
 0001:00016e5d       __imp_load_?New@FunctionTemplate@v8@@SA?AV?$Local@VFunctionTemplate@v8@@@2@PAVIsolate@2@P6AXABV?$FunctionCallbackInfo@VValue@v8@@@2@@ZV?$Local@VValue@v8@@@2@V?$Local@VSignature@v8@@@2@H@Z 10017e5d f   node:node.exe
 0001:00016e67       __imp_load_?ClearWeak@V8@v8@@CAPAXPAPAVObject@internal@2@@Z 10017e67 f   node:node.exe
 0001:00016e71       __imp_load_?MakeWeak@V8@v8@@CAXPAPAVObject@internal@2@PAXP6AXABV?$WeakCallbackData@VValue@v8@@X@2@@Z@Z 10017e71 f   node:node.exe
 0001:00016e7b       __imp_load_?DisposeGlobal@V8@v8@@CAXPAPAVObject@internal@2@@Z 10017e7b f   node:node.exe
 0001:00016e85       __imp_load_?GlobalizeReference@V8@v8@@CAPAPAVObject@internal@2@PAVIsolate@42@PAPAV342@@Z 10017e85 f   node:node.exe
 0001:00016e8f       __imp_load_?Escape@EscapableHandleScope@v8@@AAEPAPAVObject@internal@2@PAPAV342@@Z 10017e8f f   node:node.exe
 0001:00016e99       __imp_load_??0EscapableHandleScope@v8@@QAE@PAVIsolate@1@@Z 10017e99 f   node:node.exe
 0001:00016ea3       __imp_load_??1Utf8Value@String@v8@@QAE@XZ 10017ea3 f   node:node.exe
 0001:00016ead       __imp_load_??0Utf8Value@String@v8@@QAE@V?$Local@VValue@v8@@@2@@Z 10017ead f   node:node.exe
 0001:00016eb7       __imp_load_?New@Number@v8@@SA?AV?$Local@VNumber@v8@@@2@PAVIsolate@2@N@Z 10017eb7 f   node:node.exe
 0001:00016ec1       __imp_load_?Value@Number@v8@@QBENXZ 10017ec1 f   node:node.exe
 0001:00016ecb       __imp_load_?SlowGetAlignedPointerFromInternalField@Object@v8@@AAEPAXH@Z 10017ecb f   node:node.exe
 0001:00016ed5       __imp_load_?SlowGetInternalField@Object@v8@@AAE?AV?$Local@VValue@v8@@@2@H@Z 10017ed5 f   node:node.exe
 0001:00016edf       __imp_load_?New@Object@v8@@SA?AV?$Local@VObject@v8@@@2@PAVIsolate@2@@Z 10017edf f   node:node.exe
 0001:00016ee9       __imp_load_?SetAlignedPointerInInternalField@Object@v8@@QAEXHPAX@Z 10017ee9 f   node:node.exe
 0001:00016ef3       __imp_load_?SetInternalField@Object@v8@@QAEXHV?$Local@VValue@v8@@@2@@Z 10017ef3 f   node:node.exe
 0001:00016efd       __imp_load_?InternalFieldCount@Object@v8@@QAEHXZ 10017efd f   node:node.exe
 0001:00016f07       __imp_load_?Get@Object@v8@@QAE?AV?$Local@VValue@v8@@@2@I@Z 10017f07 f   node:node.exe
 0001:00016f11       __imp_load_?Set@Object@v8@@QAE_NV?$Local@VValue@v8@@@2@0@Z 10017f11 f   node:node.exe
 0001:00016f1b       __imp_load_?Set@Object@v8@@QAE_NIV?$Local@VValue@v8@@@2@@Z 10017f1b f   node:node.exe
 0001:00016f25       __imp_load_?SetInternalFieldCount@ObjectTemplate@v8@@QAEXH@Z 10017f25 f   node:node.exe
 0001:00016f2f       __imp_load_?NewInstance@ObjectTemplate@v8@@QAE?AV?$MaybeLocal@VObject@v8@@@2@V?$Local@VContext@v8@@@2@@Z 10017f2f f   node:node.exe
 0001:00016f39       __imp_load_?New@ObjectTemplate@v8@@SA?AV?$Local@VObjectTemplate@v8@@@2@PAVIsolate@2@V?$Local@VFunctionTemplate@v8@@@2@@Z 10017f39 f   node:node.exe
 0001:00016f43       __imp_load__node_module_register 10017f43 f   node:node.exe
 0001:00016f4d       __imp_load_?MakeCallback@node@@YA?AV?$Local@VValue@v8@@@v8@@PAVIsolate@3@V?$Local@VObject@v8@@@3@V?$Local@VFunction@v8@@@3@HPAV23@@Z 10017f4d f   node:node.exe
 0001:00016f57       __imp_load__uv_default_loop 10017f57 f   node:node.exe
 0001:00016f61       __imp_load_?ToObject@Value@v8@@QBE?AV?$Local@VObject@v8@@@2@XZ 10017f61 f   node:node.exe
 0001:00016f6b       __imp_load_??1EscapableHandleScope@v8@@QAE@XZ 10017f6b f   node:node.exe
 0001:00016f75       __imp_load_??1Value@String@v8@@QAE@XZ 10017f75 f   node:node.exe
 0001:00016f7f       __imp_load_??0Value@String@v8@@QAE@V?$Local@VValue@v8@@@2@@Z 10017f7f f   node:node.exe
 0001:00016f89       __imp_load_?Length@String@v8@@QBEHXZ 10017f89 f   node:node.exe
 0001:00016f93       ??0bad_alloc@std@@QAE@ABV01@@Z 10017f93 f i libcpmt:xthrow.obj
 0001:00016fae       ??0bad_alloc@std@@QAE@XZ   10017fae f i libcpmt:xthrow.obj
 0001:00016fc6       ??0exception@std@@QAE@ABV01@@Z 10017fc6 f i libcpmt:xthrow.obj
 0001:00016ff2       ??0exception@std@@QAE@QBD@Z 10017ff2 f i libcpmt:xthrow.obj
 0001:00017029       ??0length_error@std@@QAE@ABV01@@Z 10018029 f i libcpmt:xthrow.obj
 0001:00017044       ??0length_error@std@@QAE@PBD@Z 10018044 f i libcpmt:xthrow.obj
 0001:00017065       ??0logic_error@std@@QAE@ABV01@@Z 10018065 f i libcpmt:xthrow.obj
 0001:00017080       ??0out_of_range@std@@QAE@ABV01@@Z 10018080 f i libcpmt:xthrow.obj
 0001:0001709b       ??0out_of_range@std@@QAE@PBD@Z 1001809b f i libcpmt:xthrow.obj
 0001:000170bc       ??_Gbad_exception@std@@UAEPAXI@Z 100180bc f i libvcruntime:frame.obj
 0001:000170bc       ??_Gbad_array_new_length@std@@UAEPAXI@Z 100180bc f i LIBCMT:throw_bad_alloc.obj
 0001:000170bc       ??_Elength_error@std@@UAEPAXI@Z 100180bc f i libcpmt:xthrow.obj
 0001:000170bc       ??_Ebad_array_new_length@std@@UAEPAXI@Z 100180bc f i LIBCMT:throw_bad_alloc.obj
 0001:000170bc       ??_Glogic_error@std@@UAEPAXI@Z 100180bc f i libcpmt:xthrow.obj
 0001:000170bc       ??_Glength_error@std@@UAEPAXI@Z 100180bc f i libcpmt:xthrow.obj
 0001:000170bc       ??_Ebad_exception@std@@UAEPAXI@Z 100180bc f i libvcruntime:frame.obj
 0001:000170bc       ??_Eexception@std@@UAEPAXI@Z 100180bc f i libcpmt:xthrow.obj
 0001:000170bc       ??_Gout_of_range@std@@UAEPAXI@Z 100180bc f i libcpmt:xthrow.obj
 0001:000170bc       ??_Gbad_alloc@std@@UAEPAXI@Z 100180bc f i libcpmt:xthrow.obj
 0001:000170bc       ??_Eout_of_range@std@@UAEPAXI@Z 100180bc f i libcpmt:xthrow.obj
 0001:000170bc       ??_Elogic_error@std@@UAEPAXI@Z 100180bc f i libcpmt:xthrow.obj
 0001:000170bc       ??_Gexception@std@@UAEPAXI@Z 100180bc f i libcpmt:xthrow.obj
 0001:000170bc       ??_Ebad_alloc@std@@UAEPAXI@Z 100180bc f i libcpmt:xthrow.obj
 0001:000170e9       ?_Xbad_alloc@std@@YAXXZ    100180e9 f   libcpmt:xthrow.obj
 0001:000170e9       ?__scrt_throw_std_bad_alloc@@YAXXZ 100180e9 f   LIBCMT:throw_bad_alloc.obj
 0001:00017106       ?_Xlength_error@std@@YAXPBD@Z 10018106 f   libcpmt:xthrow.obj
 0001:00017126       ?_Xout_of_range@std@@YAXPBD@Z 10018126 f   libcpmt:xthrow.obj
 0001:00017146       ?what@exception@std@@UBEPBDXZ 10018146 f i libcpmt:xthrow.obj
 0001:00017153       @__security_check_cookie@4 10018153 f   LIBCMT:_secchk_.obj
 0001:00017164       ??2@YAPAXI@Z               10018164 f   LIBCMT:new_scalar.obj
 0001:00017197       ??3@YAXPAX@Z               10018197 f   LIBCMT:delete_scalar.obj
 0001:0001719c       ??3@YAXPAXI@Z              1001819c f   LIBCMT:delete_scalar_size.obj
 0001:000171aa       ??_V@YAXPAX@Z              100181aa f   LIBCMT:delete_array.obj
 0001:000171af       ??_U@YAPAXI@Z              100181af f   LIBCMT:new_array.obj
 0001:000174c0       __DllMainCRTStartup@12     100184c0 f   LIBCMT:dll_dllmain.obj
 0001:000174e3       ___raise_securityfailure   100184e3 f   LIBCMT:gs_report.obj
 0001:0001750b       ___report_gsfailure        1001850b f   LIBCMT:gs_report.obj
 0001:00017606       ___report_rangecheckfailure 10018606 f   LIBCMT:gs_report.obj
 0001:00017612       ___report_securityfailure  10018612 f   LIBCMT:gs_report.obj
 0001:000176e2       ??_Etype_info@@UAEPAXI@Z   100186e2 f i LIBCMT:std_type_info_static.obj
 0001:000176e2       ??_Gtype_info@@UAEPAXI@Z   100186e2 f i LIBCMT:std_type_info_static.obj
 0001:00017705       ??0bad_array_new_length@std@@QAE@ABV01@@Z 10018705 f i LIBCMT:throw_bad_alloc.obj
 0001:00017720       ??0bad_array_new_length@std@@QAE@XZ 10018720 f i LIBCMT:throw_bad_alloc.obj
 0001:00017738       ?__scrt_throw_std_bad_array_new_length@@YAXXZ 10018738 f   LIBCMT:throw_bad_alloc.obj
 0001:00017755       ??$__crt_fast_encode_pointer@PAP6AXXZ@@YAPAP6AXXZQAP6AXXZ@Z 10018755 f i LIBCMT:utility.obj
 0001:00017755       ??$__crt_fast_encode_pointer@PAX@@YAPAXQAX@Z 10018755 f i libvcruntime:winapi_downlevel.obj
 0001:000177b6       ___scrt_acquire_startup_lock 100187b6 f   LIBCMT:utility.obj
 0001:000177eb       ___scrt_dllmain_after_initialize_c 100187eb f   LIBCMT:utility.obj
 0001:00017816       ___scrt_dllmain_before_initialize_c 10018816 f   LIBCMT:utility.obj
 0001:00017824       ___scrt_dllmain_crt_thread_attach 10018824 f   LIBCMT:utility.obj
 0001:00017843       ___scrt_dllmain_crt_thread_detach 10018843 f   LIBCMT:utility.obj
 0001:00017850       ___scrt_dllmain_exception_filter 10018850 f   LIBCMT:utility.obj
 0001:00017883       ___scrt_dllmain_uninitialize_c 10018883 f   LIBCMT:utility.obj
 0001:000178a6       ___scrt_dllmain_uninitialize_critical 100188a6 f   LIBCMT:utility.obj
 0001:000178b3       ___scrt_initialize_crt     100188b3 f   LIBCMT:utility.obj
 0001:000178ec       ___scrt_initialize_onexit_tables 100188ec f   LIBCMT:utility.obj
 0001:00017983       ___scrt_is_nonwritable_in_current_image 10018983 f   LIBCMT:utility.obj
 0001:00017a0d       ___scrt_release_startup_lock 10018a0d f   LIBCMT:utility.obj
 0001:00017a2a       ___scrt_uninitialize_crt   10018a2a f   LIBCMT:utility.obj
 0001:00017a52       __onexit                   10018a52 f   LIBCMT:utility.obj
 0001:00017a8d       _atexit                    10018a8d f   LIBCMT:utility.obj
 0001:00017aa2       ___security_init_cookie    10018aa2 f   LIBCMT:gs_support.obj
 0001:00017b3e       _DllMain@12                10018b3e f   LIBCMT:dll_dllmain_stub.obj
 0001:00017b44       ?__scrt_initialize_type_info@@YAXXZ 10018b44 f   LIBCMT:tncleanup.obj
 0001:00017b50       ?__scrt_uninitialize_type_info@@YAXXZ 10018b50 f   LIBCMT:tncleanup.obj
 0001:00017b5c       ___local_stdio_scanf_options 10018b5c f i LIBCMT:default_local_stdio_options.obj
 0001:00017b62       ___scrt_initialize_default_local_stdio_options 10018b62 f   LIBCMT:default_local_stdio_options.obj
 0001:00017b7f       ___scrt_get_dyn_tls_init_callback 10018b7f f   LIBCMT:dyn_tls_init.obj
 0001:00017b85       ___scrt_fastfail           10018b85 f   LIBCMT:utility_desktop.obj
 0001:00017ca0       __crt_debugger_hook        10018ca0 f   LIBCMT:utility_desktop.obj
 0001:00017ca8       __RTC_Initialize           10018ca8 f   LIBCMT:_initsect_.obj
 0001:00017cd3       __RTC_Terminate            10018cd3 f   LIBCMT:_initsect_.obj
 0001:00017cfe       @_guard_check_icall@4      10018cfe f i LIBCMT:checkcfg.obj
 0001:00017d10       __SEH_prolog4              10018d10 f   LIBCMT:_sehprolg4_.obj
 0001:00017d56       __SEH_epilog4              10018d56 f   LIBCMT:_sehprolg4_.obj
 0001:00017d6b       ___isa_available_init      10018d6b f   LIBCMT:_cpu_disp_.obj
 0001:00017f05       __get_startup_argv_mode    10018f05 f   LIBCMT:argv_mode.obj
 0001:00017f09       ___scrt_is_ucrt_dll_in_use 10018f09 f   LIBCMT:ucrt_detection.obj
 0001:00017f15       ___DestructExceptionObject 10018f15 f   libvcruntime:frame.obj
 0001:00017fa9       ??0bad_exception@std@@QAE@ABV01@@Z 10018fa9 f i libvcruntime:frame.obj
 0001:00017fc4       ??0bad_exception@std@@QAE@XZ 10018fc4 f i libvcruntime:frame.obj
 0001:00017fdc       ??1length_error@std@@UAE@XZ 10018fdc f i libcpmt:xthrow.obj
 0001:00017fdc       ??1bad_array_new_length@std@@UAE@XZ 10018fdc f i LIBCMT:throw_bad_alloc.obj
 0001:00017fdc       ??1bad_alloc@std@@UAE@XZ   10018fdc f i libcpmt:xthrow.obj
 0001:00017fdc       ??1out_of_range@std@@UAE@XZ 10018fdc f i libcpmt:xthrow.obj
 0001:00017fdc       ??1bad_exception@std@@UAE@XZ 10018fdc f i libvcruntime:frame.obj
 0001:00018806       ?_CallMemberFunction2@@YGXQAX00H@Z 10019806 f i libvcruntime:frame.obj
 0001:00018806       ?_CallMemberFunction1@@YGXQAX00@Z 10019806 f i libvcruntime:frame.obj
 0001:00018806       ?_CallMemberFunction0@@YGXQAX0@Z 10019806 f i libvcruntime:frame.obj
 0001:0001880d       ___AdjustPointer           1001980d f   libvcruntime:frame.obj
 0001:00018832       ___BuildCatchObject        10019832 f   libvcruntime:frame.obj
 0001:000188c1       ___BuildCatchObjectHelper  100198c1 f   libvcruntime:frame.obj
 0001:000189ef       ___FrameUnwindFilter       100199ef f   libvcruntime:frame.obj
 0001:00018a34       ___FrameUnwindToState      10019a34 f   libvcruntime:frame.obj
 0001:00018afc       ___InternalCxxFrameHandler 10019afc f   libvcruntime:frame.obj
 0001:00018bf8       ___TypeMatch               10019bf8 f   libvcruntime:frame.obj
 0001:00018c86       ___std_terminate           10019c86 f   libvcruntime:frame.obj
 0001:00018c90       _memmove                   10019c90 f   libvcruntime:memmove.obj
 0001:00019204       __get_purecall_handler     1001a204 f   libvcruntime:purevirt.obj
 0001:00019223       __purecall                 1001a223 f   libvcruntime:purevirt.obj
 0001:0001923e       ___std_exception_copy      1001a23e f   libvcruntime:std_exception.obj
 0001:000192a1       ___std_exception_destroy   1001a2a1 f   libvcruntime:std_exception.obj
 0001:000192c0       __CxxThrowException@8      1001a2c0 f   libvcruntime:throw.obj
 0001:00019370       __except_handler4          1001a370 f   libvcruntime:_chandler4_.obj
 0001:000194d6       ___vcrt_initialize         1001a4d6 f   libvcruntime:initialization.obj
 0001:000194ff       ___vcrt_thread_attach      1001a4ff f   libvcruntime:initialization.obj
 0001:0001950a       ___vcrt_thread_detach      1001a50a f   libvcruntime:initialization.obj
 0001:00019515       ___vcrt_uninitialize       1001a515 f   libvcruntime:initialization.obj
 0001:00019534       ___vcrt_uninitialize_critical 1001a534 f   libvcruntime:initialization.obj
 0001:0001953c       ___std_type_info_compare   1001a53c f   libvcruntime:std_type_info.obj
 0001:00019578       ___std_type_info_destroy_list 1001a578 f   libvcruntime:std_type_info.obj
 0001:000195a0       _memset                    1001a5a0 f   libvcruntime:memset.obj
 0001:000196fa       _unexpected                1001a6fa f   libvcruntime:unexpected.obj
 0001:00019716       ___vcrt_freefls@4          1001a716 f   libvcruntime:per_thread_data.obj
 0001:00019732       ___vcrt_freeptd            1001a732 f   libvcruntime:per_thread_data.obj
 0001:00019768       ___vcrt_getptd             1001a768 f   libvcruntime:per_thread_data.obj
 0001:00019776       ___vcrt_getptd_noexit      1001a776 f   libvcruntime:per_thread_data.obj
 0001:00019808       ___vcrt_initialize_ptd     1001a808 f   libvcruntime:per_thread_data.obj
 0001:0001983b       ___vcrt_uninitialize_ptd   1001a83b f   libvcruntime:per_thread_data.obj
 0001:00019860       __CallSettingFrame@12      1001a860 f   libvcruntime:lowhelpr.obj
 0001:00019887       __NLG_Return               1001a887     libvcruntime:lowhelpr.obj
 0001:000198ac       ?_CallCatchBlock2@@YAPAXPAUEHRegistrationNode@@PBU_s_FuncInfo@@PAXHK@Z 1001a8ac f   libvcruntime:trnsctrl.obj
 0001:0001990c       ?_CallSETranslator@@YAHPAUEHExceptionRecord@@PAUEHRegistrationNode@@PAX2PBU_s_FuncInfo@@H1@Z 1001a90c f   libvcruntime:trnsctrl.obj
 0001:000199e9       ?_GetRangeOfTrysToCheck@@YAPBU_s_TryBlockMapEntry@@PBU_s_FuncInfo@@HHPAI1@Z 1001a9e9 f   libvcruntime:trnsctrl.obj
 0001:00019a61       ?_JumpToContinuation@@YGXPAXPAUEHRegistrationNode@@@Z 1001aa61 f   libvcruntime:trnsctrl.obj
 0001:00019a93       ?_UnwindNestedFrames@@YGXPAUEHRegistrationNode@@PAUEHExceptionRecord@@@Z 1001aa93 f   libvcruntime:trnsctrl.obj
 0001:00019ae8       __CatchGuardHandler        1001aae8 f   libvcruntime:trnsctrl.obj
 0001:00019b19       __CreateFrameInfo          1001ab19 f   libvcruntime:trnsctrl.obj
 0001:00019b3d       __FindAndUnlinkFrame       1001ab3d f   libvcruntime:trnsctrl.obj
 0001:00019b87       __IsExceptionObjectToBeDestroyed 1001ab87 f   libvcruntime:trnsctrl.obj
 0001:00019bad       __TranslatorGuardHandler   1001abad f   libvcruntime:trnsctrl.obj
 0001:00019c4c       ___CxxFrameHandler3        1001ac4c f   libvcruntime:trnsctrl.obj
 0001:00019c82       ___vcrt_initialize_pure_virtual_call_handler 1001ac82 f   libvcruntime:purevirt_data.obj
 0001:00019ca0       __local_unwind4            1001aca0 f   libvcruntime:_exsup4_.obj
 0001:00019d76       __seh_longjmp_unwind4@4    1001ad76 f   libvcruntime:_exsup4_.obj
 0001:00019d9e       @_EH4_CallFilterFunc@8     1001ad9e f   libvcruntime:_exsup4_.obj
 0001:00019db5       @_EH4_TransferToHandler@8  1001adb5 f   libvcruntime:_exsup4_.obj
 0001:00019dce       @_EH4_GlobalUnwind2@8      1001adce f   libvcruntime:_exsup4_.obj
 0001:00019de7       @_EH4_LocalUnwind@16       1001ade7 f   libvcruntime:_exsup4_.obj
 0001:00019dfe       ___vcrt_initialize_locks   1001adfe f   libvcruntime:locks.obj
 0001:00019e3a       ___vcrt_uninitialize_locks 1001ae3a f   libvcruntime:locks.obj
 0001:00019f8a       ___vcrt_FlsAlloc           1001af8a f   libvcruntime:winapi_downlevel.obj
 0001:00019fc4       ___vcrt_FlsFree            1001afc4 f   libvcruntime:winapi_downlevel.obj
 0001:00019ffe       ___vcrt_FlsGetValue        1001affe f   libvcruntime:winapi_downlevel.obj
 0001:0001a038       ___vcrt_FlsSetValue        1001b038 f   libvcruntime:winapi_downlevel.obj
 0001:0001a075       ___vcrt_InitializeCriticalSectionEx 1001b075 f   libvcruntime:winapi_downlevel.obj
 0001:0001a0bb       ___vcrt_initialize_winapi_thunks 1001b0bb f   libvcruntime:winapi_downlevel.obj
 0001:0001a0f5       ___vcrt_uninitialize_winapi_thunks 1001b0f5 f   libvcruntime:winapi_downlevel.obj
 0001:0001a130       __global_unwind2           1001b130 f   libvcruntime:_exsup_.obj
 0001:0001a195       __local_unwind2            1001b195 f   libvcruntime:_exsup_.obj
 0001:0001a219       __abnormal_termination     1001b219 f   libvcruntime:_exsup_.obj
 0001:0001a23c       __NLG_Notify1              1001b23c f   libvcruntime:_exsup_.obj
 0001:0001a245       __NLG_Notify               1001b245 f   libvcruntime:_exsup_.obj
 0001:0001a25c       __NLG_Dispatch             1001b25c     libvcruntime:_exsup_.obj
 0001:0001a25c       __NLG_Dispatch2            1001b25c     libvcruntime:_exsup_.obj
 0001:0001a264       __NLG_Call                 1001b264 f   libvcruntime:_exsup_.obj
 0001:0001a266       __NLG_Return2              1001b266     libvcruntime:_exsup_.obj
 0001:0001a267       ___acrt_call_reportfault   1001b267 f   libucrt:invalid_parameter.obj
 0001:0001a3a2       ___acrt_initialize_invalid_parameter_handler 1001b3a2 f   libucrt:invalid_parameter.obj
 0001:0001a3b6       __invalid_parameter        1001b3b6 f   libucrt:invalid_parameter.obj
 0001:0001a431       __invalid_parameter_noinfo 1001b431 f   libucrt:invalid_parameter.obj
 0001:0001a441       __invalid_parameter_noinfo_noreturn 1001b441 f   libucrt:invalid_parameter.obj
 0001:0001a45e       __invoke_watson            1001b45e f   libucrt:invalid_parameter.obj
 0001:0001aaf5       ??$ftprintf@PAU_iobuf@@PB_WABQB_WABQB_WABI@?$__crt_char_traits@_W@@SAH$$QAPAU_iobuf@@$$QAPB_WABQB_W2ABI@Z 1001baf5 f i libucrt:assert.obj
 0001:0001abd4       __vfwprintf_l              1001bbd4 f i libucrt:assert.obj
 0001:0001abf9       __vswprintf_c_l            1001bbf9 f i libucrt:assert.obj
 0001:0001ac28       __wassert                  1001bc28 f   libucrt:assert.obj
 0001:0001ac70       _fwprintf                  1001bc70 f i libucrt:assert.obj
 0001:0001ad0c       _swprintf                  1001bd0c f i libucrt:assert.obj
 0001:0001ad2a       ??0_LocaleUpdate@@QAE@QAU__crt_locale_pointers@@@Z 1001bd2a f i libucrt:stricmp.obj
 0001:0001adad       ___ascii_stricmp           1001bdad f   libucrt:stricmp.obj
 0001:0001ade8       __stricmp                  1001bde8 f   libucrt:stricmp.obj
 0001:0001ae30       __stricmp_l                1001be30 f   libucrt:stricmp.obj
 0001:0001aeca       _realloc                   1001beca f   libucrt:realloc.obj
 0001:0001aed5       _free                      1001bed5 f   libucrt:free.obj
 0001:0001aeda       _malloc                    1001beda f   libucrt:malloc.obj
 0001:0001aee5       ??$?RV<lambda_ab9923ffb5d694ec0d78876dd103e44f>@@AAV<lambda_481dd5778c961fbcd3b60b650e9b9dc4>@@V<lambda_7923d86c9e3f319b415918ec4b39749c>@@@?$__crt_seh_guarded_call@H@@QAEH$$QAV<lambda_ab9923ffb5d694ec0d78876dd103e44f>@@AAV<lambda_481dd5778c961fbcd3b60b650e9b9dc4>@@$$QAV<lambda_7923d86c9e3f319b415918ec4b39749c>@@@Z 1001bee5 f i libucrt:output.obj
 0001:0001af36       ??$__acrt_lock_stream_and_call@V<lambda_481dd5778c961fbcd3b60b650e9b9dc4>@@@@YAHQAU_iobuf@@$$QAV<lambda_481dd5778c961fbcd3b60b650e9b9dc4>@@@Z 1001bf36 f i libucrt:output.obj
 0001:0001b25f       ??$count@D@formatting_buffer@__crt_stdio_output@@QBEIXZ 1001c25f f i libucrt:output.obj
 0001:0001b277       ??$ensure_buffer_is_big_enough@D@formatting_buffer@__crt_stdio_output@@QAE_NI@Z 1001c277 f i libucrt:output.obj
 0001:0001b2fd       ??$is_wide_character_specifier@D@__crt_stdio_output@@YA_N_KDW4length_modifier@0@@Z 1001c2fd f i libucrt:output.obj
 0001:0001b33d       ??$is_wide_character_specifier@_W@__crt_stdio_output@@YA_N_K_WW4length_modifier@0@@Z 1001c33d f i libucrt:output.obj
 0001:0001b38c       ??$scratch_data@D@formatting_buffer@__crt_stdio_output@@QAEPADXZ 1001c38c f i libucrt:output.obj
 0001:0001b3aa       ??$type_case_integer_parse_into_buffer@I@?$output_processor@_WV?$string_output_adapter@_W@__crt_stdio_output@@V?$standard_base@_WV?$string_output_adapter@_W@__crt_stdio_output@@@2@@__crt_stdio_output@@AAEXII_N@Z 1001c3aa f i libucrt:output.obj
 0001:0001b3aa       ??$type_case_integer_parse_into_buffer@I@?$output_processor@_WV?$stream_output_adapter@_W@__crt_stdio_output@@V?$standard_base@_WV?$stream_output_adapter@_W@__crt_stdio_output@@@2@@__crt_stdio_output@@AAEXII_N@Z 1001c3aa f i libucrt:output.obj
 0001:0001b3aa       ??$type_case_integer_parse_into_buffer@I@?$output_processor@DV?$string_output_adapter@D@__crt_stdio_output@@V?$standard_base@DV?$string_output_adapter@D@__crt_stdio_output@@@2@@__crt_stdio_output@@AAEXII_N@Z 1001c3aa f i libucrt:output.obj
 0001:0001b41f       ??$type_case_integer_parse_into_buffer@_K@?$output_processor@_WV?$string_output_adapter@_W@__crt_stdio_output@@V?$standard_base@_WV?$string_output_adapter@_W@__crt_stdio_output@@@2@@__crt_stdio_output@@AAEX_KI_N@Z 1001c41f f i libucrt:output.obj
 0001:0001b41f       ??$type_case_integer_parse_into_buffer@_K@?$output_processor@_WV?$stream_output_adapter@_W@__crt_stdio_output@@V?$standard_base@_WV?$stream_output_adapter@_W@__crt_stdio_output@@@2@@__crt_stdio_output@@AAEX_KI_N@Z 1001c41f f i libucrt:output.obj
 0001:0001b41f       ??$type_case_integer_parse_into_buffer@_K@?$output_processor@DV?$string_output_adapter@D@__crt_stdio_output@@V?$standard_base@DV?$string_output_adapter@D@__crt_stdio_output@@@2@@__crt_stdio_output@@AAEX_KI_N@Z 1001c41f f i libucrt:output.obj
 0001:0001b4a7       ??$write_multiple_characters@V?$stream_output_adapter@_W@__crt_stdio_output@@D@__crt_stdio_output@@YAXABV?$stream_output_adapter@_W@0@DHQAH@Z 1001c4a7 f i libucrt:output.obj
 0001:0001b4d8       ??$write_multiple_characters@V?$string_output_adapter@D@__crt_stdio_output@@D@__crt_stdio_output@@YAXABV?$string_output_adapter@D@0@DHQAH@Z 1001c4d8 f i libucrt:output.obj
 0001:0001b504       ??$write_multiple_characters@V?$string_output_adapter@_W@__crt_stdio_output@@D@__crt_stdio_output@@YAXABV?$string_output_adapter@_W@0@DHQAH@Z 1001c504 f i libucrt:output.obj
 0001:0001b535       ??0?$common_data@D@__crt_stdio_output@@IAE@XZ 1001c535 f i libucrt:output.obj
 0001:0001b57c       ??0?$common_data@_W@__crt_stdio_output@@IAE@XZ 1001c57c f i libucrt:output.obj
 0001:0001b5c8       ??0?$output_adapter_data@DV?$string_output_adapter@D@__crt_stdio_output@@@__crt_stdio_output@@IAE@ABV?$string_output_adapter@D@1@_KQBDQAU__crt_locale_pointers@@QAD@Z 1001c5c8 f i libucrt:output.obj
 0001:0001b604       ??0?$output_adapter_data@_WV?$stream_output_adapter@_W@__crt_stdio_output@@@__crt_stdio_output@@IAE@ABV?$stream_output_adapter@_W@1@_KQB_WQAU__crt_locale_pointers@@QAD@Z 1001c604 f i libucrt:output.obj
 0001:0001b604       ??0?$output_adapter_data@_WV?$string_output_adapter@_W@__crt_stdio_output@@@__crt_stdio_output@@IAE@ABV?$string_output_adapter@_W@1@_KQB_WQAU__crt_locale_pointers@@QAD@Z 1001c604 f i libucrt:output.obj
 0001:0001b640       ??0?$output_processor@DV?$string_output_adapter@D@__crt_stdio_output@@V?$standard_base@DV?$string_output_adapter@D@__crt_stdio_output@@@2@@__crt_stdio_output@@QAE@ABV?$string_output_adapter@D@1@_KQBDQAU__crt_locale_pointers@@QAD@Z 1001c640 f i libucrt:output.obj
 0001:0001b675       ??0?$output_processor@_WV?$string_output_adapter@_W@__crt_stdio_output@@V?$standard_base@_WV?$string_output_adapter@_W@__crt_stdio_output@@@2@@__crt_stdio_output@@QAE@ABV?$string_output_adapter@_W@1@_KQB_WQAU__crt_locale_pointers@@QAD@Z 1001c675 f i libucrt:output.obj
 0001:0001b675       ??0?$output_processor@_WV?$stream_output_adapter@_W@__crt_stdio_output@@V?$standard_base@_WV?$stream_output_adapter@_W@__crt_stdio_output@@@2@@__crt_stdio_output@@QAE@ABV?$stream_output_adapter@_W@1@_KQB_WQAU__crt_locale_pointers@@QAD@Z 1001c675 f i libucrt:output.obj
 0001:0001b6aa       ??1formatting_buffer@__crt_stdio_output@@QAE@XZ 1001c6aa f i libucrt:output.obj
 0001:0001b6c4       ??4?$__crt_unique_heap_ptr@DU__crt_internal_free_policy@@@@QAEAAV0@$$QAV0@@Z 1001c6c4 f i libucrt:output.obj
 0001:0001b7a5       ?crop_zeroes@__crt_stdio_output@@YAXPADQAU__crt_locale_pointers@@@Z 1001c7a5 f i libucrt:output.obj
 0001:0001b7fc       ?find_next_state@?$output_processor@DV?$string_output_adapter@D@__crt_stdio_output@@V?$standard_base@DV?$string_output_adapter@D@__crt_stdio_output@@@2@@__crt_stdio_output@@ABE?AW4state@2@DW432@@Z 1001c7fc f i libucrt:output.obj
 0001:0001b82e       ?find_next_state@?$output_processor@_WV?$stream_output_adapter@_W@__crt_stdio_output@@V?$standard_base@_WV?$stream_output_adapter@_W@__crt_stdio_output@@@2@@__crt_stdio_output@@ABE?AW4state@2@_WW432@@Z 1001c82e f i libucrt:output.obj
 0001:0001b82e       ?find_next_state@?$output_processor@_WV?$string_output_adapter@_W@__crt_stdio_output@@V?$standard_base@_WV?$string_output_adapter@_W@__crt_stdio_output@@@2@@__crt_stdio_output@@ABE?AW4state@2@_WW432@@Z 1001c82e f i libucrt:output.obj
 0001:0001b862       ?force_decimal_point@__crt_stdio_output@@YAXPADQAU__crt_locale_pointers@@@Z 1001c862 f i libucrt:output.obj
 0001:0001b8be       ?parse_int_from_format_string@?$output_processor@DV?$string_output_adapter@D@__crt_stdio_output@@V?$standard_base@DV?$string_output_adapter@D@__crt_stdio_output@@@2@@__crt_stdio_output@@AAE_NQAH@Z 1001c8be f i libucrt:output.obj
 0001:0001b91a       ?parse_int_from_format_string@?$output_processor@_WV?$stream_output_adapter@_W@__crt_stdio_output@@V?$standard_base@_WV?$stream_output_adapter@_W@__crt_stdio_output@@@2@@__crt_stdio_output@@AAE_NQAH@Z 1001c91a f i libucrt:output.obj
 0001:0001b91a       ?parse_int_from_format_string@?$output_processor@_WV?$string_output_adapter@_W@__crt_stdio_output@@V?$standard_base@_WV?$string_output_adapter@_W@__crt_stdio_output@@@2@@__crt_stdio_output@@AAE_NQAH@Z 1001c91a f i libucrt:output.obj
 0001:0001b978       ?process@?$output_processor@DV?$string_output_adapter@D@__crt_stdio_output@@V?$standard_base@DV?$string_output_adapter@D@__crt_stdio_output@@@2@@__crt_stdio_output@@QAEHXZ 1001c978 f i libucrt:output.obj
 0001:0001ba94       ?process@?$output_processor@_WV?$stream_output_adapter@_W@__crt_stdio_output@@V?$standard_base@_WV?$stream_output_adapter@_W@__crt_stdio_output@@@2@@__crt_stdio_output@@QAEHXZ 1001ca94 f i libucrt:output.obj
 0001:0001bbb4       ?process@?$output_processor@_WV?$string_output_adapter@_W@__crt_stdio_output@@V?$standard_base@_WV?$string_output_adapter@_W@__crt_stdio_output@@@2@@__crt_stdio_output@@QAEHXZ 1001cbb4 f i libucrt:output.obj
 0001:0001bcd4       ?state_case_flag@?$output_processor@DV?$string_output_adapter@D@__crt_stdio_output@@V?$standard_base@DV?$string_output_adapter@D@__crt_stdio_output@@@2@@__crt_stdio_output@@AAE_NXZ 1001ccd4 f i libucrt:output.obj
 0001:0001bd11       ?state_case_flag@?$output_processor@_WV?$string_output_adapter@_W@__crt_stdio_output@@V?$standard_base@_WV?$string_output_adapter@_W@__crt_stdio_output@@@2@@__crt_stdio_output@@AAE_NXZ 1001cd11 f i libucrt:output.obj
 0001:0001bd11       ?state_case_flag@?$output_processor@_WV?$stream_output_adapter@_W@__crt_stdio_output@@V?$standard_base@_WV?$stream_output_adapter@_W@__crt_stdio_output@@@2@@__crt_stdio_output@@AAE_NXZ 1001cd11 f i libucrt:output.obj
 0001:0001bd4e       ?state_case_normal@?$output_processor@DV?$string_output_adapter@D@__crt_stdio_output@@V?$standard_base@DV?$string_output_adapter@D@__crt_stdio_output@@@2@@__crt_stdio_output@@AAE_NXZ 1001cd4e f i libucrt:output.obj
 0001:0001bd6d       ?state_case_normal@?$output_processor@_WV?$stream_output_adapter@_W@__crt_stdio_output@@V?$standard_base@_WV?$stream_output_adapter@_W@__crt_stdio_output@@@2@@__crt_stdio_output@@AAE_NXZ 1001cd6d f i libucrt:output.obj
 0001:0001bd8c       ?state_case_normal@?$output_processor@_WV?$string_output_adapter@_W@__crt_stdio_output@@V?$standard_base@_WV?$string_output_adapter@_W@__crt_stdio_output@@@2@@__crt_stdio_output@@AAE_NXZ 1001cd8c f i libucrt:output.obj
 0001:0001bdab       ?state_case_normal_common@?$output_processor@DV?$string_output_adapter@D@__crt_stdio_output@@V?$standard_base@DV?$string_output_adapter@D@__crt_stdio_output@@@2@@__crt_stdio_output@@AAE_NXZ 1001cdab f i libucrt:output.obj
 0001:0001bdd5       ?state_case_normal_common@?$output_processor@_WV?$stream_output_adapter@_W@__crt_stdio_output@@V?$standard_base@_WV?$stream_output_adapter@_W@__crt_stdio_output@@@2@@__crt_stdio_output@@AAE_NXZ 1001cdd5 f i libucrt:output.obj
 0001:0001bdf0       ?state_case_normal_common@?$output_processor@_WV?$string_output_adapter@_W@__crt_stdio_output@@V?$standard_base@_WV?$string_output_adapter@_W@__crt_stdio_output@@@2@@__crt_stdio_output@@AAE_NXZ 1001cdf0 f i libucrt:output.obj
 0001:0001be0b       ?state_case_normal_tchar@?$output_processor@DV?$string_output_adapter@D@__crt_stdio_output@@V?$standard_base@DV?$string_output_adapter@D@__crt_stdio_output@@@2@@__crt_stdio_output@@AAE_ND@Z 1001ce0b f i libucrt:output.obj
 0001:0001be6c       ?state_case_precision@?$output_processor@DV?$string_output_adapter@D@__crt_stdio_output@@V?$standard_base@DV?$string_output_adapter@D@__crt_stdio_output@@@2@@__crt_stdio_output@@AAE_NXZ 1001ce6c f i libucrt:output.obj
 0001:0001be94       ?state_case_precision@?$output_processor@_WV?$stream_output_adapter@_W@__crt_stdio_output@@V?$standard_base@_WV?$stream_output_adapter@_W@__crt_stdio_output@@@2@@__crt_stdio_output@@AAE_NXZ 1001ce94 f i libucrt:output.obj
 0001:0001be94       ?state_case_precision@?$output_processor@_WV?$string_output_adapter@_W@__crt_stdio_output@@V?$standard_base@_WV?$string_output_adapter@_W@__crt_stdio_output@@@2@@__crt_stdio_output@@AAE_NXZ 1001ce94 f i libucrt:output.obj
 0001:0001bebd       ?state_case_size@?$output_processor@DV?$string_output_adapter@D@__crt_stdio_output@@V?$standard_base@DV?$string_output_adapter@D@__crt_stdio_output@@@2@@__crt_stdio_output@@AAE_NXZ 1001cebd f i libucrt:output.obj
 0001:0001c026       ?state_case_size@?$output_processor@_WV?$stream_output_adapter@_W@__crt_stdio_output@@V?$standard_base@_WV?$stream_output_adapter@_W@__crt_stdio_output@@@2@@__crt_stdio_output@@AAE_NXZ 1001d026 f i libucrt:output.obj
 0001:0001c1a2       ?state_case_size@?$output_processor@_WV?$string_output_adapter@_W@__crt_stdio_output@@V?$standard_base@_WV?$string_output_adapter@_W@__crt_stdio_output@@@2@@__crt_stdio_output@@AAE_NXZ 1001d1a2 f i libucrt:output.obj
 0001:0001c31e       ?state_case_type@?$output_processor@DV?$string_output_adapter@D@__crt_stdio_output@@V?$standard_base@DV?$string_output_adapter@D@__crt_stdio_output@@@2@@__crt_stdio_output@@AAE_NXZ 1001d31e f i libucrt:output.obj
 0001:0001c54d       ?state_case_type@?$output_processor@_WV?$stream_output_adapter@_W@__crt_stdio_output@@V?$standard_base@_WV?$stream_output_adapter@_W@__crt_stdio_output@@@2@@__crt_stdio_output@@AAE_NXZ 1001d54d f i libucrt:output.obj
 0001:0001c7aa       ?state_case_type@?$output_processor@_WV?$string_output_adapter@_W@__crt_stdio_output@@V?$standard_base@_WV?$string_output_adapter@_W@__crt_stdio_output@@@2@@__crt_stdio_output@@AAE_NXZ 1001d7aa f i libucrt:output.obj
 0001:0001ca07       ?state_case_width@?$output_processor@DV?$string_output_adapter@D@__crt_stdio_output@@V?$standard_base@DV?$string_output_adapter@D@__crt_stdio_output@@@2@@__crt_stdio_output@@AAE_NXZ 1001da07 f i libucrt:output.obj
 0001:0001ca32       ?state_case_width@?$output_processor@_WV?$stream_output_adapter@_W@__crt_stdio_output@@V?$standard_base@_WV?$stream_output_adapter@_W@__crt_stdio_output@@@2@@__crt_stdio_output@@AAE_NXZ 1001da32 f i libucrt:output.obj
 0001:0001ca32       ?state_case_width@?$output_processor@_WV?$string_output_adapter@_W@__crt_stdio_output@@V?$standard_base@_WV?$string_output_adapter@_W@__crt_stdio_output@@@2@@__crt_stdio_output@@AAE_NXZ 1001da32 f i libucrt:output.obj
 0001:0001ca5e       ?to_integer_size@__crt_stdio_output@@YAIW4length_modifier@1@@Z 1001da5e f i libucrt:output.obj
 0001:0001caba       ?type_case_Z@?$output_processor@DV?$string_output_adapter@D@__crt_stdio_output@@V?$standard_base@DV?$string_output_adapter@D@__crt_stdio_output@@@2@@__crt_stdio_output@@AAE_NXZ 1001daba f i libucrt:output.obj
 0001:0001cb1d       ?type_case_Z@?$output_processor@_WV?$stream_output_adapter@_W@__crt_stdio_output@@V?$standard_base@_WV?$stream_output_adapter@_W@__crt_stdio_output@@@2@@__crt_stdio_output@@AAE_NXZ 1001db1d f i libucrt:output.obj
 0001:0001cb1d       ?type_case_Z@?$output_processor@_WV?$string_output_adapter@_W@__crt_stdio_output@@V?$standard_base@_WV?$string_output_adapter@_W@__crt_stdio_output@@@2@@__crt_stdio_output@@AAE_NXZ 1001db1d f i libucrt:output.obj
 0001:0001cb80       ?type_case_a@?$output_processor@DV?$string_output_adapter@D@__crt_stdio_output@@V?$standard_base@DV?$string_output_adapter@D@__crt_stdio_output@@@2@@__crt_stdio_output@@AAE_NXZ 1001db80 f i libucrt:output.obj
 0001:0001ccda       ?type_case_a@?$output_processor@_WV?$stream_output_adapter@_W@__crt_stdio_output@@V?$standard_base@_WV?$stream_output_adapter@_W@__crt_stdio_output@@@2@@__crt_stdio_output@@AAE_NXZ 1001dcda f i libucrt:output.obj
 0001:0001ccda       ?type_case_a@?$output_processor@_WV?$string_output_adapter@_W@__crt_stdio_output@@V?$standard_base@_WV?$string_output_adapter@_W@__crt_stdio_output@@@2@@__crt_stdio_output@@AAE_NXZ 1001dcda f i libucrt:output.obj
 0001:0001ce4c       ?type_case_c_tchar@?$output_processor@DV?$string_output_adapter@D@__crt_stdio_output@@V?$standard_base@DV?$string_output_adapter@D@__crt_stdio_output@@@2@@__crt_stdio_output@@AAE_ND@Z 1001de4c f i libucrt:output.obj
 0001:0001cedc       ?type_case_c_tchar@?$output_processor@_WV?$stream_output_adapter@_W@__crt_stdio_output@@V?$standard_base@_WV?$stream_output_adapter@_W@__crt_stdio_output@@@2@@__crt_stdio_output@@AAE_N_W@Z 1001dedc f i libucrt:output.obj
 0001:0001cedc       ?type_case_c_tchar@?$output_processor@_WV?$string_output_adapter@_W@__crt_stdio_output@@V?$standard_base@_WV?$string_output_adapter@_W@__crt_stdio_output@@@2@@__crt_stdio_output@@AAE_N_W@Z 1001dedc f i libucrt:output.obj
 0001:0001cf74       ?type_case_integer@?$output_processor@_WV?$string_output_adapter@_W@__crt_stdio_output@@V?$standard_base@_WV?$string_output_adapter@_W@__crt_stdio_output@@@2@@__crt_stdio_output@@AAE_NI_N@Z 1001df74 f i libucrt:output.obj
 0001:0001cf74       ?type_case_integer@?$output_processor@_WV?$stream_output_adapter@_W@__crt_stdio_output@@V?$standard_base@_WV?$stream_output_adapter@_W@__crt_stdio_output@@@2@@__crt_stdio_output@@AAE_NI_N@Z 1001df74 f i libucrt:output.obj
 0001:0001cf74       ?type_case_integer@?$output_processor@DV?$string_output_adapter@D@__crt_stdio_output@@V?$standard_base@DV?$string_output_adapter@D@__crt_stdio_output@@@2@@__crt_stdio_output@@AAE_NI_N@Z 1001df74 f i libucrt:output.obj
 0001:0001d0be       ?type_case_n@?$output_processor@DV?$string_output_adapter@D@__crt_stdio_output@@V?$standard_base@DV?$string_output_adapter@D@__crt_stdio_output@@@2@@__crt_stdio_output@@AAE_NXZ 1001e0be f i libucrt:output.obj
 0001:0001d0be       ?type_case_n@?$output_processor@_WV?$stream_output_adapter@_W@__crt_stdio_output@@V?$standard_base@_WV?$stream_output_adapter@_W@__crt_stdio_output@@@2@@__crt_stdio_output@@AAE_NXZ 1001e0be f i libucrt:output.obj
 0001:0001d0be       ?type_case_n@?$output_processor@_WV?$string_output_adapter@_W@__crt_stdio_output@@V?$standard_base@_WV?$string_output_adapter@_W@__crt_stdio_output@@@2@@__crt_stdio_output@@AAE_NXZ 1001e0be f i libucrt:output.obj
 0001:0001d132       ?type_case_o@?$output_processor@_WV?$string_output_adapter@_W@__crt_stdio_output@@V?$standard_base@_WV?$string_output_adapter@_W@__crt_stdio_output@@@2@@__crt_stdio_output@@AAE_NXZ 1001e132 f i libucrt:output.obj
 0001:0001d132       ?type_case_o@?$output_processor@_WV?$stream_output_adapter@_W@__crt_stdio_output@@V?$standard_base@_WV?$stream_output_adapter@_W@__crt_stdio_output@@@2@@__crt_stdio_output@@AAE_NXZ 1001e132 f i libucrt:output.obj
 0001:0001d132       ?type_case_o@?$output_processor@DV?$string_output_adapter@D@__crt_stdio_output@@V?$standard_base@DV?$string_output_adapter@D@__crt_stdio_output@@@2@@__crt_stdio_output@@AAE_NXZ 1001e132 f i libucrt:output.obj
 0001:0001d151       ?type_case_p@?$output_processor@_WV?$string_output_adapter@_W@__crt_stdio_output@@V?$standard_base@_WV?$string_output_adapter@_W@__crt_stdio_output@@@2@@__crt_stdio_output@@AAE_NXZ 1001e151 f i libucrt:output.obj
 0001:0001d151       ?type_case_p@?$output_processor@_WV?$stream_output_adapter@_W@__crt_stdio_output@@V?$standard_base@_WV?$stream_output_adapter@_W@__crt_stdio_output@@@2@@__crt_stdio_output@@AAE_NXZ 1001e151 f i libucrt:output.obj
 0001:0001d151       ?type_case_p@?$output_processor@DV?$string_output_adapter@D@__crt_stdio_output@@V?$standard_base@DV?$string_output_adapter@D@__crt_stdio_output@@@2@@__crt_stdio_output@@AAE_NXZ 1001e151 f i libucrt:output.obj
 0001:0001d169       ?type_case_s@?$output_processor@DV?$string_output_adapter@D@__crt_stdio_output@@V?$standard_base@DV?$string_output_adapter@D@__crt_stdio_output@@@2@@__crt_stdio_output@@AAE_NXZ 1001e169 f i libucrt:output.obj
 0001:0001d1dc       ?type_case_s@?$output_processor@_WV?$stream_output_adapter@_W@__crt_stdio_output@@V?$standard_base@_WV?$stream_output_adapter@_W@__crt_stdio_output@@@2@@__crt_stdio_output@@AAE_NXZ 1001e1dc f i libucrt:output.obj
 0001:0001d1dc       ?type_case_s@?$output_processor@_WV?$string_output_adapter@_W@__crt_stdio_output@@V?$standard_base@_WV?$string_output_adapter@_W@__crt_stdio_output@@@2@@__crt_stdio_output@@AAE_NXZ 1001e1dc f i libucrt:output.obj
 0001:0001d250       ?type_case_s_compute_narrow_string_length@?$output_processor@_WV?$string_output_adapter@_W@__crt_stdio_output@@V?$standard_base@_WV?$string_output_adapter@_W@__crt_stdio_output@@@2@@__crt_stdio_output@@ABEHH_W@Z 1001e250 f i libucrt:output.obj
 0001:0001d250       ?type_case_s_compute_narrow_string_length@?$output_processor@_WV?$stream_output_adapter@_W@__crt_stdio_output@@V?$standard_base@_WV?$stream_output_adapter@_W@__crt_stdio_output@@@2@@__crt_stdio_output@@ABEHH_W@Z 1001e250 f i libucrt:output.obj
 0001:0001d290       ?write_character@?$stream_output_adapter@_W@__crt_stdio_output@@QBEX_WQAH@Z 1001e290 f i libucrt:output.obj
 0001:0001d2d0       ?write_character@?$string_output_adapter@D@__crt_stdio_output@@QBE_NDQAH@Z 1001e2d0 f i libucrt:output.obj
 0001:0001d312       ?write_character@?$string_output_adapter@_W@__crt_stdio_output@@QBE_N_WQAH@Z 1001e312 f i libucrt:output.obj
 0001:0001d357       ?write_stored_string_tchar@?$output_processor@DV?$string_output_adapter@D@__crt_stdio_output@@V?$standard_base@DV?$string_output_adapter@D@__crt_stdio_output@@@2@@__crt_stdio_output@@AAE_ND@Z 1001e357 f i libucrt:output.obj
 0001:0001d3fe       ?write_stored_string_tchar@?$output_processor@_WV?$stream_output_adapter@_W@__crt_stdio_output@@V?$standard_base@_WV?$stream_output_adapter@_W@__crt_stdio_output@@@2@@__crt_stdio_output@@AAE_N_W@Z 1001e3fe f i libucrt:output.obj
 0001:0001d489       ?write_stored_string_tchar@?$output_processor@_WV?$string_output_adapter@_W@__crt_stdio_output@@V?$standard_base@_WV?$string_output_adapter@_W@__crt_stdio_output@@@2@@__crt_stdio_output@@AAE_N_W@Z 1001e489 f i libucrt:output.obj
 0001:0001d514       ?write_string@?$stream_output_adapter@_W@__crt_stdio_output@@QBEXQB_WHQAH1@Z 1001e514 f i libucrt:output.obj
 0001:0001d5a1       ?write_string@?$string_output_adapter@D@__crt_stdio_output@@QBEXQBDHQAH1@Z 1001e5a1 f i libucrt:output.obj
 0001:0001d634       ?write_string@?$string_output_adapter@_W@__crt_stdio_output@@QBEXQB_WHQAH1@Z 1001e634 f i libucrt:output.obj
 0001:0001d6ce       ___stdio_common_vfwprintf  1001e6ce f   libucrt:output.obj
 0001:0001d745       ___stdio_common_vsprintf   1001e745 f   libucrt:output.obj
 0001:0001d769       ___stdio_common_vswprintf  1001e769 f   libucrt:output.obj
 0001:0001d78d       _calloc                    1001e78d f   libucrt:calloc.obj
 0001:0001d7a0       _strcmp                    1001e7a0 f   libucrt:strcmp.obj
 0001:0001d82c       ?initialize@?$dual_state_global@PAPAD@__crt_state_management@@QAEXQAPAD@Z 1001e82c f i libucrt:environment_initialization.obj
 0001:0001d82c       ?initialize@?$dual_state_global@P6AXPB_W00II@Z@__crt_state_management@@QAEXQ6AXPB_W00II@Z@Z 1001e82c f i libucrt:invalid_parameter.obj
 0001:0001d82c       ?initialize@?$dual_state_global@PAU__crt_locale_data@@@__crt_state_management@@QAEXQAU__crt_locale_data@@@Z 1001e82c f i libucrt:initialization.obj
 0001:0001d82c       ?initialize@?$dual_state_global@P6AXH@Z@__crt_state_management@@QAEXQ6AXH@Z@Z 1001e82c f i libucrt:signal.obj
 0001:0001d82c       ?initialize@?$dual_state_global@P6AHPAU_exception@@@Z@__crt_state_management@@QAEXQ6AHPAU_exception@@@Z@Z 1001e82c f i libucrt:matherr.obj
 0001:0001d82c       ?initialize@?$dual_state_global@P6AHI@Z@__crt_state_management@@QAEXQ6AHI@Z@Z 1001e82c f i libucrt:new_handler.obj
 0001:0001d85d       ___acrt_initialize_new_handler 1001e85d f   libucrt:new_handler.obj
 0001:0001d871       __callnewh                 1001e871 f   libucrt:new_handler.obj
 0001:0001d8b5       __query_new_handler        1001e8b5 f   libucrt:new_handler.obj
 0001:0001d907       __initterm                 1001e907 f   libucrt:initterm.obj
 0001:0001d963       __initterm_e               1001e963 f   libucrt:initterm.obj
 0001:0001d9a8       __seh_filter_dll           1001e9a8 f   libucrt:exception_filter.obj
 0001:0001d9c8       __seh_filter_exe           1001e9c8 f   libucrt:exception_filter.obj
 0001:0001dd56       ___acrt_initialize_thread_local_exit_callback 1001ed56 f   libucrt:exit.obj
 0001:0001dd65       __cexit                    1001ed65 f   libucrt:exit.obj
 0001:0001dd74       __exit                     1001ed74 f   libucrt:exit.obj
 0001:0001dd8a       __is_c_termination_complete 1001ed8a f   libucrt:exit.obj
 0001:0001e029       ___acrt_allocate_buffer_for_argv 1001f029 f   libucrt:argv_parsing.obj
 0001:0001e07e       __configure_narrow_argv    1001f07e f   libucrt:argv_parsing.obj
 0001:0001e1e2       ??$uninitialize@A6AXAAPAPA_W@Z@?$dual_state_global@PAPA_W@__crt_state_management@@QAEXA6AXAAPAPA_W@Z@Z 1001f1e2 f i libucrt:environment_initialization.obj
 0001:0001e1e2       ??$uninitialize@A6AXAAPAPAD@Z@?$dual_state_global@PAPAD@__crt_state_management@@QAEXA6AXAAPAPAD@Z@Z 1001f1e2 f i libucrt:environment_initialization.obj
 0001:0001e258       ___dcrt_uninitialize_environments_nolock 1001f258 f   libucrt:environment_initialization.obj
 0001:0001e28f       __initialize_narrow_environment 1001f28f f   libucrt:environment_initialization.obj
 0001:0001e294       ??$?RV<lambda_800076c951b434888f4765a74a194fcc>@@AAV<lambda_4e60a939b0d047cfe11ddc22648dfba9>@@V<lambda_6dbb1268764f43b569ce7b67e331d33a>@@@?$__crt_seh_guarded_call@H@@QAEH$$QAV<lambda_800076c951b434888f4765a74a194fcc>@@AAV<lambda_4e60a939b0d047cfe11ddc22648dfba9>@@$$QAV<lambda_6dbb1268764f43b569ce7b67e331d33a>@@@Z 1001f294 f i libucrt:onexit.obj
 0001:0001e2e5       ??$?RV<lambda_995298e7d72eb4c2aab26c0585b3abe5>@@AAV<lambda_275893d493268fdec8709772e3fcec0e>@@V<lambda_293819299cbf9a7022e18b56a874bb5c>@@@?$__crt_seh_guarded_call@H@@QAEH$$QAV<lambda_995298e7d72eb4c2aab26c0585b3abe5>@@AAV<lambda_275893d493268fdec8709772e3fcec0e>@@$$QAV<lambda_293819299cbf9a7022e18b56a874bb5c>@@@Z 1001f2e5 f i libucrt:onexit.obj
 0001:0001e336       ??$__acrt_lock_and_call@V<lambda_275893d493268fdec8709772e3fcec0e>@@@@YAHW4__acrt_lock_id@@$$QAV<lambda_275893d493268fdec8709772e3fcec0e>@@@Z 1001f336 f i libucrt:onexit.obj
 0001:0001e35e       ??$__acrt_lock_and_call@V<lambda_4e60a939b0d047cfe11ddc22648dfba9>@@@@YAHW4__acrt_lock_id@@$$QAV<lambda_4e60a939b0d047cfe11ddc22648dfba9>@@@Z 1001f35e f i libucrt:onexit.obj
 0001:0001e386       ??$__crt_fast_encode_pointer@P6AHXZ@@YAP6AHXZQ6AHXZ@Z 1001f386 f i libucrt:onexit.obj
 0001:0001e606       __crt_atexit               1001f606 f   libucrt:onexit.obj
 0001:0001e61c       __execute_onexit_table     1001f61c f   libucrt:onexit.obj
 0001:0001e639       __initialize_onexit_table  1001f639 f   libucrt:onexit.obj
 0001:0001e676       __register_onexit_function 1001f676 f   libucrt:onexit.obj
 0001:0001e78b       ___acrt_uninitialize_command_line 1001f78b f   libucrt:argv_data.obj
 0001:0001e78e       ___acrt_initialize         1001f78e f   libucrt:initialization.obj
 0001:0001e7a0       ___acrt_thread_attach      1001f7a0 f   libucrt:initialization.obj
 0001:0001e7ab       ___acrt_thread_detach      1001f7ab f   libucrt:initialization.obj
 0001:0001e7b3       ___acrt_uninitialize       1001f7b3 f   libucrt:initialization.obj
 0001:0001e7c5       ___acrt_uninitialize_critical 1001f7c5 f   libucrt:initialization.obj
 0001:0001e7d7       _terminate                 1001f7d7 f   libucrt:terminate.obj
 0001:0001e813       _abort                     1001f813 f   libucrt:abort.obj
 0001:0001e856       _strcpy_s                  1001f856 f   libucrt:strcpy_s.obj
 0001:0001e8b0       __free_base                1001f8b0 f   libucrt:free_base.obj
 0001:0001e8ea       __malloc_base              1001f8ea f   libucrt:malloc_base.obj
 0001:0001e938       __calloc_base              1001f938 f   libucrt:calloc_base.obj
 0001:0001e995       ??$is_overflow_condition@K@__crt_strtox@@YA_NIK@Z 1001f995 f i libucrt:atox.obj
 0001:0001e9c8       ??$parse_integer@KV?$c_string_character_source@D@__crt_strtox@@@__crt_strtox@@YAKQAU__crt_locale_pointers@@V?$c_string_character_source@D@0@H_N@Z 1001f9c8 f i libucrt:atox.obj
 0001:0001ebf0       ??$parse_integer@KV?$c_string_character_source@_W@__crt_strtox@@@__crt_strtox@@YAKQAU__crt_locale_pointers@@V?$c_string_character_source@_W@0@H_N@Z 1001fbf0 f i libucrt:atox.obj
 0001:0001f2d5       ?unget@?$c_string_character_source@D@__crt_strtox@@QAEXD@Z 100202d5 f i libucrt:atox.obj
 0001:0001f2fd       ?unget@?$c_string_character_source@_W@__crt_strtox@@QAEX_W@Z 100202fd f i libucrt:atox.obj
 0001:0001f329       ?validate@?$stream_output_adapter@_W@__crt_stdio_output@@QBE_NXZ 10020329 f i libucrt:output.obj
 0001:0001f329       ?validate@?$c_string_character_source@_W@__crt_strtox@@QBE_NXZ 10020329 f i libucrt:atox.obj
 0001:0001f329       ?validate@?$string_output_adapter@_W@__crt_stdio_output@@QBE_NXZ 10020329 f i libucrt:output.obj
 0001:0001f329       ?validate@?$c_string_character_source@D@__crt_strtox@@QBE_NXZ 10020329 f i libucrt:atox.obj
 0001:0001f329       ?validate@?$string_output_adapter@D@__crt_stdio_output@@QBE_NXZ 10020329 f i libucrt:output.obj
 0001:0001f344       __chvalidchk_l             10020344 f i libucrt:atox.obj
 0001:0001f36e       __ischartype_l             1002036e f i libucrt:atox.obj
 0001:0001f3a1       ??$?RV<lambda_3518db117f0e7cdb002338c5d3c47b6c>@@AAV<lambda_b2ea41f6bbb362cd97d94c6828d90b61>@@V<lambda_abdedf541bb04549bc734292b4a045d4>@@@?$__crt_seh_guarded_call@X@@QAEX$$QAV<lambda_3518db117f0e7cdb002338c5d3c47b6c>@@AAV<lambda_b2ea41f6bbb362cd97d94c6828d90b61>@@$$QAV<lambda_abdedf541bb04549bc734292b4a045d4>@@@Z 100203a1 f i libucrt:per_thread_data.obj
 0001:0001f3f1       ??$?RV<lambda_51b6e8b1eb166f2a3faf91f424b38130>@@AAV<lambda_6250bd4b2a391816dd638c3bf72b0bcb>@@V<lambda_0b5a4a3e68152e1d9b943535f5f47bed>@@@?$__crt_seh_guarded_call@X@@QAEX$$QAV<lambda_51b6e8b1eb166f2a3faf91f424b38130>@@AAV<lambda_6250bd4b2a391816dd638c3bf72b0bcb>@@$$QAV<lambda_0b5a4a3e68152e1d9b943535f5f47bed>@@@Z 100203f1 f i libucrt:per_thread_data.obj
 0001:0001f452       ??$?RV<lambda_5b71d36f03204c0beab531769a5b5694>@@AAV<lambda_be2b3da3f62db62e9dad5dc70221a656>@@V<lambda_8f9ce462984622f9bf76b59e2aaaf805>@@@?$__crt_seh_guarded_call@X@@QAEX$$QAV<lambda_5b71d36f03204c0beab531769a5b5694>@@AAV<lambda_be2b3da3f62db62e9dad5dc70221a656>@@$$QAV<lambda_8f9ce462984622f9bf76b59e2aaaf805>@@@Z 10020452 f i libucrt:per_thread_data.obj
 0001:0001f49d       ??$?RV<lambda_9df27f884b057bc3edfc946cb5b7cf47>@@AAV<lambda_e69574bed617af4e071282c136b37893>@@V<lambda_cc0d902bcbbeb830f749456577db4721>@@@?$__crt_seh_guarded_call@X@@QAEX$$QAV<lambda_9df27f884b057bc3edfc946cb5b7cf47>@@AAV<lambda_e69574bed617af4e071282c136b37893>@@$$QAV<lambda_cc0d902bcbbeb830f749456577db4721>@@@Z 1002049d f i libucrt:per_thread_data.obj
 0001:0001f4e5       ??$__acrt_lock_and_call@V<lambda_6250bd4b2a391816dd638c3bf72b0bcb>@@@@YAXW4__acrt_lock_id@@$$QAV<lambda_6250bd4b2a391816dd638c3bf72b0bcb>@@@Z 100204e5 f i libucrt:per_thread_data.obj
 0001:0001f50d       ??$__acrt_lock_and_call@V<lambda_b2ea41f6bbb362cd97d94c6828d90b61>@@@@YAXW4__acrt_lock_id@@$$QAV<lambda_b2ea41f6bbb362cd97d94c6828d90b61>@@@Z 1002050d f i libucrt:per_thread_data.obj
 0001:0001f535       ??$__acrt_lock_and_call@V<lambda_be2b3da3f62db62e9dad5dc70221a656>@@@@YAXW4__acrt_lock_id@@$$QAV<lambda_be2b3da3f62db62e9dad5dc70221a656>@@@Z 10020535 f i libucrt:per_thread_data.obj
 0001:0001f55d       ??$__acrt_lock_and_call@V<lambda_e69574bed617af4e071282c136b37893>@@@@YAXW4__acrt_lock_id@@$$QAV<lambda_e69574bed617af4e071282c136b37893>@@@Z 1002055d f i libucrt:per_thread_data.obj
 0001:0001f713       ___acrt_freeptd            10020713 f   libucrt:per_thread_data.obj
 0001:0001f73f       ___acrt_getptd             1002073f f   libucrt:per_thread_data.obj
 0001:0001f7c3       ___acrt_getptd_noexit      100207c3 f   libucrt:per_thread_data.obj
 0001:0001f848       ___acrt_initialize_ptd     10020848 f   libucrt:per_thread_data.obj
 0001:0001f874       ___acrt_uninitialize_ptd   10020874 f   libucrt:per_thread_data.obj
 0001:0001f88e       __query_app_type           1002088e f   libucrt:report_runtime_error.obj
 0001:0001f894       ___acrt_errno_from_os_error 10020894 f   libucrt:errno.obj
 0001:0001f8d7       ___acrt_errno_map_os_error 100208d7 f   libucrt:errno.obj
 0001:0001f8fa       ___doserrno                100208fa f   libucrt:errno.obj
 0001:0001f90d       __errno                    1002090d f   libucrt:errno.obj
 0001:0001fa0d       __itow_s                   10020a0d f   libucrt:xtoa.obj
 0001:0001fa42       __set_error_mode           10020a42 f   libucrt:set_error_mode.obj
 0001:0001fa81       _wcscat_s                  10020a81 f   libucrt:wcscat_s.obj
 0001:0001faf6       _wcscpy_s                  10020af6 f   libucrt:wcscpy_s.obj
 0001:0001fc43       _wcsncat_s                 10020c43 f   libucrt:wcsncat_s.obj
 0001:0001fd49       ___acrt_show_wide_message_box 10020d49 f   libucrt:crtmbox.obj
 0001:0001fd54       ___acrt_initialize_stdio   10020d54 f   libucrt:_file.obj
 0001:0001fe1c       ___acrt_iob_func           10020e1c f   libucrt:_file.obj
 0001:0001fe2c       ___acrt_uninitialize_stdio 10020e2c f   libucrt:_file.obj
 0001:0001fe78       __lock_file                10020e78 f   libucrt:_file.obj
 0001:0001fe8c       __unlock_file              10020e8c f   libucrt:_file.obj
 0001:0001fea0       ___acrt_stdio_flush_nolock 10020ea0 f   libucrt:fflush.obj
 0001:0001ff06       __fflush_nolock            10020f06 f   libucrt:fflush.obj
 0001:0001ff4d       __flushall                 10020f4d f   libucrt:fflush.obj
 0001:0002002e       _fflush                    1002102e f   libucrt:fflush.obj
 0001:00020087       ??$?RV<lambda_d92cfe8357b99225085016881b624cb0>@@AAV<lambda_b721fa326cdb32351d23dfa67958c160>@@V<lambda_42d75b0848218ec137fa420c8ba9fdf9>@@@?$__crt_seh_guarded_call@H@@QAEH$$QAV<lambda_d92cfe8357b99225085016881b624cb0>@@AAV<lambda_b721fa326cdb32351d23dfa67958c160>@@$$QAV<lambda_42d75b0848218ec137fa420c8ba9fdf9>@@@Z 10021087 f i libucrt:setvbuf.obj
 0001:000200d8       ??$__acrt_lock_stream_and_call@V<lambda_b721fa326cdb32351d23dfa67958c160>@@@@YAHQAU_iobuf@@$$QAV<lambda_b721fa326cdb32351d23dfa67958c160>@@@Z 100210d8 f i libucrt:setvbuf.obj
 0001:000201cd       _setvbuf                   100211cd f   libucrt:setvbuf.obj
 0001:00020243       ??$?RV<lambda_a048d3beccc847880fc8490e18b82769>@@AAV<lambda_ec61778202f4f5fc7e7711acc23c3bca>@@V<lambda_f7496a158712204296dd6628a163878e>@@@?$__crt_seh_guarded_call@P6AXH@Z@@QAEP6AXH@Z$$QAV<lambda_a048d3beccc847880fc8490e18b82769>@@AAV<lambda_ec61778202f4f5fc7e7711acc23c3bca>@@$$QAV<lambda_f7496a158712204296dd6628a163878e>@@@Z 10021243 f i libucrt:signal.obj
 0001:0002029d       ??$__acrt_lock_and_call@V<lambda_ec61778202f4f5fc7e7711acc23c3bca>@@@@YAP6AXH@ZW4__acrt_lock_id@@$$QAV<lambda_ec61778202f4f5fc7e7711acc23c3bca>@@@Z 1002129d f i libucrt:signal.obj
 0001:0002032f       ___acrt_get_sigabrt_handler 1002132f f   libucrt:signal.obj
 0001:00020346       ___acrt_initialize_signal_handlers 10021346 f   libucrt:signal.obj
 0001:00020381       ___fpecode                 10021381 f   libucrt:signal.obj
 0001:0002038a       _raise                     1002138a f   libucrt:signal.obj
 0001:000206f9       __tolower_l                100216f9 f   libucrt:tolower_toupper.obj
 0001:00020713       _tolower                   10021713 f   libucrt:tolower_toupper.obj
 0001:00020743       ___acrt_update_locale_info 10021743 f   libucrt:locale_update.obj
 0001:00020770       ___acrt_update_multibyte_info 10021770 f   libucrt:locale_update.obj
 0001:0002079d       ___acrt_set_locale_changed 1002179d f   libucrt:wsetlocale.obj
 0001:000207a8       ___acrt_uninitialize_locale 100217a8 f   libucrt:wsetlocale.obj
 0001:000207fa       __realloc_base             100217fa f   libucrt:realloc_base.obj
 0001:00020863       __isdigit_l                10021863 f i libucrt:_ctype.obj
 0001:0002089b       _isdigit                   1002189b f i libucrt:_ctype.obj
 0001:000208c8       ??$make_c_string_character_source@DPAPAD@__crt_strtox@@YA?AV?$c_string_character_source@D@0@QBDQAPAD@Z 100218c8 f i libucrt:strtox.obj
 0001:000208c8       ??$make_c_string_character_source@_WPAPA_W@__crt_strtox@@YA?AV?$c_string_character_source@_W@0@QB_WQAPA_W@Z 100218c8 f i libucrt:strtox.obj
 0001:000208e3       _strtol                    100218e3 f   libucrt:strtox.obj
 0001:0002090f       _wcstol                    1002190f f   libucrt:strtox.obj
 0001:0002093b       __mbtowc_l                 1002193b f   libucrt:mbtowc.obj
 0001:00020a35       _mbtowc                    10021a35 f   libucrt:mbtowc.obj
 0001:00020a4f       __wctomb_s_l               10021a4f f   libucrt:wctomb.obj
 0001:00020b70       _wctomb_s                  10021b70 f   libucrt:wctomb.obj
 0001:00020b8d       _strnlen                   10021b8d f   libucrt:strnlen.obj
 0001:00020cb4       _wcsnlen                   10021cb4 f   libucrt:strnlen.obj
 0001:00020e6b       ?__acrt_fp_classify@@YA?AW4__acrt_fp_class@@ABN@Z 10021e6b f i libucrt:cvt.obj
 0001:00020ed7       ?__acrt_fp_is_negative@@YA_NABN@Z 10021ed7 f i libucrt:cvt.obj
 0001:00021736       ___acrt_fp_format          10022736 f   libucrt:cvt.obj
 0001:000218b2       __fputwc_nolock            100228b2 f   libucrt:fputwc.obj
 0001:000219d8       __fileno                   100229d8 f   libucrt:fileno.obj
 0001:000219fe       __fputc_nolock             100229fe f   libucrt:fputc.obj
 0001:00021a27       __get_printf_count_output  10022a27 f   libucrt:printf_count_output.obj
 0001:00021a3c       ___acrt_stdio_begin_temporary_buffering_nolock 10022a3c f   libucrt:_sftbuf.obj
 0001:00021af1       ___acrt_stdio_end_temporary_buffering_nolock 10022af1 f   libucrt:_sftbuf.obj
 0001:00021c96       ___acrt_initialize_lowio   10022c96 f   libucrt:ioinit.obj
 0001:00021cec       ___acrt_uninitialize_lowio 10022cec f   libucrt:ioinit.obj
 0001:00021d18       ___acrt_initialize_locks   10022d18 f   libucrt:locks.obj
 0001:00021d59       ___acrt_lock               10022d59 f   libucrt:locks.obj
 0001:00021d70       ___acrt_uninitialize_locks 10022d70 f   libucrt:locks.obj
 0001:00021da1       ___acrt_unlock             10022da1 f   libucrt:locks.obj
 0001:00021f03       ___acrt_FlsAlloc@4         10022f03 f   libucrt:winapi_thunks.obj
 0001:00021f59       ___acrt_FlsFree@4          10022f59 f   libucrt:winapi_thunks.obj
 0001:00021faf       ___acrt_FlsGetValue@4      10022faf f   libucrt:winapi_thunks.obj
 0001:00022005       ___acrt_FlsSetValue@8      10023005 f   libucrt:winapi_thunks.obj
 0001:0002205e       ___acrt_InitializeCriticalSectionEx@12 1002305e f   libucrt:winapi_thunks.obj
 0001:000220c0       ___acrt_LCMapStringEx@36   100230c0 f   libucrt:winapi_thunks.obj
 0001:00022148       ___acrt_LocaleNameToLCID@8 10023148 f   libucrt:winapi_thunks.obj
 0001:000221a4       ___acrt_MessageBoxW@16     100231a4 f   libucrt:winapi_thunks.obj
 0001:000221ed       ___acrt_can_show_message_box 100231ed f   libucrt:winapi_thunks.obj
 0001:00022206       ___acrt_get_parent_window  10023206 f   libucrt:winapi_thunks.obj
 0001:00022285       ___acrt_initialize_winapi_thunks 10023285 f   libucrt:winapi_thunks.obj
 0001:000222ab       ___acrt_is_interactive     100232ab f   libucrt:winapi_thunks.obj
 0001:00022351       ___acrt_is_packaged_app    10023351 f   libucrt:winapi_thunks.obj
 0001:000223d8       ___acrt_uninitialize_winapi_thunks 100233d8 f   libucrt:winapi_thunks.obj
 0001:000227d0       ??1?$argument_list@D@?A0xb0e4b824@@QAE@XZ 100237d0 f i libucrt:argv_wildcards.obj
 0001:000227f5       ?append@?$argument_list@D@?A0xb0e4b824@@QAEHQAD@Z 100237f5 f i libucrt:argv_wildcards.obj
 0001:0002282a       ?expand_if_necessary@?$argument_list@D@?A0xb0e4b824@@AAEHXZ 1002382a f i libucrt:argv_wildcards.obj
 0001:000228b1       ___acrt_expand_narrow_argv_wildcards 100238b1 f   libucrt:argv_wildcards.obj
 0001:000228bc       ??$?RV<lambda_978dc153c237d78434369da87b74ff60>@@AAV<lambda_ad1ced32f4ac17aa236e5ef05d6b3b7c>@@V<lambda_4a8533e2866a575feecb8298ce776b0d>@@@?$__crt_seh_guarded_call@X@@QAEX$$QAV<lambda_978dc153c237d78434369da87b74ff60>@@AAV<lambda_ad1ced32f4ac17aa236e5ef05d6b3b7c>@@$$QAV<lambda_4a8533e2866a575feecb8298ce776b0d>@@@Z 100238bc f i libucrt:mbctype.obj
 0001:000228ff       ??$__acrt_lock_and_call@V<lambda_ad1ced32f4ac17aa236e5ef05d6b3b7c>@@@@YAXW4__acrt_lock_id@@$$QAV<lambda_ad1ced32f4ac17aa236e5ef05d6b3b7c>@@@Z 100238ff f i libucrt:mbctype.obj
 0001:00022d96       ___acrt_initialize_multibyte 10023d96 f   libucrt:mbctype.obj
 0001:00022db4       ___acrt_update_thread_multibyte_data 10023db4 f   libucrt:mbctype.obj
 0001:00022e56       __setmbcp_nolock           10023e56 f   libucrt:mbctype.obj
 0001:000230a0       __ismbblead                100240a0 f   libucrt:ismbbyte.obj
 0001:000230b8       ___acrt_initialize_command_line 100240b8 f   libucrt:argv_data.obj
 0001:00023108       ___dcrt_get_narrow_environment_from_os 10024108 f   libucrt:get_environment_from_os.obj
 0001:0002318b       __recalloc                 1002418b f   libucrt:recalloc.obj
 0001:00023196       __recalloc_base            10024196 f   libucrt:recalloc.obj
 0001:00023203       ___acrt_initialize_heap    10024203 f   libucrt:heap_handle.obj
 0001:00023214       ___acrt_uninitialize_heap  10024214 f   libucrt:heap_handle.obj
 0001:0002321e       ___acrt_execute_initializers 1002421e f   libucrt:shared_initialization.obj
 0001:000232a1       ___acrt_execute_uninitializers 100242a1 f   libucrt:shared_initialization.obj
 0001:000232ee       ___acrt_has_user_matherr   100242ee f   libucrt:matherr.obj
 0001:00023307       ___acrt_initialize_user_matherr 10024307 f   libucrt:matherr.obj
 0001:0002331b       ___acrt_invoke_user_matherr 1002431b f   libucrt:matherr.obj
 0001:00023364       __query_new_mode           10024364 f   libucrt:new_mode.obj
 0001:0002336a       ___pctype_func             1002436a f   libucrt:ctype.obj
 0001:00023390       _iswctype                  10024390 f   libucrt:iswctype.obj
 0001:000233ef       __isctype_l                100243ef f   libucrt:isctype.obj
 0001:000234c1       ___acrt_add_locale_ref     100244c1 f   libucrt:locale_refcounting.obj
 0001:0002353e       ___acrt_free_locale        1002453e f   libucrt:locale_refcounting.obj
 0001:00023688       ___acrt_locale_add_lc_time_reference 10024688 f   libucrt:locale_refcounting.obj
 0001:000236b1       ___acrt_locale_free_lc_time_if_unreferenced 100246b1 f   libucrt:locale_refcounting.obj
 0001:000236e1       ___acrt_locale_release_lc_time_reference 100246e1 f   libucrt:locale_refcounting.obj
 0001:0002370a       ___acrt_release_locale_ref 1002470a f   libucrt:locale_refcounting.obj
 0001:0002378b       ___acrt_update_thread_locale_data 1002478b f   libucrt:locale_refcounting.obj
 0001:00023802       __updatetlocinfoEx_nolock  10024802 f   libucrt:locale_refcounting.obj
 0001:00023852       __fcloseall                10024852 f   libucrt:closeall.obj
 0001:000238f2       ___acrt_stdio_free_buffer_nolock 100248f2 f   libucrt:_freebuf.obj
 0001:00023930       ??$?RV<lambda_61cee617f5178ae960314fd4d05640a0>@@AAV<lambda_6978c1fb23f02e42e1d9e99668cc68aa>@@V<lambda_9cd88cf8ad10232537feb2133f08c833>@@@?$__crt_seh_guarded_call@H@@QAEH$$QAV<lambda_61cee617f5178ae960314fd4d05640a0>@@AAV<lambda_6978c1fb23f02e42e1d9e99668cc68aa>@@$$QAV<lambda_9cd88cf8ad10232537feb2133f08c833>@@@Z 10024930 f i libucrt:commit.obj
 0001:000239c8       ??$__acrt_lowio_lock_fh_and_call@V<lambda_6978c1fb23f02e42e1d9e99668cc68aa>@@@@YAHH$$QAV<lambda_6978c1fb23f02e42e1d9e99668cc68aa>@@@Z 100249c8 f i libucrt:commit.obj
 0001:000239f0       __commit                   100249f0 f   libucrt:commit.obj
 0001:00023fef       __write                    10024fef f   libucrt:write.obj
 0001:000240da       __write_nolock             100250da f   libucrt:write.obj
 0001:000242e6       __isleadbyte_l             100252e6 f i libucrt:_wctype.obj
 0001:0002453c       ___acrt_LCMapStringA       1002553c f   libucrt:lcmapstringa.obj
 0001:00024587       __freea_crt                10025587 f i libucrt:lcmapstringa.obj
 0001:000245a7       ___acrt_locale_free_monetary 100255a7 f   libucrt:initmon.obj
 0001:000246a5       ___acrt_locale_free_numeric 100256a5 f   libucrt:initnum.obj
 0001:0002474a       ___acrt_locale_free_time   1002574a f   libucrt:inittime.obj
 0001:0002482e       ___acrt_GetStringTypeA     1002582e f   libucrt:getstringtypea.obj
 0001:0002494b       ___acrt_fp_strflt_to_string 1002594b f   libucrt:_fptostr.obj
 0001:00024a07       ??0scoped_fp_state_reset@?A0x48fbfdd4@@QAE@XZ 10025a07 f i libucrt:cfout.obj
 0001:00024a40       ?divide@__crt_strtox@@YA_KAAUbig_integer@1@ABU21@@Z 10025a40 f i libucrt:cfout.obj
 0001:00024eee       ___acrt_fltout             10025eee f   libucrt:cfout.obj
 0001:00026650       ___acrt_stdio_flush_and_write_narrow_nolock 10027650 f   libucrt:_flsbuf.obj
 0001:0002665b       ___acrt_stdio_flush_and_write_wide_nolock 1002765b f   libucrt:_flsbuf.obj
 0001:00026666       __isatty                   10027666 f   libucrt:isatty.obj
 0001:000266bc       ___acrt_lowio_create_handle_array 100276bc f   libucrt:osfinfo.obj
 0001:00026736       ___acrt_lowio_destroy_handle_array 10027736 f   libucrt:osfinfo.obj
 0001:0002676b       ___acrt_lowio_ensure_fh_exists 1002776b f   libucrt:osfinfo.obj
 0001:00026803       ___acrt_lowio_lock_fh      10027803 f   libucrt:osfinfo.obj
 0001:00026826       ___acrt_lowio_unlock_fh    10027826 f   libucrt:osfinfo.obj
 0001:00026849       __free_osfhnd              10027849 f   libucrt:osfinfo.obj
 0001:000268da       __get_osfhandle            100278da f   libucrt:osfinfo.obj
 0001:00026a00       ___acrt_DownlevelLocaleNameToLCID 10027a00 f   libucrt:lcidtoname_downlevel.obj
 0001:00026b10       _qsort                     10027b10 f   libucrt:qsort.obj
 0001:00026f5b       _strncpy_s                 10027f5b f   libucrt:strncpy_s.obj
 0001:00026f70       _strpbrk                   10027f70 f   libucrt:strpbrk.obj
 0001:00026fb0       __mbsdec                   10027fb0 f   libucrt:mbsdec.obj
 0001:00026fc7       __mbsdec_l                 10027fc7 f   libucrt:mbsdec.obj
 0001:00027063       __msize                    10028063 f   libucrt:msize.obj
 0001:00027096       __fclose_nolock            10028096 f   libucrt:fclose.obj
 0001:0002710c       _fclose                    1002810c f   libucrt:fclose.obj
 0001:0002730f       __lseeki64                 1002830f f   libucrt:lseek.obj
 0001:0002732a       __lseeki64_nolock          1002832a f   libucrt:lseek.obj
 0001:00027345       __putwch_nolock            10028345 f   libucrt:putwch.obj
 0001:0002738a       ___strncnt                 1002838a f   libucrt:strncnt.obj
 0001:000273a6       _fegetenv                  100283a6 f   libucrt:fegetenv.obj
 0001:000273c3       _fesetenv                  100283c3 f   libucrt:fesetenv.obj
 0001:0002740c       _feholdexcept              1002840c f   libucrt:feholdexcept.obj
 0001:00027460       _log10                     10028460 f   libucrt:log10.obj
 0001:000274a0       __CIlog10                  100284a0 f   libucrt:log10.obj
 0001:000274db       __CIlog10_default          100284db f   libucrt:log10.obj
 0001:000274ef       __log10_default            100284ef     libucrt:log10.obj
 0001:000275b0       _ceil                      100285b0 f   libucrt:ceil_pentium4.obj
 0001:000275f0       __ceil_pentium4            100285f0 f   libucrt:ceil_pentium4.obj
 0001:000276cd       ___acrt_stdio_allocate_buffer_nolock 100286cd f   libucrt:_getbuf.obj
 0001:0002772a       ??$?RV<lambda_123407a5e2ac06da108355a851863b7a>@@AAV<lambda_2fe9b910cf3cbf4a0ab98a02ba45b3ec>@@V<lambda_ae55bdf541ad94d75914d381c370e64d>@@@?$__crt_seh_guarded_call@H@@QAEH$$QAV<lambda_123407a5e2ac06da108355a851863b7a>@@AAV<lambda_2fe9b910cf3cbf4a0ab98a02ba45b3ec>@@$$QAV<lambda_ae55bdf541ad94d75914d381c370e64d>@@@Z 1002872a f i libucrt:close.obj
 0001:000277ac       ??$__acrt_lowio_lock_fh_and_call@V<lambda_2fe9b910cf3cbf4a0ab98a02ba45b3ec>@@@@YAHH$$QAV<lambda_2fe9b910cf3cbf4a0ab98a02ba45b3ec>@@@Z 100287ac f i libucrt:close.obj
 0001:000277d4       __close                    100287d4 f   libucrt:close.obj
 0001:00027853       __close_nolock             10028853 f   libucrt:close.obj
 0001:000278ef       ?__acrt_stdio_free_stream@@YAXV__crt_stdio_stream@@@Z 100288ef f   libucrt:stream.obj
 0001:0002792a       ___dcrt_lowio_initialize_console_output 1002892a f   libucrt:initcon.obj
 0001:00027949       ___dcrt_terminate_console_output 10028949 f   libucrt:initcon.obj
 0001:00027c03       __getfpcontrolword         10028c03 f   libucrt:_fenvutils.obj
 0001:00027c46       __getfpstatusword          10028c46 f   libucrt:_fenvutils.obj
 0001:00027cee       __setfpcontrolword         10028cee f   libucrt:_fenvutils.obj
 0001:00027d6e       __setfpstatusword          10028d6e f   libucrt:_fenvutils.obj
 0001:00027dee       __clearfp                  10028dee f   libucrt:ieee87.obj
 0001:00027ecc       ___acrt_initialize_sse2    10028ecc f   libucrt:mathfcns.obj
 0001:00027ee0       __CIlog10_pentium4         10028ee0 f   libucrt:log10_pentium4.obj
 0001:00027ef8       __log10_pentium4           10028ef8     libucrt:log10_pentium4.obj
 0001:00028181       __fFEXP                    10029181     libucrt:87tran.obj
 0001:000281d8       __rtinfpopse               100291d8     libucrt:87tran.obj
 0001:000281da       __rtinfnpopse              100291da     libucrt:87tran.obj
 0001:000281ea       __fFLN                     100291ea     libucrt:87tran.obj
 0001:0002829f       __rtinfpop                 1002929f     libucrt:87tran.obj
 0001:000282a1       __rtinfnpop                100292a1     libucrt:87tran.obj
 0001:000282be       __ffexpm1                  100292be     libucrt:87tran.obj
 0001:00028370       __trandisp1                10029370 f   libucrt:87disp.obj
 0001:000283d7       __trandisp2                100293d7 f   libucrt:87disp.obj
 0001:00028463       __rttospopde               10029463     libucrt:87disp.obj
 0001:00028468       __rttospop                 10029468     libucrt:87disp.obj
 0001:0002846a       __rtnospop                 1002946a     libucrt:87disp.obj
 0001:0002846c       __rttosnpop                1002946c     libucrt:87disp.obj
 0001:0002846d       __rtnospopde               1002946d     libucrt:87disp.obj
 0001:00028474       __rtzeropop                10029474     libucrt:87disp.obj
 0001:00028476       __rtzeronpop               10029476     libucrt:87disp.obj
 0001:0002847b       __rtzerospop               1002947b     libucrt:87disp.obj
 0001:00028488       __rtonepop                 10029488     libucrt:87disp.obj
 0001:0002848a       __rtonenpop                1002948a     libucrt:87disp.obj
 0001:0002848f       __tosnan1                  1002948f     libucrt:87disp.obj
 0001:000284ba       __nosnan2                  100294ba     libucrt:87disp.obj
 0001:000284bc       __tosnan2                  100294bc     libucrt:87disp.obj
 0001:000284e4       __nan2                     100294e4     libucrt:87disp.obj
 0001:00028523       __rtindfpop                10029523     libucrt:87disp.obj
 0001:00028525       __rtindfnpop               10029525     libucrt:87disp.obj
 0001:00028536       __rttosnpopde              10029536     libucrt:87disp.obj
 0001:00028540       __rtatan2inf               10029540     libucrt:87disp.obj
 0001:0002855d       __rtchsifneg               1002955d     libucrt:87disp.obj
 0001:00028570       __twoToTOS                 10029570 f   libucrt:common.obj
 0001:00028585       __load_CW                  10029585 f   libucrt:common.obj
 0001:0002859c       __convertTOStoQNaN         1002959c f   libucrt:common.obj
 0001:000285b5       __fload_withFB             100295b5 f   libucrt:common.obj
 0001:000285f8       __checkTOS_withFB          100295f8 f   libucrt:common.obj
 0001:0002860e       __fast_exit                1002960e f   libucrt:common.obj
 0001:0002861b       __math_exit                1002961b f   libucrt:common.obj
 0001:00028645       __check_overflow_exit      10029645 f   libucrt:common.obj
 0001:00028659       __check_range_exit         10029659 f   libucrt:common.obj
 0001:00028700       __startTwoArgErrorHandling 10029700 f   libucrt:genexcep.obj
 0001:00028717       __startOneArgErrorHandling 10029717 f   libucrt:genexcep.obj
 0001:00028753       ___libm_error_support      10029753 f   libucrt:libm_error.obj
 0001:0002896b       __ceil_default             1002996b f   libucrt:ceil.obj
 0001:00028a30       ___ascii_strnicmp          10029a30 f   libucrt:_strnicm.obj
 0001:00028a91       __clrfp                    10029a91 f   libucrt:fpctrl.obj
 0001:00028aa4       __ctrlfp                   10029aa4 f   libucrt:fpctrl.obj
 0001:00028ad0       __set_statfp               10029ad0 f   libucrt:fpctrl.obj
 0001:00028b2b       __statfp                   10029b2b f   libucrt:fpctrl.obj
 0001:00028b3d       __d_inttype                10029b3d f   libucrt:powhlp.obj
 0001:00028ba7       __powhlp                   10029ba7 f   libucrt:powhlp.obj
 0001:00028cd2       __87except                 10029cd2 f   libucrt:87except.obj
 0001:00028ddd       __frnd                     10029ddd f   libucrt:frnd.obj
 0001:00028df3       __errcode                  10029df3 f   libucrt:fpexcept.obj
 0001:00028e27       __except1                  10029e27 f   libucrt:fpexcept.obj
 0001:00028ef5       __handle_exc               10029ef5 f   libucrt:fpexcept.obj
 0001:000290d5       __raise_exc                1002a0d5 f   libucrt:fpexcept.obj
 0001:000290f8       __raise_exc_ex             1002a0f8 f   libucrt:fpexcept.obj
 0001:000293e9       __set_errno_from_matherr   1002a3e9 f   libucrt:fpexcept.obj
 0001:00029418       __umatherr                 1002a418 f   libucrt:fpexcept.obj
 0001:000294ba       __decomp                   1002a4ba f   libucrt:util.obj
 0001:0002958e       __set_exp                  1002a58e f   libucrt:util.obj
 0001:000295bd       __sptype                   1002a5bd f   libucrt:util.obj
 0001:0002961b       __fpclass                  1002a61b f   libucrt:ieeemisc.obj
 0001:000296c0       _IsProcessorFeaturePresent@4 1002a6c0 f   kernel32:KERNEL32.dll
 0001:000296c6       _RtlUnwind@16              1002a6c6 f   kernel32:KERNEL32.dll
 0001:000296cc       ?DloadAcquireSectionWriteAccess@@YGXXZ 1002a6cc f i DelayImp:delayhlp.obj
 0001:000296ff       ?DloadGetSRWLockFunctionPointers@@YGEXZ 1002a6ff f i DelayImp:delayhlp.obj
 0001:0002977a       ?DloadLock@@YGXXZ          1002a77a f i DelayImp:delayhlp.obj
 0001:000297d7       ?DloadMakePermanentImageCommit@@YGXPAXK@Z 1002a7d7 f i DelayImp:delayhlp.obj
 0001:00029849       ?DloadObtainSection@@YGPAXPAK0@Z 1002a849 f i DelayImp:delayhlp.obj
 0001:000298cc       ?DloadProtectSection@@YGXKPAK@Z 1002a8cc f i DelayImp:delayhlp.obj
 0001:0002993c       ?DloadReleaseSectionWriteAccess@@YGXXZ 1002a93c f i DelayImp:delayhlp.obj
 0001:00029974       ?DloadUnlock@@YGXXZ        1002a974 f i DelayImp:delayhlp.obj
 0001:000299be       ___delayLoadHelper2@8      1002a9be f   DelayImp:delayhlp.obj
 0001:00029c43       __EH_prolog3_catch         1002ac43 f   LIBCMT:ehprolg3.obj
 0001:00029c80       __FindPESection            1002ac80 f   LIBCMT:pesect.obj
 0001:00029cd0       __IsNonwritableInCurrentImage 1002acd0 f   LIBCMT:pesect.obj
 0001:00029d90       __ValidateImageBase        1002ad90 f   LIBCMT:pesect.obj
 0001:00029dd0       __aulldvrm                 1002add0 f   LIBCMT:ulldvrm.obj
 0001:00029e70       __SEH_prolog4_GS           1002ae70 f   LIBCMT:_sehprolg4gs_.obj
 0001:00029eb9       __SEH_epilog4_GS           1002aeb9 f   LIBCMT:_sehprolg4gs_.obj
 0001:00029ed0       __allmul                   1002aed0 f   LIBCMT:llmul.obj
 0001:00029f10       __alldvrm                  1002af10 f   LIBCMT:lldvrm.obj
 0001:00029ff0       __aullshr                  1002aff0 f   LIBCMT:ullshr.obj
 0001:0002a010       __chkstk                   1002b010 f   LIBCMT:chkstk.obj
 0001:0002a010       __alloca_probe             1002b010 f   LIBCMT:chkstk.obj
 0001:0002a040       __alloca_probe_16          1002b040 f   LIBCMT:alloca16.obj
 0001:0002a056       __alloca_probe_8           1002b056     LIBCMT:alloca16.obj
 0001:0002a070       __allshl                   1002b070 f   LIBCMT:llshl.obj
 0001:0002a090       __ftol2_sse                1002b090 f   LIBCMT:_ftol2_.obj
 0001:0002a099       __ftol2_pentium4           1002b099 f   LIBCMT:_ftol2_.obj
 0001:0002a0ac       __ftol2_sse_excpt          1002b0ac f   LIBCMT:_ftol2_.obj
 0001:0002a0d0       __ftol2                    1002b0d0 f   LIBCMT:_ftol2_.obj
 0001:0002a150       _memcpy                    1002b150 f   libvcruntime:memcpy.obj
 0001:0002a6d0       _strrchr                   1002b6d0 f   libvcruntime:strrchr.obj
 0001:0002a810       _strchr                    1002b810 f   libvcruntime:strchr.obj
 0001:0002a87e       ___from_strstr_to_strchr   1002b87e     libvcruntime:strchr.obj
 0002:00000000       __imp__GetModuleHandleA@4  1002c000     kernel32:KERNEL32.dll
 0002:00000004       __imp__UnhandledExceptionFilter@4 1002c004     kernel32:KERNEL32.dll
 0002:00000008       __imp__SetUnhandledExceptionFilter@4 1002c008     kernel32:KERNEL32.dll
 0002:0000000c       __imp__GetCurrentProcess@0 1002c00c     kernel32:KERNEL32.dll
 0002:00000010       __imp__TerminateProcess@8  1002c010     kernel32:KERNEL32.dll
 0002:00000014       __imp__IsProcessorFeaturePresent@4 1002c014     kernel32:KERNEL32.dll
 0002:00000018       __imp__QueryPerformanceCounter@4 1002c018     kernel32:KERNEL32.dll
 0002:0000001c       __imp__GetCurrentProcessId@0 1002c01c     kernel32:KERNEL32.dll
 0002:00000020       __imp__GetCurrentThreadId@0 1002c020     kernel32:KERNEL32.dll
 0002:00000024       __imp__GetSystemTimeAsFileTime@4 1002c024     kernel32:KERNEL32.dll
 0002:00000028       __imp__InitializeSListHead@4 1002c028     kernel32:KERNEL32.dll
 0002:0000002c       __imp__IsDebuggerPresent@0 1002c02c     kernel32:KERNEL32.dll
 0002:00000030       __imp__GetStartupInfoW@4   1002c030     kernel32:KERNEL32.dll
 0002:00000034       __imp__GetModuleHandleW@4  1002c034     kernel32:KERNEL32.dll
 0002:00000038       __imp__EncodePointer@4     1002c038     kernel32:KERNEL32.dll
 0002:0000003c       __imp__RaiseException@16   1002c03c     kernel32:KERNEL32.dll
 0002:00000040       __imp__InterlockedFlushSList@4 1002c040     kernel32:KERNEL32.dll
 0002:00000044       __imp__GetLastError@0      1002c044     kernel32:KERNEL32.dll
 0002:00000048       __imp__SetLastError@4      1002c048     kernel32:KERNEL32.dll
 0002:0000004c       __imp__RtlUnwind@16        1002c04c     kernel32:KERNEL32.dll
 0002:00000050       __imp__EnterCriticalSection@4 1002c050     kernel32:KERNEL32.dll
 0002:00000054       __imp__LeaveCriticalSection@4 1002c054     kernel32:KERNEL32.dll
 0002:00000058       __imp__DeleteCriticalSection@4 1002c058     kernel32:KERNEL32.dll
 0002:0000005c       __imp__InitializeCriticalSectionAndSpinCount@8 1002c05c     kernel32:KERNEL32.dll
 0002:00000060       __imp__TlsAlloc@0          1002c060     kernel32:KERNEL32.dll
 0002:00000064       __imp__TlsGetValue@4       1002c064     kernel32:KERNEL32.dll
 0002:00000068       __imp__TlsSetValue@8       1002c068     kernel32:KERNEL32.dll
 0002:0000006c       __imp__TlsFree@4           1002c06c     kernel32:KERNEL32.dll
 0002:00000070       __imp__FreeLibrary@4       1002c070     kernel32:KERNEL32.dll
 0002:00000074       __imp__GetProcAddress@8    1002c074     kernel32:KERNEL32.dll
 0002:00000078       __imp__LoadLibraryExW@12   1002c078     kernel32:KERNEL32.dll
 0002:0000007c       __imp__GetStdHandle@4      1002c07c     kernel32:KERNEL32.dll
 0002:00000080       __imp__GetFileType@4       1002c080     kernel32:KERNEL32.dll
 0002:00000084       __imp__GetModuleFileNameA@12 1002c084     kernel32:KERNEL32.dll
 0002:00000088       __imp__GetModuleFileNameW@12 1002c088     kernel32:KERNEL32.dll
 0002:0000008c       __imp__GetModuleHandleExW@12 1002c08c     kernel32:KERNEL32.dll
 0002:00000090       __imp__WriteConsoleW@20    1002c090     kernel32:KERNEL32.dll
 0002:00000094       __imp__ExitProcess@4       1002c094     kernel32:KERNEL32.dll
 0002:00000098       __imp__MultiByteToWideChar@24 1002c098     kernel32:KERNEL32.dll
 0002:0000009c       __imp__WideCharToMultiByte@32 1002c09c     kernel32:KERNEL32.dll
 0002:000000a0       __imp__HeapFree@12         1002c0a0     kernel32:KERNEL32.dll
 0002:000000a4       __imp__HeapAlloc@12        1002c0a4     kernel32:KERNEL32.dll
 0002:000000a8       __imp__WriteFile@20        1002c0a8     kernel32:KERNEL32.dll
 0002:000000ac       __imp__OutputDebugStringW@4 1002c0ac     kernel32:KERNEL32.dll
 0002:000000b0       __imp__CloseHandle@4       1002c0b0     kernel32:KERNEL32.dll
 0002:000000b4       __imp__WaitForSingleObjectEx@12 1002c0b4     kernel32:KERNEL32.dll
 0002:000000b8       __imp__CreateThread@24     1002c0b8     kernel32:KERNEL32.dll
 0002:000000bc       __imp__GetACP@0            1002c0bc     kernel32:KERNEL32.dll
 0002:000000c0       __imp__HeapReAlloc@16      1002c0c0     kernel32:KERNEL32.dll
 0002:000000c4       __imp__LCMapStringW@24     1002c0c4     kernel32:KERNEL32.dll
 0002:000000c8       __imp__FindClose@4         1002c0c8     kernel32:KERNEL32.dll
 0002:000000cc       __imp__FindFirstFileExA@24 1002c0cc     kernel32:KERNEL32.dll
 0002:000000d0       __imp__FindNextFileA@8     1002c0d0     kernel32:KERNEL32.dll
 0002:000000d4       __imp__IsValidCodePage@4   1002c0d4     kernel32:KERNEL32.dll
 0002:000000d8       __imp__GetOEMCP@0          1002c0d8     kernel32:KERNEL32.dll
 0002:000000dc       __imp__GetCPInfo@8         1002c0dc     kernel32:KERNEL32.dll
 0002:000000e0       __imp__GetCommandLineA@0   1002c0e0     kernel32:KERNEL32.dll
 0002:000000e4       __imp__GetCommandLineW@0   1002c0e4     kernel32:KERNEL32.dll
 0002:000000e8       __imp__GetEnvironmentStringsW@0 1002c0e8     kernel32:KERNEL32.dll
 0002:000000ec       __imp__FreeEnvironmentStringsW@4 1002c0ec     kernel32:KERNEL32.dll
 0002:000000f0       __imp__GetProcessHeap@0    1002c0f0     kernel32:KERNEL32.dll
 0002:000000f4       __imp__GetStringTypeW@16   1002c0f4     kernel32:KERNEL32.dll
 0002:000000f8       __imp__FlushFileBuffers@4  1002c0f8     kernel32:KERNEL32.dll
 0002:000000fc       __imp__GetConsoleCP@0      1002c0fc     kernel32:KERNEL32.dll
 0002:00000100       __imp__GetConsoleMode@8    1002c100     kernel32:KERNEL32.dll
 0002:00000104       __imp__SetStdHandle@8      1002c104     kernel32:KERNEL32.dll
 0002:00000108       __imp__HeapSize@12         1002c108     kernel32:KERNEL32.dll
 0002:0000010c       __imp__SetFilePointerEx@20 1002c10c     kernel32:KERNEL32.dll
 0002:00000110       __imp__CreateFileW@28      1002c110     kernel32:KERNEL32.dll
 0002:00000114       __imp__DecodePointer@4     1002c114     kernel32:KERNEL32.dll
 0002:00000118       __imp__GetSystemInfo@4     1002c118     kernel32:KERNEL32.dll
 0002:0000011c       __imp__VirtualProtect@16   1002c11c     kernel32:KERNEL32.dll
 0002:00000120       __imp__VirtualQuery@12     1002c120     kernel32:KERNEL32.dll
 0002:00000124       __imp__LoadLibraryExA@12   1002c124     kernel32:KERNEL32.dll
 0002:00000128       \177KERNEL32_NULL_THUNK_DATA 1002c128     kernel32:KERNEL32.dll
 0002:0000012c       ___guard_check_icall_fptr  1002c12c     LIBCMT:guard_support.obj
 0002:00000130       ___xc_a                    1002c130     LIBCMT:initializers.obj
 0002:00000134       __register_onig_scanner_   1002c134     onig-scanner.obj
 0002:00000138       ___xc_z                    1002c138     LIBCMT:initializers.obj
 0002:0000013c       ___xi_a                    1002c13c     LIBCMT:initializers.obj
 0002:00000140       ___acrt_stdio_initializer  1002c140     libucrt:stdio_initializer.obj
 0002:00000144       ___acrt_multibyte_initializer 1002c144     libucrt:multibyte_initializer.obj
 0002:00000148       ___acrt_tran_sse2_initializer 1002c148     libucrt:sse2_initializer.obj
 0002:0000014c       ___xi_z                    1002c14c     LIBCMT:initializers.obj
 0002:00000150       ___xp_a                    1002c150     LIBCMT:initializers.obj
 0002:00000154       ___acrt_locale_terminator  1002c154     libucrt:locale_initializer.obj
 0002:00000158       ___dcrt_console_output_terminator 1002c158     libucrt:console_output_initializer.obj
 0002:0000015c       ___acrt_stdio_terminator   1002c15c     libucrt:stdio_initializer.obj
 0002:00000160       ___xp_z                    1002c160     LIBCMT:initializers.obj
 0002:00000164       ___xt_a                    1002c164     LIBCMT:initializers.obj
 0002:00000168       ___xt_z                    1002c168     LIBCMT:initializers.obj
 0002:00000170       __sz_node_exe              1002c170     node:node.exe
 0002:00000180       ??_7exception@std@@6B@     1002c180     libcpmt:xthrow.obj
 0002:00000188       ??_C@_0BC@EOODALEL@Unknown?5exception?$AA@ 1002c188     libcpmt:xthrow.obj
 0002:000001a0       ??_7bad_alloc@std@@6B@     1002c1a0     libcpmt:xthrow.obj
 0002:000001a8       ??_C@_0P@GHFPNOJB@bad?5allocation?$AA@ 1002c1a8     libcpmt:xthrow.obj
 0002:000001bc       ??_7logic_error@std@@6B@   1002c1bc     libcpmt:xthrow.obj
 0002:000001c8       ??_7length_error@std@@6B@  1002c1c8     libcpmt:xthrow.obj
 0002:000001d4       ??_7out_of_range@std@@6B@  1002c1d4     libcpmt:xthrow.obj
 0002:000001dc       __pDefaultRawDllMain       1002c1dc     LIBCMT:dll_dllmain.obj
 0002:000001dc       __pRawDllMain              1002c1dc     LIBCMT:dll_dllmain.obj
 0002:000001ec       ??_7type_info@@6B@         1002c1ec     LIBCMT:std_type_info_static.obj
 0002:000001f4       ??_7bad_array_new_length@std@@6B@ 1002c1f4     LIBCMT:throw_bad_alloc.obj
 0002:000001fc       ??_C@_0BF@KINCDENJ@bad?5array?5new?5length?$AA@ 1002c1fc     LIBCMT:throw_bad_alloc.obj
 0002:00000214       __pDestructExceptionObject 1002c214     libvcruntime:frame.obj
 0002:0000021c       ??_7bad_exception@std@@6B@ 1002c21c     libvcruntime:frame.obj
 0002:00000224       ??_C@_0O@DPKOEFFH@bad?5exception?$AA@ 1002c224     libvcruntime:frame.obj
 0002:00000264       ??_C@_1BC@DNHGCMLG@?$AAa?$AAd?$AAv?$AAa?$AAp?$AAi?$AA3?$AA2?$AA?$AA@ 1002c264     libvcruntime:winapi_downlevel.obj
 0002:00000278       ??_C@_1DM@KHCHBNEB@?$AAa?$AAp?$AAi?$AA?9?$AAm?$AAs?$AA?9?$AAw?$AAi?$AAn?$AA?9?$AAc?$AAo?$AAr?$AAe?$AA?9?$AAf?$AAi?$AAb?$AAe?$AAr?$AAs?$AA?9?$AAl?$AA1?$AA?9?$AA1?$AA?9?$AA1?$AA?$AA@ 1002c278     libvcruntime:winapi_downlevel.obj
 0002:000002b4       ??_C@_1DK@LPPGFMPP@?$AAa?$AAp?$AAi?$AA?9?$AAm?$AAs?$AA?9?$AAw?$AAi?$AAn?$AA?9?$AAc?$AAo?$AAr?$AAe?$AA?9?$AAs?$AAy?$AAn?$AAc?$AAh?$AA?9?$AAl?$AA1?$AA?9?$AA2?$AA?9?$AA0?$AA?$AA@ 1002c2b4     libvcruntime:winapi_downlevel.obj
 0002:000002f0       ??_C@_1BC@GDMECMAK@?$AAk?$AAe?$AAr?$AAn?$AAe?$AAl?$AA3?$AA2?$AA?$AA@ 1002c2f0     libvcruntime:winapi_downlevel.obj
 0002:0000030c       ??_C@_08KNHFBNJ@FlsAlloc?$AA@ 1002c30c     libvcruntime:winapi_downlevel.obj
 0002:00000320       ??_C@_07PEJMOBNF@FlsFree?$AA@ 1002c320     libvcruntime:winapi_downlevel.obj
 0002:00000330       ??_C@_0M@GDNOONDI@FlsGetValue?$AA@ 1002c330     libvcruntime:winapi_downlevel.obj
 0002:00000344       ??_C@_0M@JCPCPOEF@FlsSetValue?$AA@ 1002c344     libvcruntime:winapi_downlevel.obj
 0002:00000358       ??_C@_0BM@HCFOFFN@InitializeCriticalSectionEx?$AA@ 1002c358     libvcruntime:winapi_downlevel.obj
 0002:00000508       ??_C@_08EHJDFFNH@__based?$CI?$AA@ 1002c508     libvcruntime:undname.obj
 0002:00000514       ??_C@_07KOLFKCDI@__cdecl?$AA@ 1002c514     libvcruntime:undname.obj
 0002:0000051c       ??_C@_08GHMPAG@__pascal?$AA@ 1002c51c     libvcruntime:undname.obj
 0002:00000528       ??_C@_09IFJBGAPI@__stdcall?$AA@ 1002c528     libvcruntime:undname.obj
 0002:00000534       ??_C@_0L@NPHFGOKO@__thiscall?$AA@ 1002c534     libvcruntime:undname.obj
 0002:00000540       ??_C@_0L@JMKHOMEK@__fastcall?$AA@ 1002c540     libvcruntime:undname.obj
 0002:0000054c       ??_C@_0N@BCKKPABJ@__vectorcall?$AA@ 1002c54c     libvcruntime:undname.obj
 0002:0000055c       ??_C@_09HIJEGCPM@__clrcall?$AA@ 1002c55c     libvcruntime:undname.obj
 0002:00000568       ??_C@_06GHPCKEAG@__eabi?$AA@ 1002c568     libvcruntime:undname.obj
 0002:00000570       ??_C@_07JOMMBBKO@__ptr64?$AA@ 1002c570     libvcruntime:undname.obj
 0002:00000578       ??_C@_0L@PILCLIHE@__restrict?$AA@ 1002c578     libvcruntime:undname.obj
 0002:00000584       ??_C@_0M@GFIIJFMG@__unaligned?$AA@ 1002c584     libvcruntime:undname.obj
 0002:00000590       ??_C@_09DHDLOLLB@restrict?$CI?$AA@ 1002c590     libvcruntime:undname.obj
 0002:0000059c       ??_C@_04NIHEBCM@?5new?$AA@ 1002c59c     libvcruntime:undname.obj
 0002:000005a4       ??_C@_07FPCDHGMM@?5delete?$AA@ 1002c5a4     libvcruntime:undname.obj
 0002:000005ac       ??_C@_01NEMOKFLO@?$DN?$AA@ 1002c5ac     libvcruntime:undname.obj
 0002:000005b0       ??_C@_02GPIOPFAK@?$DO?$DO?$AA@ 1002c5b0     libvcruntime:undname.obj
 0002:000005b4       ??_C@_02FODMEDOG@?$DM?$DM?$AA@ 1002c5b4     libvcruntime:undname.obj
 0002:000005b8       ??_C@_01DCLJPIOD@?$CB?$AA@ 1002c5b8     libvcruntime:undname.obj
 0002:000005bc       ??_C@_02EGOFBIJA@?$DN?$DN?$AA@ 1002c5bc     libvcruntime:undname.obj
 0002:000005c0       ??_C@_02FDNJECIE@?$CB?$DN?$AA@ 1002c5c0     libvcruntime:undname.obj
 0002:000005c4       ??_C@_02GPECMEKF@?$FL?$FN?$AA@ 1002c5c4     libvcruntime:undname.obj
 0002:000005c8       ??_C@_08LHJFAFGD@operator?$AA@ 1002c5c8     libvcruntime:undname.obj
 0002:000005d4       ??_C@_02HBOOOICD@?9?$DO?$AA@ 1002c5d4     libvcruntime:undname.obj
 0002:000005d8       ??_C@_02ECNGHCIF@?$CL?$CL?$AA@ 1002c5d8     libvcruntime:undname.obj
 0002:000005dc       ??_C@_02BAABKJLB@?9?9?$AA@ 1002c5dc     libvcruntime:undname.obj
 0002:000005e0       ??_C@_01HNPIGOCE@?$CG?$AA@ 1002c5e0     libvcruntime:undname.obj
 0002:000005e4       ??_C@_03MNHNFDLC@?9?$DO?$CK?$AA@ 1002c5e4     libvcruntime:undname.obj
 0002:000005e8       ??_C@_01KMDKNFGN@?1?$AA@   1002c5e8     libvcruntime:undname.obj
 0002:000005ec       ??_C@_01FGNFDNOH@?$CF?$AA@ 1002c5ec     libvcruntime:undname.obj
 0002:000005f0       ??_C@_01MNNFJEPP@?$DM?$AA@ 1002c5f0     libvcruntime:undname.obj
 0002:000005f4       ??_C@_02EHCHHCKH@?$DM?$DN?$AA@ 1002c5f4     libvcruntime:undname.obj
 0002:000005f8       ??_C@_01PPODPGHN@?$DO?$AA@ 1002c5f8     libvcruntime:undname.obj
 0002:000005fc       ??_C@_02EEKDKGMJ@?$DO?$DN?$AA@ 1002c5fc     libvcruntime:undname.obj
 0002:00000600       ??_C@_01IHBHIGKO@?0?$AA@   1002c600     libvcruntime:undname.obj
 0002:00000604       ??_C@_02HCKGKOFO@?$CI?$CJ?$AA@ 1002c604     libvcruntime:undname.obj
 0002:00000608       ??_C@_01PJKLJHI@?$HO?$AA@  1002c608     libvcruntime:undname.obj
 0002:0000060c       ??_C@_01JKBOJNNK@?$FO?$AA@ 1002c60c     libvcruntime:undname.obj
 0002:00000610       ??_C@_01DNKMNLPK@?$HM?$AA@ 1002c610     libvcruntime:undname.obj
 0002:00000614       ??_C@_02PPKAJPJL@?$CG?$CG?$AA@ 1002c614     libvcruntime:undname.obj
 0002:00000618       ??_C@_02NONPIBCD@?$HM?$HM?$AA@ 1002c618     libvcruntime:undname.obj
 0002:0000061c       ??_C@_02FPIMKNGF@?$CK?$DN?$AA@ 1002c61c     libvcruntime:undname.obj
 0002:00000620       ??_C@_02FOEOMHFC@?$CL?$DN?$AA@ 1002c620     libvcruntime:undname.obj
 0002:00000624       ??_C@_02FKMDLLOA@?9?$DN?$AA@ 1002c624     libvcruntime:undname.obj
 0002:00000628       ??_C@_02FJEHGPIO@?1?$DN?$AA@ 1002c628     libvcruntime:undname.obj
 0002:0000062c       ??_C@_02FENAOKFI@?$CF?$DN?$AA@ 1002c62c     libvcruntime:undname.obj
 0002:00000630       ??_C@_03IKFCCPFF@?$DO?$DO?$DN?$AA@ 1002c630     libvcruntime:undname.obj
 0002:00000634       ??_C@_03CDNPDDLA@?$DM?$DM?$DN?$AA@ 1002c634     libvcruntime:undname.obj
 0002:00000638       ??_C@_02FGJGFEAB@?$CG?$DN?$AA@ 1002c638     libvcruntime:undname.obj
 0002:0000063c       ??_C@_02DHLNPPGH@?$HM?$DN?$AA@ 1002c63c     libvcruntime:undname.obj
 0002:00000640       ??_C@_02MHEGNOJ@?$FO?$DN?$AA@ 1002c640     libvcruntime:undname.obj
 0002:00000644       ??_C@_09IFPLHPGF@?$GAvftable?8?$AA@ 1002c644     libvcruntime:undname.obj
 0002:00000650       ??_C@_09BLBHBJP@?$GAvbtable?8?$AA@ 1002c650     libvcruntime:undname.obj
 0002:0000065c       ??_C@_07FEEIOKP@?$GAvcall?8?$AA@ 1002c65c     libvcruntime:undname.obj
 0002:00000664       ??_C@_08LLFFHHDJ@?$GAtypeof?8?$AA@ 1002c664     libvcruntime:undname.obj
 0002:00000670       ??_C@_0BF@KDPPACIK@?$GAlocal?5static?5guard?8?$AA@ 1002c670     libvcruntime:undname.obj
 0002:00000688       ??_C@_08OBABFOLI@?$GAstring?8?$AA@ 1002c688     libvcruntime:undname.obj
 0002:00000694       ??_C@_0BD@JDLKDPAB@?$GAvbase?5destructor?8?$AA@ 1002c694     libvcruntime:undname.obj
 0002:000006a8       ??_C@_0BN@DEGPLNFK@?$GAvector?5deleting?5destructor?8?$AA@ 1002c6a8     libvcruntime:undname.obj
 0002:000006c8       ??_C@_0BO@OBMKPJIG@?$GAdefault?5constructor?5closure?8?$AA@ 1002c6c8     libvcruntime:undname.obj
 0002:000006e8       ??_C@_0BN@IMDCHIKM@?$GAscalar?5deleting?5destructor?8?$AA@ 1002c6e8     libvcruntime:undname.obj
 0002:00000708       ??_C@_0BO@PFGOCPJJ@?$GAvector?5constructor?5iterator?8?$AA@ 1002c708     libvcruntime:undname.obj
 0002:00000728       ??_C@_0BN@LFPFMEDL@?$GAvector?5destructor?5iterator?8?$AA@ 1002c728     libvcruntime:undname.obj
 0002:00000748       ??_C@_0CE@IKBNEHA@?$GAvector?5vbase?5constructor?5iterat@ 1002c748     libvcruntime:undname.obj
 0002:0000076c       ??_C@_0BL@NILFHHPC@?$GAvirtual?5displacement?5map?8?$AA@ 1002c76c     libvcruntime:undname.obj
 0002:00000788       ??_C@_0CB@JONCMFFK@?$GAeh?5vector?5constructor?5iterator?8@ 1002c788     libvcruntime:undname.obj
 0002:000007ac       ??_C@_0CA@GCEOPDGL@?$GAeh?5vector?5destructor?5iterator?8?$AA@ 1002c7ac     libvcruntime:undname.obj
 0002:000007cc       ??_C@_0CH@OOJPLCPH@?$GAeh?5vector?5vbase?5constructor?5ite@ 1002c7cc     libvcruntime:undname.obj
 0002:000007f4       ??_C@_0BL@LLKPOHJI@?$GAcopy?5constructor?5closure?8?$AA@ 1002c7f4     libvcruntime:undname.obj
 0002:00000810       ??_C@_0BA@KBCDOMBN@?$GAudt?5returning?8?$AA@ 1002c810     libvcruntime:undname.obj
 0002:00000820       ??_C@_03KLGMFNMG@?$GAEH?$AA@ 1002c820     libvcruntime:undname.obj
 0002:00000824       ??_C@_05KHLCHHI@?$GARTTI?$AA@ 1002c824     libvcruntime:undname.obj
 0002:0000082c       ??_C@_0BA@KKLDJDLB@?$GAlocal?5vftable?8?$AA@ 1002c82c     libvcruntime:undname.obj
 0002:0000083c       ??_C@_0CE@IIHCMGGL@?$GAlocal?5vftable?5constructor?5closu@ 1002c83c     libvcruntime:undname.obj
 0002:00000860       ??_C@_06FHBGPFGH@?5new?$FL?$FN?$AA@ 1002c860     libvcruntime:undname.obj
 0002:00000868       ??_C@_09LBNFPBCA@?5delete?$FL?$FN?$AA@ 1002c868     libvcruntime:undname.obj
 0002:00000874       ??_C@_0P@HJKNJFNN@?$GAomni?5callsig?8?$AA@ 1002c874     libvcruntime:undname.obj
 0002:00000884       ??_C@_0BL@CNOONJFP@?$GAplacement?5delete?5closure?8?$AA@ 1002c884     libvcruntime:undname.obj
 0002:000008a0       ??_C@_0BN@CKNJLHMB@?$GAplacement?5delete?$FL?$FN?5closure?8?$AA@ 1002c8a0     libvcruntime:undname.obj
 0002:000008c0       ??_C@_0CG@CFDHKGGD@?$GAmanaged?5vector?5constructor?5iter@ 1002c8c0     libvcruntime:undname.obj
 0002:000008e8       ??_C@_0CF@IMGKMJNO@?$GAmanaged?5vector?5destructor?5itera@ 1002c8e8     libvcruntime:undname.obj
 0002:00000910       ??_C@_0CG@HLDDJMAG@?$GAeh?5vector?5copy?5constructor?5iter@ 1002c910     libvcruntime:undname.obj
 0002:00000938       ??_C@_0CM@FCBBDIGB@?$GAeh?5vector?5vbase?5copy?5constructo@ 1002c938     libvcruntime:undname.obj
 0002:00000964       ??_C@_0BL@CLIPGLGB@?$GAdynamic?5initializer?5for?5?8?$AA@ 1002c964     libvcruntime:undname.obj
 0002:00000980       ??_C@_0CB@PDBIFEP@?$GAdynamic?5atexit?5destructor?5for?5?8@ 1002c980     libvcruntime:undname.obj
 0002:000009a4       ??_C@_0CD@CGAJBKEJ@?$GAvector?5copy?5constructor?5iterato@ 1002c9a4     libvcruntime:undname.obj
 0002:000009c8       ??_C@_0CJ@GJELGAMM@?$GAvector?5vbase?5copy?5constructor?5i@ 1002c9c8     libvcruntime:undname.obj
 0002:000009f4       ??_C@_0CL@FGIJHLCE@?$GAmanaged?5vector?5copy?5constructor@ 1002c9f4     libvcruntime:undname.obj
 0002:00000a20       ??_C@_0BM@PMGGMLDN@?$GAlocal?5static?5thread?5guard?8?$AA@ 1002ca20     libvcruntime:undname.obj
 0002:00000a3c       ??_C@_0N@BDNMDMOL@operator?5?$CC?$CC?5?$AA@ 1002ca3c     libvcruntime:undname.obj
 0002:00000a4c       ??_C@_0BC@DAFEJGAK@?5Type?5Descriptor?8?$AA@ 1002ca4c     libvcruntime:undname.obj
 0002:00000a60       ??_C@_0BM@LDKODKLH@?5Base?5Class?5Descriptor?5at?5?$CI?$AA@ 1002ca60     libvcruntime:undname.obj
 0002:00000a7c       ??_C@_0BD@LGICGFMM@?5Base?5Class?5Array?8?$AA@ 1002ca7c     libvcruntime:undname.obj
 0002:00000a90       ??_C@_0BN@MECKDCOJ@?5Class?5Hierarchy?5Descriptor?8?$AA@ 1002ca90     libvcruntime:undname.obj
 0002:00000ab0       ??_C@_0BK@CFCOFLF@?5Complete?5Object?5Locator?8?$AA@ 1002cab0     libvcruntime:undname.obj
 0002:00000ad0       ??_C@_1EK@MBDPDCGA@?$AAM?$AAi?$AAc?$AAr?$AAo?$AAs?$AAo?$AAf?$AAt?$AA?5?$AAV?$AAi?$AAs?$AAu?$AAa?$AAl?$AA?5?$AAC?$AA?$CL?$AA?$CL?$AA?5?$AAR?$AAu?$AAn?$AAt?$AAi?$AAm?$AAe?$AA?5?$AAL?$AAi?$AAb@ 1002cad0     libucrt:assert.obj
 0002:00000b20       ??_C@_1FE@LHBLIKM@?$AAA?$AAs?$AAs?$AAe?$AAr?$AAt?$AAi?$AAo?$AAn?$AA?5?$AAf?$AAa?$AAi?$AAl?$AAe?$AAd?$AA?3?$AA?5?$AA?$CF?$AAT?$AAs?$AA?0?$AA?5?$AAf?$AAi?$AAl?$AAe?$AA?5?$AA?$CF?$AAT?$AAs?$AA?0@ 1002cb20     libucrt:assert.obj
 0002:00000b74       ??_C@_1CE@OJBNHDMO@?$AAA?$AAs?$AAs?$AAe?$AAr?$AAt?$AAi?$AAo?$AAn?$AA?5?$AAf?$AAa?$AAi?$AAl?$AAe?$AAd?$AA?$CB?$AA?$AA@ 1002cb74     libucrt:assert.obj
 0002:00000b98       ??_C@_1BE@PHKBBGE@?$AAP?$AAr?$AAo?$AAg?$AAr?$AAa?$AAm?$AA?3?$AA?5?$AA?$AA@ 1002cb98     libucrt:assert.obj
 0002:00000bac       ??_C@_1O@HEMHKNDC@?$AAF?$AAi?$AAl?$AAe?$AA?3?$AA?5?$AA?$AA@ 1002cbac     libucrt:assert.obj
 0002:00000bbc       ??_C@_1O@KCAFKHJE@?$AAL?$AAi?$AAn?$AAe?$AA?3?$AA?5?$AA?$AA@ 1002cbbc     libucrt:assert.obj
 0002:00000bcc       ??_C@_1BK@PEDCIPMA@?$AAE?$AAx?$AAp?$AAr?$AAe?$AAs?$AAs?$AAi?$AAo?$AAn?$AA?3?$AA?5?$AA?$AA@ 1002cbcc     libucrt:assert.obj
 0002:00000be8       ??_C@_1OA@EGMLFBHJ@?$AAF?$AAo?$AAr?$AA?5?$AAi?$AAn?$AAf?$AAo?$AAr?$AAm?$AAa?$AAt?$AAi?$AAo?$AAn?$AA?5?$AAo?$AAn?$AA?5?$AAh?$AAo?$AAw?$AA?5?$AAy?$AAo?$AAu?$AAr?$AA?5?$AAp?$AAr?$AAo?$AAg@ 1002cbe8     libucrt:assert.obj
 0002:00000cc8       ??_C@_1HK@POCJMFGK@?$AA?$CI?$AAP?$AAr?$AAe?$AAs?$AAs?$AA?5?$AAR?$AAe?$AAt?$AAr?$AAy?$AA?5?$AAt?$AAo?$AA?5?$AAd?$AAe?$AAb?$AAu?$AAg?$AA?5?$AAt?$AAh?$AAe?$AA?5?$AAa?$AAp?$AAp?$AAl?$AAi?$AAc@ 1002ccc8     libucrt:assert.obj
 0002:00000d44       ??_C@_17LGKOMLJ@?$AA?4?$AA?4?$AA?4?$AA?$AA@ 1002cd44     libucrt:assert.obj
 0002:00000d4c       ??_C@_13LBAGMAIH@?$AA?6?$AA?$AA@ 1002cd4c     libucrt:assert.obj
 0002:00000d50       ??_C@_15IABLJNFO@?$AA?6?$AA?6?$AA?$AA@ 1002cd50     libucrt:assert.obj
 0002:00000d58       ??_C@_1CO@EAEJAADC@?$AA?$DM?$AAp?$AAr?$AAo?$AAg?$AAr?$AAa?$AAm?$AA?5?$AAn?$AAa?$AAm?$AAe?$AA?5?$AAu?$AAn?$AAk?$AAn?$AAo?$AAw?$AAn?$AA?$DO?$AA?$AA@ 1002cd58     libucrt:assert.obj
 0002:00000d88       _standard_lookup_table     1002cd88     libucrt:output.obj
 0002:00000de4       ??_C@_06OJHGLDPL@?$CInull?$CJ?$AA@ 1002cde4     libucrt:output.obj
 0002:00000dec       ??_C@_1O@CEDCILHN@?$AA?$CI?$AAn?$AAu?$AAl?$AAl?$AA?$CJ?$AA?$AA@ 1002cdec     libucrt:output.obj
 0002:00000e00       ___acrt_exception_action_table 1002ce00     libucrt:exception_filter.obj
 0002:00000e90       ___acrt_signal_action_table_count 1002ce90     libucrt:exception_filter.obj
 0002:00000e94       ___acrt_signal_action_first_fpe_index 1002ce94     libucrt:exception_filter.obj
 0002:00000e98       ___acrt_signal_action_fpe_count 1002ce98     libucrt:exception_filter.obj
 0002:00000e9c       ??_C@_1BI@BGOHAHKC@?$AAm?$AAs?$AAc?$AAo?$AAr?$AAe?$AAe?$AA?4?$AAd?$AAl?$AAl?$AA?$AA@ 1002ce9c     libucrt:exit.obj
 0002:00000eb4       ??_C@_0P@MIGLKIOC@CorExitProcess?$AA@ 1002ceb4     libucrt:exit.obj
 0002:000010a8       ??_C@_03KOEHGMDN@Sun?$AA@  1002d0a8     libucrt:nlsdata.obj
 0002:000010ac       ??_C@_03PDAGKDH@Mon?$AA@   1002d0ac     libucrt:nlsdata.obj
 0002:000010b0       ??_C@_03NAGEINEP@Tue?$AA@  1002d0b0     libucrt:nlsdata.obj
 0002:000010b4       ??_C@_03MHOMLAJA@Wed?$AA@  1002d0b4     libucrt:nlsdata.obj
 0002:000010b8       ??_C@_03IOFIKPDN@Thu?$AA@  1002d0b8     libucrt:nlsdata.obj
 0002:000010bc       ??_C@_03IDIOELNC@Fri?$AA@  1002d0bc     libucrt:nlsdata.obj
 0002:000010c0       ??_C@_03FEFJNEK@Sat?$AA@   1002d0c0     libucrt:nlsdata.obj
 0002:000010c4       ??_C@_06OOPIFAJ@Sunday?$AA@ 1002d0c4     libucrt:nlsdata.obj
 0002:000010cc       ??_C@_06JLEDEDGH@Monday?$AA@ 1002d0cc     libucrt:nlsdata.obj
 0002:000010d4       ??_C@_07BAAGCFCM@Tuesday?$AA@ 1002d0d4     libucrt:nlsdata.obj
 0002:000010dc       ??_C@_09DLIGFAKA@Wednesday?$AA@ 1002d0dc     libucrt:nlsdata.obj
 0002:000010e8       ??_C@_08HACCIKIA@Thursday?$AA@ 1002d0e8     libucrt:nlsdata.obj
 0002:000010f4       ??_C@_06JECMNKMI@Friday?$AA@ 1002d0f4     libucrt:nlsdata.obj
 0002:000010fc       ??_C@_08INBOOONO@Saturday?$AA@ 1002d0fc     libucrt:nlsdata.obj
 0002:00001108       ??_C@_03JIHJHPIE@Jan?$AA@  1002d108     libucrt:nlsdata.obj
 0002:0000110c       ??_C@_03HJBDCHOM@Feb?$AA@  1002d10c     libucrt:nlsdata.obj
 0002:00001110       ??_C@_03ODNJBKGA@Mar?$AA@  1002d110     libucrt:nlsdata.obj
 0002:00001114       ??_C@_03LEOLGMJP@Apr?$AA@  1002d114     libucrt:nlsdata.obj
 0002:00001118       ??_C@_03CNMDKL@May?$AA@    1002d118     libucrt:nlsdata.obj
 0002:0000111c       ??_C@_03IDFGHECI@Jun?$AA@  1002d11c     libucrt:nlsdata.obj
 0002:00001120       ??_C@_03LBGABGKK@Jul?$AA@  1002d120     libucrt:nlsdata.obj
 0002:00001124       ??_C@_03IFJFEIGA@Aug?$AA@  1002d124     libucrt:nlsdata.obj
 0002:00001128       ??_C@_03GGCAPAJC@Sep?$AA@  1002d128     libucrt:nlsdata.obj
 0002:0000112c       ??_C@_03BMAOKBAD@Oct?$AA@  1002d12c     libucrt:nlsdata.obj
 0002:00001130       ??_C@_03JPJOFNIA@Nov?$AA@  1002d130     libucrt:nlsdata.obj
 0002:00001134       ??_C@_03MKABNOCG@Dec?$AA@  1002d134     libucrt:nlsdata.obj
 0002:00001138       ??_C@_07CGJPFGJA@January?$AA@ 1002d138     libucrt:nlsdata.obj
 0002:00001140       ??_C@_08GNJGEPFN@February?$AA@ 1002d140     libucrt:nlsdata.obj
 0002:0000114c       ??_C@_05HPCKOFNC@March?$AA@ 1002d14c     libucrt:nlsdata.obj
 0002:00001154       ??_C@_05DMJDNLEJ@April?$AA@ 1002d154     libucrt:nlsdata.obj
 0002:0000115c       ??_C@_04CNLMGBGM@June?$AA@ 1002d15c     libucrt:nlsdata.obj
 0002:00001164       ??_C@_04MIEPOIFP@July?$AA@ 1002d164     libucrt:nlsdata.obj
 0002:0000116c       ??_C@_06LBBHFDDG@August?$AA@ 1002d16c     libucrt:nlsdata.obj
 0002:00001174       ??_C@_09BHHEALKD@September?$AA@ 1002d174     libucrt:nlsdata.obj
 0002:00001180       ??_C@_07JJNFCEND@October?$AA@ 1002d180     libucrt:nlsdata.obj
 0002:00001188       ??_C@_08HCHEGEOA@November?$AA@ 1002d188     libucrt:nlsdata.obj
 0002:00001194       ??_C@_08EDHMEBNP@December?$AA@ 1002d194     libucrt:nlsdata.obj
 0002:000011a0       ??_C@_02DEDBPAFC@AM?$AA@   1002d1a0     libucrt:nlsdata.obj
 0002:000011a4       ??_C@_02CJNFDJBF@PM?$AA@   1002d1a4     libucrt:nlsdata.obj
 0002:000011a8       ??_C@_08BPBNCDIB@MM?1dd?1yy?$AA@ 1002d1a8     libucrt:nlsdata.obj
 0002:000011b4       ??_C@_0BE@CKGJFCPC@dddd?0?5MMMM?5dd?0?5yyyy?$AA@ 1002d1b4     libucrt:nlsdata.obj
 0002:000011c8       ??_C@_08JCCMCCIL@HH?3mm?3ss?$AA@ 1002d1c8     libucrt:nlsdata.obj
 0002:000011d4       ??_C@_17MBGCMIPB@?$AAS?$AAu?$AAn?$AA?$AA@ 1002d1d4     libucrt:nlsdata.obj
 0002:000011dc       ??_C@_17KBOMKBF@?$AAM?$AAo?$AAn?$AA?$AA@ 1002d1dc     libucrt:nlsdata.obj
 0002:000011e4       ??_C@_17BMKGEGOJ@?$AAT?$AAu?$AAe?$AA?$AA@ 1002d1e4     libucrt:nlsdata.obj
 0002:000011ec       ??_C@_17CJEDCEPE@?$AAW?$AAe?$AAd?$AA?$AA@ 1002d1ec     libucrt:nlsdata.obj
 0002:000011f4       ??_C@_17PDPHAADD@?$AAT?$AAh?$AAu?$AA?$AA@ 1002d1f4     libucrt:nlsdata.obj
 0002:000011fc       ??_C@_17HFOLPPLP@?$AAF?$AAr?$AAi?$AA?$AA@ 1002d1fc     libucrt:nlsdata.obj
 0002:00001204       ??_C@_17GGIBDPIH@?$AAS?$AAa?$AAt?$AA?$AA@ 1002d204     libucrt:nlsdata.obj
 0002:0000120c       ??_C@_1O@IHNHDHPB@?$AAS?$AAu?$AAn?$AAd?$AAa?$AAy?$AA?$AA@ 1002d20c     libucrt:nlsdata.obj
 0002:0000121c       ??_C@_1O@MMNBFLIA@?$AAM?$AAo?$AAn?$AAd?$AAa?$AAy?$AA?$AA@ 1002d21c     libucrt:nlsdata.obj
 0002:0000122c       ??_C@_1BA@ENFBFFEK@?$AAT?$AAu?$AAe?$AAs?$AAd?$AAa?$AAy?$AA?$AA@ 1002d22c     libucrt:nlsdata.obj
 0002:0000123c       ??_C@_1BE@EBOGMDOH@?$AAW?$AAe?$AAd?$AAn?$AAe?$AAs?$AAd?$AAa?$AAy?$AA?$AA@ 1002d23c     libucrt:nlsdata.obj
 0002:00001250       ??_C@_1BC@HHMNLIHE@?$AAT?$AAh?$AAu?$AAr?$AAs?$AAd?$AAa?$AAy?$AA?$AA@ 1002d250     libucrt:nlsdata.obj
 0002:00001264       ??_C@_1O@PDICJHAG@?$AAF?$AAr?$AAi?$AAd?$AAa?$AAy?$AA?$AA@ 1002d264     libucrt:nlsdata.obj
 0002:00001274       ??_C@_1BC@ENMNNPAJ@?$AAS?$AAa?$AAt?$AAu?$AAr?$AAd?$AAa?$AAy?$AA?$AA@ 1002d274     libucrt:nlsdata.obj
 0002:00001288       ??_C@_17DKNBKCHM@?$AAJ?$AAa?$AAn?$AA?$AA@ 1002d288     libucrt:nlsdata.obj
 0002:00001290       ??_C@_17LMDJEKJN@?$AAF?$AAe?$AAb?$AA?$AA@ 1002d290     libucrt:nlsdata.obj
 0002:00001298       ??_C@_17CKNLEDEC@?$AAM?$AAa?$AAr?$AA?$AA@ 1002d298     libucrt:nlsdata.obj
 0002:000012a0       ??_C@_17LFPOIHDD@?$AAA?$AAp?$AAr?$AA?$AA@ 1002d2a0     libucrt:nlsdata.obj
 0002:000012a8       ??_C@_17PNNKMEED@?$AAM?$AAa?$AAy?$AA?$AA@ 1002d2a8     libucrt:nlsdata.obj
 0002:000012b0       ??_C@_17KCJGOCPB@?$AAJ?$AAu?$AAn?$AA?$AA@ 1002d2b0     libucrt:nlsdata.obj
 0002:000012b8       ??_C@_17IJPCKHK@?$AAJ?$AAu?$AAl?$AA?$AA@ 1002d2b8     libucrt:nlsdata.obj
 0002:000012c0       ??_C@_17ICPELBCN@?$AAA?$AAu?$AAg?$AA?$AA@ 1002d2c0     libucrt:nlsdata.obj
 0002:000012c8       ??_C@_17HCHCOKMG@?$AAS?$AAe?$AAp?$AA?$AA@ 1002d2c8     libucrt:nlsdata.obj
 0002:000012d0       ??_C@_17FNLKOI@?$AAO?$AAc?$AAt?$AA?$AA@ 1002d2d0     libucrt:nlsdata.obj
 0002:000012d8       ??_C@_17BBDMLCIG@?$AAN?$AAo?$AAv?$AA?$AA@ 1002d2d8     libucrt:nlsdata.obj
 0002:000012e0       ??_C@_17EGKACKIF@?$AAD?$AAe?$AAc?$AA?$AA@ 1002d2e0     libucrt:nlsdata.obj
 0002:000012e8       ??_C@_1BA@EFMEIEBA@?$AAJ?$AAa?$AAn?$AAu?$AAa?$AAr?$AAy?$AA?$AA@ 1002d2e8     libucrt:nlsdata.obj
 0002:000012f8       ??_C@_1BC@JGDDFFAM@?$AAF?$AAe?$AAb?$AAr?$AAu?$AAa?$AAr?$AAy?$AA?$AA@ 1002d2f8     libucrt:nlsdata.obj
 0002:0000130c       ??_C@_1M@IKEENEDF@?$AAM?$AAa?$AAr?$AAc?$AAh?$AA?$AA@ 1002d30c     libucrt:nlsdata.obj
 0002:00001318       ??_C@_1M@GJNLMHFD@?$AAA?$AAp?$AAr?$AAi?$AAl?$AA?$AA@ 1002d318     libucrt:nlsdata.obj
 0002:00001324       ??_C@_19EPFLPGAP@?$AAJ?$AAu?$AAn?$AAe?$AA?$AA@ 1002d324     libucrt:nlsdata.obj
 0002:00001330       ??_C@_19BIFMLPCD@?$AAJ?$AAu?$AAl?$AAy?$AA?$AA@ 1002d330     libucrt:nlsdata.obj
 0002:0000133c       ??_C@_1O@PAHLKOAC@?$AAA?$AAu?$AAg?$AAu?$AAs?$AAt?$AA?$AA@ 1002d33c     libucrt:nlsdata.obj
 0002:0000134c       ??_C@_1BE@DKAAMBJL@?$AAS?$AAe?$AAp?$AAt?$AAe?$AAm?$AAb?$AAe?$AAr?$AA?$AA@ 1002d34c     libucrt:nlsdata.obj
 0002:00001360       ??_C@_1BA@EPANDLNG@?$AAO?$AAc?$AAt?$AAo?$AAb?$AAe?$AAr?$AA?$AA@ 1002d360     libucrt:nlsdata.obj
 0002:00001370       ??_C@_1BC@BGLIFPF@?$AAN?$AAo?$AAv?$AAe?$AAm?$AAb?$AAe?$AAr?$AA?$AA@ 1002d370     libucrt:nlsdata.obj
 0002:00001384       ??_C@_1BC@FEMKIFH@?$AAD?$AAe?$AAc?$AAe?$AAm?$AAb?$AAe?$AAr?$AA?$AA@ 1002d384     libucrt:nlsdata.obj
 0002:00001398       ??_C@_15ODEHAHHF@?$AAA?$AAM?$AA?$AA@ 1002d398     libucrt:nlsdata.obj
 0002:000013a0       ??_C@_15CLMNNGEL@?$AAP?$AAM?$AA?$AA@ 1002d3a0     libucrt:nlsdata.obj
 0002:000013a8       ??_C@_1BC@IEBCMHCM@?$AAM?$AAM?$AA?1?$AAd?$AAd?$AA?1?$AAy?$AAy?$AA?$AA@ 1002d3a8     libucrt:nlsdata.obj
 0002:000013bc       ??_C@_1CI@KNAKOEBC@?$AAd?$AAd?$AAd?$AAd?$AA?0?$AA?5?$AAM?$AAM?$AAM?$AAM?$AA?5?$AAd?$AAd?$AA?0?$AA?5?$AAy?$AAy?$AAy?$AAy?$AA?$AA@ 1002d3bc     libucrt:nlsdata.obj
 0002:000013e4       ??_C@_1BC@GDGBMEMK@?$AAH?$AAH?$AA?3?$AAm?$AAm?$AA?3?$AAs?$AAs?$AA?$AA@ 1002d3e4     libucrt:nlsdata.obj
 0002:000013f8       ??_C@_1M@BMHNFIME@?$AAe?$AAn?$AA?9?$AAU?$AAS?$AA?$AA@ 1002d3f8     libucrt:nlsdata.obj
 0002:00001408       ___lc_time_c               1002d408     libucrt:nlsdata.obj
 0002:0000156c       ??_C@_03OEIAHPBN@INF?$AA@  1002d56c     libucrt:cvt.obj
 0002:00001570       ??_C@_03OJHLLCGB@inf?$AA@  1002d570     libucrt:cvt.obj
 0002:00001574       ??_C@_03LKNCIKJB@NAN?$AA@  1002d574     libucrt:cvt.obj
 0002:00001578       ??_C@_03LHCJEHON@nan?$AA@  1002d578     libucrt:cvt.obj
 0002:0000157c       ??_C@_09OFJJIMPC@NAN?$CISNAN?$CJ?$AA@ 1002d57c     libucrt:cvt.obj
 0002:00001588       ??_C@_09IPFBKMDL@nan?$CIsnan?$CJ?$AA@ 1002d588     libucrt:cvt.obj
 0002:00001594       ??_C@_08IKHNHAJ@NAN?$CIIND?$CJ?$AA@ 1002d594     libucrt:cvt.obj
 0002:000015a0       ??_C@_08OFCDMILK@nan?$CIind?$CJ?$AA@ 1002d5a0     libucrt:cvt.obj
 0002:000015ac       ??_C@_05KLBDPFGC@e?$CL000?$AA@ 1002d5ac     libucrt:cvt.obj
 0002:00001608       ??_C@_1EG@CNNIPFIM@?$AAa?$AAp?$AAi?$AA?9?$AAm?$AAs?$AA?9?$AAw?$AAi?$AAn?$AA?9?$AAa?$AAp?$AAp?$AAm?$AAo?$AAd?$AAe?$AAl?$AA?9?$AAr?$AAu?$AAn?$AAt?$AAi?$AAm?$AAe?$AA?9?$AAl?$AA1?$AA?9?$AA1@ 1002d608     libucrt:winapi_thunks.obj
 0002:00001650       ??_C@_1EA@JGEFHKEI@?$AAa?$AAp?$AAi?$AA?9?$AAm?$AAs?$AA?9?$AAw?$AAi?$AAn?$AA?9?$AAc?$AAo?$AAr?$AAe?$AA?9?$AAd?$AAa?$AAt?$AAe?$AAt?$AAi?$AAm?$AAe?$AA?9?$AAl?$AA1?$AA?9?$AA1?$AA?9?$AA1?$AA?$AA@ 1002d650     libucrt:winapi_thunks.obj
 0002:00001690       ??_C@_1DI@GCIAAENM@?$AAa?$AAp?$AAi?$AA?9?$AAm?$AAs?$AA?9?$AAw?$AAi?$AAn?$AA?9?$AAc?$AAo?$AAr?$AAe?$AA?9?$AAf?$AAi?$AAl?$AAe?$AA?9?$AAl?$AA2?$AA?9?$AA1?$AA?9?$AA1?$AA?$AA@ 1002d690     libucrt:winapi_thunks.obj
 0002:000016c8       ??_C@_1EI@MPIAOHOC@?$AAa?$AAp?$AAi?$AA?9?$AAm?$AAs?$AA?9?$AAw?$AAi?$AAn?$AA?9?$AAc?$AAo?$AAr?$AAe?$AA?9?$AAl?$AAo?$AAc?$AAa?$AAl?$AAi?$AAz?$AAa?$AAt?$AAi?$AAo?$AAn?$AA?9?$AAl?$AA1?$AA?9@ 1002d6c8     libucrt:winapi_thunks.obj
 0002:00001710       ??_C@_1FK@FPHCKFIE@?$AAa?$AAp?$AAi?$AA?9?$AAm?$AAs?$AA?9?$AAw?$AAi?$AAn?$AA?9?$AAc?$AAo?$AAr?$AAe?$AA?9?$AAl?$AAo?$AAc?$AAa?$AAl?$AAi?$AAz?$AAa?$AAt?$AAi?$AAo?$AAn?$AA?9?$AAo?$AAb?$AAs@ 1002d710     libucrt:winapi_thunks.obj
 0002:00001770       ??_C@_1EM@DILCGIIO@?$AAa?$AAp?$AAi?$AA?9?$AAm?$AAs?$AA?9?$AAw?$AAi?$AAn?$AA?9?$AAc?$AAo?$AAr?$AAe?$AA?9?$AAp?$AAr?$AAo?$AAc?$AAe?$AAs?$AAs?$AAt?$AAh?$AAr?$AAe?$AAa?$AAd?$AAs?$AA?9?$AAl@ 1002d770     libucrt:winapi_thunks.obj
 0002:000017bc       ??_C@_1DM@LNCGDDPN@?$AAa?$AAp?$AAi?$AA?9?$AAm?$AAs?$AA?9?$AAw?$AAi?$AAn?$AA?9?$AAc?$AAo?$AAr?$AAe?$AA?9?$AAs?$AAt?$AAr?$AAi?$AAn?$AAg?$AA?9?$AAl?$AA1?$AA?9?$AA1?$AA?9?$AA0?$AA?$AA@ 1002d7bc     libucrt:winapi_thunks.obj
 0002:000017f8       ??_C@_1DO@FPAPJEMD@?$AAa?$AAp?$AAi?$AA?9?$AAm?$AAs?$AA?9?$AAw?$AAi?$AAn?$AA?9?$AAc?$AAo?$AAr?$AAe?$AA?9?$AAs?$AAy?$AAs?$AAi?$AAn?$AAf?$AAo?$AA?9?$AAl?$AA1?$AA?9?$AA2?$AA?9?$AA1?$AA?$AA@ 1002d7f8     libucrt:winapi_thunks.obj
 0002:00001838       ??_C@_1DK@NDHNAHIO@?$AAa?$AAp?$AAi?$AA?9?$AAm?$AAs?$AA?9?$AAw?$AAi?$AAn?$AA?9?$AAc?$AAo?$AAr?$AAe?$AA?9?$AAw?$AAi?$AAn?$AAr?$AAt?$AA?9?$AAl?$AA1?$AA?9?$AA1?$AA?9?$AA0?$AA?$AA@ 1002d838     libucrt:winapi_thunks.obj
 0002:00001874       ??_C@_1DM@KGHDGBCM@?$AAa?$AAp?$AAi?$AA?9?$AAm?$AAs?$AA?9?$AAw?$AAi?$AAn?$AA?9?$AAc?$AAo?$AAr?$AAe?$AA?9?$AAx?$AAs?$AAt?$AAa?$AAt?$AAe?$AA?9?$AAl?$AA2?$AA?9?$AA1?$AA?9?$AA0?$AA?$AA@ 1002d874     libucrt:winapi_thunks.obj
 0002:000018b0       ??_C@_1EO@IJIOEFOH@?$AAa?$AAp?$AAi?$AA?9?$AAm?$AAs?$AA?9?$AAw?$AAi?$AAn?$AA?9?$AAr?$AAt?$AAc?$AAo?$AAr?$AAe?$AA?9?$AAn?$AAt?$AAu?$AAs?$AAe?$AAr?$AA?9?$AAw?$AAi?$AAn?$AAd?$AAo?$AAw?$AA?9@ 1002d8b0     libucrt:winapi_thunks.obj
 0002:00001900       ??_C@_1FG@HHGEKANL@?$AAa?$AAp?$AAi?$AA?9?$AAm?$AAs?$AA?9?$AAw?$AAi?$AAn?$AA?9?$AAs?$AAe?$AAc?$AAu?$AAr?$AAi?$AAt?$AAy?$AA?9?$AAs?$AAy?$AAs?$AAt?$AAe?$AAm?$AAf?$AAu?$AAn?$AAc?$AAt?$AAi@ 1002d900     libucrt:winapi_thunks.obj
 0002:00001958       ??_C@_1FG@NCKKOLKO@?$AAe?$AAx?$AAt?$AA?9?$AAm?$AAs?$AA?9?$AAw?$AAi?$AAn?$AA?9?$AAk?$AAe?$AAr?$AAn?$AAe?$AAl?$AA3?$AA2?$AA?9?$AAp?$AAa?$AAc?$AAk?$AAa?$AAg?$AAe?$AA?9?$AAc?$AAu?$AAr?$AAr@ 1002d958     libucrt:winapi_thunks.obj
 0002:000019b0       ??_C@_1EG@DBIOJECG@?$AAe?$AAx?$AAt?$AA?9?$AAm?$AAs?$AA?9?$AAw?$AAi?$AAn?$AA?9?$AAn?$AAt?$AAu?$AAs?$AAe?$AAr?$AA?9?$AAd?$AAi?$AAa?$AAl?$AAo?$AAg?$AAb?$AAo?$AAx?$AA?9?$AAl?$AA1?$AA?9?$AA1@ 1002d9b0     libucrt:winapi_thunks.obj
 0002:000019f8       ??_C@_1EO@FIHMJCLF@?$AAe?$AAx?$AAt?$AA?9?$AAm?$AAs?$AA?9?$AAw?$AAi?$AAn?$AA?9?$AAn?$AAt?$AAu?$AAs?$AAe?$AAr?$AA?9?$AAw?$AAi?$AAn?$AAd?$AAo?$AAw?$AAs?$AAt?$AAa?$AAt?$AAi?$AAo?$AAn?$AA?9@ 1002d9f8     libucrt:winapi_thunks.obj
 0002:00001a48       ??_C@_1O@BCCLBEOE@?$AAu?$AAs?$AAe?$AAr?$AA3?$AA2?$AA?$AA@ 1002da48     libucrt:winapi_thunks.obj
 0002:00001a80       ??_C@_0BA@HNOPNCHB@GetActiveWindow?$AA@ 1002da80     libucrt:winapi_thunks.obj
 0002:00001a98       ??_C@_0BE@JOGNEJCI@GetCurrentPackageId?$AA@ 1002da98     libucrt:winapi_thunks.obj
 0002:00001ab4       ??_C@_0BD@HHGDFDBJ@GetLastActivePopup?$AA@ 1002dab4     libucrt:winapi_thunks.obj
 0002:00001ad0       ??_C@_0BI@DFKBFLJE@GetProcessWindowStation?$AA@ 1002dad0     libucrt:winapi_thunks.obj
 0002:00001af0       ??_C@_0BK@DEKFELLI@GetUserObjectInformationW?$AA@ 1002daf0     libucrt:winapi_thunks.obj
 0002:00001b1c       ??_C@_0O@KKBNKAPF@LCMapStringEx?$AA@ 1002db1c     libucrt:winapi_thunks.obj
 0002:00001b34       ??_C@_0BB@HBDEELFH@LocaleNameToLCID?$AA@ 1002db34     libucrt:winapi_thunks.obj
 0002:00001b50       ??_C@_0M@CHKKJDAI@MessageBoxA?$AA@ 1002db50     libucrt:winapi_thunks.obj
 0002:00001b64       ??_C@_0M@DLDCCGNP@MessageBoxW?$AA@ 1002db64     libucrt:winapi_thunks.obj
 0002:00001b80       ??_C@_1M@HPNHIDJI@?$AAj?$AAa?$AA?9?$AAJ?$AAP?$AA?$AA@ 1002db80     libucrt:mbctype.obj
 0002:00001b8c       ??_C@_1M@BIBDDEMK@?$AAz?$AAh?$AA?9?$AAC?$AAN?$AA?$AA@ 1002db8c     libucrt:mbctype.obj
 0002:00001b98       ??_C@_1M@JLOOOEGK@?$AAk?$AAo?$AA?9?$AAK?$AAR?$AA?$AA@ 1002db98     libucrt:mbctype.obj
 0002:00001ba4       ??_C@_1M@CLNBBOPM@?$AAz?$AAh?$AA?9?$AAT?$AAW?$AA?$AA@ 1002dba4     libucrt:mbctype.obj
 0002:00001bb0       __wctype                   1002dbb0     libucrt:ctype.obj
 0002:00001db8       ___newctype                1002ddb8     libucrt:ctype.obj
 0002:000020b8       ___newclmap                1002e0b8     libucrt:ctype.obj
 0002:00002238       ___newcumap                1002e238     libucrt:ctype.obj
 0002:000023b8       ??_C@_15PJPFLCCM@?$AAu?$AAk?$AA?$AA@ 1002e3b8     libucrt:get_qualified_locale.obj
 0002:000023c0       ?large_power_data@?1??multiply_by_power_of_ten@__crt_strtox@@YA_NAAUbig_integer@2@I@Z@4QBIB 1002e3c0     libucrt:cfout.obj
 0002:00002cc8       ?large_power_indices@?1??multiply_by_power_of_ten@__crt_strtox@@YA_NAAUbig_integer@2@I@Z@4QBUunpack_index@?1??12@YA_N0I@Z@B 1002ecc8     libucrt:cfout.obj
 0002:00002d60       ?small_powers_of_ten@?6??multiply_by_power_of_ten@__crt_strtox@@YA_NAAUbig_integer@2@I@Z@4QBIB 1002ed60     libucrt:cfout.obj
 0002:00002d84       ??_C@_01GBGANLPD@0?$AA@    1002ed84     libucrt:cfout.obj
 0002:00002d88       ??_C@_05DNEBIAHO@1?$CDINF?$AA@ 1002ed88     libucrt:cfout.obj
 0002:00002d90       ??_C@_06IMKFLFPG@1?$CDQNAN?$AA@ 1002ed90     libucrt:cfout.obj
 0002:00002d98       ??_C@_06PGGFOGJG@1?$CDSNAN?$AA@ 1002ed98     libucrt:cfout.obj
 0002:00002da0       ??_C@_05PHHOCPM@1?$CDIND?$AA@ 1002eda0     libucrt:cfout.obj
 0002:000034c8       ??_C@_15EMKDOKLE@?$AAa?$AAr?$AA?$AA@ 1002f4c8     libucrt:lcidtoname_downlevel.obj
 0002:000034d0       ??_C@_15KNPADPLH@?$AAb?$AAg?$AA?$AA@ 1002f4d0     libucrt:lcidtoname_downlevel.obj
 0002:000034d8       ??_C@_15EDMHLDMO@?$AAc?$AAa?$AA?$AA@ 1002f4d8     libucrt:lcidtoname_downlevel.obj
 0002:000034e0       ??_C@_1O@BPEAJADD@?$AAz?$AAh?$AA?9?$AAC?$AAH?$AAS?$AA?$AA@ 1002f4e0     libucrt:lcidtoname_downlevel.obj
 0002:000034f0       ??_C@_15LJNHCMNK@?$AAc?$AAs?$AA?$AA@ 1002f4f0     libucrt:lcidtoname_downlevel.obj
 0002:000034f8       ??_C@_15FOMCIDHG@?$AAd?$AAa?$AA?$AA@ 1002f4f8     libucrt:lcidtoname_downlevel.obj
 0002:00003500       ??_C@_15NBKABECB@?$AAd?$AAe?$AA?$AA@ 1002f500     libucrt:lcidtoname_downlevel.obj
 0002:00003508       ??_C@_15GHPEIIAO@?$AAe?$AAl?$AA?$AA@ 1002f508     libucrt:lcidtoname_downlevel.obj
 0002:00003510       ??_C@_15MNPNEAIF@?$AAe?$AAn?$AA?$AA@ 1002f510     libucrt:lcidtoname_downlevel.obj
 0002:00003518       ??_C@_15GPIOMPMH@?$AAe?$AAs?$AA?$AA@ 1002f518     libucrt:lcidtoname_downlevel.obj
 0002:00003520       ??_C@_15NGLOAKJC@?$AAf?$AAi?$AA?$AA@ 1002f520     libucrt:lcidtoname_downlevel.obj
 0002:00003528       ??_C@_15FBKGNKAM@?$AAf?$AAr?$AA?$AA@ 1002f528     libucrt:lcidtoname_downlevel.obj
 0002:00003530       ??_C@_15KGGCNEFK@?$AAh?$AAe?$AA?$AA@ 1002f530     libucrt:lcidtoname_downlevel.obj
 0002:00003538       ??_C@_15PGHLIDMF@?$AAh?$AAu?$AA?$AA@ 1002f538     libucrt:lcidtoname_downlevel.obj
 0002:00003540       ??_C@_15BIEMAPLM@?$AAi?$AAs?$AA?$AA@ 1002f540     libucrt:lcidtoname_downlevel.obj
 0002:00003548       ??_C@_15IFJLDHAF@?$AAi?$AAt?$AA?$AA@ 1002f548     libucrt:lcidtoname_downlevel.obj
 0002:00003550       ??_C@_15GEMIOCAG@?$AAj?$AAa?$AA?$AA@ 1002f550     libucrt:lcidtoname_downlevel.obj
 0002:00003558       ??_C@_15EPELEGJA@?$AAk?$AAo?$AA?$AA@ 1002f558     libucrt:lcidtoname_downlevel.obj
 0002:00003560       ??_C@_15NDDHIMN@?$AAn?$AAl?$AA?$AA@ 1002f560     libucrt:lcidtoname_downlevel.obj
 0002:00003568       ??_C@_15BPIGNHCD@?$AAn?$AAo?$AA?$AA@ 1002f568     libucrt:lcidtoname_downlevel.obj
 0002:00003570       ??_C@_15DEOPBLCG@?$AAp?$AAl?$AA?$AA@ 1002f570     libucrt:lcidtoname_downlevel.obj
 0002:00003578       ??_C@_15KBECGEFG@?$AAp?$AAt?$AA?$AA@ 1002f578     libucrt:lcidtoname_downlevel.obj
 0002:00003580       ??_C@_15GLJCBFMD@?$AAr?$AAo?$AA?$AA@ 1002f580     libucrt:lcidtoname_downlevel.obj
 0002:00003588       ??_C@_15FEDGKCDI@?$AAr?$AAu?$AA?$AA@ 1002f588     libucrt:lcidtoname_downlevel.obj
 0002:00003590       ??_C@_15GLKMLLHM@?$AAh?$AAr?$AA?$AA@ 1002f590     libucrt:lcidtoname_downlevel.obj
 0002:00003598       ??_C@_15CPKMFBDB@?$AAs?$AAk?$AA?$AA@ 1002f598     libucrt:lcidtoname_downlevel.obj
 0002:000035a0       ??_C@_15BAAIOGMK@?$AAs?$AAq?$AA?$AA@ 1002f5a0     libucrt:lcidtoname_downlevel.obj
 0002:000035a8       ??_C@_15INNPNOHD@?$AAs?$AAv?$AA?$AA@ 1002f5a8     libucrt:lcidtoname_downlevel.obj
 0002:000035b0       ??_C@_15CABMMOGH@?$AAt?$AAh?$AA?$AA@ 1002f5b0     libucrt:lcidtoname_downlevel.obj
 0002:000035b8       ??_C@_15BPLIHJJM@?$AAt?$AAr?$AA?$AA@ 1002f5b8     libucrt:lcidtoname_downlevel.obj
 0002:000035c0       ??_C@_15NEOEKKDJ@?$AAu?$AAr?$AA?$AA@ 1002f5c0     libucrt:lcidtoname_downlevel.obj
 0002:000035c8       ??_C@_15NFICGAJK@?$AAi?$AAd?$AA?$AA@ 1002f5c8     libucrt:lcidtoname_downlevel.obj
 0002:000035d0       ??_C@_15HPJPHDM@?$AAb?$AAe?$AA?$AA@ 1002f5d0     libucrt:lcidtoname_downlevel.obj
 0002:000035d8       ??_C@_15LCHLGJII@?$AAs?$AAl?$AA?$AA@ 1002f5d8     libucrt:lcidtoname_downlevel.obj
 0002:000035e0       ??_C@_15PCFJPHHO@?$AAe?$AAt?$AA?$AA@ 1002f5e0     libucrt:lcidtoname_downlevel.obj
 0002:000035e8       ??_C@_15HPFPGODN@?$AAl?$AAv?$AA?$AA@ 1002f5e8     libucrt:lcidtoname_downlevel.obj
 0002:000035f0       ??_C@_15NFFGKGLG@?$AAl?$AAt?$AA?$AA@ 1002f5f0     libucrt:lcidtoname_downlevel.obj
 0002:000035f8       ??_C@_15BDAKCCHN@?$AAf?$AAa?$AA?$AA@ 1002f5f8     libucrt:lcidtoname_downlevel.obj
 0002:00003600       ??_C@_15NFGIAIAJ@?$AAv?$AAi?$AA?$AA@ 1002f600     libucrt:lcidtoname_downlevel.obj
 0002:00003608       ??_C@_15LMKNDMHN@?$AAh?$AAy?$AA?$AA@ 1002f608     libucrt:lcidtoname_downlevel.obj
 0002:00003610       ??_C@_15IJBHMCFL@?$AAa?$AAz?$AA?$AA@ 1002f610     libucrt:lcidtoname_downlevel.obj
 0002:00003618       ??_C@_15EKOFJABL@?$AAe?$AAu?$AA?$AA@ 1002f618     libucrt:lcidtoname_downlevel.obj
 0002:00003620       ??_C@_15BGHADCNK@?$AAm?$AAk?$AA?$AA@ 1002f620     libucrt:lcidtoname_downlevel.obj
 0002:00003628       ??_C@_15JDNICKHM@?$AAa?$AAf?$AA?$AA@ 1002f628     libucrt:lcidtoname_downlevel.obj
 0002:00003630       ??_C@_15KPJEDBKD@?$AAk?$AAa?$AA?$AA@ 1002f630     libucrt:lcidtoname_downlevel.obj
 0002:00003638       ??_C@_15PDNFFFEO@?$AAf?$AAo?$AA?$AA@ 1002f638     libucrt:lcidtoname_downlevel.obj
 0002:00003640       ??_C@_15OMLEGLOC@?$AAh?$AAi?$AA?$AA@ 1002f640     libucrt:lcidtoname_downlevel.obj
 0002:00003648       ??_C@_15IDNNENKK@?$AAm?$AAs?$AA?$AA@ 1002f648     libucrt:lcidtoname_downlevel.obj
 0002:00003650       ??_C@_15MACJNBMH@?$AAk?$AAk?$AA?$AA@ 1002f650     libucrt:lcidtoname_downlevel.obj
 0002:00003658       ??_C@_15DKDJEOND@?$AAk?$AAy?$AA?$AA@ 1002f658     libucrt:lcidtoname_downlevel.obj
 0002:00003660       ??_C@_15DFGDLJBG@?$AAs?$AAw?$AA?$AA@ 1002f660     libucrt:lcidtoname_downlevel.obj
 0002:00003668       ??_C@_15BBFAICNG@?$AAu?$AAz?$AA?$AA@ 1002f668     libucrt:lcidtoname_downlevel.obj
 0002:00003670       ??_C@_15DKNDCGEA@?$AAt?$AAt?$AA?$AA@ 1002f670     libucrt:lcidtoname_downlevel.obj
 0002:00003678       ??_C@_15MGIFMDPL@?$AAp?$AAa?$AA?$AA@ 1002f678     libucrt:lcidtoname_downlevel.obj
 0002:00003680       ??_C@_15HCNDBBA@?$AAg?$AAu?$AA?$AA@ 1002f680     libucrt:lcidtoname_downlevel.obj
 0002:00003688       ??_C@_15FNBEIBON@?$AAt?$AAa?$AA?$AA@ 1002f688     libucrt:lcidtoname_downlevel.obj
 0002:00003690       ??_C@_15NCHGBGLK@?$AAt?$AAe?$AA?$AA@ 1002f690     libucrt:lcidtoname_downlevel.obj
 0002:00003698       ??_C@_15PHPHCBPF@?$AAk?$AAn?$AA?$AA@ 1002f698     libucrt:lcidtoname_downlevel.obj
 0002:000036a0       ??_C@_15DLGBCKMP@?$AAm?$AAr?$AA?$AA@ 1002f6a0     libucrt:lcidtoname_downlevel.obj
 0002:000036a8       ??_C@_15EABBLBFF@?$AAs?$AAa?$AA?$AA@ 1002f6a8     libucrt:lcidtoname_downlevel.obj
 0002:000036b0       ??_C@_15CBKOMCOI@?$AAm?$AAn?$AA?$AA@ 1002f6b0     libucrt:lcidtoname_downlevel.obj
 0002:000036b8       ??_C@_15CKDMCJAF@?$AAg?$AAl?$AA?$AA@ 1002f6b8     libucrt:lcidtoname_downlevel.obj
 0002:000036c0       ??_C@_17CNJFBPG@?$AAk?$AAo?$AAk?$AA?$AA@ 1002f6c0     libucrt:lcidtoname_downlevel.obj
 0002:000036c8       ??_C@_17FFBJICPL@?$AAs?$AAy?$AAr?$AA?$AA@ 1002f6c8     libucrt:lcidtoname_downlevel.obj
 0002:000036d0       ??_C@_17KPNDCPAF@?$AAd?$AAi?$AAv?$AA?$AA@ 1002f6d0     libucrt:lcidtoname_downlevel.obj
 0002:000036d8       ??_C@_11LOCGONAA@?$AA?$AA@ 1002f6d8     libucrt:lcidtoname_downlevel.obj
 0002:000036dc       ??_C@_1M@OKAHONE@?$AAa?$AAr?$AA?9?$AAS?$AAA?$AA?$AA@ 1002f6dc     libucrt:lcidtoname_downlevel.obj
 0002:000036e8       ??_C@_1M@FFFIGIGK@?$AAb?$AAg?$AA?9?$AAB?$AAG?$AA?$AA@ 1002f6e8     libucrt:lcidtoname_downlevel.obj
 0002:000036f4       ??_C@_1M@BJNKEDC@?$AAc?$AAa?$AA?9?$AAE?$AAS?$AA?$AA@ 1002f6f4     libucrt:lcidtoname_downlevel.obj
 0002:00003700       ??_C@_1M@IJJHFJHA@?$AAc?$AAs?$AA?9?$AAC?$AAZ?$AA?$AA@ 1002f700     libucrt:lcidtoname_downlevel.obj
 0002:0000370c       ??_C@_1M@CLPEOBGI@?$AAd?$AAa?$AA?9?$AAD?$AAK?$AA?$AA@ 1002f70c     libucrt:lcidtoname_downlevel.obj
 0002:00003718       ??_C@_1M@MCMADGCB@?$AAd?$AAe?$AA?9?$AAD?$AAE?$AA?$AA@ 1002f718     libucrt:lcidtoname_downlevel.obj
 0002:00003724       ??_C@_1M@OOCKEMAM@?$AAe?$AAl?$AA?9?$AAG?$AAR?$AA?$AA@ 1002f724     libucrt:lcidtoname_downlevel.obj
 0002:00003730       ??_C@_1M@DDNJFGID@?$AAf?$AAi?$AA?9?$AAF?$AAI?$AA?$AA@ 1002f730     libucrt:lcidtoname_downlevel.obj
 0002:0000373c       ??_C@_1M@GLIPPMAC@?$AAf?$AAr?$AA?9?$AAF?$AAR?$AA?$AA@ 1002f73c     libucrt:lcidtoname_downlevel.obj
 0002:00003748       ??_C@_1M@GFMCHPE@?$AAh?$AAe?$AA?9?$AAI?$AAL?$AA?$AA@ 1002f748     libucrt:lcidtoname_downlevel.obj
 0002:00003754       ??_C@_1M@MHLPGNKM@?$AAh?$AAu?$AA?9?$AAH?$AAU?$AA?$AA@ 1002f754     libucrt:lcidtoname_downlevel.obj
 0002:00003760       ??_C@_1M@LPDDNNPN@?$AAi?$AAs?$AA?9?$AAI?$AAS?$AA?$AA@ 1002f760     libucrt:lcidtoname_downlevel.obj
 0002:0000376c       ??_C@_1M@MADIPODN@?$AAi?$AAt?$AA?9?$AAI?$AAT?$AA?$AA@ 1002f76c     libucrt:lcidtoname_downlevel.obj
 0002:00003778       ??_C@_1M@IHBJJGG@?$AAn?$AAl?$AA?9?$AAN?$AAL?$AA?$AA@ 1002f778     libucrt:lcidtoname_downlevel.obj
 0002:00003784       ??_C@_1M@EANAGDL@?$AAn?$AAb?$AA?9?$AAN?$AAO?$AA?$AA@ 1002f784     libucrt:lcidtoname_downlevel.obj
 0002:00003790       ??_C@_1M@NEIEMEGP@?$AAp?$AAl?$AA?9?$AAP?$AAL?$AA?$AA@ 1002f790     libucrt:lcidtoname_downlevel.obj
 0002:0000379c       ??_C@_1M@BOCFIGEP@?$AAp?$AAt?$AA?9?$AAB?$AAR?$AA?$AA@ 1002f79c     libucrt:lcidtoname_downlevel.obj
 0002:000037a8       ??_C@_1M@IMPFOPBG@?$AAr?$AAo?$AA?9?$AAR?$AAO?$AA?$AA@ 1002f7a8     libucrt:lcidtoname_downlevel.obj
 0002:000037b4       ??_C@_1M@IDNNEJMM@?$AAr?$AAu?$AA?9?$AAR?$AAU?$AA?$AA@ 1002f7b4     libucrt:lcidtoname_downlevel.obj
 0002:000037c0       ??_C@_1M@LILEEOGM@?$AAh?$AAr?$AA?9?$AAH?$AAR?$AA?$AA@ 1002f7c0     libucrt:lcidtoname_downlevel.obj
 0002:000037cc       ??_C@_1M@FKIFEHPB@?$AAs?$AAk?$AA?9?$AAS?$AAK?$AA?$AA@ 1002f7cc     libucrt:lcidtoname_downlevel.obj
 0002:000037d8       ??_C@_1M@LJMAMNPJ@?$AAs?$AAq?$AA?9?$AAA?$AAL?$AA?$AA@ 1002f7d8     libucrt:lcidtoname_downlevel.obj
 0002:000037e4       ??_C@_1M@GIAKDKJK@?$AAs?$AAv?$AA?9?$AAS?$AAE?$AA?$AA@ 1002f7e4     libucrt:lcidtoname_downlevel.obj
 0002:000037f0       ??_C@_1M@MKJKIKCL@?$AAt?$AAh?$AA?9?$AAT?$AAH?$AA?$AA@ 1002f7f0     libucrt:lcidtoname_downlevel.obj
 0002:000037fc       ??_C@_1M@MFLCCMPB@?$AAt?$AAr?$AA?9?$AAT?$AAR?$AA?$AA@ 1002f7fc     libucrt:lcidtoname_downlevel.obj
 0002:00003808       ??_C@_1M@OIJHDKJN@?$AAu?$AAr?$AA?9?$AAP?$AAK?$AA?$AA@ 1002f808     libucrt:lcidtoname_downlevel.obj
 0002:00003814       ??_C@_1M@LHIPCIEK@?$AAi?$AAd?$AA?9?$AAI?$AAD?$AA?$AA@ 1002f814     libucrt:lcidtoname_downlevel.obj
 0002:00003820       ??_C@_1M@MFMOBGI@?$AAu?$AAk?$AA?9?$AAU?$AAA?$AA?$AA@ 1002f820     libucrt:lcidtoname_downlevel.obj
 0002:0000382c       ??_C@_1M@OBGLJIPL@?$AAb?$AAe?$AA?9?$AAB?$AAY?$AA?$AA@ 1002f82c     libucrt:lcidtoname_downlevel.obj
 0002:00003838       ??_C@_1M@BCFAJEAD@?$AAs?$AAl?$AA?9?$AAS?$AAI?$AA?$AA@ 1002f838     libucrt:lcidtoname_downlevel.obj
 0002:00003844       ??_C@_1M@FKFFEDDN@?$AAe?$AAt?$AA?9?$AAE?$AAE?$AA?$AA@ 1002f844     libucrt:lcidtoname_downlevel.obj
 0002:00003850       ??_C@_1M@KGKKAACI@?$AAl?$AAv?$AA?9?$AAL?$AAV?$AA?$AA@ 1002f850     libucrt:lcidtoname_downlevel.obj
 0002:0000385c       ??_C@_1M@IFGBIJO@?$AAl?$AAt?$AA?9?$AAL?$AAT?$AA?$AA@ 1002f85c     libucrt:lcidtoname_downlevel.obj
 0002:00003868       ??_C@_1M@FGEAHEDM@?$AAf?$AAa?$AA?9?$AAI?$AAR?$AA?$AA@ 1002f868     libucrt:lcidtoname_downlevel.obj
 0002:00003874       ??_C@_1M@KBMAIBFN@?$AAv?$AAi?$AA?9?$AAV?$AAN?$AA?$AA@ 1002f874     libucrt:lcidtoname_downlevel.obj
 0002:00003880       ??_C@_1M@GPCBKDJK@?$AAh?$AAy?$AA?9?$AAA?$AAM?$AA?$AA@ 1002f880     libucrt:lcidtoname_downlevel.obj
 0002:0000388c       ??_C@_1BG@BECMDDJB@?$AAa?$AAz?$AA?9?$AAA?$AAZ?$AA?9?$AAL?$AAa?$AAt?$AAn?$AA?$AA@ 1002f88c     libucrt:lcidtoname_downlevel.obj
 0002:000038a4       ??_C@_1M@MAOFCAEA@?$AAe?$AAu?$AA?9?$AAE?$AAS?$AA?$AA@ 1002f8a4     libucrt:lcidtoname_downlevel.obj
 0002:000038b0       ??_C@_1M@IGHABKPI@?$AAm?$AAk?$AA?9?$AAM?$AAK?$AA?$AA@ 1002f8b0     libucrt:lcidtoname_downlevel.obj
 0002:000038bc       ??_C@_1M@IAIGNEJG@?$AAt?$AAn?$AA?9?$AAZ?$AAA?$AA?$AA@ 1002f8bc     libucrt:lcidtoname_downlevel.obj
 0002:000038c8       ??_C@_1M@IIJCOJFA@?$AAx?$AAh?$AA?9?$AAZ?$AAA?$AA?$AA@ 1002f8c8     libucrt:lcidtoname_downlevel.obj
 0002:000038d4       ??_C@_1M@LGPJHNJH@?$AAz?$AAu?$AA?9?$AAZ?$AAA?$AA?$AA@ 1002f8d4     libucrt:lcidtoname_downlevel.obj
 0002:000038e0       ??_C@_1M@HOKAOIO@?$AAa?$AAf?$AA?9?$AAZ?$AAA?$AA?$AA@ 1002f8e0     libucrt:lcidtoname_downlevel.obj
 0002:000038ec       ??_C@_1M@DPCLHLIE@?$AAk?$AAa?$AA?9?$AAG?$AAE?$AA?$AA@ 1002f8ec     libucrt:lcidtoname_downlevel.obj
 0002:000038f8       ??_C@_1M@BLKMHJBI@?$AAf?$AAo?$AA?9?$AAF?$AAO?$AA?$AA@ 1002f8f8     libucrt:lcidtoname_downlevel.obj
 0002:00003904       ??_C@_1M@LGGJAPPB@?$AAh?$AAi?$AA?9?$AAI?$AAN?$AA?$AA@ 1002f904     libucrt:lcidtoname_downlevel.obj
 0002:00003910       ??_C@_1M@FIKPIHFE@?$AAm?$AAt?$AA?9?$AAM?$AAT?$AA?$AA@ 1002f910     libucrt:lcidtoname_downlevel.obj
 0002:0000391c       ??_C@_1M@HEGGPBFA@?$AAs?$AAe?$AA?9?$AAN?$AAO?$AA?$AA@ 1002f91c     libucrt:lcidtoname_downlevel.obj
 0002:00003928       ??_C@_1M@EIBJEEPA@?$AAm?$AAs?$AA?9?$AAM?$AAY?$AA?$AA@ 1002f928     libucrt:lcidtoname_downlevel.obj
 0002:00003934       ??_C@_1M@FHLBGMPP@?$AAk?$AAk?$AA?9?$AAK?$AAZ?$AA?$AA@ 1002f934     libucrt:lcidtoname_downlevel.obj
 0002:00003940       ??_C@_1M@NGJJLCGI@?$AAk?$AAy?$AA?9?$AAK?$AAG?$AA?$AA@ 1002f940     libucrt:lcidtoname_downlevel.obj
 0002:0000394c       ??_C@_1M@GIENNBFC@?$AAs?$AAw?$AA?9?$AAK?$AAE?$AA?$AA@ 1002f94c     libucrt:lcidtoname_downlevel.obj
 0002:00003958       ??_C@_1BG@NDGMJIMJ@?$AAu?$AAz?$AA?9?$AAU?$AAZ?$AA?9?$AAL?$AAa?$AAt?$AAn?$AA?$AA@ 1002f958     libucrt:lcidtoname_downlevel.obj
 0002:00003970       ??_C@_1M@IDCCIHBC@?$AAt?$AAt?$AA?9?$AAR?$AAU?$AA?$AA@ 1002f970     libucrt:lcidtoname_downlevel.obj
 0002:0000397c       ??_C@_1M@LOICPMOJ@?$AAb?$AAn?$AA?9?$AAI?$AAN?$AA?$AA@ 1002f97c     libucrt:lcidtoname_downlevel.obj
 0002:00003988       ??_C@_1M@KPKKNEAH@?$AAp?$AAa?$AA?9?$AAI?$AAN?$AA?$AA@ 1002f988     libucrt:lcidtoname_downlevel.obj
 0002:00003994       ??_C@_1M@PJGPPBOG@?$AAg?$AAu?$AA?9?$AAI?$AAN?$AA?$AA@ 1002f994     libucrt:lcidtoname_downlevel.obj
 0002:000039a0       ??_C@_1M@KMKMOPHI@?$AAt?$AAa?$AA?9?$AAI?$AAN?$AA?$AA@ 1002f9a0     libucrt:lcidtoname_downlevel.obj
 0002:000039ac       ??_C@_1M@KFEHEPAC@?$AAt?$AAe?$AA?9?$AAI?$AAN?$AA?$AA@ 1002f9ac     libucrt:lcidtoname_downlevel.obj
 0002:000039b8       ??_C@_1M@CDCLMGHI@?$AAk?$AAn?$AA?9?$AAI?$AAN?$AA?$AA@ 1002f9b8     libucrt:lcidtoname_downlevel.obj
 0002:000039c4       ??_C@_1M@MIODLDKF@?$AAm?$AAl?$AA?9?$AAI?$AAN?$AA?$AA@ 1002f9c4     libucrt:lcidtoname_downlevel.obj
 0002:000039d0       ??_C@_1M@PBIEACPO@?$AAm?$AAr?$AA?9?$AAI?$AAN?$AA?$AA@ 1002f9d0     libucrt:lcidtoname_downlevel.obj
 0002:000039dc       ??_C@_1M@NIDEAGPH@?$AAs?$AAa?$AA?9?$AAI?$AAN?$AA?$AA@ 1002f9dc     libucrt:lcidtoname_downlevel.obj
 0002:000039e8       ??_C@_1M@FHIHCBIO@?$AAm?$AAn?$AA?9?$AAM?$AAN?$AA?$AA@ 1002f9e8     libucrt:lcidtoname_downlevel.obj
 0002:000039f4       ??_C@_1M@JAIJPENP@?$AAc?$AAy?$AA?9?$AAG?$AAB?$AA?$AA@ 1002f9f4     libucrt:lcidtoname_downlevel.obj
 0002:00003a00       ??_C@_1M@PHGFBEPN@?$AAg?$AAl?$AA?9?$AAE?$AAS?$AA?$AA@ 1002fa00     libucrt:lcidtoname_downlevel.obj
 0002:00003a0c       ??_C@_1O@KPIPDNCP@?$AAk?$AAo?$AAk?$AA?9?$AAI?$AAN?$AA?$AA@ 1002fa0c     libucrt:lcidtoname_downlevel.obj
 0002:00003a1c       ??_C@_1O@KNHJLDJA@?$AAs?$AAy?$AAr?$AA?9?$AAS?$AAY?$AA?$AA@ 1002fa1c     libucrt:lcidtoname_downlevel.obj
 0002:00003a2c       ??_C@_1O@MKEKBLAH@?$AAd?$AAi?$AAv?$AA?9?$AAM?$AAV?$AA?$AA@ 1002fa2c     libucrt:lcidtoname_downlevel.obj
 0002:00003a3c       ??_C@_1O@OHDCKDDF@?$AAq?$AAu?$AAz?$AA?9?$AAB?$AAO?$AA?$AA@ 1002fa3c     libucrt:lcidtoname_downlevel.obj
 0002:00003a4c       ??_C@_1M@LEPJNLFD@?$AAn?$AAs?$AA?9?$AAZ?$AAA?$AA?$AA@ 1002fa4c     libucrt:lcidtoname_downlevel.obj
 0002:00003a58       ??_C@_1M@OMLEIIJB@?$AAm?$AAi?$AA?9?$AAN?$AAZ?$AA?$AA@ 1002fa58     libucrt:lcidtoname_downlevel.obj
 0002:00003a64       ??_C@_1M@PMPEAILG@?$AAa?$AAr?$AA?9?$AAI?$AAQ?$AA?$AA@ 1002fa64     libucrt:lcidtoname_downlevel.obj
 0002:00003a70       ??_C@_1M@CNKPNOEE@?$AAd?$AAe?$AA?9?$AAC?$AAH?$AA?$AA@ 1002fa70     libucrt:lcidtoname_downlevel.obj
 0002:00003a7c       ??_C@_1M@LKMGMLKO@?$AAe?$AAn?$AA?9?$AAG?$AAB?$AA?$AA@ 1002fa7c     libucrt:lcidtoname_downlevel.obj
 0002:00003a88       ??_C@_1M@PGKJFFGL@?$AAe?$AAs?$AA?9?$AAM?$AAX?$AA?$AA@ 1002fa88     libucrt:lcidtoname_downlevel.obj
 0002:00003a94       ??_C@_1M@DNNANBDC@?$AAf?$AAr?$AA?9?$AAB?$AAE?$AA?$AA@ 1002fa94     libucrt:lcidtoname_downlevel.obj
 0002:00003aa0       ??_C@_1M@HLGMDFHM@?$AAi?$AAt?$AA?9?$AAC?$AAH?$AA?$AA@ 1002faa0     libucrt:lcidtoname_downlevel.obj
 0002:00003aac       ??_C@_1M@CLLBGJH@?$AAn?$AAl?$AA?9?$AAB?$AAE?$AA?$AA@ 1002faac     libucrt:lcidtoname_downlevel.obj
 0002:00003ab8       ??_C@_1M@BODBOGLF@?$AAn?$AAn?$AA?9?$AAN?$AAO?$AA?$AA@ 1002fab8     libucrt:lcidtoname_downlevel.obj
 0002:00003ac4       ??_C@_1M@HFFAHKAD@?$AAp?$AAt?$AA?9?$AAP?$AAT?$AA?$AA@ 1002fac4     libucrt:lcidtoname_downlevel.obj
 0002:00003ad0       ??_C@_1BG@LNOAKHIE@?$AAs?$AAr?$AA?9?$AAS?$AAP?$AA?9?$AAL?$AAa?$AAt?$AAn?$AA?$AA@ 1002fad0     libucrt:lcidtoname_downlevel.obj
 0002:00003ae8       ??_C@_1M@HBMHBGAK@?$AAs?$AAv?$AA?9?$AAF?$AAI?$AA?$AA@ 1002fae8     libucrt:lcidtoname_downlevel.obj
 0002:00003af4       ??_C@_1BG@DGCJGJBE@?$AAa?$AAz?$AA?9?$AAA?$AAZ?$AA?9?$AAC?$AAy?$AAr?$AAl?$AA?$AA@ 1002faf4     libucrt:lcidtoname_downlevel.obj
 0002:00003b0c       ??_C@_1M@KEJDAAHB@?$AAs?$AAe?$AA?9?$AAS?$AAE?$AA?$AA@ 1002fb0c     libucrt:lcidtoname_downlevel.obj
 0002:00003b18       ??_C@_1M@HEIBJJAD@?$AAm?$AAs?$AA?9?$AAB?$AAN?$AA?$AA@ 1002fb18     libucrt:lcidtoname_downlevel.obj
 0002:00003b24       ??_C@_1BG@PBGJMCEM@?$AAu?$AAz?$AA?9?$AAU?$AAZ?$AA?9?$AAC?$AAy?$AAr?$AAl?$AA?$AA@ 1002fb24     libucrt:lcidtoname_downlevel.obj
 0002:00003b3c       ??_C@_1O@LAOBCMDF@?$AAq?$AAu?$AAz?$AA?9?$AAE?$AAC?$AA?$AA@ 1002fb3c     libucrt:lcidtoname_downlevel.obj
 0002:00003b4c       ??_C@_1M@POEEMAIO@?$AAa?$AAr?$AA?9?$AAE?$AAG?$AA?$AA@ 1002fb4c     libucrt:lcidtoname_downlevel.obj
 0002:00003b58       ??_C@_1M@EFAKDEDL@?$AAz?$AAh?$AA?9?$AAH?$AAK?$AA?$AA@ 1002fb58     libucrt:lcidtoname_downlevel.obj
 0002:00003b64       ??_C@_1M@HKKIJHGI@?$AAd?$AAe?$AA?9?$AAA?$AAT?$AA?$AA@ 1002fb64     libucrt:lcidtoname_downlevel.obj
 0002:00003b70       ??_C@_1M@KBFBEHJF@?$AAe?$AAn?$AA?9?$AAA?$AAU?$AA?$AA@ 1002fb70     libucrt:lcidtoname_downlevel.obj
 0002:00003b7c       ??_C@_1M@MNPLFAAH@?$AAe?$AAs?$AA?9?$AAE?$AAS?$AA?$AA@ 1002fb7c     libucrt:lcidtoname_downlevel.obj
 0002:00003b88       ??_C@_1M@HJOOJFMA@?$AAf?$AAr?$AA?9?$AAC?$AAA?$AA?$AA@ 1002fb88     libucrt:lcidtoname_downlevel.obj
 0002:00003b94       ??_C@_1BG@JPOFPNAB@?$AAs?$AAr?$AA?9?$AAS?$AAP?$AA?9?$AAC?$AAy?$AAr?$AAl?$AA?$AA@ 1002fb94     libucrt:lcidtoname_downlevel.obj
 0002:00003bac       ??_C@_1M@LNFOCMOB@?$AAs?$AAe?$AA?9?$AAF?$AAI?$AA?$AA@ 1002fbac     libucrt:lcidtoname_downlevel.obj
 0002:00003bb8       ??_C@_1O@MGJBOAMB@?$AAq?$AAu?$AAz?$AA?9?$AAP?$AAE?$AA?$AA@ 1002fbb8     libucrt:lcidtoname_downlevel.obj
 0002:00003bc8       ??_C@_1M@GJINLBOK@?$AAa?$AAr?$AA?9?$AAL?$AAY?$AA?$AA@ 1002fbc8     libucrt:lcidtoname_downlevel.obj
 0002:00003bd4       ??_C@_1M@GGMNHJNL@?$AAz?$AAh?$AA?9?$AAS?$AAG?$AA?$AA@ 1002fbd4     libucrt:lcidtoname_downlevel.obj
 0002:00003be0       ??_C@_1M@HOIKODND@?$AAd?$AAe?$AA?9?$AAL?$AAU?$AA?$AA@ 1002fbe0     libucrt:lcidtoname_downlevel.obj
 0002:00003bec       ??_C@_1M@DDOCCGFG@?$AAe?$AAn?$AA?9?$AAC?$AAA?$AA?$AA@ 1002fbec     libucrt:lcidtoname_downlevel.obj
 0002:00003bf8       ??_C@_1M@BNOEMJLF@?$AAe?$AAs?$AA?9?$AAG?$AAT?$AA?$AA@ 1002fbf8     libucrt:lcidtoname_downlevel.obj
 0002:00003c04       ??_C@_1M@EOGNKEK@?$AAf?$AAr?$AA?9?$AAC?$AAH?$AA?$AA@ 1002fc04     libucrt:lcidtoname_downlevel.obj
 0002:00003c10       ??_C@_1M@FLIDJFHL@?$AAh?$AAr?$AA?9?$AAB?$AAA?$AA?$AA@ 1002fc10     libucrt:lcidtoname_downlevel.obj
 0002:00003c1c       ??_C@_1O@FMCELNAJ@?$AAs?$AAm?$AAj?$AA?9?$AAN?$AAO?$AA?$AA@ 1002fc1c     libucrt:lcidtoname_downlevel.obj
 0002:00003c2c       ??_C@_1M@JHGLJMGJ@?$AAa?$AAr?$AA?9?$AAD?$AAZ?$AA?$AA@ 1002fc2c     libucrt:lcidtoname_downlevel.obj
 0002:00003c38       ??_C@_1M@JKKFDCNP@?$AAz?$AAh?$AA?9?$AAM?$AAO?$AA?$AA@ 1002fc38     libucrt:lcidtoname_downlevel.obj
 0002:00003c44       ??_C@_1M@GEEFALPE@?$AAd?$AAe?$AA?9?$AAL?$AAI?$AA?$AA@ 1002fc44     libucrt:lcidtoname_downlevel.obj
 0002:00003c50       ??_C@_1M@IGEOFBG@?$AAe?$AAn?$AA?9?$AAN?$AAZ?$AA?$AA@ 1002fc50     libucrt:lcidtoname_downlevel.obj
 0002:00003c5c       ??_C@_1M@KDBONEHP@?$AAe?$AAs?$AA?9?$AAC?$AAR?$AA?$AA@ 1002fc5c     libucrt:lcidtoname_downlevel.obj
 0002:00003c68       ??_C@_1M@FHMDOHNN@?$AAf?$AAr?$AA?9?$AAL?$AAU?$AA?$AA@ 1002fc68     libucrt:lcidtoname_downlevel.obj
 0002:00003c74       ??_C@_1BG@NFKKMAFG@?$AAb?$AAs?$AA?9?$AAB?$AAA?$AA?9?$AAL?$AAa?$AAt?$AAn?$AA?$AA@ 1002fc74     libucrt:lcidtoname_downlevel.obj
 0002:00003c8c       ??_C@_1O@IMNBEMCI@?$AAs?$AAm?$AAj?$AA?9?$AAS?$AAE?$AA?$AA@ 1002fc8c     libucrt:lcidtoname_downlevel.obj
 0002:00003c9c       ??_C@_1M@DHHMBNDP@?$AAa?$AAr?$AA?9?$AAM?$AAA?$AA?$AA@ 1002fc9c     libucrt:lcidtoname_downlevel.obj
 0002:00003ca8       ??_C@_1M@BNBLJCGH@?$AAe?$AAn?$AA?9?$AAI?$AAE?$AA?$AA@ 1002fca8     libucrt:lcidtoname_downlevel.obj
 0002:00003cb4       ??_C@_1M@GEPAFMDL@?$AAe?$AAs?$AA?9?$AAP?$AAA?$AA?$AA@ 1002fcb4     libucrt:lcidtoname_downlevel.obj
 0002:00003cc0       ??_C@_1M@OJONDMDL@?$AAf?$AAr?$AA?9?$AAM?$AAC?$AA?$AA@ 1002fcc0     libucrt:lcidtoname_downlevel.obj
 0002:00003ccc       ??_C@_1BG@OBCNFJB@?$AAs?$AAr?$AA?9?$AAB?$AAA?$AA?9?$AAL?$AAa?$AAt?$AAn?$AA?$AA@ 1002fccc     libucrt:lcidtoname_downlevel.obj
 0002:00003ce4       ??_C@_1O@KEMEEGPO@?$AAs?$AAm?$AAa?$AA?9?$AAN?$AAO?$AA?$AA@ 1002fce4     libucrt:lcidtoname_downlevel.obj
 0002:00003cf4       ??_C@_1M@ELMGFODK@?$AAa?$AAr?$AA?9?$AAT?$AAN?$AA?$AA@ 1002fcf4     libucrt:lcidtoname_downlevel.obj
 0002:00003d00       ??_C@_1M@BHDLHFAF@?$AAe?$AAn?$AA?9?$AAZ?$AAA?$AA?$AA@ 1002fd00     libucrt:lcidtoname_downlevel.obj
 0002:00003d0c       ??_C@_1M@BMGIGLIF@?$AAe?$AAs?$AA?9?$AAD?$AAO?$AA?$AA@ 1002fd0c     libucrt:lcidtoname_downlevel.obj
 0002:00003d18       ??_C@_1BG@CMBHIPBE@?$AAs?$AAr?$AA?9?$AAB?$AAA?$AA?9?$AAC?$AAy?$AAr?$AAl?$AA?$AA@ 1002fd18     libucrt:lcidtoname_downlevel.obj
 0002:00003d30       ??_C@_1O@HEDBLHNP@?$AAs?$AAm?$AAa?$AA?9?$AAS?$AAE?$AA?$AA@ 1002fd30     libucrt:lcidtoname_downlevel.obj
 0002:00003d40       ??_C@_1M@DAGCADIM@?$AAa?$AAr?$AA?9?$AAO?$AAM?$AA?$AA@ 1002fd40     libucrt:lcidtoname_downlevel.obj
 0002:00003d4c       ??_C@_1M@FODLMICG@?$AAe?$AAn?$AA?9?$AAJ?$AAM?$AA?$AA@ 1002fd4c     libucrt:lcidtoname_downlevel.obj
 0002:00003d58       ??_C@_1M@DNMLCIHB@?$AAe?$AAs?$AA?9?$AAV?$AAE?$AA?$AA@ 1002fd58     libucrt:lcidtoname_downlevel.obj
 0002:00003d64       ??_C@_1O@EOKHMKJK@?$AAs?$AAm?$AAs?$AA?9?$AAF?$AAI?$AA?$AA@ 1002fd64     libucrt:lcidtoname_downlevel.obj
 0002:00003d74       ??_C@_1M@CAFJMKOF@?$AAa?$AAr?$AA?9?$AAY?$AAE?$AA?$AA@ 1002fd74     libucrt:lcidtoname_downlevel.obj
 0002:00003d80       ??_C@_1M@CBFHIJLI@?$AAe?$AAn?$AA?9?$AAC?$AAB?$AA?$AA@ 1002fd80     libucrt:lcidtoname_downlevel.obj
 0002:00003d8c       ??_C@_1M@BGNFLDN@?$AAe?$AAs?$AA?9?$AAC?$AAO?$AA?$AA@ 1002fd8c     libucrt:lcidtoname_downlevel.obj
 0002:00003d98       ??_C@_1O@JMPHMAMC@?$AAs?$AAm?$AAn?$AA?9?$AAF?$AAI?$AA?$AA@ 1002fd98     libucrt:lcidtoname_downlevel.obj
 0002:00003da8       ??_C@_1M@JLANABKE@?$AAa?$AAr?$AA?9?$AAS?$AAY?$AA?$AA@ 1002fda8     libucrt:lcidtoname_downlevel.obj
 0002:00003db4       ??_C@_1M@HPKGCFGN@?$AAe?$AAn?$AA?9?$AAB?$AAZ?$AA?$AA@ 1002fdb4     libucrt:lcidtoname_downlevel.obj
 0002:00003dc0       ??_C@_1M@OLJCMLGM@?$AAe?$AAs?$AA?9?$AAP?$AAE?$AA?$AA@ 1002fdc0     libucrt:lcidtoname_downlevel.obj
 0002:00003dcc       ??_C@_1M@MKKGFKLE@?$AAa?$AAr?$AA?9?$AAJ?$AAO?$AA?$AA@ 1002fdcc     libucrt:lcidtoname_downlevel.obj
 0002:00003dd8       ??_C@_1M@EKPGLDNI@?$AAe?$AAn?$AA?9?$AAT?$AAT?$AA?$AA@ 1002fdd8     libucrt:lcidtoname_downlevel.obj
 0002:00003de4       ??_C@_1M@OONGHFHE@?$AAe?$AAs?$AA?9?$AAA?$AAR?$AA?$AA@ 1002fde4     libucrt:lcidtoname_downlevel.obj
 0002:00003df0       ??_C@_1M@OOJFGBHE@?$AAa?$AAr?$AA?9?$AAL?$AAB?$AA?$AA@ 1002fdf0     libucrt:lcidtoname_downlevel.obj
 0002:00003dfc       ??_C@_1M@GCEJHNEG@?$AAe?$AAn?$AA?9?$AAZ?$AAW?$AA?$AA@ 1002fdfc     libucrt:lcidtoname_downlevel.obj
 0002:00003e08       ??_C@_1M@JNOCAHJI@?$AAe?$AAs?$AA?9?$AAE?$AAC?$AA?$AA@ 1002fe08     libucrt:lcidtoname_downlevel.obj
 0002:00003e14       ??_C@_1M@JEFHPGGB@?$AAa?$AAr?$AA?9?$AAK?$AAW?$AA?$AA@ 1002fe14     libucrt:lcidtoname_downlevel.obj
 0002:00003e20       ??_C@_1M@MLKIBJOJ@?$AAe?$AAn?$AA?9?$AAP?$AAH?$AA?$AA@ 1002fe20     libucrt:lcidtoname_downlevel.obj
 0002:00003e2c       ??_C@_1M@BDNIPEND@?$AAe?$AAs?$AA?9?$AAC?$AAL?$AA?$AA@ 1002fe2c     libucrt:lcidtoname_downlevel.obj
 0002:00003e38       ??_C@_1M@MPNMEKBD@?$AAa?$AAr?$AA?9?$AAA?$AAE?$AA?$AA@ 1002fe38     libucrt:lcidtoname_downlevel.obj
 0002:00003e44       ??_C@_1M@KBJALCPI@?$AAe?$AAs?$AA?9?$AAU?$AAY?$AA?$AA@ 1002fe44     libucrt:lcidtoname_downlevel.obj
 0002:00003e50       ??_C@_1M@LLCCOAGA@?$AAa?$AAr?$AA?9?$AAB?$AAH?$AA?$AA@ 1002fe50     libucrt:lcidtoname_downlevel.obj
 0002:00003e5c       ??_C@_1M@PBFNCDEL@?$AAe?$AAs?$AA?9?$AAP?$AAY?$AA?$AA@ 1002fe5c     libucrt:lcidtoname_downlevel.obj
 0002:00003e68       ??_C@_1M@EDGINPNP@?$AAa?$AAr?$AA?9?$AAQ?$AAA?$AA?$AA@ 1002fe68     libucrt:lcidtoname_downlevel.obj
 0002:00003e74       ??_C@_1M@MKDBIIJI@?$AAe?$AAs?$AA?9?$AAB?$AAO?$AA?$AA@ 1002fe74     libucrt:lcidtoname_downlevel.obj
 0002:00003e80       ??_C@_1M@CPKKEBLD@?$AAe?$AAs?$AA?9?$AAS?$AAV?$AA?$AA@ 1002fe80     libucrt:lcidtoname_downlevel.obj
 0002:00003e8c       ??_C@_1M@NDBGMMJL@?$AAe?$AAs?$AA?9?$AAH?$AAN?$AA?$AA@ 1002fe8c     libucrt:lcidtoname_downlevel.obj
 0002:00003e98       ??_C@_1M@JIJIBHDP@?$AAe?$AAs?$AA?9?$AAN?$AAI?$AA?$AA@ 1002fe98     libucrt:lcidtoname_downlevel.obj
 0002:00003ea4       ??_C@_1M@CGFMKEEK@?$AAe?$AAs?$AA?9?$AAP?$AAR?$AA?$AA@ 1002fea4     libucrt:lcidtoname_downlevel.obj
 0002:00003eb0       ??_C@_1O@ICJHKIIK@?$AAz?$AAh?$AA?9?$AAC?$AAH?$AAT?$AA?$AA@ 1002feb0     libucrt:lcidtoname_downlevel.obj
 0002:00003ec0       ??_C@_15CLNEJCE@?$AAs?$AAr?$AA?$AA@ 1002fec0     libucrt:lcidtoname_downlevel.obj
 0002:000045e8       ??_C@_1M@KAHEKEIG@?$AAa?$AAf?$AA?9?$AAz?$AAa?$AA?$AA@ 100305e8     libucrt:lcidtoname_downlevel.obj
 0002:000045f4       ??_C@_1M@GIECOABL@?$AAa?$AAr?$AA?9?$AAa?$AAe?$AA?$AA@ 100305f4     libucrt:lcidtoname_downlevel.obj
 0002:00004600       ??_C@_1M@BMLMEKGI@?$AAa?$AAr?$AA?9?$AAb?$AAh?$AA?$AA@ 10030600     libucrt:lcidtoname_downlevel.obj
 0002:0000460c       ??_C@_1M@DAPFDGGB@?$AAa?$AAr?$AA?9?$AAd?$AAz?$AA?$AA@ 1003060c     libucrt:lcidtoname_downlevel.obj
 0002:00004618       ??_C@_1M@FJNKGKIG@?$AAa?$AAr?$AA?9?$AAe?$AAg?$AA?$AA@ 10030618     libucrt:lcidtoname_downlevel.obj
 0002:00004624       ??_C@_1M@FLGKKCLO@?$AAa?$AAr?$AA?9?$AAi?$AAq?$AA?$AA@ 10030624     libucrt:lcidtoname_downlevel.obj
 0002:00004630       ??_C@_1M@GNDIPALM@?$AAa?$AAr?$AA?9?$AAj?$AAo?$AA?$AA@ 10030630     libucrt:lcidtoname_downlevel.obj
 0002:0000463c       ??_C@_1M@DDMJFMGJ@?$AAa?$AAr?$AA?9?$AAk?$AAw?$AA?$AA@ 1003063c     libucrt:lcidtoname_downlevel.obj
 0002:00004648       ??_C@_1M@EJALMLHM@?$AAa?$AAr?$AA?9?$AAl?$AAb?$AA?$AA@ 10030648     libucrt:lcidtoname_downlevel.obj
 0002:00004654       ??_C@_1M@MOBDBLOC@?$AAa?$AAr?$AA?9?$AAl?$AAy?$AA?$AA@ 10030654     libucrt:lcidtoname_downlevel.obj
 0002:00004660       ??_C@_1M@JAOCLHDH@?$AAa?$AAr?$AA?9?$AAm?$AAa?$AA?$AA@ 10030660     libucrt:lcidtoname_downlevel.obj
 0002:0000466c       ??_C@_1M@JHPMKJIE@?$AAa?$AAr?$AA?9?$AAo?$AAm?$AA?$AA@ 1003066c     libucrt:lcidtoname_downlevel.obj
 0002:00004678       ??_C@_1M@OEPGHFNH@?$AAa?$AAr?$AA?9?$AAq?$AAa?$AA?$AA@ 10030678     libucrt:lcidtoname_downlevel.obj
 0002:00004684       ??_C@_1M@KJDONENM@?$AAa?$AAr?$AA?9?$AAs?$AAa?$AA?$AA@ 10030684     libucrt:lcidtoname_downlevel.obj
 0002:00004690       ??_C@_1M@DMJDKLKM@?$AAa?$AAr?$AA?9?$AAs?$AAy?$AA?$AA@ 10030690     libucrt:lcidtoname_downlevel.obj
 0002:0000469c       ??_C@_1M@OMFIPEDC@?$AAa?$AAr?$AA?9?$AAt?$AAn?$AA?$AA@ 1003069c     libucrt:lcidtoname_downlevel.obj
 0002:000046a8       ??_C@_1M@IHMHGAON@?$AAa?$AAr?$AA?9?$AAy?$AAe?$AA?$AA@ 100306a8     libucrt:lcidtoname_downlevel.obj
 0002:000046b4       ??_C@_1BG@KDCPGJGB@?$AAa?$AAz?$AA?9?$AAa?$AAz?$AA?9?$AAc?$AAy?$AAr?$AAl?$AA?$AA@ 100306b4     libucrt:lcidtoname_downlevel.obj
 0002:000046cc       ??_C@_1BG@IBCKDDOE@?$AAa?$AAz?$AA?9?$AAa?$AAz?$AA?9?$AAl?$AAa?$AAt?$AAn?$AA?$AA@ 100306cc     libucrt:lcidtoname_downlevel.obj
 0002:000046e4       ??_C@_1M@EGPFDCPD@?$AAb?$AAe?$AA?9?$AAb?$AAy?$AA?$AA@ 100306e4     libucrt:lcidtoname_downlevel.obj
 0002:000046f0       ??_C@_1M@PCMGMCGC@?$AAb?$AAg?$AA?9?$AAb?$AAg?$AA?$AA@ 100306f0     libucrt:lcidtoname_downlevel.obj
 0002:000046fc       ??_C@_1M@BJBMFGOB@?$AAb?$AAn?$AA?9?$AAi?$AAn?$AA?$AA@ 100306fc     libucrt:lcidtoname_downlevel.obj
 0002:00004708       ??_C@_1BG@EAKMMACD@?$AAb?$AAs?$AA?9?$AAb?$AAa?$AA?9?$AAl?$AAa?$AAt?$AAn?$AA?$AA@ 10030708     libucrt:lcidtoname_downlevel.obj
 0002:00004720       ??_C@_1M@KGADAODK@?$AAc?$AAa?$AA?9?$AAe?$AAs?$AA?$AA@ 10030720     libucrt:lcidtoname_downlevel.obj
 0002:0000472c       ??_C@_1M@COAJPDHI@?$AAc?$AAs?$AA?9?$AAc?$AAz?$AA?$AA@ 1003072c     libucrt:lcidtoname_downlevel.obj
 0002:00004738       ??_C@_1M@DHBHFONH@?$AAc?$AAy?$AA?9?$AAg?$AAb?$AA?$AA@ 10030738     libucrt:lcidtoname_downlevel.obj
 0002:00004744       ??_C@_1M@IMGKELGA@?$AAd?$AAa?$AA?9?$AAd?$AAk?$AA?$AA@ 10030744     libucrt:lcidtoname_downlevel.obj
 0002:00004750       ??_C@_1M@NNDGDNGA@?$AAd?$AAe?$AA?9?$AAa?$AAt?$AA?$AA@ 10030750     libucrt:lcidtoname_downlevel.obj
 0002:0000475c       ??_C@_1M@IKDBHEEM@?$AAd?$AAe?$AA?9?$AAc?$AAh?$AA?$AA@ 1003075c     libucrt:lcidtoname_downlevel.obj
 0002:00004768       ??_C@_1M@GFFOJMCJ@?$AAd?$AAe?$AA?9?$AAd?$AAe?$AA?$AA@ 10030768     libucrt:lcidtoname_downlevel.obj
 0002:00004774       ??_C@_1M@MDNLKBPM@?$AAd?$AAe?$AA?9?$AAl?$AAi?$AA?$AA@ 10030774     libucrt:lcidtoname_downlevel.obj
 0002:00004780       ??_C@_1M@NJBEEJNL@?$AAd?$AAe?$AA?9?$AAl?$AAu?$AA?$AA@ 10030780     libucrt:lcidtoname_downlevel.obj
 0002:0000478c       ??_C@_1O@GNNELBAP@?$AAd?$AAi?$AAv?$AA?9?$AAm?$AAv?$AA?$AA@ 1003078c     libucrt:lcidtoname_downlevel.obj
 0002:0000479c       ??_C@_1M@EJLEOGAE@?$AAe?$AAl?$AA?9?$AAg?$AAr?$AA?$AA@ 1003079c     libucrt:lcidtoname_downlevel.obj
 0002:000047a8       ??_C@_1M@GMPONJN@?$AAe?$AAn?$AA?9?$AAa?$AAu?$AA?$AA@ 100307a8     libucrt:lcidtoname_downlevel.obj
 0002:000047b4       ??_C@_1M@NIDIIPGF@?$AAe?$AAn?$AA?9?$AAb?$AAz?$AA?$AA@ 100307b4     libucrt:lcidtoname_downlevel.obj
 0002:000047c0       ??_C@_1M@JEHMIMFO@?$AAe?$AAn?$AA?9?$AAc?$AAa?$AA?$AA@ 100307c0     libucrt:lcidtoname_downlevel.obj
 0002:000047cc       ??_C@_1M@IGMJCDLA@?$AAe?$AAn?$AA?9?$AAc?$AAb?$AA?$AA@ 100307cc     libucrt:lcidtoname_downlevel.obj
 0002:000047d8       ??_C@_1M@BNFIGBKG@?$AAe?$AAn?$AA?9?$AAg?$AAb?$AA?$AA@ 100307d8     libucrt:lcidtoname_downlevel.obj
 0002:000047e4       ??_C@_1M@LKIFDIGP@?$AAe?$AAn?$AA?9?$AAi?$AAe?$AA?$AA@ 100307e4     libucrt:lcidtoname_downlevel.obj
 0002:000047f0       ??_C@_1M@PJKFGCCO@?$AAe?$AAn?$AA?9?$AAj?$AAm?$AA?$AA@ 100307f0     libucrt:lcidtoname_downlevel.obj
 0002:000047fc       ??_C@_1M@KPPKEPBO@?$AAe?$AAn?$AA?9?$AAn?$AAz?$AA?$AA@ 100307fc     libucrt:lcidtoname_downlevel.obj
 0002:00004808       ??_C@_1M@GMDGLDOB@?$AAe?$AAn?$AA?9?$AAp?$AAh?$AA?$AA@ 10030808     libucrt:lcidtoname_downlevel.obj
 0002:00004814       ??_C@_1M@ONGIBJNA@?$AAe?$AAn?$AA?9?$AAt?$AAt?$AA?$AA@ 10030814     libucrt:lcidtoname_downlevel.obj
 0002:00004820       ??_C@_1M@LLODPCMM@?$AAe?$AAn?$AA?9?$AAu?$AAs?$AA?$AA@ 10030820     libucrt:lcidtoname_downlevel.obj
 0002:0000482c       ??_C@_1M@LAKFNPAN@?$AAe?$AAn?$AA?9?$AAz?$AAa?$AA?$AA@ 1003082c     libucrt:lcidtoname_downlevel.obj
 0002:00004838       ??_C@_1M@MFNHNHEO@?$AAe?$AAn?$AA?9?$AAz?$AAw?$AA?$AA@ 10030838     libucrt:lcidtoname_downlevel.obj
 0002:00004844       ??_C@_1M@EJEINPHM@?$AAe?$AAs?$AA?9?$AAa?$AAr?$AA?$AA@ 10030844     libucrt:lcidtoname_downlevel.obj
 0002:00004850       ??_C@_1M@GNKPCCJA@?$AAe?$AAs?$AA?9?$AAb?$AAo?$AA?$AA@ 10030850     libucrt:lcidtoname_downlevel.obj
 0002:0000485c       ??_C@_1M@LEEGFONL@?$AAe?$AAs?$AA?9?$AAc?$AAl?$AA?$AA@ 1003085c     libucrt:lcidtoname_downlevel.obj
 0002:00004868       ??_C@_1M@KGPDPBDF@?$AAe?$AAs?$AA?9?$AAc?$AAo?$AA?$AA@ 10030868     libucrt:lcidtoname_downlevel.obj
 0002:00004874       ??_C@_1M@EIAHOHH@?$AAe?$AAs?$AA?9?$AAc?$AAr?$AA?$AA@ 10030874     libucrt:lcidtoname_downlevel.obj
 0002:00004880       ??_C@_1M@LLPGMBIN@?$AAe?$AAs?$AA?9?$AAd?$AAo?$AA?$AA@ 10030880     libucrt:lcidtoname_downlevel.obj
 0002:0000488c       ??_C@_1M@DKHMKNJA@?$AAe?$AAs?$AA?9?$AAe?$AAc?$AA?$AA@ 1003088c     libucrt:lcidtoname_downlevel.obj
 0002:00004898       ??_C@_1M@GKGFPKAP@?$AAe?$AAs?$AA?9?$AAe?$AAs?$AA?$AA@ 10030898     libucrt:lcidtoname_downlevel.obj
 0002:000048a4       ??_C@_1M@LKHKGDLN@?$AAe?$AAs?$AA?9?$AAg?$AAt?$AA?$AA@ 100308a4     libucrt:lcidtoname_downlevel.obj
 0002:000048b0       ??_C@_1M@HEIIGGJD@?$AAe?$AAs?$AA?9?$AAh?$AAn?$AA?$AA@ 100308b0     libucrt:lcidtoname_downlevel.obj
 0002:000048bc       ??_C@_1M@FBDHPPGD@?$AAe?$AAs?$AA?9?$AAm?$AAx?$AA?$AA@ 100308bc     libucrt:lcidtoname_downlevel.obj
 0002:000048c8       ??_C@_1M@DPAGLNDH@?$AAe?$AAs?$AA?9?$AAn?$AAi?$AA?$AA@ 100308c8     libucrt:lcidtoname_downlevel.obj
 0002:000048d4       ??_C@_1M@MDGOPGDD@?$AAe?$AAs?$AA?9?$AAp?$AAa?$AA?$AA@ 100308d4     libucrt:lcidtoname_downlevel.obj
 0002:000048e0       ??_C@_1M@EMAMGBGE@?$AAe?$AAs?$AA?9?$AAp?$AAe?$AA?$AA@ 100308e0     libucrt:lcidtoname_downlevel.obj
 0002:000048ec       ??_C@_1M@IBMCAOEC@?$AAe?$AAs?$AA?9?$AAp?$AAr?$AA?$AA@ 100308ec     libucrt:lcidtoname_downlevel.obj
 0002:000048f8       ??_C@_1M@FGMDIJED@?$AAe?$AAs?$AA?9?$AAp?$AAy?$AA?$AA@ 100308f8     libucrt:lcidtoname_downlevel.obj
 0002:00004904       ??_C@_1M@IIDEOLLL@?$AAe?$AAs?$AA?9?$AAs?$AAv?$AA?$AA@ 10030904     libucrt:lcidtoname_downlevel.obj
 0002:00004910       ??_C@_1M@GAOBIPA@?$AAe?$AAs?$AA?9?$AAu?$AAy?$AA?$AA@ 10030910     libucrt:lcidtoname_downlevel.obj
 0002:0000491c       ??_C@_1M@JKFFICHJ@?$AAe?$AAs?$AA?9?$AAv?$AAe?$AA?$AA@ 1003091c     libucrt:lcidtoname_downlevel.obj
 0002:00004928       ??_C@_1M@PNMLOJDF@?$AAe?$AAt?$AA?9?$AAe?$AAe?$AA?$AA@ 10030928     libucrt:lcidtoname_downlevel.obj
 0002:00004934       ??_C@_1M@GHHLIKEI@?$AAe?$AAu?$AA?9?$AAe?$AAs?$AA?$AA@ 10030934     libucrt:lcidtoname_downlevel.obj
 0002:00004940       ??_C@_1M@PBNONODE@?$AAf?$AAa?$AA?9?$AAi?$AAr?$AA?$AA@ 10030940     libucrt:lcidtoname_downlevel.obj
 0002:0000494c       ??_C@_1M@JEEHPMIL@?$AAf?$AAi?$AA?9?$AAf?$AAi?$AA?$AA@ 1003094c     libucrt:lcidtoname_downlevel.obj
 0002:00004958       ??_C@_1M@LMDCNDBA@?$AAf?$AAo?$AA?9?$AAf?$AAo?$AA?$AA@ 10030958     libucrt:lcidtoname_downlevel.obj
 0002:00004964       ??_C@_1M@JKEOHLDK@?$AAf?$AAr?$AA?9?$AAb?$AAe?$AA?$AA@ 10030964     libucrt:lcidtoname_downlevel.obj
 0002:00004970       ??_C@_1M@NOHADPMI@?$AAf?$AAr?$AA?9?$AAc?$AAa?$AA?$AA@ 10030970     libucrt:lcidtoname_downlevel.obj
 0002:0000497c       ??_C@_1M@KDHIHAEC@?$AAf?$AAr?$AA?9?$AAc?$AAh?$AA?$AA@ 1003097c     libucrt:lcidtoname_downlevel.obj
 0002:00004988       ??_C@_1M@MMBBFGAK@?$AAf?$AAr?$AA?9?$AAf?$AAr?$AA?$AA@ 10030988     libucrt:lcidtoname_downlevel.obj
 0002:00004994       ??_C@_1M@PAFNENNF@?$AAf?$AAr?$AA?9?$AAl?$AAu?$AA?$AA@ 10030994     libucrt:lcidtoname_downlevel.obj
 0002:000049a0       ??_C@_1M@EOHDJGDD@?$AAf?$AAr?$AA?9?$AAm?$AAc?$AA?$AA@ 100309a0     libucrt:lcidtoname_downlevel.obj
 0002:000049ac       ??_C@_1M@FAPLLOPF@?$AAg?$AAl?$AA?9?$AAe?$AAs?$AA?$AA@ 100309ac     libucrt:lcidtoname_downlevel.obj
 0002:000049b8       ??_C@_1M@FOPBFLOO@?$AAg?$AAu?$AA?9?$AAi?$AAn?$AA?$AA@ 100309b8     libucrt:lcidtoname_downlevel.obj
 0002:000049c4       ??_C@_1M@KBMCINPM@?$AAh?$AAe?$AA?9?$AAi?$AAl?$AA?$AA@ 100309c4     libucrt:lcidtoname_downlevel.obj
 0002:000049d0       ??_C@_1M@BBPHKFPJ@?$AAh?$AAi?$AA?9?$AAi?$AAn?$AA?$AA@ 100309d0     libucrt:lcidtoname_downlevel.obj
 0002:000049dc       ??_C@_1M@PMBNDPHD@?$AAh?$AAr?$AA?9?$AAb?$AAa?$AA?$AA@ 100309dc     libucrt:lcidtoname_downlevel.obj
 0002:000049e8       ??_C@_1M@BPCKOEGE@?$AAh?$AAr?$AA?9?$AAh?$AAr?$AA?$AA@ 100309e8     libucrt:lcidtoname_downlevel.obj
 0002:000049f4       ??_C@_1M@GACBMHKE@?$AAh?$AAu?$AA?9?$AAh?$AAu?$AA?$AA@ 100309f4     libucrt:lcidtoname_downlevel.obj
 0002:00004a00       ??_C@_1M@MILPAJJC@?$AAh?$AAy?$AA?9?$AAa?$AAm?$AA?$AA@ 10030a00     libucrt:lcidtoname_downlevel.obj
 0002:00004a0c       ??_C@_1M@BABBICEC@?$AAi?$AAd?$AA?9?$AAi?$AAd?$AA?$AA@ 10030a0c     libucrt:lcidtoname_downlevel.obj
 0002:00004a18       ??_C@_1M@BIKNHHPF@?$AAi?$AAs?$AA?9?$AAi?$AAs?$AA?$AA@ 10030a18     libucrt:lcidtoname_downlevel.obj
 0002:00004a24       ??_C@_1M@NMPCJPHE@?$AAi?$AAt?$AA?9?$AAc?$AAh?$AA?$AA@ 10030a24     libucrt:lcidtoname_downlevel.obj
 0002:00004a30       ??_C@_1M@GHKGFEDF@?$AAi?$AAt?$AA?9?$AAi?$AAt?$AA?$AA@ 10030a30     libucrt:lcidtoname_downlevel.obj
 0002:00004a3c       ??_C@_1M@NIEJCJJA@?$AAj?$AAa?$AA?9?$AAj?$AAp?$AA?$AA@ 10030a3c     libucrt:lcidtoname_downlevel.obj
 0002:00004a48       ??_C@_1M@JILFNBIM@?$AAk?$AAa?$AA?9?$AAg?$AAe?$AA?$AA@ 10030a48     libucrt:lcidtoname_downlevel.obj
 0002:00004a54       ??_C@_1M@PACPMGPH@?$AAk?$AAk?$AA?9?$AAk?$AAz?$AA?$AA@ 10030a54     libucrt:lcidtoname_downlevel.obj
 0002:00004a60       ??_C@_1M@IELFGMHA@?$AAk?$AAn?$AA?9?$AAi?$AAn?$AA?$AA@ 10030a60     libucrt:lcidtoname_downlevel.obj
 0002:00004a6c       ??_C@_1O@IBBJHCH@?$AAk?$AAo?$AAk?$AA?9?$AAi?$AAn?$AA?$AA@ 10030a6c     libucrt:lcidtoname_downlevel.obj
 0002:00004a7c       ??_C@_1M@DMHAEOGC@?$AAk?$AAo?$AA?9?$AAk?$AAr?$AA?$AA@ 10030a7c     libucrt:lcidtoname_downlevel.obj
 0002:00004a88       ??_C@_1M@HBAHBIGA@?$AAk?$AAy?$AA?9?$AAk?$AAg?$AA?$AA@ 10030a88     libucrt:lcidtoname_downlevel.obj
 0002:00004a94       ??_C@_1M@KPMILCJG@?$AAl?$AAt?$AA?9?$AAl?$AAt?$AA?$AA@ 10030a94     libucrt:lcidtoname_downlevel.obj
 0002:00004aa0       ??_C@_1M@BDEKKCA@?$AAl?$AAv?$AA?9?$AAl?$AAv?$AA?$AA@ 10030aa0     libucrt:lcidtoname_downlevel.obj
 0002:00004aac       ??_C@_1M@ELCKCCJJ@?$AAm?$AAi?$AA?9?$AAn?$AAz?$AA?$AA@ 10030aac     libucrt:lcidtoname_downlevel.obj
 0002:00004ab8       ??_C@_1M@CBOOLAPA@?$AAm?$AAk?$AA?9?$AAm?$AAk?$AA?$AA@ 10030ab8     libucrt:lcidtoname_downlevel.obj
 0002:00004ac4       ??_C@_1M@GPHNBJKN@?$AAm?$AAl?$AA?9?$AAi?$AAn?$AA?$AA@ 10030ac4     libucrt:lcidtoname_downlevel.obj
 0002:00004ad0       ??_C@_1M@PABJILIG@?$AAm?$AAn?$AA?9?$AAm?$AAn?$AA?$AA@ 10030ad0     libucrt:lcidtoname_downlevel.obj
 0002:00004adc       ??_C@_1M@FGBKKIPG@?$AAm?$AAr?$AA?9?$AAi?$AAn?$AA?$AA@ 10030adc     libucrt:lcidtoname_downlevel.obj
 0002:00004ae8       ??_C@_1M@NDBPDDAL@?$AAm?$AAs?$AA?9?$AAb?$AAn?$AA?$AA@ 10030ae8     libucrt:lcidtoname_downlevel.obj
 0002:00004af4       ??_C@_1M@OPIHOOPI@?$AAm?$AAs?$AA?9?$AAm?$AAy?$AA?$AA@ 10030af4     libucrt:lcidtoname_downlevel.obj
 0002:00004b00       ??_C@_1M@PPDBCNFM@?$AAm?$AAt?$AA?9?$AAm?$AAt?$AA?$AA@ 10030b00     libucrt:lcidtoname_downlevel.obj
 0002:00004b0c       ??_C@_1M@KDJDKMDD@?$AAn?$AAb?$AA?9?$AAn?$AAo?$AA?$AA@ 10030b0c     libucrt:lcidtoname_downlevel.obj
 0002:00004b18       ??_C@_1M@KFCFLMJP@?$AAn?$AAl?$AA?9?$AAb?$AAe?$AA?$AA@ 10030b18     libucrt:lcidtoname_downlevel.obj
 0002:00004b24       ??_C@_1M@KPOPDDGO@?$AAn?$AAl?$AA?9?$AAn?$AAl?$AA?$AA@ 10030b24     libucrt:lcidtoname_downlevel.obj
 0002:00004b30       ??_C@_1M@LJKPEMLN@?$AAn?$AAn?$AA?9?$AAn?$AAo?$AA?$AA@ 10030b30     libucrt:lcidtoname_downlevel.obj
 0002:00004b3c       ??_C@_1M@BDGHHBFL@?$AAn?$AAs?$AA?9?$AAz?$AAa?$AA?$AA@ 10030b3c     libucrt:lcidtoname_downlevel.obj
 0002:00004b48       ??_C@_1M@IDEHOAP@?$AAp?$AAa?$AA?9?$AAi?$AAn?$AA?$AA@ 10030b48     libucrt:lcidtoname_downlevel.obj
 0002:00004b54       ??_C@_1M@HDBKGOGH@?$AAp?$AAl?$AA?9?$AAp?$AAl?$AA?$AA@ 10030b54     libucrt:lcidtoname_downlevel.obj
 0002:00004b60       ??_C@_1M@LJLLCMEH@?$AAp?$AAt?$AA?9?$AAb?$AAr?$AA?$AA@ 10030b60     libucrt:lcidtoname_downlevel.obj
 0002:00004b6c       ??_C@_1M@NCMONAAL@?$AAp?$AAt?$AA?9?$AAp?$AAt?$AA?$AA@ 10030b6c     libucrt:lcidtoname_downlevel.obj
 0002:00004b78       ??_C@_1O@EAKMAJDN@?$AAq?$AAu?$AAz?$AA?9?$AAb?$AAo?$AA?$AA@ 10030b78     libucrt:lcidtoname_downlevel.obj
 0002:00004b88       ??_C@_1O@BHHPIGDN@?$AAq?$AAu?$AAz?$AA?9?$AAe?$AAc?$AA?$AA@ 10030b88     libucrt:lcidtoname_downlevel.obj
 0002:00004b98       ??_C@_1O@GBAPEKMJ@?$AAq?$AAu?$AAz?$AA?9?$AAp?$AAe?$AA?$AA@ 10030b98     libucrt:lcidtoname_downlevel.obj
 0002:00004ba8       ??_C@_1M@CLGLEFBO@?$AAr?$AAo?$AA?9?$AAr?$AAo?$AA?$AA@ 10030ba8     libucrt:lcidtoname_downlevel.obj
 0002:00004bb4       ??_C@_1M@CEEDODME@?$AAr?$AAu?$AA?9?$AAr?$AAu?$AA?$AA@ 10030bb4     libucrt:lcidtoname_downlevel.obj
 0002:00004bc0       ??_C@_1M@HPKKKMPP@?$AAs?$AAa?$AA?9?$AAi?$AAn?$AA?$AA@ 10030bc0     libucrt:lcidtoname_downlevel.obj
 0002:00004bcc       ??_C@_1M@BKMAIGOJ@?$AAs?$AAe?$AA?9?$AAf?$AAi?$AA?$AA@ 10030bcc     libucrt:lcidtoname_downlevel.obj
 0002:00004bd8       ??_C@_1M@NDPIFLFI@?$AAs?$AAe?$AA?9?$AAn?$AAo?$AA?$AA@ 10030bd8     libucrt:lcidtoname_downlevel.obj
 0002:00004be4       ??_C@_1M@DANKKHJ@?$AAs?$AAe?$AA?9?$AAs?$AAe?$AA?$AA@ 10030be4     libucrt:lcidtoname_downlevel.obj
 0002:00004bf0       ??_C@_1M@PNBLONPJ@?$AAs?$AAk?$AA?9?$AAs?$AAk?$AA?$AA@ 10030bf0     libucrt:lcidtoname_downlevel.obj
 0002:00004bfc       ??_C@_1M@LFMODOAL@?$AAs?$AAl?$AA?9?$AAs?$AAi?$AA?$AA@ 10030bfc     libucrt:lcidtoname_downlevel.obj
 0002:00004c08       ??_C@_1O@DFKOMPG@?$AAs?$AAm?$AAa?$AA?9?$AAn?$AAo?$AA?$AA@ 10030c08     libucrt:lcidtoname_downlevel.obj
 0002:00004c18       ??_C@_1O@NDKPBNNH@?$AAs?$AAm?$AAa?$AA?9?$AAs?$AAe?$AA?$AA@ 10030c18     libucrt:lcidtoname_downlevel.obj
 0002:00004c28       ??_C@_1O@PLLKBHAB@?$AAs?$AAm?$AAj?$AA?9?$AAn?$AAo?$AA?$AA@ 10030c28     libucrt:lcidtoname_downlevel.obj
 0002:00004c38       ??_C@_1O@CLEPOGCA@?$AAs?$AAm?$AAj?$AA?9?$AAs?$AAe?$AA?$AA@ 10030c38     libucrt:lcidtoname_downlevel.obj
 0002:00004c48       ??_C@_1O@DLGJGKMK@?$AAs?$AAm?$AAn?$AA?9?$AAf?$AAi?$AA?$AA@ 10030c48     libucrt:lcidtoname_downlevel.obj
 0002:00004c58       ??_C@_1O@OJDJGAJC@?$AAs?$AAm?$AAs?$AA?9?$AAf?$AAi?$AA?$AA@ 10030c58     libucrt:lcidtoname_downlevel.obj
 0002:00004c68       ??_C@_1M@BOFOGHPB@?$AAs?$AAq?$AA?9?$AAa?$AAl?$AA?$AA@ 10030c68     libucrt:lcidtoname_downlevel.obj
 0002:00004c74       ??_C@_1BG@LJBBIPGB@?$AAs?$AAr?$AA?9?$AAb?$AAa?$AA?9?$AAc?$AAy?$AAr?$AAl?$AA?$AA@ 10030c74     libucrt:lcidtoname_downlevel.obj
 0002:00004c8c       ??_C@_1BG@JLBENFOE@?$AAs?$AAr?$AA?9?$AAb?$AAa?$AA?9?$AAl?$AAa?$AAt?$AAn?$AA?$AA@ 10030c8c     libucrt:lcidtoname_downlevel.obj
 0002:00004ca4       ??_C@_1BG@KODPNHE@?$AAs?$AAr?$AA?9?$AAs?$AAp?$AA?9?$AAc?$AAy?$AAr?$AAl?$AA?$AA@ 10030ca4     libucrt:lcidtoname_downlevel.obj
 0002:00004cbc       ??_C@_1BG@CIOGKHPB@?$AAs?$AAr?$AA?9?$AAs?$AAp?$AA?9?$AAl?$AAa?$AAt?$AAn?$AA?$AA@ 10030cbc     libucrt:lcidtoname_downlevel.obj
 0002:00004cd4       ??_C@_1M@NGFJLMAC@?$AAs?$AAv?$AA?9?$AAf?$AAi?$AA?$AA@ 10030cd4     libucrt:lcidtoname_downlevel.obj
 0002:00004ce0       ??_C@_1M@MPJEJAJC@?$AAs?$AAv?$AA?9?$AAs?$AAe?$AA?$AA@ 10030ce0     libucrt:lcidtoname_downlevel.obj
 0002:00004cec       ??_C@_1M@MPNDHLFK@?$AAs?$AAw?$AA?9?$AAk?$AAe?$AA?$AA@ 10030cec     libucrt:lcidtoname_downlevel.obj
 0002:00004cf8       ??_C@_1O@KOHBJJI@?$AAs?$AAy?$AAr?$AA?9?$AAs?$AAy?$AA?$AA@ 10030cf8     libucrt:lcidtoname_downlevel.obj
 0002:00004d08       ??_C@_1M@LDCEFHA@?$AAt?$AAa?$AA?9?$AAi?$AAn?$AA?$AA@ 10030d08     libucrt:lcidtoname_downlevel.obj
 0002:00004d14       ??_C@_1M@CNJOFAK@?$AAt?$AAe?$AA?9?$AAi?$AAn?$AA?$AA@ 10030d14     libucrt:lcidtoname_downlevel.obj
 0002:00004d20       ??_C@_1M@GNAECACD@?$AAt?$AAh?$AA?9?$AAt?$AAh?$AA?$AA@ 10030d20     libucrt:lcidtoname_downlevel.obj
 0002:00004d2c       ??_C@_1M@CHBIHOJO@?$AAt?$AAn?$AA?9?$AAz?$AAa?$AA?$AA@ 10030d2c     libucrt:lcidtoname_downlevel.obj
 0002:00004d38       ??_C@_1M@GCCMIGPJ@?$AAt?$AAr?$AA?9?$AAt?$AAr?$AA?$AA@ 10030d38     libucrt:lcidtoname_downlevel.obj
 0002:00004d44       ??_C@_1M@CELMCNBK@?$AAt?$AAt?$AA?9?$AAr?$AAu?$AA?$AA@ 10030d44     libucrt:lcidtoname_downlevel.obj
 0002:00004d50       ??_C@_1M@KLMCELGA@?$AAu?$AAk?$AA?9?$AAu?$AAa?$AA?$AA@ 10030d50     libucrt:lcidtoname_downlevel.obj
 0002:00004d5c       ??_C@_1M@EPAJJAJF@?$AAu?$AAr?$AA?9?$AAp?$AAk?$AA?$AA@ 10030d5c     libucrt:lcidtoname_downlevel.obj
 0002:00004d68       ??_C@_1BG@GEGPMCDJ@?$AAu?$AAz?$AA?9?$AAu?$AAz?$AA?9?$AAc?$AAy?$AAr?$AAl?$AA?$AA@ 10030d68     libucrt:lcidtoname_downlevel.obj
 0002:00004d80       ??_C@_1BG@EGGKJILM@?$AAu?$AAz?$AA?9?$AAu?$AAz?$AA?9?$AAl?$AAa?$AAt?$AAn?$AA?$AA@ 10030d80     libucrt:lcidtoname_downlevel.obj
 0002:00004d98       ??_C@_1M@GFOCLFF@?$AAv?$AAi?$AA?9?$AAv?$AAn?$AA?$AA@ 10030d98     libucrt:lcidtoname_downlevel.obj
 0002:00004da4       ??_C@_1M@CPAMEDFI@?$AAx?$AAh?$AA?9?$AAz?$AAa?$AA?$AA@ 10030da4     libucrt:lcidtoname_downlevel.obj
 0002:00004db0       ??_C@_1O@EBKIFIGN@?$AAz?$AAh?$AA?9?$AAc?$AAh?$AAs?$AA?$AA@ 10030db0     libucrt:lcidtoname_downlevel.obj
 0002:00004dc0       ??_C@_1O@NMHPGANE@?$AAz?$AAh?$AA?9?$AAc?$AAh?$AAt?$AA?$AA@ 10030dc0     libucrt:lcidtoname_downlevel.obj
 0002:00004dd0       ??_C@_1M@LPINJOMC@?$AAz?$AAh?$AA?9?$AAc?$AAn?$AA?$AA@ 10030dd0     libucrt:lcidtoname_downlevel.obj
 0002:00004ddc       ??_C@_1M@OCJEJODD@?$AAz?$AAh?$AA?9?$AAh?$AAk?$AA?$AA@ 10030ddc     libucrt:lcidtoname_downlevel.obj
 0002:00004de8       ??_C@_1M@DNDLJINH@?$AAz?$AAh?$AA?9?$AAm?$AAo?$AA?$AA@ 10030de8     libucrt:lcidtoname_downlevel.obj
 0002:00004df4       ??_C@_1M@MBFDNDND@?$AAz?$AAh?$AA?9?$AAs?$AAg?$AA?$AA@ 10030df4     libucrt:lcidtoname_downlevel.obj
 0002:00004e00       ??_C@_1M@IMEPLEPE@?$AAz?$AAh?$AA?9?$AAt?$AAw?$AA?$AA@ 10030e00     libucrt:lcidtoname_downlevel.obj
 0002:00004e0c       ??_C@_1M@BBGHNHJP@?$AAz?$AAu?$AA?9?$AAz?$AAa?$AA?$AA@ 10030e0c     libucrt:lcidtoname_downlevel.obj
 0002:00004e78       ??_C@_1BA@BALFACEM@?$AAC?$AAO?$AAN?$AAO?$AAU?$AAT?$AA$?$AA?$AA@ 10030e78     libucrt:initcon.obj
 0002:00004f90       __infinity                 10030f90     libucrt:87tran.obj
 0002:00004f9a       __minfinity                10030f9a     libucrt:87tran.obj
 0002:00004fa4       __logemax                  10030fa4     libucrt:87tran.obj
 0002:00004fca       __OP_EXPjmptab             10030fca     libucrt:87tran.obj
 0002:00004ff0       __indefinite               10030ff0     libucrt:87disp.obj
 0002:00004ffa       __piby2                    10030ffa     libucrt:87disp.obj
 0002:00005004       __piby4                    10031004     libucrt:87disp.obj
 0002:00005038       __DEFAULT_CW_in_mem        10031038     libucrt:common.obj
 0002:0000503a       __pi_by_2_to_61            1003103a     libucrt:common.obj
 0002:00005074       ??_C@_03MGHMBJCF@log?$AA@  10031074     libucrt:libm_error.obj
 0002:00005078       ??_C@_05HGHHAHAP@log10?$AA@ 10031078     libucrt:libm_error.obj
 0002:00005080       ??_C@_03KHJOGHMM@exp?$AA@  10031080     libucrt:libm_error.obj
 0002:00005084       ??_C@_03JGHBODFD@pow?$AA@  10031084     libucrt:libm_error.obj
 0002:00005088       ??_C@_04FIHNOPOL@asin?$AA@ 10031088     libucrt:libm_error.obj
 0002:00005090       ??_C@_04PDIFKINK@acos?$AA@ 10031090     libucrt:libm_error.obj
 0002:00005098       ??_C@_04EIAKFFMI@sqrt?$AA@ 10031098     libucrt:libm_error.obj
 0002:000050a0       __real@3ff0000000000000    100310a0     libucrt:libm_error.obj
 0002:000050c0       ___acrt_log10_table_t      100310c0     libucrt:log10_tables.obj
 0002:000054d0       ___acrt_log10_table_cb     100314d0     libucrt:log10_tables.obj
 0002:000058e0       __real@3fe0000000000000    100318e0     libucrt:powhlp.obj
 0002:000058e8       ??_C@_04FJHINJAO@tanh?$AA@ 100318e8     libucrt:fpexcept.obj
 0002:000058f0       ??_C@_04MLLJIGOK@atan?$AA@ 100318f0     libucrt:fpexcept.obj
 0002:000058f8       ??_C@_05KNGEOGJB@atan2?$AA@ 100318f8     libucrt:fpexcept.obj
 0002:00005900       ??_C@_03BLEJJJBH@sin?$AA@  10031900     libucrt:fpexcept.obj
 0002:00005904       ??_C@_03LALBNOCG@cos?$AA@  10031904     libucrt:fpexcept.obj
 0002:00005908       ??_C@_03IIINPABG@tan?$AA@  10031908     libucrt:fpexcept.obj
 0002:0000590c       ??_C@_04GFPJNGEK@ceil?$AA@ 1003190c     libucrt:fpexcept.obj
 0002:00005914       ??_C@_05PBJFFIGL@floor?$AA@ 10031914     libucrt:fpexcept.obj
 0002:0000591c       ??_C@_04ODHECPBC@fabs?$AA@ 1003191c     libucrt:fpexcept.obj
 0002:00005924       ??_C@_04EHEDPDJG@modf?$AA@ 10031924     libucrt:fpexcept.obj
 0002:0000592c       ??_C@_05CEJMAHNP@ldexp?$AA@ 1003192c     libucrt:fpexcept.obj
 0002:00005934       ??_C@_05KBKMEMPO@_cabs?$AA@ 10031934     libucrt:fpexcept.obj
 0002:0000593c       ??_C@_06MEIMCGCF@_hypot?$AA@ 1003193c     libucrt:fpexcept.obj
 0002:00005944       ??_C@_04KEPJIHGP@fmod?$AA@ 10031944     libucrt:fpexcept.obj
 0002:0000594c       ??_C@_05GKKHEGJL@frexp?$AA@ 1003194c     libucrt:fpexcept.obj
 0002:00005954       ??_C@_03MJLDFKDL@_y0?$AA@  10031954     libucrt:fpexcept.obj
 0002:00005958       ??_C@_03NAKIGLHK@_y1?$AA@  10031958     libucrt:fpexcept.obj
 0002:0000595c       ??_C@_03ONILCKOB@_yn?$AA@  1003195c     libucrt:fpexcept.obj
 0002:00005960       ??_C@_05JGDBENOH@_logb?$AA@ 10031960     libucrt:fpexcept.obj
 0002:00005968       ??_C@_0L@KDOEJCKC@_nextafter?$AA@ 10031968     libucrt:fpexcept.obj
 0002:00005a60       ??_C@_04COOMCNPB@sinh?$AA@ 10031a60     libucrt:fpexcept.obj
 0002:00005a68       ??_C@_04HPJJNFIM@cosh?$AA@ 10031a68     libucrt:fpexcept.obj
 0002:00005a70       __d_inf                    10031a70     libucrt:util.obj
 0002:00005a78       __d_max                    10031a78     libucrt:util.obj
 0002:00005a80       __d_mzero                  10031a80     libucrt:util.obj
 0002:00005a88       ??_C@_1BK@DBDEIDLH@?$AAK?$AAE?$AAR?$AAN?$AAE?$AAL?$AA3?$AA2?$AA?4?$AAD?$AAL?$AAL?$AA?$AA@ 10031a88     DelayImp:delayhlp.obj
 0002:00005aa4       ??_C@_0BI@OMNLIJDB@AcquireSRWLockExclusive?$AA@ 10031aa4     DelayImp:delayhlp.obj
 0002:00005abc       ??_C@_0BI@HMIEPCNJ@ReleaseSRWLockExclusive?$AA@ 10031abc     DelayImp:delayhlp.obj
 0002:00005ad4       ___pfnDliFailureHook2      10031ad4     DelayImp:delayhk1.obj
 0002:00005ad8       __load_config_used         10031ad8     LIBCMT:loadcfg.obj
 0002:00005b34       ??_C@_0BA@JFNIOLAK@string?5too?5long?$AA@ 10031b34     onig-reg-exp.obj
 0002:00005b44       ??_C@_0BE@MLKPLNJG@RegExp?5is?5not?5valid?$AA@ 10031b44     onig-reg-exp.obj
 0002:00005b58       ??_C@_0BI@CFPLBAOH@invalid?5string?5position?$AA@ 10031b58     onig-reg-exp.obj
 0002:00005b70       ??_7?$_Ref_count@VOnigResult@@@std@@6B@ 10031b70     onig-reg-exp.obj
 0002:00005b80       ??_7_Ref_count_base@std@@6B@ 10031b80     onig-reg-exp.obj
 0002:00005b90       ??_C@_1IE@GMGNCOAB@?$AAC?$AA?3?$AA?2?$AAU?$AAs?$AAe?$AAr?$AAs?$AA?2?$AAa?$AAp?$AAp?$AAv?$AAe?$AAy?$AAo?$AAr?$AA?2?$AA?4?$AAn?$AAo?$AAd?$AAe?$AA?9?$AAg?$AAy?$AAp?$AA?2?$AA4?$AA?4?$AA4?$AA?4@ 10031b90     onig-scanner.obj
 0002:00005c14       ??_C@_1DG@OKCGPKIB@?$AAp?$AAe?$AAr?$AAs?$AAi?$AAs?$AAt?$AAe?$AAn?$AAt?$AA?$CI?$AA?$CJ?$AA?4?$AAI?$AAs?$AAN?$AAe?$AAa?$AAr?$AAD?$AAe?$AAa?$AAt?$AAh?$AA?$CI?$AA?$CJ?$AA?$AA@ 10031c14     onig-scanner.obj
 0002:00005c4c       ??_C@_1CO@EGNPJLKI@?$AAp?$AAe?$AAr?$AAs?$AAi?$AAs?$AAt?$AAe?$AAn?$AAt?$AA?$CI?$AA?$CJ?$AA?4?$AAI?$AAs?$AAE?$AAm?$AAp?$AAt?$AAy?$AA?$CI?$AA?$CJ?$AA?$AA@ 10031c4c     onig-scanner.obj
 0002:00005c80       ??_C@_1EC@NOLNIHNJ@?$AAh?$AAa?$AAn?$AAd?$AAl?$AAe?$AA?9?$AA?$DO?$AAI?$AAn?$AAt?$AAe?$AAr?$AAn?$AAa?$AAl?$AAF?$AAi?$AAe?$AAl?$AAd?$AAC?$AAo?$AAu?$AAn?$AAt?$AA?$CI?$AA?$CJ?$AA?5?$AA?$DO?$AA?5?$AA0@ 10031c80     onig-scanner.obj
 0002:00005cc4       ??_C@_1DA@FBGAEOIO@?$AA?$CB?$AAp?$AAe?$AAr?$AAs?$AAi?$AAs?$AAt?$AAe?$AAn?$AAt?$AA?$CI?$AA?$CJ?$AA?4?$AAI?$AAs?$AAE?$AAm?$AAp?$AAt?$AAy?$AA?$CI?$AA?$CJ?$AA?$AA@ 10031cc4     onig-scanner.obj
 0002:00005cf4       ??_C@_1CO@JCKLEFMA@?$AA?$CB?$AAp?$AAe?$AAr?$AAs?$AAi?$AAs?$AAt?$AAe?$AAn?$AAt?$AA?$CI?$AA?$CJ?$AA?4?$AAI?$AAs?$AAW?$AAe?$AAa?$AAk?$AA?$CI?$AA?$CJ?$AA?$AA@ 10031cf4     onig-scanner.obj
 0002:00005d24       ??_C@_1BE@GMLLOIPJ@?$AAr?$AAe?$AAf?$AAs?$AA_?$AA?5?$AA?$DO?$AA?5?$AA0?$AA?$AA@ 10031d24     onig-scanner.obj
 0002:00005d38       ??_C@_1CC@GBFLAAPF@?$AAw?$AAr?$AAa?$AAp?$AA?9?$AA?$DO?$AAr?$AAe?$AAf?$AAs?$AA_?$AA?5?$AA?$DN?$AA?$DN?$AA?5?$AA0?$AA?$AA@ 10031d38     onig-scanner.obj
 0002:00005d5c       ??_C@_1DI@ELDBKNAK@?$AAw?$AAr?$AAa?$AAp?$AA?9?$AA?$DO?$AAh?$AAa?$AAn?$AAd?$AAl?$AAe?$AA_?$AA?4?$AAI?$AAs?$AAN?$AAe?$AAa?$AAr?$AAD?$AAe?$AAa?$AAt?$AAh?$AA?$CI?$AA?$CJ?$AA?$AA@ 10031d5c     onig-scanner.obj
 0002:00005d98       ??_C@_1IM@GACIBGHJ@?$AAd?$AAa?$AAt?$AAa?$AA?4?$AAG?$AAe?$AAt?$AAV?$AAa?$AAl?$AAu?$AAe?$AA?$CI?$AA?$CJ?$AA?5?$AA?$DN?$AA?$DN?$AA?5?$AAv?$AA8?$AA?3?$AA?3?$AAL?$AAo?$AAc?$AAa?$AAl?$AA?$DM?$AAv?$AA8?$AA?3@ 10031d98     onig-scanner.obj
 0002:00005e24       ??_C@_0M@NNDOEKPJ@OnigScanner?$AA@ 10031e24     onig-scanner.obj
 0002:00005e30       ??_C@_0P@MLEDPMIF@_findNextMatch?$AA@ 10031e30     onig-scanner.obj
 0002:00005e40       ??_C@_0BD@NEKGEPAA@_findNextMatchSync?$AA@ 10031e40     onig-scanner.obj
 0002:00005e54       ??_C@_0BH@EPKNIIGA@?4?4?2src?2onig?9scanner?4cc?$AA@ 10031e54     onig-scanner.obj
 0002:00005e6c       ??_C@_0N@FIOFHHEE@onig_scanner?$AA@ 10031e6c     onig-scanner.obj
 0002:00005e7c       ??_C@_05FKHKFDID@index?$AA@ 10031e7c     onig-scanner.obj
 0002:00005e84       ??_C@_0P@BFLJNJDA@captureIndices?$AA@ 10031e84     onig-scanner.obj
 0002:00005e94       ??_C@_05FAGFPHJG@start?$AA@ 10031e94     onig-scanner.obj
 0002:00005e9c       ??_C@_03JBJLGPFL@end?$AA@  10031e9c     onig-scanner.obj
 0002:00005ea0       ??_C@_06IJDLPEM@length?$AA@ 10031ea0     onig-scanner.obj
 0002:00005ea8       ??_C@_0BD@OLBABOEK@vector?$DMT?$DO?5too?5long?$AA@ 10031ea8     onig-scanner.obj
 0002:00005ebc       ??_C@_1CE@IAEMMFJ@?$AA?$CB?$AAh?$AAa?$AAn?$AAd?$AAl?$AAe?$AA?4?$AAI?$AAs?$AAE?$AAm?$AAp?$AAt?$AAy?$AA?$CI?$AA?$CJ?$AA?$AA@ 10031ebc     onig-scanner.obj
 0002:00005ee0       ??_7ObjectWrap@node@@6B@   10031ee0     onig-scanner.obj
 0002:00005eec       ??_7AsyncWorker@Nan@@6B@   10031eec     onig-scanner.obj
 0002:00005f04       ??_7?$_Ref_count@VOnigRegExp@@@std@@6B@ 10031f04     onig-scanner.obj
 0002:00005f14       ??_7OnigScanner@@6B@       10031f14     onig-scanner.obj
 0002:00005f20       ??_7?$_Ref_count@VOnigSearcher@@@std@@6B@ 10031f20     onig-scanner.obj
 0002:00005f30       ??_7OnigScannerWorker@@6B@ 10031f30     onig-scanner.obj
 0002:00005f48       ??_C@_0L@BLEPKFDF@OnigString?$AA@ 10031f48     onig-string.obj
 0002:00005f54       ??_7OnigString@@6B@        10031f54     onig-string.obj
 0002:00005f60       ??_C@_08HCOMDCCD@iojs?4exe?$AA@ 10031f60     win_delay_load_hook.obj
 0002:00005f6c       ??_C@_08JDDNMFDB@node?4exe?$AA@ 10031f6c     win_delay_load_hook.obj
 0002:00005f80       ___pfnDliNotifyHook2       10031f80     win_delay_load_hook.obj
 0002:00006550       _OnigDefaultCaseFoldFlag   10032550     oniguruma:regcomp.obj
 0002:0000666c       _OnigDefaultSyntax         1003266c     oniguruma:regparse.obj
 0002:00006748       _OnigEncAsciiToLowerCaseTable 10032748     oniguruma:regenc.obj
 0002:000068c0       _OnigAsciiLowerMap         100328c0     oniguruma:regenc.obj
 0002:00006990       _OnigEncAsciiCtypeTable    10032990     oniguruma:regenc.obj
 0002:0001fb1c       ??_C@_00CNPNBAHC@?$AA@     1004bb1c     oniguruma:regexec.obj
 0002:0001fb20       ??_C@_05EGJIMALK@UTF?98?$AA@ 1004bb20     oniguruma:utf8.obj
 0002:0001fb28       ??_C@_05IIMHCHIO@alnum?$AA@ 1004bb28     oniguruma:regparse.obj
 0002:0001fb30       ??_C@_05IAEKHIAN@alpha?$AA@ 1004bb30     oniguruma:regparse.obj
 0002:0001fb38       ??_C@_05BABJKOGB@blank?$AA@ 1004bb38     oniguruma:regparse.obj
 0002:0001fb40       ??_C@_05JMDPEFNK@cntrl?$AA@ 1004bb40     oniguruma:regparse.obj
 0002:0001fb48       ??_C@_05ODNOIFML@digit?$AA@ 1004bb48     oniguruma:regparse.obj
 0002:0001fb50       ??_C@_05KCJBMLII@graph?$AA@ 1004bb50     oniguruma:regparse.obj
 0002:0001fb58       ??_C@_05IPJEPLHL@lower?$AA@ 1004bb58     oniguruma:regparse.obj
 0002:0001fb60       ??_C@_05IJDJACGD@print?$AA@ 1004bb60     oniguruma:regparse.obj
 0002:0001fb68       ??_C@_05KOBGHFJJ@punct?$AA@ 1004bb68     oniguruma:regparse.obj
 0002:0001fb70       ??_C@_05OLNILLAB@space?$AA@ 1004bb70     oniguruma:regparse.obj
 0002:0001fb78       ??_C@_05NECKJAMC@upper?$AA@ 1004bb78     oniguruma:regparse.obj
 0002:0001fb80       ??_C@_06BAPHGFFK@xdigit?$AA@ 1004bb80     oniguruma:regparse.obj
 0002:0001fb88       ??_C@_05OJENGABA@ascii?$AA@ 1004bb88     oniguruma:regparse.obj
 0002:0001fb90       ??_C@_04EHIOMBPF@word?$AA@ 1004bb90     oniguruma:regparse.obj
 0002:0001fb98       ??_C@_02CGFHGFLC@?3?$FN?$AA@ 1004bb98     oniguruma:regparse.obj
 0002:0001fb9c       ??_C@_01JOAMLHOP@?9?$AA@   1004bb9c     oniguruma:regparse.obj
 0002:0001fba0       ??_C@_01OGPIMHDM@?$DP?$AA@ 1004bba0     oniguruma:regparse.obj
 0002:0001fba4       ??_C@_01NBENCBCI@?$CK?$AA@ 1004bba4     oniguruma:regparse.obj
 0002:0001fba8       ??_C@_01MIFGBAGJ@?$CL?$AA@ 1004bba8     oniguruma:regparse.obj
 0002:0001fbac       ??_C@_02HHFHKOHM@?$DP?$DP?$AA@ 1004bbac     oniguruma:regparse.obj
 0002:0001fbb0       ??_C@_02GNLKMPOH@?$CK?$DP?$AA@ 1004bbb0     oniguruma:regparse.obj
 0002:0001fbb4       ??_C@_02GMHIKFNA@?$CL?$DP?$AA@ 1004bbb4     oniguruma:regparse.obj
 0002:0001fbb8       ??_C@_08EEHCEKCA@?$CL?5and?5?$DP?$DP?$AA@ 1004bbb8     oniguruma:regparse.obj
 0002:0001fbc4       ??_C@_08LLHPJGDJ@?$CL?$DP?5and?5?$DP?$AA@ 1004bbc4     oniguruma:regparse.obj
 0002:0001fbd0       ??_C@_08LFCOBNOA@mismatch?$AA@ 1004bbd0     oniguruma:regerror.obj
 0002:0001fbdc       ??_C@_0CB@LDKFPBBC@no?5support?5in?5this?5configuration@ 1004bbdc     oniguruma:regerror.obj
 0002:0001fc00       ??_C@_0BK@DILDECGK@fail?5to?5memory?5allocation?$AA@ 1004bc00     oniguruma:regerror.obj
 0002:0001fc1c       ??_C@_0BH@PIFBMKKD@match?9stack?5limit?5over?$AA@ 1004bc1c     oniguruma:regerror.obj
 0002:0001fc34       ??_C@_0BF@FDBPJMBJ@undefined?5type?5?$CIbug?$CJ?$AA@ 1004bc34     oniguruma:regerror.obj
 0002:0001fc4c       ??_C@_0BM@LNINNNIH@internal?5parser?5error?5?$CIbug?$CJ?$AA@ 1004bc4c     oniguruma:regerror.obj
 0002:0001fc68       ??_C@_0BC@DGEKJIE@stack?5error?5?$CIbug?$CJ?$AA@ 1004bc68     oniguruma:regerror.obj
 0002:0001fc7c       ??_C@_0BJ@IAFBPDHD@undefined?5bytecode?5?$CIbug?$CJ?$AA@ 1004bc7c     oniguruma:regerror.obj
 0002:0001fc98       ??_C@_0BK@IAPBLDKK@unexpected?5bytecode?5?$CIbug?$CJ?$AA@ 1004bc98     oniguruma:regerror.obj
 0002:0001fcb4       ??_C@_0CJ@PGKAOJKF@default?5multibyte?9encoding?5is?5no@ 1004bcb4     oniguruma:regerror.obj
 0002:0001fce0       ??_C@_0DL@GAMMMBEO@can?8t?5convert?5to?5wide?9char?5on?5sp@ 1004bce0     oniguruma:regerror.obj
 0002:0001fd1c       ??_C@_0BB@FCMFBGOM@invalid?5argument?$AA@ 1004bd1c     oniguruma:regerror.obj
 0002:0001fd30       ??_C@_0BK@MNJDPFHJ@end?5pattern?5at?5left?5brace?$AA@ 1004bd30     oniguruma:regerror.obj
 0002:0001fd4c       ??_C@_0BM@NGLKMLLF@end?5pattern?5at?5left?5bracket?$AA@ 1004bd4c     oniguruma:regerror.obj
 0002:0001fd68       ??_C@_0BB@FCADFFHB@empty?5char?9class?$AA@ 1004bd68     oniguruma:regerror.obj
 0002:0001fd7c       ??_C@_0BM@HHLLKMFK@premature?5end?5of?5char?9class?$AA@ 1004bd7c     oniguruma:regerror.obj
 0002:0001fd98       ??_C@_0BG@KJCHLIKJ@end?5pattern?5at?5escape?$AA@ 1004bd98     oniguruma:regerror.obj
 0002:0001fdb0       ??_C@_0BE@HOFGNLOO@end?5pattern?5at?5meta?$AA@ 1004bdb0     oniguruma:regerror.obj
 0002:0001fdc4       ??_C@_0BH@LDPKKBBD@end?5pattern?5at?5control?$AA@ 1004bdc4     oniguruma:regerror.obj
 0002:0001fddc       ??_C@_0BJ@LBFDJEOC@invalid?5meta?9code?5syntax?$AA@ 1004bddc     oniguruma:regerror.obj
 0002:0001fdf8       ??_C@_0BM@CFBCEFOC@invalid?5control?9code?5syntax?$AA@ 1004bdf8     oniguruma:regerror.obj
 0002:0001fe14       ??_C@_0CB@MMHIICBD@char?9class?5value?5at?5end?5of?5range@ 1004be14     oniguruma:regerror.obj
 0002:0001fe38       ??_C@_0CD@BLJPOII@char?9class?5value?5at?5start?5of?5ran@ 1004be38     oniguruma:regerror.obj
 0002:0001fe5c       ??_C@_0CI@OAPLANBE@unmatched?5range?5specifier?5in?5cha@ 1004be5c     oniguruma:regerror.obj
 0002:0001fe84       ??_C@_0CL@JJHDHCPD@target?5of?5repeat?5operator?5is?5not@ 1004be84     oniguruma:regerror.obj
 0002:0001feb0       ??_C@_0CF@BPKICIBJ@target?5of?5repeat?5operator?5is?5inv@ 1004beb0     oniguruma:regerror.obj
 0002:0001fed8       ??_C@_0BH@OHJPJAAI@nested?5repeat?5operator?$AA@ 1004bed8     oniguruma:regerror.obj
 0002:0001fef0       ??_C@_0BM@DLFDPEDE@unmatched?5close?5parenthesis?$AA@ 1004bef0     oniguruma:regerror.obj
 0002:0001ff0c       ??_C@_0CH@IMIDFJKK@end?5pattern?5with?5unmatched?5paren@ 1004bf0c     oniguruma:regerror.obj
 0002:0001ff34       ??_C@_0BF@NBDMNMGP@end?5pattern?5in?5group?$AA@ 1004bf34     oniguruma:regerror.obj
 0002:0001ff4c       ??_C@_0BH@JEEKCPHM@undefined?5group?5option?$AA@ 1004bf4c     oniguruma:regerror.obj
 0002:0001ff64       ??_C@_0BL@OBDNOJHK@invalid?5POSIX?5bracket?5type?$AA@ 1004bf64     oniguruma:regerror.obj
 0002:0001ff80       ??_C@_0BP@GDGBEMD@invalid?5pattern?5in?5look?9behind?$AA@ 1004bf80     oniguruma:regerror.obj
 0002:0001ffa0       ??_C@_0CD@MIONPDN@invalid?5repeat?5range?5?$HLlower?0uppe@ 1004bfa0     oniguruma:regerror.obj
 0002:0001ffc4       ??_C@_0P@IIDHBHOC@too?5big?5number?$AA@ 1004bfc4     oniguruma:regerror.obj
 0002:0001ffd4       ??_C@_0CA@NPNMHIPK@too?5big?5number?5for?5repeat?5range?$AA@ 1004bfd4     oniguruma:regerror.obj
 0002:0001fff4       ??_C@_0CM@FIJIEELP@upper?5is?5smaller?5than?5lower?5in?5r@ 1004bff4     oniguruma:regerror.obj
 0002:00020020       ??_C@_0BK@KPIEDPFM@empty?5range?5in?5char?5class?$AA@ 1004c020     oniguruma:regerror.obj
 0002:0002003c       ??_C@_0DD@FDFEGOFC@mismatch?5multibyte?5code?5length?5i@ 1004c03c     oniguruma:regerror.obj
 0002:00020070       ??_C@_0CN@NLMEAGPN@too?5many?5multibyte?5code?5ranges?5a@ 1004c070     oniguruma:regerror.obj
 0002:000200a0       ??_C@_0CA@NJAFMILK@too?5short?5multibyte?5code?5string?$AA@ 1004c0a0     oniguruma:regerror.obj
 0002:000200c0       ??_C@_0BH@BBIPIEAI@too?5big?5backref?5number?$AA@ 1004c0c0     oniguruma:regerror.obj
 0002:000200d8       ??_C@_0BM@MCIKAPCC@invalid?5backref?5number?1name?$AA@ 1004c0d8     oniguruma:regerror.obj
 0002:000200f4       ??_C@_0DB@CPIBFLCI@numbered?5backref?1call?5is?5not?5all@ 1004c0f4     oniguruma:regerror.obj
 0002:00020128       ??_C@_0BI@KHOJAKBB@too?5big?5wide?9char?5value?$AA@ 1004c128     oniguruma:regerror.obj
 0002:00020140       ??_C@_0BJ@JJGHGKPI@too?5long?5wide?9char?5value?$AA@ 1004c140     oniguruma:regerror.obj
 0002:0002015c       ??_C@_0BJ@NDLCLPMB@invalid?5code?5point?5value?$AA@ 1004c15c     oniguruma:regerror.obj
 0002:00020178       ??_C@_0BE@EKBOMMOP@group?5name?5is?5empty?$AA@ 1004c178     oniguruma:regerror.obj
 0002:0002018c       ??_C@_0BI@IHDEIAPG@invalid?5group?5name?5?$DM?$CFn?$DO?$AA@ 1004c18c     oniguruma:regerror.obj
 0002:000201a4       ??_C@_0CA@CHNGKCNG@invalid?5char?5in?5group?5name?5?$DM?$CFn?$DO?$AA@ 1004c1a4     oniguruma:regerror.obj
 0002:000201c4       ??_C@_0BO@MFFLPIJN@undefined?5name?5?$DM?$CFn?$DO?5reference?$AA@ 1004c1c4     oniguruma:regerror.obj
 0002:000201e4       ??_C@_0BP@INLOIBDC@undefined?5group?5?$DM?$CFn?$DO?5reference?$AA@ 1004c1e4     oniguruma:regerror.obj
 0002:00020204       ??_C@_0BM@GABMFNGE@multiplex?5defined?5name?5?$DM?$CFn?$DO?$AA@ 1004c204     oniguruma:regerror.obj
 0002:00020220       ??_C@_0CE@PAGLFLPA@multiplex?5definition?5name?5?$DM?$CFn?$DO?5c@ 1004c220     oniguruma:regerror.obj
 0002:00020244       ??_C@_0BH@LNCEDIHG@never?5ending?5recursion?$AA@ 1004c244     oniguruma:regerror.obj
 0002:0002025c       ??_C@_0CM@OOFNEEFI@group?5number?5is?5too?5big?5for?5capt@ 1004c25c     oniguruma:regerror.obj
 0002:00020288       ??_C@_0CF@BCKNNDOL@invalid?5character?5property?5name?5@ 1004c288     oniguruma:regerror.obj
 0002:000202b0       ??_C@_0CD@BCIDHJLA@not?5supported?5encoding?5combinati@ 1004c2b0     oniguruma:regerror.obj
 0002:000202d4       ??_C@_0BP@CGGHKADK@invalid?5combination?5of?5options?$AA@ 1004c2d4     oniguruma:regerror.obj
 0002:000202f4       ??_C@_0BN@FLBLNOKB@over?5thread?5pass?5limit?5count?$AA@ 1004c2f4     oniguruma:regerror.obj
 0002:00020314       ??_C@_0BF@HPOGBCED@undefined?5error?5code?$AA@ 1004c314     oniguruma:regerror.obj
 0002:0002032c       ??_C@_04NOJCDH@?$CF02x?$AA@ 1004c32c     oniguruma:regerror.obj
 0002:00020334       ??_C@_06FIJELGDL@?2x?$CF02x?$AA@ 1004c334     oniguruma:regerror.obj
 0002:0002033c       ??_C@_03KHICJKCI@?4?4?4?$AA@ 1004c33c     oniguruma:regerror.obj
 0002:00020340       ??_C@_05IPGLCCLI@Alnum?$AA@ 1004c340     oniguruma:regenc.obj
 0002:00020348       ??_C@_05IHOGHNDL@Alpha?$AA@ 1004c348     oniguruma:regenc.obj
 0002:00020350       ??_C@_05BHLFKLFH@Blank?$AA@ 1004c350     oniguruma:regenc.obj
 0002:00020358       ??_C@_05JLJDEAOM@Cntrl?$AA@ 1004c358     oniguruma:regenc.obj
 0002:00020360       ??_C@_05OEHCIAPN@Digit?$AA@ 1004c360     oniguruma:regenc.obj
 0002:00020368       ??_C@_05KFDNMOLO@Graph?$AA@ 1004c368     oniguruma:regenc.obj
 0002:00020370       ??_C@_05IIDIPOEN@Lower?$AA@ 1004c370     oniguruma:regenc.obj
 0002:00020378       ??_C@_05IOJFAHFF@Print?$AA@ 1004c378     oniguruma:regenc.obj
 0002:00020380       ??_C@_05KJLKHAKP@Punct?$AA@ 1004c380     oniguruma:regenc.obj
 0002:00020388       ??_C@_05OMHELODH@Space?$AA@ 1004c388     oniguruma:regenc.obj
 0002:00020390       ??_C@_05NDIGJFPE@Upper?$AA@ 1004c390     oniguruma:regenc.obj
 0002:00020398       ??_C@_06NIOGFJPA@XDigit?$AA@ 1004c398     oniguruma:regenc.obj
 0002:000203a0       ??_C@_05CCNLIHFO@ASCII?$AA@ 1004c3a0     oniguruma:regenc.obj
 0002:000203a8       ??_C@_04IGEPOOPB@Word?$AA@ 1004c3a8     oniguruma:regenc.obj
 0002:000203b0       ??_C@_07CNGHCLKN@NEWLINE?$AA@ 1004c3b0     oniguruma:unicode.obj
 0002:000203b8       ??_C@_03EBKHDLCO@Any?$AA@  1004c3b8     oniguruma:unicode.obj
 0002:000203bc       ??_C@_08LPNNHCEH@Assigned?$AA@ 1004c3bc     oniguruma:unicode.obj
 0002:000203c8       ??_C@_01GFHCPBMG@C?$AA@    1004c3c8     oniguruma:unicode.obj
 0002:000203cc       ??_C@_02DMLCCNBA@Cc?$AA@   1004c3cc     oniguruma:unicode.obj
 0002:000203d0       ??_C@_02EBMFNJFF@Cf?$AA@   1004c3d0     oniguruma:unicode.obj
 0002:000203d4       ??_C@_02IJBMFDFN@Cn?$AA@   1004c3d4     oniguruma:unicode.obj
 0002:000203d8       ??_C@_02JAAHGCBM@Co?$AA@   1004c3d8     oniguruma:unicode.obj
 0002:000203dc       ??_C@_02HGHADPEB@Cs?$AA@   1004c3dc     oniguruma:unicode.obj
 0002:000203e0       ??_C@_01OCOKONAJ@L?$AA@    1004c3e0     oniguruma:unicode.obj
 0002:000203e4       ??_C@_02LAHGHGOC@Ll?$AA@   1004c3e4     oniguruma:unicode.obj
 0002:000203e8       ??_C@_02KJGNEHKD@Lm?$AA@   1004c3e8     oniguruma:unicode.obj
 0002:000203ec       ??_C@_02JLFLCFCB@Lo?$AA@   1004c3ec     oniguruma:unicode.obj
 0002:000203f0       ??_C@_02DCGNOOLL@Lt?$AA@   1004c3f0     oniguruma:unicode.obj
 0002:000203f4       ??_C@_02CLHGNPPK@Lu?$AA@   1004c3f4     oniguruma:unicode.obj
 0002:000203f8       ??_C@_01PLPBNMEI@M?$AA@    1004c3f8     oniguruma:unicode.obj
 0002:000203fc       ??_C@_02DGCMAABK@Mc?$AA@   1004c3fc     oniguruma:unicode.obj
 0002:00020400       ??_C@_02GAHGKHJM@Me?$AA@   1004c400     oniguruma:unicode.obj
 0002:00020404       ??_C@_02IDICHOFH@Mn?$AA@   1004c404     oniguruma:unicode.obj
 0002:00020408       ??_C@_01NANMIPIL@N?$AA@    1004c408     oniguruma:unicode.obj
 0002:0002040c       ??_C@_02HLCLCIIE@Nd?$AA@   1004c40c     oniguruma:unicode.obj
 0002:00020410       ??_C@_02LDPCKCIM@Nl?$AA@   1004c410     oniguruma:unicode.obj
 0002:00020414       ??_C@_02JINPPBEP@No?$AA@   1004c414     oniguruma:unicode.obj
 0002:00020418       ??_C@_01EJNLAFE@P?$AA@     1004c418     oniguruma:unicode.obj
 0002:0002041c       ??_C@_02CCNCDADJ@Pc?$AA@   1004c41c     oniguruma:unicode.obj
 0002:00020420       ??_C@_02GNJDKGPO@Pd?$AA@   1004c420     oniguruma:unicode.obj
 0002:00020424       ??_C@_02HEIIJHLP@Pe?$AA@   1004c424     oniguruma:unicode.obj
 0002:00020428       ??_C@_02FPKFMEHM@Pf?$AA@   1004c428     oniguruma:unicode.obj
 0002:0002042c       ??_C@_02NIDNNILD@Pi?$AA@   1004c42c     oniguruma:unicode.obj
 0002:00020430       ??_C@_02IOGHHPDF@Po?$AA@   1004c430     oniguruma:unicode.obj
 0002:00020434       ??_C@_02GIBACCGI@Ps?$AA@   1004c434     oniguruma:unicode.obj
 0002:00020438       ??_C@_01CPLAODJH@S?$AA@    1004c438     oniguruma:unicode.obj
 0002:0002043c       ??_C@_02CAJEIOGA@Sc?$AA@   1004c43c     oniguruma:unicode.obj
 0002:00020440       ??_C@_02OIENAEGI@Sk?$AA@   1004c440     oniguruma:unicode.obj
 0002:00020444       ??_C@_02LOBHKDOO@Sm?$AA@   1004c444     oniguruma:unicode.obj
 0002:00020448       ??_C@_02IMCBMBGM@So?$AA@   1004c448     oniguruma:unicode.obj
 0002:0002044c       ??_C@_01POHCFINO@Z?$AA@    1004c44c     oniguruma:unicode.obj
 0002:00020450       ??_C@_02KINNKJCA@Zl?$AA@   1004c450     oniguruma:unicode.obj
 0002:00020454       ??_C@_02EOKKPEHN@Zp?$AA@   1004c454     oniguruma:unicode.obj
 0002:00020458       ??_C@_02GFIHKHLO@Zs?$AA@   1004c458     oniguruma:unicode.obj
 0002:0002045c       ??_C@_06PKKOFLDI@Arabic?$AA@ 1004c45c     oniguruma:unicode.obj
 0002:00020464       ??_C@_08FOHFEPKP@Armenian?$AA@ 1004c464     oniguruma:unicode.obj
 0002:00020470       ??_C@_07EHGPDBPP@Bengali?$AA@ 1004c470     oniguruma:unicode.obj
 0002:00020478       ??_C@_08FJELILDA@Bopomofo?$AA@ 1004c478     oniguruma:unicode.obj
 0002:00020484       ??_C@_07PFKPAINK@Braille?$AA@ 1004c484     oniguruma:unicode.obj
 0002:0002048c       ??_C@_08IAPPECL@Buginese?$AA@ 1004c48c     oniguruma:unicode.obj
 0002:00020498       ??_C@_05IFJKBLGE@Buhid?$AA@ 1004c498     oniguruma:unicode.obj
 0002:000204a0       ??_C@_0BE@MFIGNHIA@Canadian_Aboriginal?$AA@ 1004c4a0     oniguruma:unicode.obj
 0002:000204b4       ??_C@_08MDFAKGKC@Cherokee?$AA@ 1004c4b4     oniguruma:unicode.obj
 0002:000204c0       ??_C@_06POMJKEPM@Common?$AA@ 1004c4c0     oniguruma:unicode.obj
 0002:000204c8       ??_C@_06PKILONCF@Coptic?$AA@ 1004c4c8     oniguruma:unicode.obj
 0002:000204d0       ??_C@_07ICPJEGGI@Cypriot?$AA@ 1004c4d0     oniguruma:unicode.obj
 0002:000204d8       ??_C@_08DNBONLIE@Cyrillic?$AA@ 1004c4d8     oniguruma:unicode.obj
 0002:000204e4       ??_C@_07PGJJNFLP@Deseret?$AA@ 1004c4e4     oniguruma:unicode.obj
 0002:000204ec       ??_C@_0L@JDMENJM@Devanagari?$AA@ 1004c4ec     oniguruma:unicode.obj
 0002:000204f8       ??_C@_08ELMAOGKI@Ethiopic?$AA@ 1004c4f8     oniguruma:unicode.obj
 0002:00020504       ??_C@_08NPENEPGM@Georgian?$AA@ 1004c504     oniguruma:unicode.obj
 0002:00020510       ??_C@_0L@EKIHIDNF@Glagolitic?$AA@ 1004c510     oniguruma:unicode.obj
 0002:0002051c       ??_C@_06OBILIHNB@Gothic?$AA@ 1004c51c     oniguruma:unicode.obj
 0002:00020524       ??_C@_05BLJPGLLB@Greek?$AA@ 1004c524     oniguruma:unicode.obj
 0002:0002052c       ??_C@_08EMJEOGJE@Gujarati?$AA@ 1004c52c     oniguruma:unicode.obj
 0002:00020538       ??_C@_08KHMGJCCG@Gurmukhi?$AA@ 1004c538     oniguruma:unicode.obj
 0002:00020544       ??_C@_03DCHALHAP@Han?$AA@  1004c544     oniguruma:unicode.obj
 0002:00020548       ??_C@_06MNFOEPOG@Hangul?$AA@ 1004c548     oniguruma:unicode.obj
 0002:00020550       ??_C@_07DELPMEEP@Hanunoo?$AA@ 1004c550     oniguruma:unicode.obj
 0002:00020558       ??_C@_06EBOICPLG@Hebrew?$AA@ 1004c558     oniguruma:unicode.obj
 0002:00020560       ??_C@_08JNGAGLNE@Hiragana?$AA@ 1004c560     oniguruma:unicode.obj
 0002:0002056c       ??_C@_09EJODBAMM@Inherited?$AA@ 1004c56c     oniguruma:unicode.obj
 0002:00020578       ??_C@_07GHLFLHAG@Kannada?$AA@ 1004c578     oniguruma:unicode.obj
 0002:00020580       ??_C@_08NBCIJEJP@Katakana?$AA@ 1004c580     oniguruma:unicode.obj
 0002:0002058c       ??_C@_0L@EJOAJFGE@Kharoshthi?$AA@ 1004c58c     oniguruma:unicode.obj
 0002:00020598       ??_C@_05BILJKFBO@Khmer?$AA@ 1004c598     oniguruma:unicode.obj
 0002:000205a0       ??_C@_03KEAJBBBJ@Lao?$AA@  1004c5a0     oniguruma:unicode.obj
 0002:000205a4       ??_C@_05MKNAELPL@Latin?$AA@ 1004c5a4     oniguruma:unicode.obj
 0002:000205ac       ??_C@_05HCNCDMFE@Limbu?$AA@ 1004c5ac     oniguruma:unicode.obj
 0002:000205b4       ??_C@_08KNIPHLGD@Linear_B?$AA@ 1004c5b4     oniguruma:unicode.obj
 0002:000205c0       ??_C@_09PGGFICGJ@Malayalam?$AA@ 1004c5c0     oniguruma:unicode.obj
 0002:000205cc       ??_C@_09COLOONHK@Mongolian?$AA@ 1004c5cc     oniguruma:unicode.obj
 0002:000205d8       ??_C@_07CJEPOCDM@Myanmar?$AA@ 1004c5d8     oniguruma:unicode.obj
 0002:000205e0       ??_C@_0M@DHOCBJHL@New_Tai_Lue?$AA@ 1004c5e0     oniguruma:unicode.obj
 0002:000205ec       ??_C@_05PMPFCGKJ@Ogham?$AA@ 1004c5ec     oniguruma:unicode.obj
 0002:000205f4       ??_C@_0L@KMONHPG@Old_Italic?$AA@ 1004c5f4     oniguruma:unicode.obj
 0002:00020600       ??_C@_0M@GJIBMGKF@Old_Persian?$AA@ 1004c600     oniguruma:unicode.obj
 0002:0002060c       ??_C@_05FCMJOEPK@Oriya?$AA@ 1004c60c     oniguruma:unicode.obj
 0002:00020614       ??_C@_07FLOHPBBB@Osmanya?$AA@ 1004c614     oniguruma:unicode.obj
 0002:0002061c       ??_C@_05OMGGNAOE@Runic?$AA@ 1004c61c     oniguruma:unicode.obj
 0002:00020624       ??_C@_07LIFCEABG@Shavian?$AA@ 1004c624     oniguruma:unicode.obj
 0002:0002062c       ??_C@_07HKFHHHOH@Sinhala?$AA@ 1004c62c     oniguruma:unicode.obj
 0002:00020634       ??_C@_0N@OEMHCEDJ@Syloti_Nagri?$AA@ 1004c634     oniguruma:unicode.obj
 0002:00020644       ??_C@_06JOHKBNPH@Syriac?$AA@ 1004c644     oniguruma:unicode.obj
 0002:0002064c       ??_C@_07MPBEMCCC@Tagalog?$AA@ 1004c64c     oniguruma:unicode.obj
 0002:00020654       ??_C@_08HDNHHNMK@Tagbanwa?$AA@ 1004c654     oniguruma:unicode.obj
 0002:00020660       ??_C@_06BAOHNAFE@Tai_Le?$AA@ 1004c660     oniguruma:unicode.obj
 0002:00020668       ??_C@_05DKHCLBJK@Tamil?$AA@ 1004c668     oniguruma:unicode.obj
 0002:00020670       ??_C@_06PCMDOJDI@Telugu?$AA@ 1004c670     oniguruma:unicode.obj
 0002:00020678       ??_C@_06EIMJBCEF@Thaana?$AA@ 1004c678     oniguruma:unicode.obj
 0002:00020680       ??_C@_04PHPGMPPM@Thai?$AA@ 1004c680     oniguruma:unicode.obj
 0002:00020688       ??_C@_07BHEHFCAF@Tibetan?$AA@ 1004c688     oniguruma:unicode.obj
 0002:00020690       ??_C@_08HLFFACLG@Tifinagh?$AA@ 1004c690     oniguruma:unicode.obj
 0002:0002069c       ??_C@_08OJJPEHGN@Ugaritic?$AA@ 1004c69c     oniguruma:unicode.obj
 0002:000206a8       ??_C@_02NHOMODDM@Yi?$AA@   1004c6a8     oniguruma:unicode.obj
 0002:000206ac       ??_C@_08DIBGJKBD@US?9ASCII?$AA@ 1004c6ac     oniguruma:ascii.obj
 0002:000206c0       __xmm@ffffffffffffffffffffffffffffffff 1004c6c0     oniguruma:regparse.obj
 0002:00020724       ??_R4exception@std@@6B@    1004c724     libcpmt:xthrow.obj
 0002:00020738       ??_R3exception@std@@8      1004c738     libcpmt:xthrow.obj
 0002:00020748       ??_R2exception@std@@8      1004c748     libcpmt:xthrow.obj
 0002:00020750       ??_R1A@?0A@EA@exception@std@@8 1004c750     libcpmt:xthrow.obj
 0002:0002076c       ??_R4bad_alloc@std@@6B@    1004c76c     libcpmt:xthrow.obj
 0002:00020780       ??_R3bad_alloc@std@@8      1004c780     libcpmt:xthrow.obj
 0002:00020790       ??_R2bad_alloc@std@@8      1004c790     libcpmt:xthrow.obj
 0002:0002079c       ??_R1A@?0A@EA@bad_alloc@std@@8 1004c79c     libcpmt:xthrow.obj
 0002:000207b8       ??_R4logic_error@std@@6B@  1004c7b8     libcpmt:xthrow.obj
 0002:000207cc       ??_R3logic_error@std@@8    1004c7cc     libcpmt:xthrow.obj
 0002:000207dc       ??_R2logic_error@std@@8    1004c7dc     libcpmt:xthrow.obj
 0002:000207e8       ??_R1A@?0A@EA@logic_error@std@@8 1004c7e8     libcpmt:xthrow.obj
 0002:00020804       ??_R4length_error@std@@6B@ 1004c804     libcpmt:xthrow.obj
 0002:00020818       ??_R3length_error@std@@8   1004c818     libcpmt:xthrow.obj
 0002:00020828       ??_R2length_error@std@@8   1004c828     libcpmt:xthrow.obj
 0002:00020838       ??_R1A@?0A@EA@length_error@std@@8 1004c838     libcpmt:xthrow.obj
 0002:00020854       ??_R4out_of_range@std@@6B@ 1004c854     libcpmt:xthrow.obj
 0002:00020868       ??_R3out_of_range@std@@8   1004c868     libcpmt:xthrow.obj
 0002:00020878       ??_R2out_of_range@std@@8   1004c878     libcpmt:xthrow.obj
 0002:00020888       ??_R1A@?0A@EA@out_of_range@std@@8 1004c888     libcpmt:xthrow.obj
 0002:000208a4       ??_R4type_info@@6B@        1004c8a4     LIBCMT:std_type_info_static.obj
 0002:000208b8       ??_R3type_info@@8          1004c8b8     LIBCMT:std_type_info_static.obj
 0002:000208c8       ??_R2type_info@@8          1004c8c8     LIBCMT:std_type_info_static.obj
 0002:000208d0       ??_R1A@?0A@EA@type_info@@8 1004c8d0     LIBCMT:std_type_info_static.obj
 0002:000208ec       ??_R4bad_array_new_length@std@@6B@ 1004c8ec     LIBCMT:throw_bad_alloc.obj
 0002:00020900       ??_R3bad_array_new_length@std@@8 1004c900     LIBCMT:throw_bad_alloc.obj
 0002:00020910       ??_R2bad_array_new_length@std@@8 1004c910     LIBCMT:throw_bad_alloc.obj
 0002:00020920       ??_R1A@?0A@EA@bad_array_new_length@std@@8 1004c920     LIBCMT:throw_bad_alloc.obj
 0002:0002093c       ??_R4bad_exception@std@@6B@ 1004c93c     libvcruntime:frame.obj
 0002:00020950       ??_R3bad_exception@std@@8  1004c950     libvcruntime:frame.obj
 0002:00020960       ??_R2bad_exception@std@@8  1004c960     libvcruntime:frame.obj
 0002:0002096c       ??_R1A@?0A@EA@bad_exception@std@@8 1004c96c     libvcruntime:frame.obj
 0002:00020990       ___safe_se_handler_table   1004c990     <linker-defined>
 0002:00020e00       ___rtc_iaa                 1004ce00     LIBCMT:_initsect_.obj
 0002:00020e04       ___rtc_izz                 1004ce04     LIBCMT:_initsect_.obj
 0002:00020e08       ___rtc_taa                 1004ce08     LIBCMT:_initsect_.obj
 0002:00020e0c       ___rtc_tzz                 1004ce0c     LIBCMT:_initsect_.obj
 0002:000213b0       __TI2?AVbad_alloc@std@@    1004d3b0     libcpmt:xthrow.obj
 0002:000213c0       __CTA2?AVbad_alloc@std@@   1004d3c0     libcpmt:xthrow.obj
 0002:000213cc       __CT??_R0?AVbad_alloc@std@@@8??0bad_alloc@std@@QAE@ABV01@@Z12 1004d3cc     libcpmt:xthrow.obj
 0002:000213e8       __CT??_R0?AVexception@std@@@8??0exception@std@@QAE@ABV01@@Z12 1004d3e8     libcpmt:xthrow.obj
 0002:00021404       __CT??_R0?AVlogic_error@std@@@8??0logic_error@std@@QAE@ABV01@@Z12 1004d404     libcpmt:xthrow.obj
 0002:00021420       __TI3?AVlength_error@std@@ 1004d420     libcpmt:xthrow.obj
 0002:00021430       __CTA3?AVlength_error@std@@ 1004d430     libcpmt:xthrow.obj
 0002:00021440       __CT??_R0?AVlength_error@std@@@8??0length_error@std@@QAE@ABV01@@Z12 1004d440     libcpmt:xthrow.obj
 0002:0002145c       __TI3?AVout_of_range@std@@ 1004d45c     libcpmt:xthrow.obj
 0002:0002146c       __CTA3?AVout_of_range@std@@ 1004d46c     libcpmt:xthrow.obj
 0002:0002147c       __CT??_R0?AVout_of_range@std@@@8??0out_of_range@std@@QAE@ABV01@@Z12 1004d47c     libcpmt:xthrow.obj
 0002:000214f4       __TI3?AVbad_array_new_length@std@@ 1004d4f4     LIBCMT:throw_bad_alloc.obj
 0002:00021504       __CTA3?AVbad_array_new_length@std@@ 1004d504     LIBCMT:throw_bad_alloc.obj
 0002:00021514       __CT??_R0?AVbad_array_new_length@std@@@8??0bad_array_new_length@std@@QAE@ABV01@@Z12 1004d514     LIBCMT:throw_bad_alloc.obj
 0002:00021654       __TI2?AVbad_exception@std@@ 1004d654     libvcruntime:frame.obj
 0002:00021664       __CTA2?AVbad_exception@std@@ 1004d664     libvcruntime:frame.obj
 0002:00021670       __CT??_R0?AVbad_exception@std@@@8??0bad_exception@std@@QAE@ABV01@@Z12 1004d670     libvcruntime:frame.obj
 0002:00021a1c       __DELAY_IMPORT_DESCRIPTOR_node_exe 1004da1c     node:node.exe
 0002:00021a3c       __NULL_DELAY_IMPORT_DESCRIPTOR 1004da3c     node:node.exe
 0002:00021b2c       \177node_NULL_THUNK_DATA_DLN 1004db2c     node:node.exe
 0002:00022794       \177node_NULL_THUNK_DATA_DLB 1004e794     node:node.exe
 0002:000228cc       __IMPORT_DESCRIPTOR_KERNEL32 1004e8cc     kernel32:KERNEL32.dll
 0002:000228e0       __NULL_IMPORT_DESCRIPTOR   1004e8e0     kernel32:KERNEL32.dll
 0003:00000000       ___security_cookie_complement 1004f000     LIBCMT:gs_cookie.obj
 0003:00000004       ___security_cookie         1004f004     LIBCMT:gs_cookie.obj
 0003:00000008       ___scrt_native_dllmain_reason 1004f008     LIBCMT:utility.obj
 0003:00000010       ___isa_enabled             1004f010     LIBCMT:_cpu_disp_.obj
 0003:00000030       __NLG_Destination          1004f030     libvcruntime:_exsup_.obj
 0003:00000040       ___abort_behavior          1004f040     libucrt:abort.obj
 0003:00000050       __iob                      1004f050     libucrt:_file.obj
 0003:000000f8       ___acrt_initial_locale_data 1004f0f8     libucrt:nlsdata.obj
 0003:000001b0       ___acrt_initial_locale_pointers 1004f1b0     libucrt:nlsdata.obj
 0003:000001b8       ___acrt_wide_c_locale_string 1004f1b8     libucrt:nlsdata.obj
 0003:000001c0       ___badioinfo               1004f1c0     libucrt:ioinit.obj
 0003:000002e8       __mbctype                  1004f2e8     libucrt:mbctype.obj
 0003:000003f0       __mbcasemap                1004f3f0     libucrt:mbctype.obj
 0003:000004f0       ___acrt_initial_multibyte_data 1004f4f0     libucrt:mbctype.obj
 0003:00000710       ___acrt_current_multibyte_data 1004f710     libucrt:mbctype.obj
 0003:00000714       __pwctype                  1004f714     libucrt:ctype.obj
 0003:00000718       ___globallocalestatus      1004f718     libucrt:glstatus.obj
 0003:0000071c       ___acrt_lconv_static_decimal 1004f71c     libucrt:localeconv.obj
 0003:00000720       ___acrt_lconv_static_W_decimal 1004f720     libucrt:localeconv.obj
 0003:00000728       ___acrt_lconv_c            1004f728     libucrt:localeconv.obj
 0003:00000780       ___dcrt_lowio_console_output_handle 1004f780     libucrt:initcon.obj
 0003:00000790       __fltused                  1004f790     LIBCMT:fltused.obj
 0003:000007d0       _OnigEncodingUTF8          1004f7d0     oniguruma:utf8.obj
 0003:000008c4       _OnigSyntaxRuby            1004f8c4     oniguruma:regparse.obj
 0003:00000f50       _OnigEncodingASCII         1004ff50     oniguruma:ascii.obj
 0003:00000f90       ??_R0?AVbad_alloc@std@@@8  1004ff90     libcpmt:xthrow.obj
 0003:00000fac       ??_R0?AVexception@std@@@8  1004ffac     libcpmt:xthrow.obj
 0003:00000fc8       ??_R0?AVlogic_error@std@@@8 1004ffc8     libcpmt:xthrow.obj
 0003:00000fe8       ??_R0?AVlength_error@std@@@8 1004ffe8     libcpmt:xthrow.obj
 0003:00001008       ??_R0?AVout_of_range@std@@@8 10050008     libcpmt:xthrow.obj
 0003:00001028       ??_R0?AVtype_info@@@8      10050028     LIBCMT:std_type_info_static.obj
 0003:00001040       ??_R0?AVbad_array_new_length@std@@@8 10050040     LIBCMT:throw_bad_alloc.obj
 0003:00001068       ??_R0?AVbad_exception@std@@@8 10050068     libvcruntime:frame.obj
 0003:00001088       __imp_?ThrowException@Isolate@v8@@QAE?AV?$Local@VValue@v8@@@2@V32@@Z 10050088     node:node.exe
 0003:0000108c       __imp_?GetCurrent@Isolate@v8@@SAPAV12@XZ 1005008c     node:node.exe
 0003:00001090       __imp_?Error@Exception@v8@@SA?AV?$Local@VValue@v8@@@2@V?$Local@VString@v8@@@2@@Z 10050090     node:node.exe
 0003:00001094       __imp_?ToLocalEmpty@V8@v8@@CAXXZ 10050094     node:node.exe
 0003:00001098       __imp_?NewFromUtf8@String@v8@@SA?AV?$MaybeLocal@VString@v8@@@2@PAVIsolate@2@PBDW4NewStringType@2@H@Z 10050098     node:node.exe
 0003:0000109c       __imp__uv_queue_work       1005009c     node:node.exe
 0003:000010a0       __imp_?Global@Context@v8@@QAE?AV?$Local@VObject@v8@@@2@XZ 100500a0     node:node.exe
 0003:000010a4       __imp_?Value@External@v8@@QBEPAXXZ 100500a4     node:node.exe
 0003:000010a8       __imp_?New@External@v8@@SA?AV?$Local@VExternal@v8@@@2@PAVIsolate@2@PAX@Z 100500a8     node:node.exe
 0003:000010ac       __imp_?GetCurrentContext@Isolate@v8@@QAE?AV?$Local@VContext@v8@@@2@XZ 100500ac     node:node.exe
 0003:000010b0       __imp_?CreateHandle@HandleScope@v8@@KAPAPAVObject@internal@2@PAVIsolate@42@PAV342@@Z 100500b0     node:node.exe
 0003:000010b4       __imp_?CreateHandle@HandleScope@v8@@CAPAPAVObject@internal@2@PAVHeapObject@42@PAV342@@Z 100500b4     node:node.exe
 0003:000010b8       __imp_??1HandleScope@v8@@QAE@XZ 100500b8     node:node.exe
 0003:000010bc       __imp_??0HandleScope@v8@@QAE@PAVIsolate@1@@Z 100500bc     node:node.exe
 0003:000010c0       __imp_?Set@Template@v8@@QAEXV?$Local@VName@v8@@@2@V?$Local@VData@v8@@@2@W4PropertyAttribute@2@@Z 100500c0     node:node.exe
 0003:000010c4       __imp_?New@Array@v8@@SA?AV?$Local@VArray@v8@@@2@PAVIsolate@2@H@Z 100500c4     node:node.exe
 0003:000010c8       __imp_?Length@Array@v8@@QBEIXZ 100500c8     node:node.exe
 0003:000010cc       __imp_?SetClassName@FunctionTemplate@v8@@QAEXV?$Local@VString@v8@@@2@@Z 100500cc     node:node.exe
 0003:000010d0       __imp_?PrototypeTemplate@FunctionTemplate@v8@@QAE?AV?$Local@VObjectTemplate@v8@@@2@XZ 100500d0     node:node.exe
 0003:000010d4       __imp_?InstanceTemplate@FunctionTemplate@v8@@QAE?AV?$Local@VObjectTemplate@v8@@@2@XZ 100500d4     node:node.exe
 0003:000010d8       __imp_?GetFunction@FunctionTemplate@v8@@QAE?AV?$Local@VFunction@v8@@@2@XZ 100500d8     node:node.exe
 0003:000010dc       __imp_?New@FunctionTemplate@v8@@SA?AV?$Local@VFunctionTemplate@v8@@@2@PAVIsolate@2@P6AXABV?$FunctionCallbackInfo@VValue@v8@@@2@@ZV?$Local@VValue@v8@@@2@V?$Local@VSignature@v8@@@2@H@Z 100500dc     node:node.exe
 0003:000010e0       __imp_?ClearWeak@V8@v8@@CAPAXPAPAVObject@internal@2@@Z 100500e0     node:node.exe
 0003:000010e4       __imp_?MakeWeak@V8@v8@@CAXPAPAVObject@internal@2@PAXP6AXABV?$WeakCallbackData@VValue@v8@@X@2@@Z@Z 100500e4     node:node.exe
 0003:000010e8       __imp_?DisposeGlobal@V8@v8@@CAXPAPAVObject@internal@2@@Z 100500e8     node:node.exe
 0003:000010ec       __imp_?GlobalizeReference@V8@v8@@CAPAPAVObject@internal@2@PAVIsolate@42@PAPAV342@@Z 100500ec     node:node.exe
 0003:000010f0       __imp_?Escape@EscapableHandleScope@v8@@AAEPAPAVObject@internal@2@PAPAV342@@Z 100500f0     node:node.exe
 0003:000010f4       __imp_??0EscapableHandleScope@v8@@QAE@PAVIsolate@1@@Z 100500f4     node:node.exe
 0003:000010f8       __imp_??1Utf8Value@String@v8@@QAE@XZ 100500f8     node:node.exe
 0003:000010fc       __imp_??0Utf8Value@String@v8@@QAE@V?$Local@VValue@v8@@@2@@Z 100500fc     node:node.exe
 0003:00001100       __imp_?New@Number@v8@@SA?AV?$Local@VNumber@v8@@@2@PAVIsolate@2@N@Z 10050100     node:node.exe
 0003:00001104       __imp_?Value@Number@v8@@QBENXZ 10050104     node:node.exe
 0003:00001108       __imp_?SlowGetAlignedPointerFromInternalField@Object@v8@@AAEPAXH@Z 10050108     node:node.exe
 0003:0000110c       __imp_?SlowGetInternalField@Object@v8@@AAE?AV?$Local@VValue@v8@@@2@H@Z 1005010c     node:node.exe
 0003:00001110       __imp_?New@Object@v8@@SA?AV?$Local@VObject@v8@@@2@PAVIsolate@2@@Z 10050110     node:node.exe
 0003:00001114       __imp_?SetAlignedPointerInInternalField@Object@v8@@QAEXHPAX@Z 10050114     node:node.exe
 0003:00001118       __imp_?SetInternalField@Object@v8@@QAEXHV?$Local@VValue@v8@@@2@@Z 10050118     node:node.exe
 0003:0000111c       __imp_?InternalFieldCount@Object@v8@@QAEHXZ 1005011c     node:node.exe
 0003:00001120       __imp_?Get@Object@v8@@QAE?AV?$Local@VValue@v8@@@2@I@Z 10050120     node:node.exe
 0003:00001124       __imp_?Set@Object@v8@@QAE_NV?$Local@VValue@v8@@@2@0@Z 10050124     node:node.exe
 0003:00001128       __imp_?Set@Object@v8@@QAE_NIV?$Local@VValue@v8@@@2@@Z 10050128     node:node.exe
 0003:0000112c       __imp_?SetInternalFieldCount@ObjectTemplate@v8@@QAEXH@Z 1005012c     node:node.exe
 0003:00001130       __imp_?NewInstance@ObjectTemplate@v8@@QAE?AV?$MaybeLocal@VObject@v8@@@2@V?$Local@VContext@v8@@@2@@Z 10050130     node:node.exe
 0003:00001134       __imp_?New@ObjectTemplate@v8@@SA?AV?$Local@VObjectTemplate@v8@@@2@PAVIsolate@2@V?$Local@VFunctionTemplate@v8@@@2@@Z 10050134     node:node.exe
 0003:00001138       __imp__node_module_register 10050138     node:node.exe
 0003:0000113c       __imp_?MakeCallback@node@@YA?AV?$Local@VValue@v8@@@v8@@PAVIsolate@3@V?$Local@VObject@v8@@@3@V?$Local@VFunction@v8@@@3@HPAV23@@Z 1005013c     node:node.exe
 0003:00001140       __imp__uv_default_loop     10050140     node:node.exe
 0003:00001144       __imp_?ToObject@Value@v8@@QBE?AV?$Local@VObject@v8@@@2@XZ 10050144     node:node.exe
 0003:00001148       __imp_??1EscapableHandleScope@v8@@QAE@XZ 10050148     node:node.exe
 0003:0000114c       __imp_??1Value@String@v8@@QAE@XZ 1005014c     node:node.exe
 0003:00001150       __imp_??0Value@String@v8@@QAE@V?$Local@VValue@v8@@@2@@Z 10050150     node:node.exe
 0003:00001154       __imp_?Length@String@v8@@QBEHXZ 10050154     node:node.exe
 0003:00001158       \177node_NULL_THUNK_DATA_DLA 10050158     node:node.exe
 0003:00001160       __hmod__node_exe           10050160     node:node.exe
 0003:00001484       ___scrt_current_native_startup_state 10050484     LIBCMT:utility.obj
 0003:00001488       ___scrt_native_startup_lock 10050488     LIBCMT:utility.obj
 0003:000014a8       ?__type_info_root_node@@3U__type_info_node@@A 100504a8     LIBCMT:tncleanup.obj
 0003:000014b0       ?_OptionsStorage@?1??__local_stdio_scanf_options@@9@4_KA 100504b0     LIBCMT:default_local_stdio_options.obj
 0003:000014b8       ___scrt_debugger_hook_flag 100504b8     LIBCMT:utility_desktop.obj
 0003:000014bc       ___isa_available           100504bc     LIBCMT:_cpu_disp_.obj
 0003:000014c0       ___favor                   100504c0     LIBCMT:_cpu_disp_.obj
 0003:000014c4       ?g_OutOfMemoryExceptionCallback@@3P6GPAXXZA 100504c4     libvcruntime:frame.obj
 0003:000014f0       ___pPurecall               100504f0     libvcruntime:purevirt_data.obj
 0003:00001544       ?pArgList@UnDecorator@@0PAVReplicator@@A 10050544     libvcruntime:undname.obj
 0003:00001548       ?pZNameList@UnDecorator@@0PAVReplicator@@A 10050548     libvcruntime:undname.obj
 0003:0000154c       ?pTemplateArgList@UnDecorator@@0PAVReplicator@@A 1005054c     libvcruntime:undname.obj
 0003:00001550       ?gName@UnDecorator@@0PBDB  10050550     libvcruntime:undname.obj
 0003:00001554       ?name@UnDecorator@@0PBDB   10050554     libvcruntime:undname.obj
 0003:00001558       ?outputString@UnDecorator@@0PADA 10050558     libvcruntime:undname.obj
 0003:0000155c       ?maxStringLength@UnDecorator@@0HA 1005055c     libvcruntime:undname.obj
 0003:00001560       ?disableFlags@UnDecorator@@0KA 10050560     libvcruntime:undname.obj
 0003:00001564       ?fExplicitTemplateParams@UnDecorator@@0_NA 10050564     libvcruntime:undname.obj
 0003:00001565       ?fGetTemplateArgumentList@UnDecorator@@0_NA 10050565     libvcruntime:undname.obj
 0003:00001568       ?m_pGetParameter@UnDecorator@@0P6APADJ@ZA 10050568     libvcruntime:undname.obj
 0003:000016a0       __environ_table            100506a0     libucrt:environment_initialization.obj
 0003:000016a4       __wenviron_table           100506a4     libucrt:environment_initialization.obj
 0003:000016a8       ___dcrt_initial_wide_environment 100506a8     libucrt:environment_initialization.obj
 0003:000016ac       ___dcrt_initial_narrow_environment 100506ac     libucrt:environment_initialization.obj
 0003:000016b0       ___acrt_atexit_table       100506b0     libucrt:onexit.obj
 0003:000016bc       ___acrt_at_quick_exit_table 100506bc     libucrt:onexit.obj
 0003:000016d0       __nstream                  100506d0     libucrt:_file.obj
 0003:000016d4       ___piob                    100506d4     libucrt:_file.obj
 0003:000016d8       __cflush                   100506d8     libucrt:_file.obj
 0003:000016ec       ___acrt_locale_changed_data 100506ec     libucrt:wsetlocale.obj
 0003:000016f0       ___acrt_current_locale_data 100506f0     libucrt:nlsdata.obj
 0003:000016f8       ___acrt_stdout_buffer      100506f8     libucrt:_sftbuf.obj
 0003:000016fc       ___acrt_stderr_buffer      100506fc     libucrt:_sftbuf.obj
 0003:00001700       ___pioinfo                 10050700     libucrt:ioinit.obj
 0003:00001900       __nhandle                  10050900     libucrt:ioinit.obj
 0003:00001b1c       ___mblocalename            10050b1c     libucrt:mbctype.obj
 0003:00001b20       ___mbcodepage              10050b20     libucrt:mbctype.obj
 0003:00001b24       ___ismbcodepage            10050b24     libucrt:mbctype.obj
 0003:00001b28       ___mbulinfo                10050b28     libucrt:mbctype.obj
 0003:00001b3c       ___argc                    10050b3c     libucrt:argv_data.obj
 0003:00001b40       ___argv                    10050b40     libucrt:argv_data.obj
 0003:00001b44       ___wargv                   10050b44     libucrt:argv_data.obj
 0003:00001b48       __acmdln                   10050b48     libucrt:argv_data.obj
 0003:00001b4c       __wcmdln                   10050b4c     libucrt:argv_data.obj
 0003:00001b50       __pgmptr                   10050b50     libucrt:argv_data.obj
 0003:00001b54       ___acrt_heap               10050b54     libucrt:heap_handle.obj
 0003:00001b60       ___acrt_lconv_static_null  10050b60     libucrt:localeconv.obj
 0003:00001b64       ___acrt_lconv_static_W_null 10050b64     libucrt:localeconv.obj
 0003:00001b68       ___fastflag                10050b68     libucrt:fp_flags.obj
 0003:00001b70       ?DloadKernel32@@3PAUHINSTANCE__@@A 10050b70     DelayImp:delayhlp.obj
 0003:00001b74       ?DloadAcquireSRWLockExclusive@@3P6GXPAK@ZA 10050b74     DelayImp:delayhlp.obj
 0003:00001b78       ?DloadReleaseSRWLockExclusive@@3P6GXPAK@ZA 10050b78     DelayImp:delayhlp.obj
 0003:00001b7c       ?DloadSrwLock@@3KA         10050b7c     DelayImp:delayhlp.obj
 0003:00001b80       ?DloadSectionLockCount@@3KA 10050b80     DelayImp:delayhlp.obj
 0003:00001b84       ?DloadSectionOldProtection@@3KA 10050b84     DelayImp:delayhlp.obj
 0003:00001b88       ?DloadSectionCommitPermanent@@3KA 10050b88     DelayImp:delayhlp.obj
 0003:00001d94       ___scrt_ucrt_dll_is_in_use 10050d94     <common>
 0003:00001d98       ___dyn_tls_init_callback   10050d98     <common>
 0003:00001d9c       __pmatherr                 10050d9c     <common>
 0003:00001da0       ___use_sse2_mathfcns       10050da0     <common>
 0003:00001da8       ?_OptionsStorage@?1??__local_stdio_printf_options@@9@9 10050da8     <common>

 entry point at        0001:000174c0

 Static symbols

 0000:fffaa000       .debug$S                   10000000     kernel32:KERNEL32.dll
 0000:fffaa000       .debug$S                   10000000     onig_scanner.exp
 0000:fffaa000       .debug$S                   10000000     kernel32:KERNEL32.dll
 0000:fffaa000       .debug$S                   10000000     kernel32:KERNEL32.dll
 0000:fffaa000       .debug$S                   10000000     kernel32:KERNEL32.dll
 0000:fffaa000       .debug$S                   10000000     kernel32:KERNEL32.dll
 0000:fffaa000       .debug$S                   10000000     kernel32:KERNEL32.dll
 0000:fffaa000       .debug$S                   10000000     kernel32:KERNEL32.dll
 0000:fffaa000       .debug$S                   10000000     kernel32:KERNEL32.dll
 0000:fffaa000       .debug$S                   10000000     kernel32:KERNEL32.dll
 0000:fffaa000       .debug$S                   10000000     kernel32:KERNEL32.dll
 0000:fffaa000       .debug$S                   10000000     kernel32:KERNEL32.dll
 0000:fffaa000       .debug$S                   10000000     kernel32:KERNEL32.dll
 0000:fffaa000       .debug$S                   10000000     kernel32:KERNEL32.dll
 0000:fffaa000       .debug$S                   10000000     kernel32:KERNEL32.dll
 0000:fffaa000       .debug$S                   10000000     kernel32:KERNEL32.dll
 0000:fffaa000       .debug$S                   10000000     kernel32:KERNEL32.dll
 0000:fffaa000       .debug$S                   10000000     kernel32:KERNEL32.dll
 0000:fffaa000       .debug$S                   10000000     kernel32:KERNEL32.dll
 0000:fffaa000       .debug$S                   10000000     kernel32:KERNEL32.dll
 0000:fffaa000       .debug$S                   10000000     kernel32:KERNEL32.dll
 0000:fffaa000       .debug$S                   10000000     kernel32:KERNEL32.dll
 0000:fffaa000       .debug$S                   10000000     kernel32:KERNEL32.dll
 0000:fffaa000       .debug$S                   10000000     kernel32:KERNEL32.dll
 0000:fffaa000       .debug$S                   10000000     kernel32:KERNEL32.dll
 0000:fffaa000       .debug$S                   10000000     kernel32:KERNEL32.dll
 0000:fffaa000       .debug$S                   10000000     kernel32:KERNEL32.dll
 0000:fffaa000       .debug$S                   10000000     kernel32:KERNEL32.dll
 0000:fffaa000       .debug$S                   10000000     kernel32:KERNEL32.dll
 0000:fffaa000       .debug$S                   10000000     kernel32:KERNEL32.dll
 0000:fffaa000       .debug$S                   10000000     kernel32:KERNEL32.dll
 0000:fffaa000       .debug$S                   10000000     kernel32:KERNEL32.dll
 0000:fffaa000       .debug$S                   10000000     kernel32:KERNEL32.dll
 0000:fffaa000       .debug$S                   10000000     kernel32:KERNEL32.dll
 0000:fffaa000       .debug$S                   10000000     kernel32:KERNEL32.dll
 0000:fffaa000       .debug$S                   10000000     kernel32:KERNEL32.dll
 0000:fffaa000       .debug$S                   10000000     node:node.exe
 0000:fffaa000       .debug$S                   10000000     node:node.exe
 0000:fffaa000       .debug$S                   10000000     node:node.exe
 0000:fffaa000       .debug$S                   10000000     node:node.exe
 0000:fffaa000       .debug$S                   10000000     node:node.exe
 0000:fffaa000       .debug$S                   10000000     node:node.exe
 0000:fffaa000       .debug$S                   10000000     node:node.exe
 0000:fffaa000       .debug$S                   10000000     node:node.exe
 0000:fffaa000       .debug$S                   10000000     node:node.exe
 0000:fffaa000       .debug$S                   10000000     node:node.exe
 0000:fffaa000       .debug$S                   10000000     node:node.exe
 0000:fffaa000       .debug$S                   10000000     node:node.exe
 0000:fffaa000       .debug$S                   10000000     node:node.exe
 0000:fffaa000       .debug$S                   10000000     node:node.exe
 0000:fffaa000       .debug$S                   10000000     node:node.exe
 0000:fffaa000       .debug$S                   10000000     node:node.exe
 0000:fffaa000       .debug$S                   10000000     node:node.exe
 0000:fffaa000       .debug$S                   10000000     node:node.exe
 0000:fffaa000       .debug$S                   10000000     node:node.exe
 0000:fffaa000       .debug$S                   10000000     node:node.exe
 0000:fffaa000       .debug$S                   10000000     node:node.exe
 0000:fffaa000       .debug$S                   10000000     node:node.exe
 0000:fffaa000       .debug$S                   10000000     node:node.exe
 0000:fffaa000       .debug$S                   10000000     node:node.exe
 0000:fffaa000       .debug$S                   10000000     node:node.exe
 0000:fffaa000       .debug$S                   10000000     node:node.exe
 0000:fffaa000       .debug$S                   10000000     node:node.exe
 0000:fffaa000       .debug$S                   10000000     node:node.exe
 0000:fffaa000       .debug$S                   10000000     node:node.exe
 0000:fffaa000       .debug$S                   10000000     node:node.exe
 0000:fffaa000       .debug$S                   10000000     node:node.exe
 0000:fffaa000       .debug$S                   10000000     node:node.exe
 0000:fffaa000       .debug$S                   10000000     node:node.exe
 0000:fffaa000       .debug$S                   10000000     node:node.exe
 0000:fffaa000       .debug$S                   10000000     node:node.exe
 0000:fffaa000       .debug$S                   10000000     node:node.exe
 0000:fffaa000       .debug$S                   10000000     node:node.exe
 0000:fffaa000       .debug$S                   10000000     node:node.exe
 0000:fffaa000       .debug$S                   10000000     node:node.exe
 0000:fffaa000       .debug$S                   10000000     node:node.exe
 0000:fffaa000       .debug$S                   10000000     node:node.exe
 0000:fffaa000       .debug$S                   10000000     node:node.exe
 0000:fffaa000       .debug$S                   10000000     node:node.exe
 0000:fffaa000       .debug$S                   10000000     node:node.exe
 0000:fffaa000       .debug$S                   10000000     node:node.exe
 0000:fffaa000       .debug$S                   10000000     node:node.exe
 0000:fffaa000       .debug$S                   10000000     node:node.exe
 0000:fffaa000       .debug$S                   10000000     node:node.exe
 0000:fffaa000       .debug$S                   10000000     node:node.exe
 0000:fffaa000       .debug$S                   10000000     node:node.exe
 0000:fffaa000       .debug$S                   10000000     node:node.exe
 0000:fffaa000       .debug$S                   10000000     node:node.exe
 0000:fffaa000       .debug$S                   10000000     node:node.exe
 0000:fffaa000       .debug$S                   10000000     node:node.exe
 0000:fffaa000       .debug$S                   10000000     node:node.exe
 0000:fffaa000       .debug$S                   10000000     node:node.exe
 0000:fffaa000       .debug$S                   10000000     node:node.exe
 0000:fffaa000       .debug$S                   10000000     node:node.exe
 0000:fffaa000       .debug$S                   10000000     node:node.exe
 0000:fffaa000       .debug$S                   10000000     node:node.exe
 0000:fffaa000       .debug$S                   10000000     node:node.exe
 0000:fffaa000       .debug$S                   10000000     node:node.exe
 0000:fffaa000       .debug$S                   10000000     node:node.exe
 0000:fffaa000       .debug$S                   10000000     node:node.exe
 0000:fffaa000       .debug$S                   10000000     node:node.exe
 0000:fffaa000       .debug$S                   10000000     node:node.exe
 0000:fffaa000       .debug$S                   10000000     node:node.exe
 0000:fffaa000       .debug$S                   10000000     kernel32:KERNEL32.dll
 0000:fffaa000       .debug$S                   10000000     kernel32:KERNEL32.dll
 0000:fffaa000       .debug$S                   10000000     kernel32:KERNEL32.dll
 0000:fffaa000       .debug$S                   10000000     kernel32:KERNEL32.dll
 0000:fffaa000       .debug$S                   10000000     kernel32:KERNEL32.dll
 0000:fffaa000       .debug$S                   10000000     kernel32:KERNEL32.dll
 0000:fffaa000       .debug$S                   10000000     kernel32:KERNEL32.dll
 0000:fffaa000       .debug$S                   10000000     kernel32:KERNEL32.dll
 0000:fffaa000       .debug$S                   10000000     kernel32:KERNEL32.dll
 0000:fffaa000       .debug$S                   10000000     kernel32:KERNEL32.dll
 0000:fffaa000       .debug$S                   10000000     kernel32:KERNEL32.dll
 0000:fffaa000       .debug$S                   10000000     kernel32:KERNEL32.dll
 0000:fffaa000       .debug$S                   10000000     kernel32:KERNEL32.dll
 0000:fffaa000       .debug$S                   10000000     kernel32:KERNEL32.dll
 0000:fffaa000       .debug$S                   10000000     kernel32:KERNEL32.dll
 0000:fffaa000       .debug$S                   10000000     kernel32:KERNEL32.dll
 0000:fffaa000       .debug$S                   10000000     kernel32:KERNEL32.dll
 0000:fffaa000       .debug$S                   10000000     kernel32:KERNEL32.dll
 0000:fffaa000       .debug$S                   10000000     kernel32:KERNEL32.dll
 0000:fffaa000       .debug$S                   10000000     kernel32:KERNEL32.dll
 0000:fffaa000       .debug$S                   10000000     kernel32:KERNEL32.dll
 0000:fffaa000       .debug$S                   10000000     kernel32:KERNEL32.dll
 0000:fffaa000       .debug$S                   10000000     kernel32:KERNEL32.dll
 0000:fffaa000       .debug$S                   10000000     kernel32:KERNEL32.dll
 0000:fffaa000       .debug$S                   10000000     kernel32:KERNEL32.dll
 0000:fffaa000       .debug$S                   10000000     kernel32:KERNEL32.dll
 0000:fffaa000       .debug$S                   10000000     kernel32:KERNEL32.dll
 0000:fffaa000       .debug$S                   10000000     kernel32:KERNEL32.dll
 0000:fffaa000       .debug$S                   10000000     kernel32:KERNEL32.dll
 0000:fffaa000       .debug$S                   10000000     kernel32:KERNEL32.dll
 0000:fffaa000       .debug$S                   10000000     kernel32:KERNEL32.dll
 0000:fffaa000       .debug$S                   10000000     kernel32:KERNEL32.dll
 0000:fffaa000       .debug$S                   10000000     kernel32:KERNEL32.dll
 0000:fffaa000       .debug$S                   10000000     kernel32:KERNEL32.dll
 0000:fffaa000       .debug$S                   10000000     kernel32:KERNEL32.dll
 0000:fffaa000       .debug$S                   10000000     kernel32:KERNEL32.dll
 0000:fffaa000       .debug$S                   10000000     kernel32:KERNEL32.dll
 0000:fffaa000       .debug$S                   10000000     kernel32:KERNEL32.dll
 0000:fffaa000       .debug$S                   10000000     kernel32:KERNEL32.dll
 0000:fffaa000       .debug$S                   10000000     kernel32:KERNEL32.dll
 0000:fffaa000       .debug$S                   10000000     kernel32:KERNEL32.dll
 0000:fffaa000       .debug$S                   10000000     kernel32:KERNEL32.dll
 0000:fffaa000       .debug$S                   10000000     kernel32:KERNEL32.dll
 0000:fffaa000       .debug$S                   10000000     kernel32:KERNEL32.dll
 0000:fffaa000       .debug$S                   10000000     kernel32:KERNEL32.dll
 0000:fffaa000       .debug$S                   10000000     kernel32:KERNEL32.dll
 0000:fffaa000       .debug$S                   10000000     kernel32:KERNEL32.dll
 0000:fffaa000       .debug$S                   10000000     kernel32:KERNEL32.dll
 0000:fffaa000       .debug$S                   10000000     kernel32:KERNEL32.dll
 0000:fffaa000       .debug$S                   10000000     kernel32:KERNEL32.dll
 0000:fffaa000       .debug$S                   10000000     kernel32:KERNEL32.dll
 0000:fffaa000       .debug$S                   10000000     kernel32:KERNEL32.dll
 0000:fffaa000       .debug$S                   10000000     kernel32:KERNEL32.dll
 0000:fffaa000       .debug$S                   10000000     kernel32:KERNEL32.dll
 0001:00000d70       ?FunctionCallbackWrapper@imp@Nan@@YAXABV?$FunctionCallbackInfo@VValue@v8@@@v8@@@Z 10001d70 f   onig-scanner.obj
 0001:00001930       __register_onig_scanner    10002930 f   onig-scanner.obj
 0001:00003780       ?load_exe_hook@@YGP6GHXZIPAUDelayLoadInfo@@@Z 10004780 f   win_delay_load_hook.obj
 0001:000037d0       _history_tree_clear        100047d0 f   oniguruma:regexec.obj
 0001:00003840       _history_node_new          10004840 f   oniguruma:regexec.obj
 0001:00003880       _history_tree_add_child    10004880 f   oniguruma:regexec.obj
 0001:00003a30       _stack_double              10004a30 f   oniguruma:regexec.obj
 0001:00003b50       _string_cmp_ic             10004b50 f   oniguruma:regexec.obj
 0001:00003c20       _make_capture_history_tree 10004c20 f   oniguruma:regexec.obj
 0001:00003d50       _backref_match_at_nested_level 10004d50 f   oniguruma:regexec.obj
 0001:00003eb0       _match_at                  10004eb0 f   oniguruma:regexec.obj
 0001:00006830       $LN1476                    10007830     oniguruma:regexec.obj
 0001:00006974       $LN1477                    10007974     oniguruma:regexec.obj
 0001:00006980       $LN1421                    10007980     oniguruma:regexec.obj
 0001:00006990       _slow_search               10007990 f   oniguruma:regexec.obj
 0001:00006a10       _str_lower_case_match      10007a10 f   oniguruma:regexec.obj
 0001:00006ab0       _slow_search_ic            10007ab0 f   oniguruma:regexec.obj
 0001:00006ba0       _slow_search_backward      10007ba0 f   oniguruma:regexec.obj
 0001:00006c40       _slow_search_backward_ic   10007c40 f   oniguruma:regexec.obj
 0001:00006cd0       _bm_search_notrev          10007cd0 f   oniguruma:regexec.obj
 0001:00006e10       _bm_search                 10007e10 f   oniguruma:regexec.obj
 0001:00006ed0       _set_bm_backward_skip      10007ed0 f   oniguruma:regexec.obj
 0001:00006f50       _bm_search_backward        10007f50 f   oniguruma:regexec.obj
 0001:00006fe0       _forward_search_range      10007fe0 f   oniguruma:regexec.obj
 0001:00007234       $LN86                      10008234     oniguruma:regexec.obj
 0001:00007250       _backward_search_range     10008250 f   oniguruma:regexec.obj
 0001:0000744c       $LN60                      1000844c     oniguruma:regexec.obj
 0001:00007b10       _mbc_enc_len               10008b10 f   oniguruma:utf8.obj
 0001:00007b20       _is_mbc_newline            10008b20 f   oniguruma:utf8.obj
 0001:00007b40       _mbc_to_code               10008b40 f   oniguruma:utf8.obj
 0001:00007bb0       _code_to_mbclen            10008bb0 f   oniguruma:utf8.obj
 0001:00007c20       _code_to_mbc               10008c20 f   oniguruma:utf8.obj
 0001:00007d70       _mbc_case_fold             10008d70 f   oniguruma:utf8.obj
 0001:00007db0       _get_ctype_code_range      10008db0 f   oniguruma:utf8.obj
 0001:00007df0       _left_adjust_char_head     10008df0 f   oniguruma:utf8.obj
 0001:00007e20       _get_case_fold_codes_by_str 10008e20 f   oniguruma:utf8.obj
 0001:00007e40       _swap_node                 10008e40 f   oniguruma:regcomp.obj
 0001:00007ec0       _distance_multiply         10008ec0 f   oniguruma:regcomp.obj
 0001:00007ef0       _add_opcode                10008ef0 f   oniguruma:regcomp.obj
 0001:00007f40       _add_abs_addr              10008f40 f   oniguruma:regcomp.obj
 0001:00007f40       _add_length                10008f40 f   oniguruma:regcomp.obj
 0001:00007f40       _add_option                10008f40 f   oniguruma:regcomp.obj
 0001:00007f40       _add_rel_addr              10008f40 f   oniguruma:regcomp.obj
 0001:00007f90       _add_mem_num               10008f90 f   oniguruma:regcomp.obj
 0001:00007fe0       _add_opcode_rel_addr       10008fe0 f   oniguruma:regcomp.obj
 0001:00008070       _add_bytes                 10009070 f   oniguruma:regcomp.obj
 0001:000080d0       _add_bitset                100090d0 f   oniguruma:regcomp.obj
 0001:00008130       _select_str_opcode         10009130 f   oniguruma:regcomp.obj
 0001:000081bc       $LN30                      100091bc     oniguruma:regcomp.obj
 0001:000081d0       _compile_tree_empty_check  100091d0 f   oniguruma:regcomp.obj
 0001:00008290       _compile_call              10009290 f   oniguruma:regcomp.obj
 0001:00008340       _compile_tree_n_times      10009340 f   oniguruma:regcomp.obj
 0001:00008370       _add_compile_string        10009370 f   oniguruma:regcomp.obj
 0001:00008470       _compile_length_string_node 10009470 f   oniguruma:regcomp.obj
 0001:00008590       _compile_length_string_raw_node 10009590 f   oniguruma:regcomp.obj
 0001:000085c0       $LN40                      100095c0     oniguruma:regcomp.obj
 0001:000085e0       _compile_string_node       100095e0 f   oniguruma:regcomp.obj
 0001:00008820       _add_multi_byte_cclass     10009820 f   oniguruma:regcomp.obj
 0001:00008880       _compile_length_cclass_node 10009880 f   oniguruma:regcomp.obj
 0001:000088e0       _compile_cclass_node       100098e0 f   oniguruma:regcomp.obj
 0001:00008a10       _entry_repeat_range        10009a10 f   oniguruma:regcomp.obj
 0001:00008a90       _compile_range_repeat_node 10009a90 f   oniguruma:regcomp.obj
 0001:00008b90       _compile_length_quantifier_node 10009b90 f   oniguruma:regcomp.obj
 0001:00008ca0       _compile_quantifier_node   10009ca0 f   oniguruma:regcomp.obj
 0001:00009040       _compile_length_enclose_node 1000a040 f   oniguruma:regcomp.obj
 0001:000090e0       _compile_enclose_node      1000a0e0 f   oniguruma:regcomp.obj
 0001:00009330       _compile_length_anchor_node 1000a330 f   oniguruma:regcomp.obj
 0001:00009390       _compile_anchor_node       1000a390 f   oniguruma:regcomp.obj
 0001:000095e0       $LN120                     1000a5e0     oniguruma:regcomp.obj
 0001:00009600       $LN113                     1000a600     oniguruma:regcomp.obj
 0001:00009640       _compile_length_tree       1000a640 f   oniguruma:regcomp.obj
 0001:00009758       $LN41                      1000a758     oniguruma:regcomp.obj
 0001:00009790       _compile_tree              1000a790 f   oniguruma:regcomp.obj
 0001:00009a68       $LN125                     1000aa68     oniguruma:regcomp.obj
 0001:00009aa0       _noname_disable_map        1000aaa0 f   oniguruma:regcomp.obj
 0001:00009b80       $LN29                      1000ab80     oniguruma:regcomp.obj
 0001:00009ba0       _renumber_node_backref     1000aba0 f   oniguruma:regcomp.obj
 0001:00009bf0       _renumber_by_map           1000abf0 f   oniguruma:regcomp.obj
 0001:00009c54       $LN26                      1000ac54     oniguruma:regcomp.obj
 0001:00009c70       _numbered_ref_check        1000ac70 f   oniguruma:regcomp.obj
 0001:00009cc8       $LN26                      1000acc8     oniguruma:regcomp.obj
 0001:00009ce0       _disable_noname_group_capture 1000ace0 f   oniguruma:regcomp.obj
 0001:00009e30       _unset_addr_list_fix       1000ae30 f   oniguruma:regcomp.obj
 0001:00009ed0       _quantifiers_memory_node_info 1000aed0 f   oniguruma:regcomp.obj
 0001:00009f50       $LN35                      1000af50     oniguruma:regcomp.obj
 0001:00009f70       _get_min_match_length      1000af70 f   oniguruma:regcomp.obj
 0001:0000a1a0       $LN83                      1000b1a0     oniguruma:regcomp.obj
 0001:0000a1d0       _get_max_match_length      1000b1d0 f   oniguruma:regcomp.obj
 0001:0000a404       $LN92                      1000b404     oniguruma:regcomp.obj
 0001:0000a430       _get_char_length_tree1     1000b430 f   oniguruma:regcomp.obj
 0001:0000a654       $LN89                      1000b654     oniguruma:regcomp.obj
 0001:0000a680       _is_not_included           1000b680 f   oniguruma:regcomp.obj
 0001:0000a920       _get_head_value_node       1000b920 f   oniguruma:regcomp.obj
 0001:0000a9f8       $LN29                      1000b9f8     oniguruma:regcomp.obj
 0001:0000aa20       _check_type_tree           1000ba20 f   oniguruma:regcomp.obj
 0001:0000aae4       $LN31                      1000bae4     oniguruma:regcomp.obj
 0001:0000ab00       _subexp_inf_recursive_check 1000bb00 f   oniguruma:regcomp.obj
 0001:0000ac7c       $LN48                      1000bc7c     oniguruma:regcomp.obj
 0001:0000aca0       _subexp_inf_recursive_check_trav 1000bca0 f   oniguruma:regcomp.obj
 0001:0000ad48       $LN32                      1000bd48     oniguruma:regcomp.obj
 0001:0000ad60       _subexp_recursive_check    1000bd60 f   oniguruma:regcomp.obj
 0001:0000ae14       $LN35                      1000be14     oniguruma:regcomp.obj
 0001:0000ae30       _subexp_recursive_check_trav 1000be30 f   oniguruma:regcomp.obj
 0001:0000af18       $LN39                      1000bf18     oniguruma:regcomp.obj
 0001:0000af30       _setup_subexp_call         1000bf30 f   oniguruma:regcomp.obj
 0001:0000b0c8       $LN71                      1000c0c8     oniguruma:regcomp.obj
 0001:0000b0e0       _divide_look_behind_alternatives 1000c0e0 f   oniguruma:regcomp.obj
 0001:0000b180       _setup_look_behind         1000c180 f   oniguruma:regcomp.obj
 0001:0000b1d0       _next_setup                1000c1d0 f   oniguruma:regcomp.obj
 0001:0000b2a0       _update_string_node_case_fold 1000c2a0 f   oniguruma:regcomp.obj
 0001:0000b410       _expand_case_fold_make_rem_string 1000c410 f   oniguruma:regcomp.obj
 0001:0000b4b0       _expand_case_fold_string_alt 1000c4b0 f   oniguruma:regcomp.obj
 0001:0000b8f0       _expand_case_fold_string   1000c8f0 f   oniguruma:regcomp.obj
 0001:0000bc00       _setup_tree                1000cc00 f   oniguruma:regcomp.obj
 0001:0000c0a4       $LN134                     1000d0a4     oniguruma:regcomp.obj
 0001:0000c0d0       _set_bm_skip               1000d0d0 f   oniguruma:regcomp.obj
 0001:0000c180       _map_position_value        1000d180 f   oniguruma:regcomp.obj
 0001:0000c1b0       _comp_distance_value       1000d1b0 f   oniguruma:regcomp.obj
 0001:0000c230       _add_mml                   1000d230 f   oniguruma:regcomp.obj
 0001:0000c280       _add_opt_anc_info          1000d280 f   oniguruma:regcomp.obj
 0001:0000c2b0       _concat_opt_exact_info     1000d2b0 f   oniguruma:regcomp.obj
 0001:0000c350       _concat_opt_exact_info_str 1000d350 f   oniguruma:regcomp.obj
 0001:0000c3b0       _alt_merge_opt_exact_info  1000d3b0 f   oniguruma:regcomp.obj
 0001:0000c4c0       _select_opt_exact_info     1000d4c0 f   oniguruma:regcomp.obj
 0001:0000c550       _add_char_opt_map_info     1000d550 f   oniguruma:regcomp.obj
 0001:0000c5a0       _add_char_amb_opt_map_info 1000d5a0 f   oniguruma:regcomp.obj
 0001:0000c6b0       _alt_merge_opt_map_info    1000d6b0 f   oniguruma:regcomp.obj
 0001:0000c750       _concat_left_node_opt_info 1000d750 f   oniguruma:regcomp.obj
 0001:0000c960       _alt_merge_node_opt_info   1000d960 f   oniguruma:regcomp.obj
 0001:0000c9d0       _optimize_node_left        1000d9d0 f   oniguruma:regcomp.obj
 0001:0000d244       $LN266                     1000e244     oniguruma:regcomp.obj
 0001:0000d270       $LN267                     1000e270     oniguruma:regcomp.obj
 0001:0000d278       $LN248                     1000e278     oniguruma:regcomp.obj
 0001:0000d280       _set_optimize_exact_info   1000e280 f   oniguruma:regcomp.obj
 0001:0000d3a0       _set_optimize_map_info     1000e3a0 f   oniguruma:regcomp.obj
 0001:0000d3e0       _set_optimize_info_from_tree 1000e3e0 f   oniguruma:regcomp.obj
 0001:0000d570       _clear_optimize_info       1000e570 f   oniguruma:regcomp.obj
 0001:0000dba0       _bbuf_free                 1000eba0 f   oniguruma:regparse.obj
 0001:0000dbd0       _bbuf_clone                1000ebd0 f   oniguruma:regparse.obj
 0001:0000dc40       _bitset_set_range          1000ec40 f   oniguruma:regparse.obj
 0001:0000dc80       _strdup_with_null          1000ec80 f   oniguruma:regparse.obj
 0001:0000dce0       _strcat_capa               1000ece0 f   oniguruma:regparse.obj
 0001:0000dd40       _strcat_capa_from_static   1000ed40 f   oniguruma:regparse.obj
 0001:0000ddb0       _str_end_cmp               1000edb0 f   oniguruma:regparse.obj
 0001:0000de00       _str_end_hash              1000ee00 f   oniguruma:regparse.obj
 0001:0000dee0       _i_free_name_entry         1000eee0 f   oniguruma:regparse.obj
 0001:0000df20       _i_renumber_name           1000ef20 f   oniguruma:regparse.obj
 0001:0000df70       _name_add                  1000ef70 f   oniguruma:regparse.obj
 0001:0000e190       _scan_env_clear            1000f190 f   oniguruma:regparse.obj
 0001:0000e220       _scan_env_add_mem_entry    1000f220 f   oniguruma:regparse.obj
 0001:0000e36c       $LN29                      1000f36c     oniguruma:regparse.obj
 0001:0000e3a0       _initialize_cclass         1000f3a0 f   oniguruma:regparse.obj
 0001:0000e3f0       _node_new_cclass           1000f3f0 f   oniguruma:regparse.obj
 0001:0000e470       _node_new_cclass_by_codepoint_range 1000f470 f   oniguruma:regparse.obj
 0001:0000e580       _node_new_ctype            1000f580 f   oniguruma:regparse.obj
 0001:0000e5d0       _node_new_anychar          1000f5d0 f   oniguruma:regparse.obj
 0001:0000e600       _node_new_list             1000f600 f   oniguruma:regparse.obj
 0001:0000e740       _node_new_backref          1000f740 f   oniguruma:regparse.obj
 0001:0000e840       _node_new_call             1000f840 f   oniguruma:regparse.obj
 0001:0000e8a0       _node_new_quantifier       1000f8a0 f   oniguruma:regparse.obj
 0001:0000e910       _node_new_enclose          1000f910 f   oniguruma:regparse.obj
 0001:0000e9e0       _node_new_enclose_memory   1000f9e0 f   oniguruma:regparse.obj
 0001:0000ea60       _node_new_option           1000fa60 f   oniguruma:regparse.obj
 0001:0000eb80       _node_new_str              1000fb80 f   oniguruma:regparse.obj
 0001:0000ebf0       _node_new_empty            1000fbf0 f   oniguruma:regparse.obj
 0001:0000ec60       _node_new_str_raw_char     1000fc60 f   oniguruma:regparse.obj
 0001:0000ecd0       _str_node_split_last_char  1000fcd0 f   oniguruma:regparse.obj
 0001:0000edc0       _scan_unsigned_hexadecimal_number 1000fdc0 f   oniguruma:regparse.obj
 0001:0000eec0       _scan_unsigned_octal_number 1000fec0 f   oniguruma:regparse.obj
 0001:0000ef70       _new_code_range            1000ff70 f   oniguruma:regparse.obj
 0001:0000eff0       _add_code_range_to_buf     1000fff0 f   oniguruma:regparse.obj
 0001:0000f270       _add_code_range            10010270 f   oniguruma:regparse.obj
 0001:0000f2b0       _not_code_range_buf        100102b0 f   oniguruma:regparse.obj
 0001:0000f350       _or_code_range_buf         10010350 f   oniguruma:regparse.obj
 0001:0000f470       _and_code_range1           10010470 f   oniguruma:regparse.obj
 0001:0000f780       _and_code_range_buf        10010780 f   oniguruma:regparse.obj
 0001:0000f8d0       _and_cclass                100108d0 f   oniguruma:regparse.obj
 0001:0000fb10       _or_cclass                 10010b10 f   oniguruma:regparse.obj
 0001:0000fd50       _conv_backslash_value      10010d50 f   oniguruma:regparse.obj
 0001:0000fdac       $LN18                      10010dac     oniguruma:regparse.obj
 0001:0000fdd0       $LN16                      10010dd0     oniguruma:regparse.obj
 0001:0000fdf0       _is_invalid_quantifier_target 10010df0 f   oniguruma:regparse.obj
 0001:0000fe40       _popular_quantifier_num    10010e40 f   oniguruma:regparse.obj
 0001:0000ffe8       $LN18                      10010fe8     oniguruma:regparse.obj
 0001:00010010       _fetch_range_quantifier    10011010 f   oniguruma:regparse.obj
 0001:00010220       _fetch_escaped_value       10011220 f   oniguruma:regparse.obj
 0001:00010440       _fetch_name_with_level     10011440 f   oniguruma:regparse.obj
 0001:00010710       _fetch_name                10011710 f   oniguruma:regparse.obj
 0001:00010950       _find_str_position         10011950 f   oniguruma:regparse.obj
 0001:000109f0       _str_exist_check_with_esc  100119f0 f   oniguruma:regparse.obj
 0001:00010ae0       _fetch_token_in_cc         10011ae0 f   oniguruma:regparse.obj
 0001:00011104       $LN114                     10012104     oniguruma:regparse.obj
 0001:00011138       $LN108                     10012138     oniguruma:regparse.obj
 0001:00011190       _fetch_token               10012190 f   oniguruma:regparse.obj
 0001:000120e8       $LN336                     100130e8     oniguruma:regparse.obj
 0001:00012124       $LN313                     10013124     oniguruma:regparse.obj
 0001:00012198       $LN337                     10013198     oniguruma:regparse.obj
 0001:00012220       $LN314                     10013220     oniguruma:regparse.obj
 0001:00012280       _add_ctype_to_cc_by_range  10013280 f   oniguruma:regparse.obj
 0001:00012440       _add_ctype_to_cc           10013440 f   oniguruma:regparse.obj
 0001:00012640       $LN88                      10013640     oniguruma:regparse.obj
 0001:0001264c       $LN81                      1001364c     oniguruma:regparse.obj
 0001:00012660       _parse_posix_bracket       10013660 f   oniguruma:regparse.obj
 0001:00012860       _fetch_char_property_to_ctype 10013860 f   oniguruma:regparse.obj
 0001:00012920       _parse_char_property       10013920 f   oniguruma:regparse.obj
 0001:00012990       _next_state_class          10013990 f   oniguruma:regparse.obj
 0001:00012a10       _next_state_val            10013a10 f   oniguruma:regparse.obj
 0001:00012b58       $LN29                      10013b58     oniguruma:regparse.obj
 0001:00012b70       _code_exist_check          10013b70 f   oniguruma:regparse.obj
 0001:00012bf0       _parse_char_class          10013bf0 f   oniguruma:regparse.obj
 0001:00013310       $LN202                     10014310     oniguruma:regparse.obj
 0001:0001333c       $LN194                     1001433c     oniguruma:regparse.obj
 0001:00013360       _parse_enclose             10014360 f   oniguruma:regparse.obj
 0001:000138fc       $LN289                     100148fc     oniguruma:regparse.obj
 0001:00013920       $LN281                     10014920     oniguruma:regparse.obj
 0001:00013978       $LN290                     10014978     oniguruma:regparse.obj
 0001:00013994       $LN282                     10014994     oniguruma:regparse.obj
 0001:000139f0       _set_quantifier            100149f0 f   oniguruma:regparse.obj
 0001:00013ac0       _type_cclass_cmp           10014ac0 f   oniguruma:regparse.obj
 0001:00013af0       _type_cclass_hash          10014af0 f   oniguruma:regparse.obj
 0001:00013b60       _i_apply_case_fold         10014b60 f   oniguruma:regparse.obj
 0001:00013d90       _parse_exp                 10014d90 f   oniguruma:regparse.obj
 0001:00014558       $LN150                     10015558     oniguruma:regparse.obj
 0001:000145a4       $LN151                     100155a4     oniguruma:regparse.obj
 0001:000145b0       $LN141                     100155b0     oniguruma:regparse.obj
 0001:000145c0       _parse_branch              100155c0 f   oniguruma:regparse.obj
 0001:000146e0       _parse_subexp              100156e0 f   oniguruma:regparse.obj
 0001:00014800       _parse_regexp              10015800 f   oniguruma:regparse.obj
 0001:00014b34       $LN72                      10015b34     oniguruma:regerror.obj
 0001:00014b98       $LN69                      10015b98     oniguruma:regerror.obj
 0001:00014c64       $LN73                      10015c64     oniguruma:regerror.obj
 0001:00014cec       $LN70                      10015cec     oniguruma:regerror.obj
 0001:00014d70       _to_ascii                  10015d70 f   oniguruma:regerror.obj
 0001:00015370       _init_code_range_array     10016370 f   oniguruma:unicode.obj
 0001:00015890       _init_name_ctype_table     10016890 f   oniguruma:unicode.obj
 0001:00015a00       _code2_cmp                 10016a00 f   oniguruma:unicode.obj
 0001:00015a20       _code2_hash                10016a20 f   oniguruma:unicode.obj
 0001:00015a30       _code3_cmp                 10016a30 f   oniguruma:unicode.obj
 0001:00015a60       _code3_hash                10016a60 f   oniguruma:unicode.obj
 0001:00015ac0       _init_case_fold_table      10016ac0 f   oniguruma:unicode.obj
 0001:00016b90       _rehash                    10017b90 f   oniguruma:st.obj
 0001:00016cec       $LN39                      10017cec     oniguruma:st.obj
 0001:00016d00       _strhash                   10017d00 f   oniguruma:st.obj
 0001:00016d30       _numcmp                    10017d30 f   oniguruma:st.obj
 0001:00016d40       _numhash                   10017d40 f   oniguruma:st.obj
 0001:00016d50       _ascii_is_code_ctype       10017d50 f   oniguruma:ascii.obj
 0001:000171b8       ?dllmain_crt_dispatch@@YGHQAUHINSTANCE__@@KQAX@Z 100181b8 f   LIBCMT:dll_dllmain.obj
 0001:0001720b       ?dllmain_crt_process_attach@@YAHQAUHINSTANCE__@@QAX@Z 1001820b f   LIBCMT:dll_dllmain.obj
 0001:0001731d       ?dllmain_crt_process_detach@@YAH_N@Z 1001831d f   LIBCMT:dll_dllmain.obj
 0001:0001739a       ?dllmain_dispatch@@YAHQAUHINSTANCE__@@KQAX@Z 1001839a f   LIBCMT:dll_dllmain.obj
 0001:00017496       ?dllmain_raw@@YGHQAUHINSTANCE__@@KQAX@Z 10018496 f   LIBCMT:dll_dllmain.obj
 0001:00017772       ?find_pe_section@@YAPAU_IMAGE_SECTION_HEADER@@QAEI@Z 10018772 f   LIBCMT:utility.obj
 0001:00017d10       $$000000                   10018d10     LIBCMT:_sehprolg4_.obj
 0001:00017fed       ?CallCatchBlock@@YAPAXPAUEHExceptionRecord@@PAUEHRegistrationNode@@PAU_CONTEXT@@PBU_s_FuncInfo@@PAXHK@Z 10018fed f   libvcruntime:frame.obj
 0001:000181a9       ?CallUnexpected@@YAXPBU_s_ESTypeList@@@Z 100191a9 f   libvcruntime:frame.obj
 0001:000181c9       __catch$?CallUnexpected@@YAXPBU_s_ESTypeList@@@Z$0 100191c9 f   libvcruntime:frame.obj
 0001:000181e3       ?CatchIt@@YAXPAUEHExceptionRecord@@PAUEHRegistrationNode@@PAU_CONTEXT@@PAXPBU_s_FuncInfo@@PBU_s_HandlerType@@PBU_s_CatchableType@@PBU_s_TryBlockMapEntry@@H1E@Z 100191e3 f   libvcruntime:frame.obj
 0001:0001825e       ?ExFilterRethrow@@YAHPAU_EXCEPTION_POINTERS@@@Z 1001925e f   libvcruntime:frame.obj
 0001:000182a8       ?FindHandler@@YAXPAUEHExceptionRecord@@PAUEHRegistrationNode@@PAU_CONTEXT@@PAXPBU_s_FuncInfo@@EH1@Z 100192a8 f   libvcruntime:frame.obj
 0001:00018610       ?FindHandlerForForeignException@@YAXPAUEHExceptionRecord@@PAUEHRegistrationNode@@PAU_CONTEXT@@PAXPBU_s_FuncInfo@@HH1@Z 10019610 f   libvcruntime:frame.obj
 0001:0001872b       ?IsInExceptionSpec@@YAEPAUEHExceptionRecord@@PBU_s_ESTypeList@@@Z 1001972b f   libvcruntime:frame.obj
 0001:000187c7       ?Is_bad_exception_allowed@@YAEPBU_s_ESTypeList@@@Z 100197c7 f   libvcruntime:frame.obj
 0001:00018c90       $$000000                   10019c90     libvcruntime:memmove.obj
 0001:00018ef4       TrailingUpVec              10019ef4     libvcruntime:memmove.obj
 0001:00018fa0       TrailingDownVec            10019fa0     libvcruntime:memmove.obj
 0001:00019330       _ValidateLocalCookies      1001a330 f   libvcruntime:_chandler4_.obj
 0001:000195a0       $$000000                   1001a5a0     libvcruntime:memset.obj
 0001:00019860       $$000000                   1001a860     libvcruntime:lowhelpr.obj
 0001:00019ca0       $$000000                   1001aca0     libvcruntime:_exsup4_.obj
 0001:00019d30       __unwind_handler4          1001ad30 f   libvcruntime:_exsup4_.obj
 0001:00019e69       ?try_get_function@@YAPAXW4function_id@?A0x89697e75@@QBDQBW4module_id@2@2@Z 1001ae69 f   libvcruntime:winapi_downlevel.obj
 0001:00019f09       ?try_get_module@@YAPAUHINSTANCE__@@W4module_id@?A0x89697e75@@@Z 1001af09 f   libvcruntime:winapi_downlevel.obj
 0001:0001a130       $$000000                   1001b130     libvcruntime:_exsup_.obj
 0001:0001a150       __unwind_handler           1001b150 f   libvcruntime:_exsup_.obj
 0001:0001a491       ??$common_assert_to_message_box@_W@@YAXQB_W0IQAX@Z 1001b491 f   libucrt:assert.obj
 0001:0001a52d       ??$common_assert_to_message_box_build_string@_W@@YAXQA_WIQB_W1IQAX@Z 1001b52d f   libucrt:assert.obj
 0001:0001aa72       ??$common_assert_to_stderr@_W@@YAXQB_W0I@Z 1001ba72 f   libucrt:assert.obj
 0001:0001ab1d       ?common_assert_to_stderr_direct@@YAXQB_W0I@Z 1001bb1d f   libucrt:assert.obj
 0001:0001abce       ?get_assert_format@@YAPB_W_W@Z 1001bbce f   libucrt:assert.obj
 0001:0001ac8b       _memcpy_s                  1001bc8b f   libucrt:assert.obj
 0001:0001ac8b       _memcpy_s                  1001bc8b f   libucrt:cfout.obj
 0001:0001ac8b       _memcpy_s                  1001bc8b f   libucrt:mbctype.obj
 0001:0001af5e       ??$common_vsprintf@Vstandard_base@__crt_stdio_output@@D@@YAH_KQADIQBDQAU__crt_locale_pointers@@1@Z 1001bf5e f   libucrt:output.obj
 0001:0001b0da       ??$common_vsprintf@Vstandard_base@__crt_stdio_output@@_W@@YAH_KQA_WIQB_WQAU__crt_locale_pointers@@QAD@Z 1001c0da f   libucrt:output.obj
 0001:0001b6e8       ??R<lambda_481dd5778c961fbcd3b60b650e9b9dc4>@@QBEHXZ 1001c6e8 f   libucrt:output.obj
 0001:0001ba74       $LN54                      1001ca74     libucrt:output.obj
 0001:0001bb94       $LN54                      1001cb94     libucrt:output.obj
 0001:0001bcb4       $LN54                      1001ccb4     libucrt:output.obj
 0001:0001ca8a       $LN19                      1001da8a     libucrt:output.obj
 0001:0001d7a0       $$000000                   1001e7a0     libucrt:strcmp.obj
 0001:0001db3b       ?atexit_exception_filter@@YAHK@Z 1001eb3b f   libucrt:exit.obj
 0001:0001db4e       ?common_exit@@YAXHW4_crt_exit_cleanup_mode@@W4_crt_exit_return_mode@@@Z 1001eb4e f   libucrt:exit.obj
 0001:0001dc67       ?exit_or_terminate_process@@YAXI@Z 1001ec67 f   libucrt:exit.obj
 0001:0001dca8       ?is_managed_app@@YA_NXZ    1001eca8 f   libucrt:exit.obj
 0001:0001dcec       ?try_cor_exit_process@@YAXI@Z 1001ecec f   libucrt:exit.obj
 0001:0001dd90       ??$common_configure_argv@D@@YAHW4_crt_argv_mode@@@Z 1001ed90 f   libucrt:argv_parsing.obj
 0001:0001deb4       ??$parse_command_line@D@@YAXPADPAPAD0PAI2@Z 1001eeb4 f   libucrt:argv_parsing.obj
 0001:0001e089       ??$common_initialize_environment_nolock@D@@YAHXZ 1001f089 f   libucrt:environment_initialization.obj
 0001:0001e0e2       ??$create_environment@D@@YAQAPADQAD@Z 1001f0e2 f   libucrt:environment_initialization.obj
 0001:0001e1b3       ??$free_environment@D@@YAXQAPAD@Z 1001f1b3 f   libucrt:environment_initialization.obj
 0001:0001e1b3       ??$free_environment@_W@@YAXQAPA_W@Z 1001f1b3 f   libucrt:environment_initialization.obj
 0001:0001e222       ??$uninitialize_environment_internal@D@@YAXAAPAPAD@Z 1001f222 f   libucrt:environment_initialization.obj
 0001:0001e23d       ??$uninitialize_environment_internal@_W@@YAXAAPAPA_W@Z 1001f23d f   libucrt:environment_initialization.obj
 0001:0001e3a5       ??R<lambda_275893d493268fdec8709772e3fcec0e>@@QBEHXZ 1001f3a5 f   libucrt:onexit.obj
 0001:0001e4c5       ??R<lambda_4e60a939b0d047cfe11ddc22648dfba9>@@QBEHXZ 1001f4c5 f   libucrt:onexit.obj
 0001:0001e69a       _initialize_global_variables 1001f69a f   libucrt:initialization.obj
 0001:0001e6ac       _initialize_c              1001f6ac f   libucrt:initialization.obj
 0001:0001e6c6       _uninitialize_environment  1001f6c6 f   libucrt:initialization.obj
 0001:0001e6ce       _initialize_pointers       1001f6ce f   libucrt:initialization.obj
 0001:0001e70b       _uninitialize_vcruntime    1001f70b f   libucrt:initialization.obj
 0001:0001e714       _uninitialize_allocated_memory 1001f714 f   libucrt:initialization.obj
 0001:0001e78b       _initialize_environment    1001f78b f   libucrt:initialization.obj
 0001:0001e78b       _initialize_global_state_isolation 1001f78b f   libucrt:initialization.obj
 0001:0001e78b       _uninitialize_global_state_isolation 1001f78b f   libucrt:initialization.obj
 0001:0001e78b       _report_memory_leaks       1001f78b f   libucrt:initialization.obj
 0001:0001e78b       _uninitialize_c            1001f78b f   libucrt:initialization.obj
 0001:0001f585       ?construct_ptd@@YAXQAU__acrt_ptd@@QAPAU__crt_locale_data@@@Z 10020585 f   libucrt:per_thread_data.obj
 0001:0001f5fe       ?destroy_fls@@YGXPAX@Z     100205fe f   libucrt:per_thread_data.obj
 0001:0001f61f       ?destroy_ptd@@YAXQAU__acrt_ptd@@@Z 1002061f f   libucrt:per_thread_data.obj
 0001:0001f6c8       ?replace_current_thread_locale_nolock@@YAXQAU__acrt_ptd@@QAU__crt_locale_data@@@Z 100206c8 f   libucrt:per_thread_data.obj
 0001:0001f920       ??$common_xtox@K_W@@YAHKQA_WII_N@Z 10020920 f   libucrt:xtoa.obj
 0001:0001f9ae       ??$common_xtox_s@K_W@@YAHKQA_WII_N@Z 100209ae f   libucrt:xtoa.obj
 0001:0001fb5a       ??$common_tcsncat_s@_W@@YAHQA_WIQB_WI@Z 10020b5a f   libucrt:wcsncat_s.obj
 0001:0001fc4e       ??$common_show_message_box@_W@@YAHQB_W0I@Z 10020c4e f   libucrt:crtmbox.obj
 0001:0001fd27       ??$message_box_wait_thread@_W@@YGKQAX@Z 10020d27 f   libucrt:crtmbox.obj
 0001:0001ff56       _common_flush_all          10020f56 f   libucrt:fflush.obj
 0001:00020100       ??R<lambda_b721fa326cdb32351d23dfa67958c160>@@QBEHXZ 10021100 f   libucrt:setvbuf.obj
 0001:0002019a       ?set_buffer@@YAHV__crt_stdio_stream@@QADIH@Z 1002119a f   libucrt:setvbuf.obj
 0001:000202c5       ?get_global_action_nolock@@YAPAP6AXH@ZH@Z 100212c5 f   libucrt:signal.obj
 0001:00020307       ?siglookup@@YAPAU__crt_signal_action_t@@HQAU1@@Z 10021307 f   libucrt:signal.obj
 0001:00020592       ??$common_tox_l@$1?internal_isupper_l@@YA_NHQAU__crt_locale_pointers@@@Z$1?internal_map_lower@@YAHH0@Z@@YAHHKQAU__crt_locale_pointers@@@Z 10021592 f   libucrt:tolower_toupper.obj
 0001:000206dc       ?internal_isupper_l@@YA_NHQAU__crt_locale_pointers@@@Z 100216dc f   libucrt:tolower_toupper.obj
 0001:00020ef5       ?fp_format_a@@YAHQBNPADIQADIH_NIQAU__crt_locale_pointers@@@Z 10021ef5 f   libucrt:cvt.obj
 0001:000211f8       ?fp_format_e@@YAHQBNQADI1IH_NIQAU__crt_locale_pointers@@@Z 100221f8 f   libucrt:cvt.obj
 0001:00021293       ?fp_format_e_internal@@YAHQADIH_NIQAU_strflt@@1QAU__crt_locale_pointers@@@Z 10022293 f   libucrt:cvt.obj
 0001:000213de       ?fp_format_f@@YAHQBNQADI1IHQAU__crt_locale_pointers@@@Z 100223de f   libucrt:cvt.obj
 0001:0002146b       ?fp_format_f_internal@@YAHQADIHQAU_strflt@@_NQAU__crt_locale_pointers@@@Z 1002246b f   libucrt:cvt.obj
 0001:00021542       ?fp_format_g@@YAHQBNQADI1IH_NIQAU__crt_locale_pointers@@@Z 10022542 f   libucrt:cvt.obj
 0001:0002160a       ?fp_format_nan_or_infinity@@YAHW4__acrt_fp_class@@_NPADI1@Z 1002260a f   libucrt:cvt.obj
 0001:00021702       ?shift_bytes@@YAXQADI0H@Z  10022702 f   libucrt:cvt.obj
 0001:00021880       ?fputwc_binary_nolock@@YAG_WV__crt_stdio_stream@@@Z 10022880 f   libucrt:fputwc.obj
 0001:00021b2a       ?initialize_inherited_file_handles_nolock@@YAXXZ 10022b2a f   libucrt:ioinit.obj
 0001:00021be0       ?initialize_stdio_handles_nolock@@YAXXZ 10022be0 f   libucrt:ioinit.obj
 0001:00021db8       ?try_get_MessageBoxA@@YAP6GHPAUHWND__@@PBD1I@ZXZ 10022db8 f   libucrt:winapi_thunks.obj
 0001:00021dd2       ?try_get_MessageBoxW@@YAP6GHPAUHWND__@@PB_W1I@ZXZ 10022dd2 f   libucrt:winapi_thunks.obj
 0001:00021dec       ?try_get_function@@YAPAXW4function_id@?A0x352e5c4b@@QBDQBW4module_id@2@2@Z 10022dec f   libucrt:winapi_thunks.obj
 0001:00021e88       ?try_get_module@@YAPAUHINSTANCE__@@W4module_id@?A0x352e5c4b@@@Z 10022e88 f   libucrt:winapi_thunks.obj
 0001:0002240e       ?<helper_func_cdecl>@<lambda_62bb7ecb46d0a77b591a051c43eb5ad1>@@CAHPBX0@Z 1002340e f   libucrt:argv_wildcards.obj
 0001:00022426       ??$common_expand_argv_wildcards@D@@YAHQAPADQAPAPAD@Z 10023426 f   libucrt:argv_wildcards.obj
 0001:000225b6       ??$copy_and_add_argument_to_buffer@D@@YAHQBD0IAAV?$argument_list@D@?A0xb0e4b824@@@Z 100235b6 f   libucrt:argv_wildcards.obj
 0001:0002264c       ??$expand_argument_wildcards@D@@YAHQAD0AAV?$argument_list@D@?A0xb0e4b824@@@Z 1002364c f   libucrt:argv_wildcards.obj
 0001:00022927       ??R<lambda_ad1ced32f4ac17aa236e5ef05d6b3b7c>@@QBEXXZ 10023927 f   libucrt:mbctype.obj
 0001:000229eb       ?CPtoLocaleName@@YAPB_WH@Z 100239eb f   libucrt:mbctype.obj
 0001:00022a29       ?getSystemCP@@YAHH@Z       10023a29 f   libucrt:mbctype.obj
 0001:00022a9c       ?setSBCS@@YAXPAU__crt_multibyte_data@@@Z 10023a9c f   libucrt:mbctype.obj
 0001:00022b01       ?setSBUpLow@@YAXPAU__crt_multibyte_data@@@Z 10023b01 f   libucrt:mbctype.obj
 0001:00022c95       ?setmbcp_internal@@YAHH_N@Z 10023c95 f   libucrt:mbctype.obj
 0001:00023047       ?x_ismbbtype_l@@YAHPAU__crt_locale_pointers@@IHH@Z 10024047 f   libucrt:ismbbyte.obj
 0001:000230d1       ?find_end_of_double_null_terminated_sequence@@YAPB_WQB_W@Z 100240d1 f   libucrt:get_environment_from_os.obj
 0001:00023a5f       ?write_double_translated_ansi_nolock@@YA?AUwrite_result@?A0x47fa6670@@HQBDI@Z 10024a5f f   libucrt:write.obj
 0001:00023c12       ?write_double_translated_unicode_nolock@@YA?AUwrite_result@?A0x47fa6670@@QBDI@Z 10024c12 f   libucrt:write.obj
 0001:00023c7f       ?write_requires_double_translation_nolock@@YA_NH@Z 10024c7f f   libucrt:write.obj
 0001:00023cf5       ?write_text_ansi_nolock@@YA?AUwrite_result@?A0x47fa6670@@HQBDI@Z 10024cf5 f   libucrt:write.obj
 0001:00023dd4       ?write_text_utf16le_nolock@@YA?AUwrite_result@?A0x47fa6670@@HQBDI@Z 10024dd4 f   libucrt:write.obj
 0001:00023ec2       ?write_text_utf8_nolock@@YA?AUwrite_result@?A0x47fa6670@@HQBDI@Z 10024ec2 f   libucrt:write.obj
 0001:0002431f       ?__acrt_LCMapStringA_stat@@YAHPAU__crt_locale_pointers@@PB_WKPBDHPADHHH@Z 1002531f f   libucrt:lcmapstringa.obj
 0001:0002470e       ?free_crt_array_internal@@YAXQAPBXI@Z 1002570e f   libucrt:inittime.obj
 0001:0002628a       ??$common_flush_and_write_nolock@D@@YAHHV__crt_stdio_stream@@@Z 1002728a f   libucrt:_flsbuf.obj
 0001:0002639b       ??$common_flush_and_write_nolock@_W@@YAHHV__crt_stdio_stream@@@Z 1002739b f   libucrt:_flsbuf.obj
 0001:000264b0       ??$write_buffer_nolock@D@@YA_NDV__crt_stdio_stream@@@Z 100274b0 f   libucrt:_flsbuf.obj
 0001:0002657c       ??$write_buffer_nolock@_W@@YA_N_WV__crt_stdio_stream@@@Z 1002757c f   libucrt:_flsbuf.obj
 0001:00026944       ?GetTableIndexFromLocaleName@@YAHPB_W@Z 10027944 f   libucrt:lcidtoname_downlevel.obj
 0001:00026a30       ?shortsort@@YAXPAD0IP6AHPBX1@Z@Z 10027a30 f   libucrt:qsort.obj
 0001:00026ad0       ?swap@@YAXPAD0I@Z          10027ad0 f   libucrt:qsort.obj
 0001:00026eaa       ??$common_tcsncpy_s@D@@YAHQADIQBDI@Z 10027eaa f   libucrt:strncpy_s.obj
 0001:00026f70       $$000000                   10027f70     libucrt:strpbrk.obj
 0001:00027054       ?initialize_multibyte@@YAHXZ 10028054 f   libucrt:multibyte_initializer.obj
 0001:0002718c       ??$common_lseek@_J@@YA_JH_JH@Z 1002818c f   libucrt:lseek.obj
 0001:00027291       ??$common_lseek_nolock@_J@@YA_JH_JH@Z 10028291 f   libucrt:lseek.obj
 0001:00027460       $$000000                   10028460     libucrt:log10.obj
 0001:000275b0       $$000000                   100285b0     libucrt:ceil_pentium4.obj
 0001:00027960       ___get_abstract_control_sse2 10028960 f   libucrt:_fenvutils.obj
 0001:000279dd       ___get_abstract_control_x87 100289dd f   libucrt:_fenvutils.obj
 0001:00027a50       ___get_machine_control     10028a50 f   libucrt:_fenvutils.obj
 0001:00027ac1       ___get_machine_control_sse2 10028ac1 f   libucrt:_fenvutils.obj
 0001:00027b41       ___get_machine_status_sse2 10028b41 f   libucrt:_fenvutils.obj
 0001:00027ba2       ___get_machine_status_x87  10028ba2 f   libucrt:_fenvutils.obj
 0001:00027ee0       $$000000                   10028ee0     libucrt:log10_pentium4.obj
 0001:00028170       $$000000                   10029170     libucrt:87tran.obj
 0001:00028370       $$000000                   10029370     libucrt:87disp.obj
 0001:00028570       $$000000                   10029570     libucrt:common.obj
 0001:00028700       $$000000                   10029700     libucrt:genexcep.obj
 0001:00028a30       $$000000                   10029a30     libucrt:_strnicm.obj
 0001:00029dd0       $$000000                   1002add0     LIBCMT:ulldvrm.obj
 0001:00029e70       $$000000                   1002ae70     LIBCMT:_sehprolg4gs_.obj
 0001:00029ed0       $$000000                   1002aed0     LIBCMT:llmul.obj
 0001:00029f10       $$000000                   1002af10     LIBCMT:lldvrm.obj
 0001:00029ff0       $$000000                   1002aff0     LIBCMT:ullshr.obj
 0001:0002a010       $$000000                   1002b010     LIBCMT:chkstk.obj
 0001:0002a040       $$000000                   1002b040     LIBCMT:alloca16.obj
 0001:0002a070       $$000000                   1002b070     LIBCMT:llshl.obj
 0001:0002a090       $$000000                   1002b090     LIBCMT:_ftol2_.obj
 0001:0002a150       $$000000                   1002b150     libvcruntime:memcpy.obj
 0001:0002a3b4       TrailingUpVec              1002b3b4     libvcruntime:memcpy.obj
 0001:0002a460       TrailingDownVec            1002b460     libvcruntime:memcpy.obj
 0001:0002a6d0       $$000000                   1002b6d0     libvcruntime:strrchr.obj
 0001:0002a810       $$000000                   1002b810     libvcruntime:strchr.obj
 0001:0002a940       __unwindfunclet$??0OnigRegExp@@QAE@ABV?$basic_string@DU?$char_traits@D@std@@V?$allocator@D@2@@std@@@Z$0 1002b940 f   onig-reg-exp.obj
 0001:0002a948       __unwindfunclet$??0OnigRegExp@@QAE@ABV?$basic_string@DU?$char_traits@D@std@@V?$allocator@D@2@@std@@@Z$1 1002b948 f   onig-reg-exp.obj
 0001:0002a953       __unwindfunclet$??0OnigRegExp@@QAE@ABV?$basic_string@DU?$char_traits@D@std@@V?$allocator@D@2@@std@@@Z$2 1002b953 f   onig-reg-exp.obj
 0001:0002a95b       __ehhandler$??0OnigRegExp@@QAE@ABV?$basic_string@DU?$char_traits@D@std@@V?$allocator@D@2@@std@@@Z 1002b95b f   onig-reg-exp.obj
 0001:0002a990       __unwindfunclet$?Search@OnigRegExp@@AAE?AV?$shared_ptr@VOnigResult@@@std@@PBDII@Z$0 1002b990 f   onig-reg-exp.obj
 0001:0002a9a9       __unwindfunclet$?Search@OnigRegExp@@AAE?AV?$shared_ptr@VOnigResult@@@std@@PBDII@Z$1 1002b9a9 f   onig-reg-exp.obj
 0001:0002a9b8       __ehhandler$?Search@OnigRegExp@@AAE?AV?$shared_ptr@VOnigResult@@@std@@PBDII@Z 1002b9b8 f   onig-reg-exp.obj
 0001:0002a9e0       __unwindfunclet$??_GOnigResult@@QAEPAXI@Z$0 1002b9e0 f   onig-reg-exp.obj
 0001:0002a9e0       __unwindfunclet$??_GOnigRegExp@@QAEPAXI@Z$0 1002b9e0 f   onig-scanner.obj
 0001:0002a9e6       __ehhandler$??_GOnigResult@@QAEPAXI@Z 1002b9e6 f   onig-reg-exp.obj
 0001:0002a9e6       __ehhandler$??_GOnigRegExp@@QAEPAXI@Z 1002b9e6 f   onig-scanner.obj
 0001:0002aa10       __unwindfunclet$??1ObjectWrap@node@@UAE@XZ$0 1002ba10 f   onig-scanner.obj
 0001:0002aa16       __ehhandler$??1ObjectWrap@node@@UAE@XZ 1002ba16 f   onig-scanner.obj
 0001:0002aa40       __unwindfunclet$?WeakCallback@ObjectWrap@node@@CAXABV?$WeakCallbackData@VObject@v8@@VObjectWrap@node@@@v8@@@Z$0 1002ba40 f   onig-scanner.obj
 0001:0002aa49       __ehhandler$?WeakCallback@ObjectWrap@node@@CAXABV?$WeakCallbackData@VObject@v8@@VObjectWrap@node@@@v8@@@Z 1002ba49 f   onig-scanner.obj
 0001:0002aa70       __unwindfunclet$?NewInstance@Nan@@YA?AV?$MaybeLocal@VObject@v8@@@v8@@V?$Local@VObjectTemplate@v8@@@3@@Z$0 1002ba70 f   onig-scanner.obj
 0001:0002aa79       __ehhandler$?NewInstance@Nan@@YA?AV?$MaybeLocal@VObject@v8@@@v8@@V?$Local@VObjectTemplate@v8@@@3@@Z 1002ba79 f   onig-scanner.obj
 0001:0002aaa0       __unwindfunclet$?New@?$Factory@VFunctionTemplate@v8@@@imp@Nan@@SA?AV?$Local@VFunctionTemplate@v8@@@v8@@P6AXABV?$FunctionCallbackInfo@VValue@v8@@@3@@ZV?$Local@VValue@v8@@@5@V?$Local@VSignature@v8@@@5@@Z$0 1002baa0 f   onig-scanner.obj
 0001:0002aaa9       __ehhandler$?New@?$Factory@VFunctionTemplate@v8@@@imp@Nan@@SA?AV?$Local@VFunctionTemplate@v8@@@v8@@P6AXABV?$FunctionCallbackInfo@VValue@v8@@@3@@ZV?$Local@VValue@v8@@@5@V?$Local@VSignature@v8@@@5@@Z 1002baa9 f   onig-scanner.obj
 0001:0002aad0       __unwindfunclet$?Call@Callback@Nan@@QBE?AV?$Local@VValue@v8@@@v8@@HQAV34@@Z$0 1002bad0 f   onig-scanner.obj
 0001:0002aad9       __ehhandler$?Call@Callback@Nan@@QBE?AV?$Local@VValue@v8@@@v8@@HQAV34@@Z 1002bad9 f   onig-scanner.obj
 0001:0002ab00       __unwindfunclet$?Call_@Callback@Nan@@ABE?AV?$Local@VValue@v8@@@v8@@PAVIsolate@4@V?$Local@VObject@v8@@@4@HQAV34@@Z$0 1002bb00 f   onig-scanner.obj
 0001:0002ab08       __ehhandler$?Call_@Callback@Nan@@ABE?AV?$Local@VValue@v8@@@v8@@PAVIsolate@4@V?$Local@VObject@v8@@@4@HQAV34@@Z 1002bb08 f   onig-scanner.obj
 0001:0002ab30       __unwindfunclet$??0AsyncWorker@Nan@@QAE@PAVCallback@1@@Z$0 1002bb30 f   onig-scanner.obj
 0001:0002ab35       __unwindfunclet$??0AsyncWorker@Nan@@QAE@PAVCallback@1@@Z$1 1002bb35 f   onig-scanner.obj
 0001:0002ab3d       __ehhandler$??0AsyncWorker@Nan@@QAE@PAVCallback@1@@Z 1002bb3d f   onig-scanner.obj
 0001:0002ab60       __unwindfunclet$??1AsyncWorker@Nan@@UAE@XZ$1 1002bb60 f   onig-scanner.obj
 0001:0002ab66       __unwindfunclet$??1AsyncWorker@Nan@@UAE@XZ$3 1002bb66 f   onig-scanner.obj
 0001:0002ab6c       __unwindfunclet$??1AsyncWorker@Nan@@UAE@XZ$6 1002bb6c f   onig-scanner.obj
 0001:0002ab72       __ehhandler$??1AsyncWorker@Nan@@UAE@XZ 1002bb72 f   onig-scanner.obj
 0001:0002ab90       __unwindfunclet$?WorkComplete@AsyncWorker@Nan@@UAEXXZ$0 1002bb90 f   onig-scanner.obj
 0001:0002ab98       __unwindfunclet$?WorkComplete@AsyncWorker@Nan@@UAEXXZ$3 1002bb98 f   onig-scanner.obj
 0001:0002ab9e       __unwindfunclet$?WorkComplete@AsyncWorker@Nan@@UAEXXZ$5 1002bb9e f   onig-scanner.obj
 0001:0002aba4       __ehhandler$?WorkComplete@AsyncWorker@Nan@@UAEXXZ 1002bba4 f   onig-scanner.obj
 0001:0002abc0       __unwindfunclet$?HandleOKCallback@AsyncWorker@Nan@@MAEXXZ$0 1002bbc0 f   onig-scanner.obj
 0001:0002abc8       __ehhandler$?HandleOKCallback@AsyncWorker@Nan@@MAEXXZ 1002bbc8 f   onig-scanner.obj
 0001:0002abf0       __unwindfunclet$?HandleErrorCallback@AsyncWorker@Nan@@MAEXXZ$0 1002bbf0 f   onig-scanner.obj
 0001:0002abf8       __ehhandler$?HandleErrorCallback@AsyncWorker@Nan@@MAEXXZ 1002bbf8 f   onig-scanner.obj
 0001:0002ac20       __unwindfunclet$??1?$Persistent@VObject@v8@@V?$NonCopyablePersistentTraits@VObject@v8@@@2@@Nan@@QAE@XZ$0 1002bc20 f   onig-scanner.obj
 0001:0002ac26       __ehhandler$??1?$Persistent@VObject@v8@@V?$NonCopyablePersistentTraits@VObject@v8@@@2@@Nan@@QAE@XZ 1002bc26 f   onig-scanner.obj
 0001:0002ac50       __unwindfunclet$??0OnigScannerWorker@@QAE@PAVCallback@Nan@@V?$vector@V?$shared_ptr@VOnigRegExp@@@std@@V?$allocator@V?$shared_ptr@VOnigRegExp@@@std@@@2@@std@@V?$Local@VString@v8@@@v8@@H@Z$0 1002bc50 f   onig-scanner.obj
 0001:0002ac58       __unwindfunclet$??0OnigScannerWorker@@QAE@PAVCallback@Nan@@V?$vector@V?$shared_ptr@VOnigRegExp@@@std@@V?$allocator@V?$shared_ptr@VOnigRegExp@@@std@@@2@@std@@V?$Local@VString@v8@@@v8@@H@Z$1 1002bc58 f   onig-scanner.obj
 0001:0002ac60       __unwindfunclet$??0OnigScannerWorker@@QAE@PAVCallback@Nan@@V?$vector@V?$shared_ptr@VOnigRegExp@@@std@@V?$allocator@V?$shared_ptr@VOnigRegExp@@@std@@@2@@std@@V?$Local@VString@v8@@@v8@@H@Z$2 1002bc60 f   onig-scanner.obj
 0001:0002ac6b       __unwindfunclet$??0OnigScannerWorker@@QAE@PAVCallback@Nan@@V?$vector@V?$shared_ptr@VOnigRegExp@@@std@@V?$allocator@V?$shared_ptr@VOnigRegExp@@@std@@@2@@std@@V?$Local@VString@v8@@@v8@@H@Z$3 1002bc6b f   onig-scanner.obj
 0001:0002ac76       __unwindfunclet$??0OnigScannerWorker@@QAE@PAVCallback@Nan@@V?$vector@V?$shared_ptr@VOnigRegExp@@@std@@V?$allocator@V?$shared_ptr@VOnigRegExp@@@std@@@2@@std@@V?$Local@VString@v8@@@v8@@H@Z$4 1002bc76 f   onig-scanner.obj
 0001:0002ac85       __unwindfunclet$??0OnigScannerWorker@@QAE@PAVCallback@Nan@@V?$vector@V?$shared_ptr@VOnigRegExp@@@std@@V?$allocator@V?$shared_ptr@VOnigRegExp@@@std@@@2@@std@@V?$Local@VString@v8@@@v8@@H@Z$5 1002bc85 f   onig-scanner.obj
 0001:0002ac94       __unwindfunclet$??0OnigScannerWorker@@QAE@PAVCallback@Nan@@V?$vector@V?$shared_ptr@VOnigRegExp@@@std@@V?$allocator@V?$shared_ptr@VOnigRegExp@@@std@@@2@@std@@V?$Local@VString@v8@@@v8@@H@Z$8 1002bc94 f   onig-scanner.obj
 0001:0002ac9c       __ehhandler$??0OnigScannerWorker@@QAE@PAVCallback@Nan@@V?$vector@V?$shared_ptr@VOnigRegExp@@@std@@V?$allocator@V?$shared_ptr@VOnigRegExp@@@std@@@2@@std@@V?$Local@VString@v8@@@v8@@H@Z 1002bc9c f   onig-scanner.obj
 0001:0002acc0       __ehhandler$??1OnigScannerWorker@@UAE@XZ 1002bcc0 f   onig-scanner.obj
 0001:0002acc0       __ehhandler$??_GOnigScanner@@EAEPAXI@Z 1002bcc0 f   onig-scanner.obj
 0001:0002ace0       __unwindfunclet$?New@OnigScanner@@CAXABV?$FunctionCallbackInfo@VValue@v8@@@Nan@@@Z$0 1002bce0 f   onig-scanner.obj
 0001:0002ace8       __unwindfunclet$?New@OnigScanner@@CAXABV?$FunctionCallbackInfo@VValue@v8@@@Nan@@@Z$1 1002bce8 f   onig-scanner.obj
 0001:0002acf7       __ehhandler$?New@OnigScanner@@CAXABV?$FunctionCallbackInfo@VValue@v8@@@Nan@@@Z 1002bcf7 f   onig-scanner.obj
 0001:0002ad20       __unwindfunclet$?FindNextMatchSync@OnigScanner@@CAXABV?$FunctionCallbackInfo@VValue@v8@@@Nan@@@Z$0 1002bd20 f   onig-scanner.obj
 0001:0002ad28       __ehhandler$?FindNextMatchSync@OnigScanner@@CAXABV?$FunctionCallbackInfo@VValue@v8@@@Nan@@@Z 1002bd28 f   onig-scanner.obj
 0001:0002ad50       __unwindfunclet$?FindNextMatch@OnigScanner@@CAXABV?$FunctionCallbackInfo@VValue@v8@@@Nan@@@Z$0 1002bd50 f   onig-scanner.obj
 0001:0002ad58       __ehhandler$?FindNextMatch@OnigScanner@@CAXABV?$FunctionCallbackInfo@VValue@v8@@@Nan@@@Z 1002bd58 f   onig-scanner.obj
 0001:0002ad80       __unwindfunclet$??0OnigScanner@@AAE@V?$Local@VArray@v8@@@v8@@@Z$0 1002bd80 f   onig-scanner.obj
 0001:0002ad88       __unwindfunclet$??0OnigScanner@@AAE@V?$Local@VArray@v8@@@v8@@@Z$1 1002bd88 f   onig-scanner.obj
 0001:0002ad93       __unwindfunclet$??0OnigScanner@@AAE@V?$Local@VArray@v8@@@v8@@@Z$2 1002bd93 f   onig-scanner.obj
 0001:0002ad9e       __unwindfunclet$??0OnigScanner@@AAE@V?$Local@VArray@v8@@@v8@@@Z$3 1002bd9e f   onig-scanner.obj
 0001:0002ada7       __unwindfunclet$??0OnigScanner@@AAE@V?$Local@VArray@v8@@@v8@@@Z$4 1002bda7 f   onig-scanner.obj
 0001:0002adb6       __unwindfunclet$??0OnigScanner@@AAE@V?$Local@VArray@v8@@@v8@@@Z$5 1002bdb6 f   onig-scanner.obj
 0001:0002adcf       __unwindfunclet$??0OnigScanner@@AAE@V?$Local@VArray@v8@@@v8@@@Z$7 1002bdcf f   onig-scanner.obj
 0001:0002adde       __unwindfunclet$??0OnigScanner@@AAE@V?$Local@VArray@v8@@@v8@@@Z$11 1002bdde f   onig-scanner.obj
 0001:0002ade6       __ehhandler$??0OnigScanner@@AAE@V?$Local@VArray@v8@@@v8@@@Z 1002bde6 f   onig-scanner.obj
 0001:0002ae10       __unwindfunclet$?FindNextMatch@OnigScanner@@AAEXV?$Local@VString@v8@@@v8@@V?$Local@VNumber@v8@@@3@V?$Local@VFunction@v8@@@3@@Z$0 1002be10 f   onig-scanner.obj
 0001:0002ae1f       __unwindfunclet$?FindNextMatch@OnigScanner@@AAEXV?$Local@VString@v8@@@v8@@V?$Local@VNumber@v8@@@3@V?$Local@VFunction@v8@@@3@@Z$1 1002be1f f   onig-scanner.obj
 0001:0002ae31       __ehhandler$?FindNextMatch@OnigScanner@@AAEXV?$Local@VString@v8@@@v8@@V?$Local@VNumber@v8@@@3@V?$Local@VFunction@v8@@@3@@Z 1002be31 f   onig-scanner.obj
 0001:0002ae50       __unwindfunclet$?FindNextMatchSync@OnigScanner@@AAE?AV?$Local@VValue@v8@@@v8@@V?$Local@VString@v8@@@3@V?$Local@VNumber@v8@@@3@@Z$0 1002be50 f   onig-scanner.obj
 0001:0002ae5f       __ehhandler$?FindNextMatchSync@OnigScanner@@AAE?AV?$Local@VValue@v8@@@v8@@V?$Local@VString@v8@@@3@V?$Local@VNumber@v8@@@3@@Z 1002be5f f   onig-scanner.obj
 0001:0002ae80       __unwindfunclet$?FindNextMatchSync@OnigScanner@@AAE?AV?$Local@VValue@v8@@@v8@@PAVOnigString@@V?$Local@VNumber@v8@@@3@@Z$0 1002be80 f   onig-scanner.obj
 0001:0002ae88       __ehhandler$?FindNextMatchSync@OnigScanner@@AAE?AV?$Local@VValue@v8@@@v8@@PAVOnigString@@V?$Local@VNumber@v8@@@3@@Z 1002be88 f   onig-scanner.obj
 0001:0002aeb0       __unwindfunclet$?HandleOKCallback@OnigScannerWorker@@UAEXXZ$0 1002beb0 f   onig-scanner-worker.obj
 0001:0002aeb8       __ehhandler$?HandleOKCallback@OnigScannerWorker@@UAEXXZ 1002beb8 f   onig-scanner-worker.obj
 0001:0002aee0       __unwindfunclet$?Search@OnigSearcher@@QAE?AV?$shared_ptr@VOnigResult@@@std@@PAVOnigString@@H@Z$0 1002bee0 f   onig-searcher.obj
 0001:0002aef9       __ehhandler$?Search@OnigSearcher@@QAE?AV?$shared_ptr@VOnigResult@@@std@@PAVOnigString@@H@Z 1002bef9 f   onig-searcher.obj
 0001:0002af20       __unwindfunclet$?New@OnigString@@CAXABV?$FunctionCallbackInfo@VValue@v8@@@Nan@@@Z$0 1002bf20 f   onig-string.obj
 0001:0002af28       __unwindfunclet$?New@OnigString@@CAXABV?$FunctionCallbackInfo@VValue@v8@@@Nan@@@Z$1 1002bf28 f   onig-string.obj
 0001:0002af37       __ehhandler$?New@OnigString@@CAXABV?$FunctionCallbackInfo@VValue@v8@@@Nan@@@Z 1002bf37 f   onig-string.obj
 0001:0002af60       __unwindfunclet$??0OnigString@@QAE@V?$Local@VString@v8@@@v8@@@Z$0 1002bf60 f   onig-string.obj
 0001:0002af68       __unwindfunclet$??0OnigString@@QAE@V?$Local@VString@v8@@@v8@@@Z$1 1002bf68 f   onig-string.obj
 0001:0002af74       __unwindfunclet$??0OnigString@@QAE@V?$Local@VString@v8@@@v8@@@Z$2 1002bf74 f   onig-string.obj
 0001:0002af7d       __ehhandler$??0OnigString@@QAE@V?$Local@VString@v8@@@v8@@@Z 1002bf7d f   onig-string.obj
 0001:0002af98       __ehhandler$?CallUnexpected@@YAXPBU_s_ESTypeList@@@Z 1002bf98 f   libvcruntime:frame.obj
 0002:000001e0       _GS_ExceptionPointers      1002c1e0     LIBCMT:gs_report.obj
 0002:00000234       ?ExceptionTemplate@?1??_CxxThrowException@@9@8@4UEHExceptionRecord@@B 1002c234     libvcruntime:throw.obj
 0002:00000254       ?module_names@?A0x89697e75@@3QBQB_WB 1002c254     libvcruntime:winapi_downlevel.obj
 0002:00000304       ?candidate_modules@?1??try_get_FlsAlloc@@YAP6GKP6GXPAX@Z@ZXZ@4QBW4module_id@?A0x89697e75@@B 1002c304     libvcruntime:winapi_downlevel.obj
 0002:00000318       ?candidate_modules@?1??try_get_FlsFree@@YAP6GHK@ZXZ@4QBW4module_id@?A0x89697e75@@B 1002c318     libvcruntime:winapi_downlevel.obj
 0002:00000328       ?candidate_modules@?1??try_get_FlsGetValue@@YAP6GPAXK@ZXZ@4QBW4module_id@?A0x89697e75@@B 1002c328     libvcruntime:winapi_downlevel.obj
 0002:0000033c       ?candidate_modules@?1??try_get_FlsSetValue@@YAP6GHKPAX@ZXZ@4QBW4module_id@?A0x89697e75@@B 1002c33c     libvcruntime:winapi_downlevel.obj
 0002:00000350       ?candidate_modules@?1??try_get_InitializeCriticalSectionEx@@YAP6GHPAU_RTL_CRITICAL_SECTION@@KK@ZXZ@4QBW4module_id@?A0x89697e75@@B 1002c350     libvcruntime:winapi_downlevel.obj
 0002:00000378       ?tokenTable@@3QBQBDB       1002c378     libvcruntime:undname.obj
 0002:000003b0       ?nameTable@@3QBQBDB        1002c3b0     libvcruntime:undname.obj
 0002:000004f4       ?rttiTable@@3QBQBDB        1002c4f4     libvcruntime:undname.obj
 0002:00000ec8       ___acrt_initializers       1002cec8     libucrt:initialization.obj
 0002:00000f40       _errtable                  1002cf40     libucrt:errno.obj
 0002:000015b8       _module_names              1002d5b8     libucrt:winapi_thunks.obj
 0002:00001a58       ?candidate_modules@?1??try_get_FlsAlloc@@YAP6GKP6GXPAX@Z@ZXZ@4QBW4module_id@?A0x352e5c4b@@B 1002da58     libucrt:winapi_thunks.obj
 0002:00001a60       ?candidate_modules@?1??try_get_FlsFree@@YAP6GHK@ZXZ@4QBW4module_id@?A0x352e5c4b@@B 1002da60     libucrt:winapi_thunks.obj
 0002:00001a68       ?candidate_modules@?1??try_get_FlsGetValue@@YAP6GPAXK@ZXZ@4QBW4module_id@?A0x352e5c4b@@B 1002da68     libucrt:winapi_thunks.obj
 0002:00001a70       ?candidate_modules@?1??try_get_FlsSetValue@@YAP6GHKPAX@ZXZ@4QBW4module_id@?A0x352e5c4b@@B 1002da70     libucrt:winapi_thunks.obj
 0002:00001a78       ?candidate_modules@?1??try_get_GetActiveWindow@@YAP6GPAUHWND__@@XZXZ@4QBW4module_id@?A0x352e5c4b@@B 1002da78     libucrt:winapi_thunks.obj
 0002:00001a90       ?candidate_modules@?1??try_get_GetCurrentPackageId@@YAP6GJPAIPAE@ZXZ@4QBW4module_id@?A0x352e5c4b@@B 1002da90     libucrt:winapi_thunks.obj
 0002:00001aac       ?candidate_modules@?1??try_get_GetLastActivePopup@@YAP6GPAUHWND__@@PAU2@@ZXZ@4QBW4module_id@?A0x352e5c4b@@B 1002daac     libucrt:winapi_thunks.obj
 0002:00001ac8       ?candidate_modules@?1??try_get_GetProcessWindowStation@@YAP6GPAUHWINSTA__@@XZXZ@4QBW4module_id@?A0x352e5c4b@@B 1002dac8     libucrt:winapi_thunks.obj
 0002:00001ae8       ?candidate_modules@?1??try_get_GetUserObjectInformationW@@YAP6GHPAXH0KPAK@ZXZ@4QBW4module_id@?A0x352e5c4b@@B 1002dae8     libucrt:winapi_thunks.obj
 0002:00001b0c       ?candidate_modules@?1??try_get_InitializeCriticalSectionEx@@YAP6GHPAU_RTL_CRITICAL_SECTION@@KK@ZXZ@4QBW4module_id@?A0x352e5c4b@@B 1002db0c     libucrt:winapi_thunks.obj
 0002:00001b14       ?candidate_modules@?1??try_get_LCMapStringEx@@YAP6GHPB_WK0HPA_WHPAU_nlsversioninfo@@PAXJ@ZXZ@4QBW4module_id@?A0x352e5c4b@@B 1002db14     libucrt:winapi_thunks.obj
 0002:00001b2c       ?candidate_modules@?1??try_get_LocaleNameToLCID@@YAP6GKPB_WK@ZXZ@4QBW4module_id@?A0x352e5c4b@@B 1002db2c     libucrt:winapi_thunks.obj
 0002:00001b48       ?candidate_modules@?1??try_get_MessageBoxA@@YAP6GHPAUHWND__@@PBD1I@ZXZ@4QBW4module_id@?A0x352e5c4b@@B 1002db48     libucrt:winapi_thunks.obj
 0002:00001b5c       ?candidate_modules@?1??try_get_MessageBoxW@@YAP6GHPAUHWND__@@PB_W1I@ZXZ@4QBW4module_id@?A0x352e5c4b@@B 1002db5c     libucrt:winapi_thunks.obj
 0002:00001b70       __mb_locale_names          1002db70     libucrt:mbctype.obj
 0002:00002da8       _LcidToLocaleNameTable     1002eda8     libucrt:lcidtoname_downlevel.obj
 0002:00003ec8       _LocaleNameToIndexTable    1002fec8     libucrt:lcidtoname_downlevel.obj
 0002:00004e20       LOG_name                   10030e20     libucrt:log10.obj
 0002:00004e30       _One                       10030e30     libucrt:ceil_pentium4.obj
 0002:00004e40       _Bns                       10030e40     libucrt:ceil_pentium4.obj
 0002:00004e50       _Zero                      10030e50     libucrt:ceil_pentium4.obj
 0002:00004e60       _S                         10030e60     libucrt:ceil_pentium4.obj
 0002:00004e70       _NegZero                   10030e70     libucrt:ceil_pentium4.obj
 0002:00004e90       emask                      10030e90     libucrt:log10_pentium4.obj
 0002:00004ea0       CC                         10030ea0     libucrt:log10_pentium4.obj
 0002:00004eb0       Magic                      10030eb0     libucrt:log10_pentium4.obj
 0002:00004ec0       hi_mask                    10030ec0     libucrt:log10_pentium4.obj
 0002:00004ed0       LOG10_2                    10030ed0     libucrt:log10_pentium4.obj
 0002:00004ee0       place_L                    10030ee0     libucrt:log10_pentium4.obj
 0002:00004f00       One                        10030f00     libucrt:log10_pentium4.obj
 0002:00004f10       Zero                       10030f10     libucrt:log10_pentium4.obj
 0002:00004f20       Two52                      10030f20     libucrt:log10_pentium4.obj
 0002:00004f30       Infs                       10030f30     libucrt:log10_pentium4.obj
 0002:00004f40       NaN                        10030f40     libucrt:log10_pentium4.obj
 0002:00004f50       coeff                      10030f50     libucrt:log10_pentium4.obj
 0002:00004fae       _log2max                   10030fae     libucrt:87tran.obj
 0002:00004fb8       _smallarg                  10030fb8     libucrt:87tran.obj
 0002:00004fc2       _half                      10030fc2     libucrt:87tran.obj
 0002:0000500e       One                        1003100e     libucrt:87disp.obj
 0002:00005016       Three                      10031016     libucrt:87disp.obj
 0002:0000501e       XAMtoTagTab                1003101e     libucrt:87disp.obj
 0002:00005030       One                        10031030     libucrt:common.obj
 0002:00005044       DblMax                     10031044     libucrt:common.obj
 0002:0000504c       DblMin                     1003104c     libucrt:common.obj
 0002:00005054       IeeeAdjO                   10031054     libucrt:common.obj
 0002:0000505c       IeeeAdjU                   1003105c     libucrt:common.obj
 0002:00005064       _infinity                  10031064     libucrt:common.obj
 0002:0000506c       _zero                      1003106c     libucrt:common.obj
 0002:000050a8       _over                      100310a8     libucrt:fpctrl.obj
 0002:000050b4       _under                     100310b4     libucrt:fpctrl.obj
 0002:00005978       ?_names@?1??_get_fname@@9@9 10031978     libucrt:fpexcept.obj
 0002:00005f84       ?address_for_empty_string@?BH@??onig_search@@9@9 10031f84     oniguruma:regexec.obj
 0002:00005f88       _EncLen_UTF8               10031f88     oniguruma:utf8.obj
 0002:00006388       ?ByteValTable@?1??map_position_value@@9@9 10032388     oniguruma:regcomp.obj
 0002:00006488       ?dist_vals@?1??distance_value@@9@9 10032488     oniguruma:regcomp.obj
 0002:00006554       ?z@?1??select_opt_map_info@@9@9 10032554     oniguruma:regcomp.obj
 0002:00006558       ?clean_info@?1??clear_opt_map_info@@9@9 10032558     oniguruma:regcomp.obj
 0002:00006670       _onig_verb_warn            10032670     oniguruma:regparse.obj
 0002:00006674       _ReduceQStr                10032674     oniguruma:regparse.obj
 0002:00006690       _PopularQStr               10032690     oniguruma:regparse.obj
 0002:000066a8       _ReduceTypeTable           100326a8     oniguruma:regparse.obj
 0002:00006738       _onig_warn                 10032738     oniguruma:regparse.obj
 0002:0000673c       _CR_Cs                     1003273c     oniguruma:unicode.obj
 0002:00006848       _CR_Hangul                 10032848     oniguruma:unicode.obj
 0002:000068ac       _CR_Bopomofo               100328ac     oniguruma:unicode.obj
 0002:00006b90       _CR_Arabic                 10032b90     oniguruma:unicode.obj
 0002:00006c1c       _CR_Me                     10032c1c     oniguruma:unicode.obj
 0002:00006c40       _CR_L                      10032c40     oniguruma:unicode.obj
 0002:0000771c       _CR_Tifinagh               1003371c     oniguruma:unicode.obj
 0002:00007730       _CR_M                      10033730     oniguruma:unicode.obj
 0002:00007b5c       _CR_Tibetan                10033b5c     oniguruma:unicode.obj
 0002:00007b98       _CR_Upper                  10033b98     oniguruma:unicode.obj
 0002:00008a7c       _CR_Osmanya                10034a7c     oniguruma:unicode.obj
 0002:00008a90       _CR_Cf                     10034a90     oniguruma:unicode.obj
 0002:00008b04       _CR_Runic                  10034b04     oniguruma:unicode.obj
 0002:00008b18       _CR_Malayalam              10034b18     oniguruma:unicode.obj
 0002:00008b74       _CR_Canadian_Aboriginal    10034b74     oniguruma:unicode.obj
 0002:00008b80       _CR_Sinhala                10034b80     oniguruma:unicode.obj
 0002:00008bdc       _CR_Armenian               10034bdc     oniguruma:unicode.obj
 0002:00008c08       _CR_Sk                     10034c08     oniguruma:unicode.obj
 0002:00008cc4       _CR_Old_Italic             10034cc4     oniguruma:unicode.obj
 0002:00008cd8       _CR_N                      10034cd8     oniguruma:unicode.obj
 0002:00008e84       _CR_New_Tai_Lue            10034e84     oniguruma:unicode.obj
 0002:00008ea8       _CR_Latin                  10034ea8     oniguruma:unicode.obj
 0002:00008f64       _CR_Zl                     10034f64     oniguruma:unicode.obj
 0002:00008f70       _CaseFold_Locale           10034f70     oniguruma:unicode.obj
 0002:00008f98       _CR_Ethiopic               10034f98     oniguruma:unicode.obj
 0002:00009074       _CR_Thai                   10035074     oniguruma:unicode.obj
 0002:00009088       _CR_Hebrew                 10035088     oniguruma:unicode.obj
 0002:000090dc       _CR_Zp                     100350dc     oniguruma:unicode.obj
 0002:000090e8       _CR_Assigned               100350e8     oniguruma:unicode.obj
 0002:00009e0c       _CR_Tai_Le                 10035e0c     oniguruma:unicode.obj
 0002:00009e20       _CR_Lao                    10035e20     oniguruma:unicode.obj
 0002:00009eb4       _CR_Glagolitic             10035eb4     oniguruma:unicode.obj
 0002:00009ec8       _CR_C                      10035ec8     oniguruma:unicode.obj
 0002:0000abfc       _CR_Yi                     10036bfc     oniguruma:unicode.obj
 0002:0000ac10       _CaseUnfold_11             10036c10     oniguruma:unicode.obj
 0002:0000eef0       _CR_Braille                1003aef0     oniguruma:unicode.obj
 0002:0000eefc       _CR_Khmer                  1003aefc     oniguruma:unicode.obj
 0002:0000ef20       _CR_Cn                     1003af20     oniguruma:unicode.obj
 0002:0000fc44       _CR_Cypriot                1003bc44     oniguruma:unicode.obj
 0002:0000fc78       _CR_Oriya                  1003bc78     oniguruma:unicode.obj
 0002:0000fcec       _CR_Georgian               1003bcec     oniguruma:unicode.obj
 0002:0000fd10       _CaseUnfold_13             1003bd10     oniguruma:unicode.obj
 0002:0000fe60       _CR_Tamil                  1003be60     oniguruma:unicode.obj
 0002:0000fedc       _CR_Limbu                  1003bedc     oniguruma:unicode.obj
 0002:0000ff08       _CR_Lu                     1003bf08     oniguruma:unicode.obj
 0002:00010dec       _CR_Linear_B               1003cdec     oniguruma:unicode.obj
 0002:00010e28       _CR_Kharoshthi             1003ce28     oniguruma:unicode.obj
 0002:00010e6c       _CR_Tagalog                1003ce6c     oniguruma:unicode.obj
 0002:00010e80       _CaseUnfold_12_Locale      1003ce80     oniguruma:unicode.obj
 0002:00010e94       _CR_Gothic                 1003ce94     oniguruma:unicode.obj
 0002:00010ea0       _CR_P                      1003cea0     oniguruma:unicode.obj
 0002:000111a4       _CR_Coptic                 1003d1a4     oniguruma:unicode.obj
 0002:000111c0       _CR_Nd                     1003d1c0     oniguruma:unicode.obj
 0002:0001127c       _CR_Ogham                  1003d27c     oniguruma:unicode.obj
 0002:00011288       _CR_Kannada                1003d288     oniguruma:unicode.obj
 0002:000112f4       _CR_Myanmar                1003d2f4     oniguruma:unicode.obj
 0002:00011328       _CR_Gurmukhi               1003d328     oniguruma:unicode.obj
 0002:000113a4       _CR_Cherokee               1003d3a4     oniguruma:unicode.obj
 0002:000113b0       _CR_Nl                     1003d3b0     oniguruma:unicode.obj
 0002:000113f4       _CR_Tagbanwa               1003d3f4     oniguruma:unicode.obj
 0002:00011410       _CR_Punct                  1003d410     oniguruma:unicode.obj
 0002:00011714       _CR_XDigit                 1003d714     oniguruma:unicode.obj
 0002:00011730       _EncUNICODE_ISO_8859_1_CtypeTable 1003d730     oniguruma:unicode.obj
 0002:00011930       _CR_Telugu                 1003d930     oniguruma:unicode.obj
 0002:00011994       _CR_Pc                     1003d994     oniguruma:unicode.obj
 0002:000119c8       _CR_S                      1003d9c8     oniguruma:unicode.obj
 0002:00011edc       _CR_Ugaritic               1003dedc     oniguruma:unicode.obj
 0002:00011ef0       _CaseFold                  1003def0     oniguruma:unicode.obj
 0002:00016b6c       _CR_Buhid                  10042b6c     oniguruma:unicode.obj
 0002:00016b78       _CR_Inherited              10042b78     oniguruma:unicode.obj
 0002:00016bf4       _CR_Syloti_Nagri           10042bf4     oniguruma:unicode.obj
 0002:00016c00       _CR_Po                     10042c00     oniguruma:unicode.obj
 0002:00016ec4       _CR_Syriac                 10042ec4     oniguruma:unicode.obj
 0002:00016ee0       _CR_Sc                     10042ee0     oniguruma:unicode.obj
 0002:00016f54       _CR_Buginese               10042f54     oniguruma:unicode.obj
 0002:00016f68       _CR_Pe                     10042f68     oniguruma:unicode.obj
 0002:00017174       _CR_Thaana                 10043174     oniguruma:unicode.obj
 0002:00017180       _CR_So                     10043180     oniguruma:unicode.obj
 0002:00017544       _CR_Deseret                10043544     oniguruma:unicode.obj
 0002:00017550       _CR_Ll                     10043550     oniguruma:unicode.obj
 0002:00018454       _CR_Katakana               10044454     oniguruma:unicode.obj
 0002:00018480       _CR_Cntrl                  10044480     oniguruma:unicode.obj
 0002:0001851c       _CR_Cyrillic               1004451c     oniguruma:unicode.obj
 0002:00018550       _CR_Ps                     10044550     oniguruma:unicode.obj
 0002:0001876c       _CR_ASCII                  1004476c     oniguruma:unicode.obj
 0002:00018778       _CR_Lm                     10044778     oniguruma:unicode.obj
 0002:0001884c       _CR_Co                     1004484c     oniguruma:unicode.obj
 0002:00018868       _CR_Zs                     10044868     oniguruma:unicode.obj
 0002:000188ac       _CR_NEWLINE                100448ac     oniguruma:unicode.obj
 0002:000188b8       _CR_Lower                  100448b8     oniguruma:unicode.obj
 0002:000197bc       _CR_Hanunoo                100457bc     oniguruma:unicode.obj
 0002:000197c8       _CR_Print                  100457c8     oniguruma:unicode.obj
 0002:0001a504       _CR_Devanagari             10046504     oniguruma:unicode.obj
 0002:0001a538       _CR_Blank                  10046538     oniguruma:unicode.obj
 0002:0001a584       _CR_Cc                     10046584     oniguruma:unicode.obj
 0002:0001a598       _CR_Pf                     10046598     oniguruma:unicode.obj
 0002:0001a5e4       _CR_Shavian                100465e4     oniguruma:unicode.obj
 0002:0001a5f0       _CR_Space                  100465f0     oniguruma:unicode.obj
 0002:0001a64c       _CR_Old_Persian            1004664c     oniguruma:unicode.obj
 0002:0001a660       _CR_Bengali                10046660     oniguruma:unicode.obj
 0002:0001a6d4       _CR_Any                    100466d4     oniguruma:unicode.obj
 0002:0001a6e0       _CR_Lt                     100466e0     oniguruma:unicode.obj
 0002:0001a734       _CR_Mongolian              10046734     oniguruma:unicode.obj
 0002:0001a758       _CR_Han                    10046758     oniguruma:unicode.obj
 0002:0001a7cc       _CR_Hiragana               100467cc     oniguruma:unicode.obj
 0002:0001a7e0       _CR_Gujarati               100467e0     oniguruma:unicode.obj
 0002:0001a858       _CR_Pi                     10046858     oniguruma:unicode.obj
 0002:0001a8b0       _CR_Word                   100468b0     oniguruma:unicode.obj
 0002:0001b738       _CR_Common                 10047738     oniguruma:unicode.obj
 0002:0001bb30       _CR_Sm                     10047b30     oniguruma:unicode.obj
 0002:0001bd10       _CR_Mn                     10047d10     oniguruma:unicode.obj
 0002:0001c100       _CaseUnfold_12             10048100     oniguruma:unicode.obj
 0002:0001c588       _CR_Alpha                  10048588     oniguruma:unicode.obj
 0002:0001d2a0       _CR_No                     100492a0     oniguruma:unicode.obj
 0002:0001d378       _CR_Digit                  10049378     oniguruma:unicode.obj
 0002:0001d438       _CR_Pd                     10049438     oniguruma:unicode.obj
 0002:0001d4a0       _CR_Graph                  100494a0     oniguruma:unicode.obj
 0002:0001e1e8       _CR_Lo                     1004a1e8     oniguruma:unicode.obj
 0002:0001e998       _CR_Mc                     1004a998     oniguruma:unicode.obj
 0002:0001eb98       _CR_Z                      1004ab98     oniguruma:unicode.obj
 0002:0001ebe8       _CR_Greek                  1004abe8     oniguruma:unicode.obj
 0002:0001ece8       _CR_Alnum                  1004ace8     oniguruma:unicode.obj
 0002:0001fa90       _CaseUnfold_11_Locale      1004ba90     oniguruma:unicode.obj
 0002:0001faa8       _primes                    1004baa8     oniguruma:st.obj
 0002:00020e10       __unwindtable$??0OnigRegExp@@QAE@ABV?$basic_string@DU?$char_traits@D@std@@V?$allocator@D@2@@std@@@Z 1004ce10     onig-reg-exp.obj
 0002:00020e28       __ehfuncinfo$??0OnigRegExp@@QAE@ABV?$basic_string@DU?$char_traits@D@std@@V?$allocator@D@2@@std@@@Z 1004ce28     onig-reg-exp.obj
 0002:00020e4c       __unwindtable$?Search@OnigRegExp@@AAE?AV?$shared_ptr@VOnigResult@@@std@@PBDII@Z 1004ce4c     onig-reg-exp.obj
 0002:00020e5c       __ehfuncinfo$?Search@OnigRegExp@@AAE?AV?$shared_ptr@VOnigResult@@@std@@PBDII@Z 1004ce5c     onig-reg-exp.obj
 0002:00020e80       __unwindtable$??_GOnigResult@@QAEPAXI@Z 1004ce80     onig-reg-exp.obj
 0002:00020e80       __unwindtable$??_GOnigRegExp@@QAEPAXI@Z 1004ce80     onig-scanner.obj
 0002:00020e88       __ehfuncinfo$??_GOnigResult@@QAEPAXI@Z 1004ce88     onig-reg-exp.obj
 0002:00020e88       __ehfuncinfo$??_GOnigRegExp@@QAEPAXI@Z 1004ce88     onig-scanner.obj
 0002:00020eac       __unwindtable$??1ObjectWrap@node@@UAE@XZ 1004ceac     onig-scanner.obj
 0002:00020eb4       __ehfuncinfo$??1ObjectWrap@node@@UAE@XZ 1004ceb4     onig-scanner.obj
 0002:00020ed8       __unwindtable$?WeakCallback@ObjectWrap@node@@CAXABV?$WeakCallbackData@VObject@v8@@VObjectWrap@node@@@v8@@@Z 1004ced8     onig-scanner.obj
 0002:00020ee0       __ehfuncinfo$?WeakCallback@ObjectWrap@node@@CAXABV?$WeakCallbackData@VObject@v8@@VObjectWrap@node@@@v8@@@Z 1004cee0     onig-scanner.obj
 0002:00020f04       __unwindtable$?NewInstance@Nan@@YA?AV?$MaybeLocal@VObject@v8@@@v8@@V?$Local@VObjectTemplate@v8@@@3@@Z 1004cf04     onig-scanner.obj
 0002:00020f0c       __ehfuncinfo$?NewInstance@Nan@@YA?AV?$MaybeLocal@VObject@v8@@@v8@@V?$Local@VObjectTemplate@v8@@@3@@Z 1004cf0c     onig-scanner.obj
 0002:00020f30       __unwindtable$?New@?$Factory@VFunctionTemplate@v8@@@imp@Nan@@SA?AV?$Local@VFunctionTemplate@v8@@@v8@@P6AXABV?$FunctionCallbackInfo@VValue@v8@@@3@@ZV?$Local@VValue@v8@@@5@V?$Local@VSignature@v8@@@5@@Z 1004cf30     onig-scanner.obj
 0002:00020f38       __ehfuncinfo$?New@?$Factory@VFunctionTemplate@v8@@@imp@Nan@@SA?AV?$Local@VFunctionTemplate@v8@@@v8@@P6AXABV?$FunctionCallbackInfo@VValue@v8@@@3@@ZV?$Local@VValue@v8@@@5@V?$Local@VSignature@v8@@@5@@Z 1004cf38     onig-scanner.obj
 0002:00020f5c       __unwindtable$?Call@Callback@Nan@@QBE?AV?$Local@VValue@v8@@@v8@@HQAV34@@Z 1004cf5c     onig-scanner.obj
 0002:00020f64       __ehfuncinfo$?Call@Callback@Nan@@QBE?AV?$Local@VValue@v8@@@v8@@HQAV34@@Z 1004cf64     onig-scanner.obj
 0002:00020f88       __unwindtable$?Call_@Callback@Nan@@ABE?AV?$Local@VValue@v8@@@v8@@PAVIsolate@4@V?$Local@VObject@v8@@@4@HQAV34@@Z 1004cf88     onig-scanner.obj
 0002:00020f90       __ehfuncinfo$?Call_@Callback@Nan@@ABE?AV?$Local@VValue@v8@@@v8@@PAVIsolate@4@V?$Local@VObject@v8@@@4@HQAV34@@Z 1004cf90     onig-scanner.obj
 0002:00020fb4       __unwindtable$??0AsyncWorker@Nan@@QAE@PAVCallback@1@@Z 1004cfb4     onig-scanner.obj
 0002:00020fc4       __ehfuncinfo$??0AsyncWorker@Nan@@QAE@PAVCallback@1@@Z 1004cfc4     onig-scanner.obj
 0002:00020fe8       __unwindtable$??1AsyncWorker@Nan@@UAE@XZ 1004cfe8     onig-scanner.obj
 0002:00021000       __ehfuncinfo$??1AsyncWorker@Nan@@UAE@XZ 1004d000     onig-scanner.obj
 0002:00021024       __unwindtable$?WorkComplete@AsyncWorker@Nan@@UAEXXZ 1004d024     onig-scanner.obj
 0002:0002103c       __ehfuncinfo$?WorkComplete@AsyncWorker@Nan@@UAEXXZ 1004d03c     onig-scanner.obj
 0002:00021060       __unwindtable$?HandleOKCallback@AsyncWorker@Nan@@MAEXXZ 1004d060     onig-scanner.obj
 0002:00021068       __ehfuncinfo$?HandleOKCallback@AsyncWorker@Nan@@MAEXXZ 1004d068     onig-scanner.obj
 0002:0002108c       __unwindtable$?HandleErrorCallback@AsyncWorker@Nan@@MAEXXZ 1004d08c     onig-scanner.obj
 0002:00021094       __ehfuncinfo$?HandleErrorCallback@AsyncWorker@Nan@@MAEXXZ 1004d094     onig-scanner.obj
 0002:000210b8       __unwindtable$??1?$Persistent@VObject@v8@@V?$NonCopyablePersistentTraits@VObject@v8@@@2@@Nan@@QAE@XZ 1004d0b8     onig-scanner.obj
 0002:000210c0       __ehfuncinfo$??1?$Persistent@VObject@v8@@V?$NonCopyablePersistentTraits@VObject@v8@@@2@@Nan@@QAE@XZ 1004d0c0     onig-scanner.obj
 0002:000210e4       __ehfuncinfo$??0OnigScannerWorker@@QAE@PAVCallback@Nan@@V?$vector@V?$shared_ptr@VOnigRegExp@@@std@@V?$allocator@V?$shared_ptr@VOnigRegExp@@@std@@@2@@std@@V?$Local@VString@v8@@@v8@@H@Z 1004d0e4     onig-scanner.obj
 0002:00021108       __unwindtable$??0OnigScannerWorker@@QAE@PAVCallback@Nan@@V?$vector@V?$shared_ptr@VOnigRegExp@@@std@@V?$allocator@V?$shared_ptr@VOnigRegExp@@@std@@@2@@std@@V?$Local@VString@v8@@@v8@@H@Z 1004d108     onig-scanner.obj
 0002:00021140       __ehfuncinfo$??_GOnigScanner@@EAEPAXI@Z 1004d140     onig-scanner.obj
 0002:00021140       __ehfuncinfo$??1OnigScannerWorker@@UAE@XZ 1004d140     onig-scanner.obj
 0002:00021164       __unwindtable$?New@OnigScanner@@CAXABV?$FunctionCallbackInfo@VValue@v8@@@Nan@@@Z 1004d164     onig-scanner.obj
 0002:00021174       __ehfuncinfo$?New@OnigScanner@@CAXABV?$FunctionCallbackInfo@VValue@v8@@@Nan@@@Z 1004d174     onig-scanner.obj
 0002:00021198       __unwindtable$?FindNextMatchSync@OnigScanner@@CAXABV?$FunctionCallbackInfo@VValue@v8@@@Nan@@@Z 1004d198     onig-scanner.obj
 0002:000211a0       __ehfuncinfo$?FindNextMatchSync@OnigScanner@@CAXABV?$FunctionCallbackInfo@VValue@v8@@@Nan@@@Z 1004d1a0     onig-scanner.obj
 0002:000211c4       __unwindtable$?FindNextMatch@OnigScanner@@CAXABV?$FunctionCallbackInfo@VValue@v8@@@Nan@@@Z 1004d1c4     onig-scanner.obj
 0002:000211cc       __ehfuncinfo$?FindNextMatch@OnigScanner@@CAXABV?$FunctionCallbackInfo@VValue@v8@@@Nan@@@Z 1004d1cc     onig-scanner.obj
 0002:000211f0       __ehfuncinfo$??0OnigScanner@@AAE@V?$Local@VArray@v8@@@v8@@@Z 1004d1f0     onig-scanner.obj
 0002:00021214       __unwindtable$??0OnigScanner@@AAE@V?$Local@VArray@v8@@@v8@@@Z 1004d214     onig-scanner.obj
 0002:0002125c       __unwindtable$?FindNextMatch@OnigScanner@@AAEXV?$Local@VString@v8@@@v8@@V?$Local@VNumber@v8@@@3@V?$Local@VFunction@v8@@@3@@Z 1004d25c     onig-scanner.obj
 0002:0002126c       __ehfuncinfo$?FindNextMatch@OnigScanner@@AAEXV?$Local@VString@v8@@@v8@@V?$Local@VNumber@v8@@@3@V?$Local@VFunction@v8@@@3@@Z 1004d26c     onig-scanner.obj
 0002:00021290       __unwindtable$?FindNextMatchSync@OnigScanner@@AAE?AV?$Local@VValue@v8@@@v8@@V?$Local@VString@v8@@@3@V?$Local@VNumber@v8@@@3@@Z 1004d290     onig-scanner.obj
 0002:00021298       __ehfuncinfo$?FindNextMatchSync@OnigScanner@@AAE?AV?$Local@VValue@v8@@@v8@@V?$Local@VString@v8@@@3@V?$Local@VNumber@v8@@@3@@Z 1004d298     onig-scanner.obj
 0002:000212bc       __unwindtable$?FindNextMatchSync@OnigScanner@@AAE?AV?$Local@VValue@v8@@@v8@@PAVOnigString@@V?$Local@VNumber@v8@@@3@@Z 1004d2bc     onig-scanner.obj
 0002:000212c4       __ehfuncinfo$?FindNextMatchSync@OnigScanner@@AAE?AV?$Local@VValue@v8@@@v8@@PAVOnigString@@V?$Local@VNumber@v8@@@3@@Z 1004d2c4     onig-scanner.obj
 0002:000212e8       __unwindtable$?HandleOKCallback@OnigScannerWorker@@UAEXXZ 1004d2e8     onig-scanner-worker.obj
 0002:000212f0       __ehfuncinfo$?HandleOKCallback@OnigScannerWorker@@UAEXXZ 1004d2f0     onig-scanner-worker.obj
 0002:00021314       __unwindtable$?Search@OnigSearcher@@QAE?AV?$shared_ptr@VOnigResult@@@std@@PAVOnigString@@H@Z 1004d314     onig-searcher.obj
 0002:0002131c       __ehfuncinfo$?Search@OnigSearcher@@QAE?AV?$shared_ptr@VOnigResult@@@std@@PAVOnigString@@H@Z 1004d31c     onig-searcher.obj
 0002:00021340       __unwindtable$?New@OnigString@@CAXABV?$FunctionCallbackInfo@VValue@v8@@@Nan@@@Z 1004d340     onig-string.obj
 0002:00021350       __ehfuncinfo$?New@OnigString@@CAXABV?$FunctionCallbackInfo@VValue@v8@@@Nan@@@Z 1004d350     onig-string.obj
 0002:00021374       __unwindtable$??0OnigString@@QAE@V?$Local@VString@v8@@@v8@@@Z 1004d374     onig-string.obj
 0002:0002138c       __ehfuncinfo$??0OnigString@@QAE@V?$Local@VString@v8@@@v8@@@Z 1004d38c     onig-string.obj
 0002:00021498       __sehtable$?dllmain_crt_process_attach@@YAHQAUHINSTANCE__@@QAX@Z 1004d498     LIBCMT:dll_dllmain.obj
 0002:000214b8       __sehtable$?dllmain_crt_process_detach@@YAH_N@Z 1004d4b8     LIBCMT:dll_dllmain.obj
 0002:000214d8       __sehtable$?dllmain_dispatch@@YAHQAUHINSTANCE__@@KQAX@Z 1004d4d8     LIBCMT:dll_dllmain.obj
 0002:00021530       __sehtable$___scrt_is_nonwritable_in_current_image 1004d530     LIBCMT:utility.obj
 0002:00021550       __sehtable$___FrameUnwindToState 1004d550     libvcruntime:frame.obj
 0002:00021578       __sehtable$?CallCatchBlock@@YAPAXPAUEHExceptionRecord@@PAUEHRegistrationNode@@PAU_CONTEXT@@PBU_s_FuncInfo@@PAXHK@Z 1004d578     libvcruntime:frame.obj
 0002:000215a0       __sehtable$___BuildCatchObject 1004d5a0     libvcruntime:frame.obj
 0002:000215c0       __sehtable$___DestructExceptionObject 1004d5c0     libvcruntime:frame.obj
 0002:000215dc       __catchsym$?CallUnexpected@@YAXPBU_s_ESTypeList@@@Z$2 1004d5dc     libvcruntime:frame.obj
 0002:000215ec       __unwindtable$?CallUnexpected@@YAXPBU_s_ESTypeList@@@Z 1004d5ec     libvcruntime:frame.obj
 0002:000215fc       __tryblocktable$?CallUnexpected@@YAXPBU_s_ESTypeList@@@Z 1004d5fc     libvcruntime:frame.obj
 0002:00021610       __ehfuncinfo$?CallUnexpected@@YAXPBU_s_ESTypeList@@@Z 1004d610     libvcruntime:frame.obj
 0002:00021638       __sehtable$___BuildCatchObjectHelper 1004d638     libvcruntime:frame.obj
 0002:00021690       __sehtable$??$?RV<lambda_ab9923ffb5d694ec0d78876dd103e44f>@@AAV<lambda_481dd5778c961fbcd3b60b650e9b9dc4>@@V<lambda_7923d86c9e3f319b415918ec4b39749c>@@@?$__crt_seh_guarded_call@H@@QAEH$$QAV<lambda_ab9923ffb5d694ec0d78876dd103e44f>@@AAV<lambda_481dd5778c961fbcd3b60b650e9b9dc4>@@$$QAV<lambda_7923d86c9e3f319b415918ec4b39749c>@@@Z 1004d690     libucrt:output.obj
 0002:000216b0       __sehtable$__query_new_handler 1004d6b0     libucrt:new_handler.obj
 0002:000216d0       __sehtable$?common_exit@@YAXHW4_crt_exit_cleanup_mode@@W4_crt_exit_return_mode@@@Z 1004d6d0     libucrt:exit.obj
 0002:000216f8       __sehtable$??$?RV<lambda_800076c951b434888f4765a74a194fcc>@@AAV<lambda_4e60a939b0d047cfe11ddc22648dfba9>@@V<lambda_6dbb1268764f43b569ce7b67e331d33a>@@@?$__crt_seh_guarded_call@H@@QAEH$$QAV<lambda_800076c951b434888f4765a74a194fcc>@@AAV<lambda_4e60a939b0d047cfe11ddc22648dfba9>@@$$QAV<lambda_6dbb1268764f43b569ce7b67e331d33a>@@@Z 1004d6f8     libucrt:onexit.obj
 0002:00021718       __sehtable$??$?RV<lambda_995298e7d72eb4c2aab26c0585b3abe5>@@AAV<lambda_275893d493268fdec8709772e3fcec0e>@@V<lambda_293819299cbf9a7022e18b56a874bb5c>@@@?$__crt_seh_guarded_call@H@@QAEH$$QAV<lambda_995298e7d72eb4c2aab26c0585b3abe5>@@AAV<lambda_275893d493268fdec8709772e3fcec0e>@@$$QAV<lambda_293819299cbf9a7022e18b56a874bb5c>@@@Z 1004d718     libucrt:onexit.obj
 0002:00021738       __sehtable$_terminate      1004d738     libucrt:terminate.obj
 0002:00021758       __sehtable$??$?RV<lambda_9df27f884b057bc3edfc946cb5b7cf47>@@AAV<lambda_e69574bed617af4e071282c136b37893>@@V<lambda_cc0d902bcbbeb830f749456577db4721>@@@?$__crt_seh_guarded_call@X@@QAEX$$QAV<lambda_9df27f884b057bc3edfc946cb5b7cf47>@@AAV<lambda_e69574bed617af4e071282c136b37893>@@$$QAV<lambda_cc0d902bcbbeb830f749456577db4721>@@@Z 1004d758     libucrt:per_thread_data.obj
 0002:00021778       __sehtable$??$?RV<lambda_3518db117f0e7cdb002338c5d3c47b6c>@@AAV<lambda_b2ea41f6bbb362cd97d94c6828d90b61>@@V<lambda_abdedf541bb04549bc734292b4a045d4>@@@?$__crt_seh_guarded_call@X@@QAEX$$QAV<lambda_3518db117f0e7cdb002338c5d3c47b6c>@@AAV<lambda_b2ea41f6bbb362cd97d94c6828d90b61>@@$$QAV<lambda_abdedf541bb04549bc734292b4a045d4>@@@Z 1004d778     libucrt:per_thread_data.obj
 0002:00021798       __sehtable$??$?RV<lambda_51b6e8b1eb166f2a3faf91f424b38130>@@AAV<lambda_6250bd4b2a391816dd638c3bf72b0bcb>@@V<lambda_0b5a4a3e68152e1d9b943535f5f47bed>@@@?$__crt_seh_guarded_call@X@@QAEX$$QAV<lambda_51b6e8b1eb166f2a3faf91f424b38130>@@AAV<lambda_6250bd4b2a391816dd638c3bf72b0bcb>@@$$QAV<lambda_0b5a4a3e68152e1d9b943535f5f47bed>@@@Z 1004d798     libucrt:per_thread_data.obj
 0002:000217b8       __sehtable$??$?RV<lambda_5b71d36f03204c0beab531769a5b5694>@@AAV<lambda_be2b3da3f62db62e9dad5dc70221a656>@@V<lambda_8f9ce462984622f9bf76b59e2aaaf805>@@@?$__crt_seh_guarded_call@X@@QAEX$$QAV<lambda_5b71d36f03204c0beab531769a5b5694>@@AAV<lambda_be2b3da3f62db62e9dad5dc70221a656>@@$$QAV<lambda_8f9ce462984622f9bf76b59e2aaaf805>@@@Z 1004d7b8     libucrt:per_thread_data.obj
 0002:000217d8       __sehtable$_fflush         1004d7d8     libucrt:fflush.obj
 0002:000217f8       __sehtable$_common_flush_all 1004d7f8     libucrt:fflush.obj
 0002:00021820       __sehtable$??$?RV<lambda_d92cfe8357b99225085016881b624cb0>@@AAV<lambda_b721fa326cdb32351d23dfa67958c160>@@V<lambda_42d75b0848218ec137fa420c8ba9fdf9>@@@?$__crt_seh_guarded_call@H@@QAEH$$QAV<lambda_d92cfe8357b99225085016881b624cb0>@@AAV<lambda_b721fa326cdb32351d23dfa67958c160>@@$$QAV<lambda_42d75b0848218ec137fa420c8ba9fdf9>@@@Z 1004d820     libucrt:setvbuf.obj
 0002:00021840       __sehtable$_raise          1004d840     libucrt:signal.obj
 0002:00021860       __sehtable$??$?RV<lambda_a048d3beccc847880fc8490e18b82769>@@AAV<lambda_ec61778202f4f5fc7e7711acc23c3bca>@@V<lambda_f7496a158712204296dd6628a163878e>@@@?$__crt_seh_guarded_call@P6AXH@Z@@QAEP6AXH@Z$$QAV<lambda_a048d3beccc847880fc8490e18b82769>@@AAV<lambda_ec61778202f4f5fc7e7711acc23c3bca>@@$$QAV<lambda_f7496a158712204296dd6628a163878e>@@@Z 1004d860     libucrt:signal.obj
 0002:00021880       __sehtable$___acrt_uninitialize_locale 1004d880     libucrt:wsetlocale.obj
 0002:000218a0       __sehtable$___acrt_initialize_lowio 1004d8a0     libucrt:ioinit.obj
 0002:000218c0       __sehtable$___acrt_update_thread_multibyte_data 1004d8c0     libucrt:mbctype.obj
 0002:000218e0       __sehtable$??$?RV<lambda_978dc153c237d78434369da87b74ff60>@@AAV<lambda_ad1ced32f4ac17aa236e5ef05d6b3b7c>@@V<lambda_4a8533e2866a575feecb8298ce776b0d>@@@?$__crt_seh_guarded_call@X@@QAEX$$QAV<lambda_978dc153c237d78434369da87b74ff60>@@AAV<lambda_ad1ced32f4ac17aa236e5ef05d6b3b7c>@@$$QAV<lambda_4a8533e2866a575feecb8298ce776b0d>@@@Z 1004d8e0     libucrt:mbctype.obj
 0002:00021900       __sehtable$___acrt_update_thread_locale_data 1004d900     libucrt:locale_refcounting.obj
 0002:00021920       __sehtable$__fcloseall     1004d920     libucrt:closeall.obj
 0002:00021940       __sehtable$??$?RV<lambda_61cee617f5178ae960314fd4d05640a0>@@AAV<lambda_6978c1fb23f02e42e1d9e99668cc68aa>@@V<lambda_9cd88cf8ad10232537feb2133f08c833>@@@?$__crt_seh_guarded_call@H@@QAEH$$QAV<lambda_61cee617f5178ae960314fd4d05640a0>@@AAV<lambda_6978c1fb23f02e42e1d9e99668cc68aa>@@$$QAV<lambda_9cd88cf8ad10232537feb2133f08c833>@@@Z 1004d940     libucrt:commit.obj
 0002:00021960       __sehtable$__write         1004d960     libucrt:write.obj
 0002:00021980       __sehtable$___acrt_lowio_ensure_fh_exists 1004d980     libucrt:osfinfo.obj
 0002:000219a0       __sehtable$_fclose         1004d9a0     libucrt:fclose.obj
 0002:000219c0       __sehtable$??$common_lseek@_J@@YA_JH_JH@Z 1004d9c0     libucrt:lseek.obj
 0002:000219e0       __sehtable$??$?RV<lambda_123407a5e2ac06da108355a851863b7a>@@AAV<lambda_2fe9b910cf3cbf4a0ab98a02ba45b3ec>@@V<lambda_ae55bdf541ad94d75914d381c370e64d>@@@?$__crt_seh_guarded_call@H@@QAEH$$QAV<lambda_123407a5e2ac06da108355a851863b7a>@@AAV<lambda_2fe9b910cf3cbf4a0ab98a02ba45b3ec>@@$$QAV<lambda_ae55bdf541ad94d75914d381c370e64d>@@@Z 1004d9e0     libucrt:close.obj
 0002:00021a00       __sehtable$__IsNonwritableInCurrentImage 1004da00     LIBCMT:pesect.obj
 0002:00022870       .edata                     1004e870     onig_scanner.exp
 0002:00022898       rgpv                       1004e898     onig_scanner.exp
 0002:0002289c       rgszName                   1004e89c     onig_scanner.exp
 0002:000228a0       rgwOrd                     1004e8a0     onig_scanner.exp
 0002:000228a2       szName                     1004e8a2     onig_scanner.exp
 0002:000228b4       $N00001                    1004e8b4     onig_scanner.exp
 0002:00022a34       .idata$6                   1004ea34     kernel32:KERNEL32.dll
 0003:00000020       ?__vcrt_flsindex@@3KA      1004f020     libvcruntime:per_thread_data.obj
 0003:00000044       ___acrt_flsindex           1004f044     libucrt:per_thread_data.obj
 0003:00000048       _errno_no_memory           1004f048     libucrt:errno.obj
 0003:0000004c       _doserrno_no_memory        1004f04c     libucrt:errno.obj
 0003:000001f0       ___rgctypeflag             1004f1f0     libucrt:mbctype.obj
 0003:000001f8       ___rgcode_page_info        1004f1f8     libucrt:mbctype.obj
 0003:000007a0       __module                   1004f7a0     onig-scanner.obj
 0003:000007c4       ?hashType@?1??onig_st_init_strend_table_with_size@@9@9 1004f7c4     oniguruma:regparse.obj
 0003:00000810       ?PBS@?1??parse_posix_bracket@@9@9 1004f810     oniguruma:regparse.obj
 0003:000008ec       _type_type_cclass_hash     1004f8ec     oniguruma:regparse.obj
 0003:000008f4       ?ss@?1??ss_apply_all_case_fold@@9@9 1004f8f4     oniguruma:regenc.obj
 0003:00000900       ?PBS@?1??onigenc_minimum_property_name_to_ctype@@9@9 1004f900     oniguruma:regenc.obj
 0003:000009b4       _type_code3_hash           1004f9b4     oniguruma:unicode.obj
 0003:000009c0       _HashEntryData             1004f9c0     oniguruma:unicode.obj
 0003:00000f30       _type_code2_hash           1004ff30     oniguruma:unicode.obj
 0003:00000f38       _type_numhash              1004ff38     oniguruma:st.obj
 0003:00000f40       _type_strhash              1004ff40     oniguruma:st.obj
 0003:00001164       ?__proc_attached@@3HA      10050164     LIBCMT:dll_dllmain.obj
 0003:00001168       _GS_ExceptionRecord        10050168     LIBCMT:gs_report.obj
 0003:000011b8       _GS_ContextRecord          100501b8     LIBCMT:gs_report.obj
 0003:0000148c       ?module_local_atexit_table@@3U_onexit_table_t@@A 1005048c     LIBCMT:utility.obj
 0003:00001498       ?module_local_at_quick_exit_table@@3U_onexit_table_t@@A 10050498     LIBCMT:utility.obj
 0003:000014a4       ?is_initialized_as_dll@@3_NA 100504a4     LIBCMT:utility.obj
 0003:000014c8       ?__vcrt_startup_thread_ptd@@3U__vcrt_ptd@@A 100504c8     libvcruntime:per_thread_data.obj
 0003:000014f4       ___vcrt_lock_table         100504f4     libvcruntime:locks.obj
 0003:0000150c       ___vcrt_locks_initialized  1005050c     libvcruntime:locks.obj
 0003:00001510       ?module_handles@@3PAPAUHINSTANCE__@@A 10050510     libvcruntime:winapi_downlevel.obj
 0003:00001520       ?encoded_function_pointers@@3PAPAXA 10050520     libvcruntime:winapi_downlevel.obj
 0003:0000156c       ?heap@@3V_HeapManager@@A   1005056c     libvcruntime:undname.obj
 0003:00001580       ___acrt_invalid_parameter_handler 10050580     libucrt:invalid_parameter.obj
 0003:00001584       ___acrt_new_handler        10050584     libucrt:new_handler.obj
 0003:00001588       _c_termination_complete    10050588     libucrt:exit.obj
 0003:0000158c       _thread_local_exit_callback_func 1005058c     libucrt:exit.obj
 0003:00001590       ?c_exit_complete@?5??common_exit@@YAXHW4_crt_exit_cleanup_mode@@W4_crt_exit_return_mode@@@Z@4_NA 10050590     libucrt:exit.obj
 0003:00001598       ?program_name@?5???$common_configure_argv@D@@YAHW4_crt_argv_mode@@@Z@4PADA 10050598     libucrt:argv_parsing.obj
 0003:000016c8       ___acrt_app_type           100506c8     libucrt:report_runtime_error.obj
 0003:000016cc       ___acrt_error_mode         100506cc     libucrt:set_error_mode.obj
 0003:000016dc       _ctrlc_action              100506dc     libucrt:signal.obj
 0003:000016e0       _ctrlbreak_action          100506e0     libucrt:signal.obj
 0003:000016e4       _abort_action              100506e4     libucrt:signal.obj
 0003:000016e8       _term_action               100506e8     libucrt:signal.obj
 0003:000016f4       _enable_percent_n          100506f4     libucrt:printf_count_output.obj
 0003:00001908       ___acrt_lock_table         10050908     libucrt:locks.obj
 0003:00001a40       ___acrt_locks_initialized  10050a40     libucrt:locks.obj
 0003:00001a48       _module_handles            10050a48     libucrt:winapi_thunks.obj
 0003:00001a98       _encoded_function_pointers 10050a98     libucrt:winapi_thunks.obj
 0003:00001b18       ?state_cache@?1??__acrt_is_packaged_app@@9@4JA 10050b18     libucrt:winapi_thunks.obj
 0003:00001b34       _fSystemSet                10050b34     libucrt:mbctype.obj
 0003:00001b38       ?initialized@?1??__acrt_initialize_multibyte@@9@4_NA 10050b38     libucrt:mbctype.obj
 0003:00001b58       _user_matherr              10050b58     libucrt:matherr.obj
 0003:00001b5c       ___acrt_global_new_mode    10050b5c     libucrt:new_mode.obj
 0003:00001b6c       __pmatherr_set             10050b6c     libucrt:libm_error.obj
 0003:00001b8c       ?idGenerator@?1???0OnigString@@QAE@V?$Local@VString@v8@@@v8@@@Z@4HA 10050b8c     onig-string.obj
 0003:00001b90       _MatchStackLimitSize       10050b90     oniguruma:regexec.obj
 0003:00001b94       ?FinishCode@?1??match_at@@9@9 10050b94     oniguruma:regexec.obj
 0003:00001b98       _onig_inited               10050b98     oniguruma:regcomp.obj
 0003:00001b9c       _FreeNodeList              10050b9c     oniguruma:regparse.obj
 0003:00001ba0       _CaseFoldInited            10050ba0     oniguruma:unicode.obj
 0003:00001ba4       _NameTableInited           10050ba4     oniguruma:unicode.obj
 0003:00001ba8       _CodeRangeTableInited      10050ba8     oniguruma:unicode.obj
 0003:00001bac       _EndCallTop                10050bac     oniguruma:regcomp.obj
 0003:00001bb0       _OnigTypeCClassTable       10050bb0     oniguruma:regparse.obj
 0003:00001bb4       _Unfold1Table              10050bb4     oniguruma:unicode.obj
 0003:00001bb8       _Unfold3Table              10050bb8     oniguruma:unicode.obj
 0003:00001bbc       _NameCtypeTable            10050bbc     oniguruma:unicode.obj
 0003:00001bc0       _CodeRanges                10050bc0     oniguruma:unicode.obj
 0003:00001d8c       _Unfold2Table              10050d8c     oniguruma:unicode.obj
 0003:00001d90       _FoldTable                 10050d90     oniguruma:unicode.obj
 0004:00000000       __guard_fids____dcrt_uninitialize_environments_nolock 10051000     libucrt:environment_initialization.obj
 0004:00000008       __guard_fids__             10051008     libucrt:initialization.obj
 0004:00000068       __guard_fids____acrt_initialize_ptd 10051068     libucrt:per_thread_data.obj
 0004:0000006c       __guard_fids_??$common_show_message_box@_W@@YAHQB_W0I@Z 1005106c     libucrt:crtmbox.obj
 0004:00000070       __guard_fids_??$expand_argument_wildcards@D@@YAHQAD0AAV?$argument_list@D@?A0xb0e4b824@@@Z 10051070     libucrt:argv_wildcards.obj
 0004:00000074       __guard_fids__             10051074     libucrt:stdio_initializer.obj
 0004:00000078       __guard_fids__             10051078     libucrt:stdio_initializer.obj
 0004:0000007c       __guard_fids__             1005107c     libucrt:locale_initializer.obj
 0004:00000080       __guard_fids__             10051080     libucrt:multibyte_initializer.obj
 0004:00000084       __guard_fids____libm_error_support 10051084     libucrt:libm_error.obj
 0004:00000088       __guard_fids__             10051088     libucrt:console_output_initializer.obj
 0004:0000008c       __guard_fids__             1005108c     libucrt:sse2_initializer.obj
 0004:00000090       __guard_fids__             10051090     libcpmt:xthrow.obj
 0004:00000098       __guard_fids__             10051098     libcpmt:xthrow.obj
 0004:000000a0       __guard_fids__             100510a0     libcpmt:xthrow.obj
 0004:000000a8       __guard_fids__             100510a8     libcpmt:xthrow.obj
 0004:000000b0       __guard_fids__             100510b0     libcpmt:xthrow.obj
 0004:000000b8       __guard_fids__             100510b8     libcpmt:xthrow.obj
 0004:000000bc       __guard_fids__             100510bc     libcpmt:xthrow.obj
 0004:000000c0       __guard_fids__             100510c0     libcpmt:xthrow.obj
 0004:000000c4       __guard_fids__             100510c4     libcpmt:xthrow.obj
 0004:000000c8       __guard_fids__             100510c8     libcpmt:xthrow.obj
 0004:000000cc       __guard_fids__             100510cc     libcpmt:xthrow.obj
 0004:000000d0       __guard_fids__             100510d0     libcpmt:xthrow.obj
 0004:000000d4       __guard_fids__             100510d4     libcpmt:xthrow.obj
 0004:000000d8       __guard_fids_?dllmain_crt_process_attach@@YAHQAUHINSTANCE__@@QAX@Z 100510d8     LIBCMT:dll_dllmain.obj
 0004:000000e0       __guard_fids_?dllmain_dispatch@@YAHQAUHINSTANCE__@@KQAX@Z 100510e0     LIBCMT:dll_dllmain.obj
 0004:000000e4       __guard_fids__             100510e4     LIBCMT:std_type_info_static.obj
 0004:000000e8       __guard_fids__             100510e8     LIBCMT:throw_bad_alloc.obj
 0004:000000f0       __guard_fids__             100510f0     LIBCMT:throw_bad_alloc.obj
 0004:000000f4       __guard_fids__             100510f4     LIBCMT:throw_bad_alloc.obj
 0004:000000f8       __guard_fids__             100510f8     LIBCMT:guard_support.obj
 0004:000000fc       __guard_fids__             100510fc     libvcruntime:frame.obj
 0004:00000100       __guard_fids__             10051100     libvcruntime:frame.obj
 0004:00000108       __guard_fids__             10051108     libvcruntime:frame.obj
 0004:0000010c       __guard_fids__             1005110c     libvcruntime:frame.obj
 0004:00000110       __guard_fids____vcrt_initialize_ptd 10051110     libvcruntime:per_thread_data.obj
 0005:00000060       $R000000                   10052060     * linker generated manifest res *

 Exports

  ordinal    name

        1    __register_onig_scanner_
               exported name: _register_onig_scanner_
