ccopy_reg
_reconstructor
p1
(cmatplotlib.font_manager
FontManager
p2
c__builtin__
object
p3
NtRp4
(dp5
S'ttflist'
p6
(lp7
g1
(cmatplotlib.font_manager
FontEntry
p8
g3
NtRp9
(dp10
S'style'
p11
Vnormal
p12
sS'name'
p13
Vcmmi10
p14
sS'weight'
p15
I400
sS'stretch'
p16
g12
sS'variant'
p17
g12
sS'fname'
p18
V/usr/lib/python2.7/site-packages/matplotlib/mpl-data/fonts/ttf/cmmi10.ttf
p19
sS'size'
p20
Vscalable
p21
sbag1
(g8
g3
NtRp22
(dp23
g11
g12
sg13
VSTIXSizeFourSym
p24
sg15
I400
sg16
g12
sg17
g12
sg18
V/usr/lib/python2.7/site-packages/matplotlib/mpl-data/fonts/ttf/STIXSizFourSymReg.ttf
p25
sg20
g21
sbag1
(g8
g3
NtRp26
(dp27
g11
g12
sg13
VSTIXSizeTwoSym
p28
sg15
I400
sg16
g12
sg17
g12
sg18
V/usr/lib/python2.7/site-packages/matplotlib/mpl-data/fonts/ttf/STIXSizTwoSymReg.ttf
p29
sg20
g21
sbag1
(g8
g3
NtRp30
(dp31
g11
g12
sg13
VDejaVu Serif
p32
sg15
I700
sg16
g12
sg17
g12
sg18
V/usr/lib/python2.7/site-packages/matplotlib/mpl-data/fonts/ttf/DejaVuSerif-Bold.ttf
p33
sg20
g21
sbag1
(g8
g3
NtRp34
(dp35
g11
g12
sg13
VSTIXGeneral
p36
sg15
I700
sg16
g12
sg17
g12
sg18
V/usr/lib/python2.7/site-packages/matplotlib/mpl-data/fonts/ttf/STIXGeneralBol.ttf
p37
sg20
g21
sbag1
(g8
g3
NtRp38
(dp39
g11
g12
sg13
VSTIXNonUnicode
p40
sg15
I400
sg16
g12
sg17
g12
sg18
V/usr/lib/python2.7/site-packages/matplotlib/mpl-data/fonts/ttf/STIXNonUni.ttf
p41
sg20
g21
sbag1
(g8
g3
NtRp42
(dp43
g11
Voblique
p44
sg13
VDejaVu Sans
p45
sg15
I700
sg16
g12
sg17
g12
sg18
V/usr/lib/python2.7/site-packages/matplotlib/mpl-data/fonts/ttf/DejaVuSans-BoldOblique.ttf
p46
sg20
g21
sbag1
(g8
g3
NtRp47
(dp48
g11
g12
sg13
Vcmss10
p49
sg15
I400
sg16
g12
sg17
g12
sg18
V/usr/lib/python2.7/site-packages/matplotlib/mpl-data/fonts/ttf/cmss10.ttf
p50
sg20
g21
sbag1
(g8
g3
NtRp51
(dp52
g11
Vitalic
p53
sg13
VSTIXNonUnicode
p54
sg15
I700
sg16
g12
sg17
g12
sg18
V/usr/lib/python2.7/site-packages/matplotlib/mpl-data/fonts/ttf/STIXNonUniBolIta.ttf
p55
sg20
g21
sbag1
(g8
g3
NtRp56
(dp57
g11
g12
sg13
VSTIXGeneral
p58
sg15
I400
sg16
g12
sg17
g12
sg18
V/usr/lib/python2.7/site-packages/matplotlib/mpl-data/fonts/ttf/STIXGeneral.ttf
p59
sg20
g21
sbag1
(g8
g3
NtRp60
(dp61
g11
g12
sg13
Vcmr10
p62
sg15
I400
sg16
g12
sg17
g12
sg18
V/usr/lib/python2.7/site-packages/matplotlib/mpl-data/fonts/ttf/cmr10.ttf
p63
sg20
g21
sbag1
(g8
g3
NtRp64
(dp65
g11
g12
sg13
VSTIXSizeThreeSym
p66
sg15
I700
sg16
g12
sg17
g12
sg18
V/usr/lib/python2.7/site-packages/matplotlib/mpl-data/fonts/ttf/STIXSizThreeSymBol.ttf
p67
sg20
g21
sbag1
(g8
g3
NtRp68
(dp69
g11
g12
sg13
VSTIXSizeFourSym
p70
sg15
I700
sg16
g12
sg17
g12
sg18
V/usr/lib/python2.7/site-packages/matplotlib/mpl-data/fonts/ttf/STIXSizFourSymBol.ttf
p71
sg20
g21
sbag1
(g8
g3
NtRp72
(dp73
g11
g53
sg13
VSTIXNonUnicode
p74
sg15
I400
sg16
g12
sg17
g12
sg18
V/usr/lib/python2.7/site-packages/matplotlib/mpl-data/fonts/ttf/STIXNonUniIta.ttf
p75
sg20
g21
sbag1
(g8
g3
NtRp76
(dp77
g11
g12
sg13
Vcmsy10
p78
sg15
I400
sg16
g12
sg17
g12
sg18
V/usr/lib/python2.7/site-packages/matplotlib/mpl-data/fonts/ttf/cmsy10.ttf
p79
sg20
g21
sbag1
(g8
g3
NtRp80
(dp81
g11
g12
sg13
VDejaVu Sans
p82
sg15
I700
sg16
g12
sg17
g12
sg18
V/usr/lib/python2.7/site-packages/matplotlib/mpl-data/fonts/ttf/DejaVuSans-Bold.ttf
p83
sg20
g21
sbag1
(g8
g3
NtRp84
(dp85
g11
g12
sg13
VDejaVu Serif Display
p86
sg15
I400
sg16
g12
sg17
g12
sg18
V/usr/lib/python2.7/site-packages/matplotlib/mpl-data/fonts/ttf/DejaVuSerifDisplay.ttf
p87
sg20
g21
sbag1
(g8
g3
NtRp88
(dp89
g11
g12
sg13
Vcmtt10
p90
sg15
I400
sg16
g12
sg17
g12
sg18
V/usr/lib/python2.7/site-packages/matplotlib/mpl-data/fonts/ttf/cmtt10.ttf
p91
sg20
g21
sbag1
(g8
g3
NtRp92
(dp93
g11
g53
sg13
VDejaVu Serif
p94
sg15
I400
sg16
g12
sg17
g12
sg18
V/usr/lib/python2.7/site-packages/matplotlib/mpl-data/fonts/ttf/DejaVuSerif-Italic.ttf
p95
sg20
g21
sbag1
(g8
g3
NtRp96
(dp97
g11
g12
sg13
VDejaVu Sans
p98
sg15
I400
sg16
g12
sg17
g12
sg18
V/usr/lib/python2.7/site-packages/matplotlib/mpl-data/fonts/ttf/DejaVuSans.ttf
p99
sg20
g21
sbag1
(g8
g3
NtRp100
(dp101
g11
g53
sg13
VSTIXGeneral
p102
sg15
I400
sg16
g12
sg17
g12
sg18
V/usr/lib/python2.7/site-packages/matplotlib/mpl-data/fonts/ttf/STIXGeneralItalic.ttf
p103
sg20
g21
sbag1
(g8
g3
NtRp104
(dp105
g11
g12
sg13
VDejaVu Sans Display
p106
sg15
I400
sg16
g12
sg17
g12
sg18
V/usr/lib/python2.7/site-packages/matplotlib/mpl-data/fonts/ttf/DejaVuSansDisplay.ttf
p107
sg20
g21
sbag1
(g8
g3
NtRp108
(dp109
g11
g44
sg13
VDejaVu Sans Mono
p110
sg15
I700
sg16
g12
sg17
g12
sg18
V/usr/lib/python2.7/site-packages/matplotlib/mpl-data/fonts/ttf/DejaVuSansMono-BoldOblique.ttf
p111
sg20
g21
sbag1
(g8
g3
NtRp112
(dp113
g11
g12
sg13
VSTIXSizeOneSym
p114
sg15
I400
sg16
g12
sg17
g12
sg18
V/usr/lib/python2.7/site-packages/matplotlib/mpl-data/fonts/ttf/STIXSizOneSymReg.ttf
p115
sg20
g21
sbag1
(g8
g3
NtRp116
(dp117
g11
g12
sg13
VSTIXSizeOneSym
p118
sg15
I700
sg16
g12
sg17
g12
sg18
V/usr/lib/python2.7/site-packages/matplotlib/mpl-data/fonts/ttf/STIXSizOneSymBol.ttf
p119
sg20
g21
sbag1
(g8
g3
NtRp120
(dp121
g11
g12
sg13
Vcmex10
p122
sg15
I400
sg16
g12
sg17
g12
sg18
V/usr/lib/python2.7/site-packages/matplotlib/mpl-data/fonts/ttf/cmex10.ttf
p123
sg20
g21
sbag1
(g8
g3
NtRp124
(dp125
g11
g12
sg13
VDejaVu Sans Mono
p126
sg15
I700
sg16
g12
sg17
g12
sg18
V/usr/lib/python2.7/site-packages/matplotlib/mpl-data/fonts/ttf/DejaVuSansMono-Bold.ttf
p127
sg20
g21
sbag1
(g8
g3
NtRp128
(dp129
g11
g12
sg13
VSTIXNonUnicode
p130
sg15
I700
sg16
g12
sg17
g12
sg18
V/usr/lib/python2.7/site-packages/matplotlib/mpl-data/fonts/ttf/STIXNonUniBol.ttf
p131
sg20
g21
sbag1
(g8
g3
NtRp132
(dp133
g11
g53
sg13
VSTIXGeneral
p134
sg15
I700
sg16
g12
sg17
g12
sg18
V/usr/lib/python2.7/site-packages/matplotlib/mpl-data/fonts/ttf/STIXGeneralBolIta.ttf
p135
sg20
g21
sbag1
(g8
g3
NtRp136
(dp137
g11
g53
sg13
VDejaVu Serif
p138
sg15
I700
sg16
g12
sg17
g12
sg18
V/usr/lib/python2.7/site-packages/matplotlib/mpl-data/fonts/ttf/DejaVuSerif-BoldItalic.ttf
p139
sg20
g21
sbag1
(g8
g3
NtRp140
(dp141
g11
g12
sg13
VDejaVu Serif
p142
sg15
I400
sg16
g12
sg17
g12
sg18
V/usr/lib/python2.7/site-packages/matplotlib/mpl-data/fonts/ttf/DejaVuSerif.ttf
p143
sg20
g21
sbag1
(g8
g3
NtRp144
(dp145
g11
g12
sg13
VSTIXSizeThreeSym
p146
sg15
I400
sg16
g12
sg17
g12
sg18
V/usr/lib/python2.7/site-packages/matplotlib/mpl-data/fonts/ttf/STIXSizThreeSymReg.ttf
p147
sg20
g21
sbag1
(g8
g3
NtRp148
(dp149
g11
g12
sg13
VSTIXSizeFiveSym
p150
sg15
I400
sg16
g12
sg17
g12
sg18
V/usr/lib/python2.7/site-packages/matplotlib/mpl-data/fonts/ttf/STIXSizFiveSymReg.ttf
p151
sg20
g21
sbag1
(g8
g3
NtRp152
(dp153
g11
g12
sg13
Vcmb10
p154
sg15
I400
sg16
g12
sg17
g12
sg18
V/usr/lib/python2.7/site-packages/matplotlib/mpl-data/fonts/ttf/cmb10.ttf
p155
sg20
g21
sbag1
(g8
g3
NtRp156
(dp157
g11
g44
sg13
VDejaVu Sans Mono
p158
sg15
I400
sg16
g12
sg17
g12
sg18
V/usr/lib/python2.7/site-packages/matplotlib/mpl-data/fonts/ttf/DejaVuSansMono-Oblique.ttf
p159
sg20
g21
sbag1
(g8
g3
NtRp160
(dp161
g11
g12
sg13
VSTIXSizeTwoSym
p162
sg15
I700
sg16
g12
sg17
g12
sg18
V/usr/lib/python2.7/site-packages/matplotlib/mpl-data/fonts/ttf/STIXSizTwoSymBol.ttf
p163
sg20
g21
sbag1
(g8
g3
NtRp164
(dp165
g11
g44
sg13
VDejaVu Sans
p166
sg15
I400
sg16
g12
sg17
g12
sg18
V/usr/lib/python2.7/site-packages/matplotlib/mpl-data/fonts/ttf/DejaVuSans-Oblique.ttf
p167
sg20
g21
sbag1
(g8
g3
NtRp168
(dp169
g11
g12
sg13
VDejaVu Sans Mono
p170
sg15
I400
sg16
g12
sg17
g12
sg18
V/usr/lib/python2.7/site-packages/matplotlib/mpl-data/fonts/ttf/DejaVuSansMono.ttf
p171
sg20
g21
sbag1
(g8
g3
NtRp172
(dp173
g11
g53
sg13
VConstantia
p174
sg15
I700
sg16
g12
sg17
g12
sg18
V/usr/share/fonts/microsoft/constanz.ttf
p175
sg20
g21
sbag1
(g8
g3
NtRp176
(dp177
g11
g12
sg13
VSegoe Script
p178
sg15
I400
sg16
g12
sg17
g12
sg18
V/usr/share/fonts/microsoft/segoesc.ttf
p179
sg20
g21
sbag1
(g8
g3
NtRp180
(dp181
g11
g12
sg13
VDengXian
p182
sg15
I400
sg16
g12
sg17
g12
sg18
V/usr/share/fonts/microsoft/DengXian.ttf
p183
sg20
g21
sbag1
(g8
g3
NtRp184
(dp185
g11
g12
sg13
VSymbol
p186
sg15
I400
sg16
g12
sg17
g12
sg18
V/usr/share/fonts/microsoft/symbol.ttf
p187
sg20
g21
sbag1
(g8
g3
NtRp188
(dp189
g11
g12
sg13
VTrebuchet MS
p190
sg15
I400
sg16
g12
sg17
g12
sg18
V/usr/share/fonts/microsoft/trebuc.ttf
p191
sg20
g21
sbag1
(g8
g3
NtRp192
(dp193
g11
g12
sg13
VVerdana
p194
sg15
I400
sg16
g12
sg17
g12
sg18
V/usr/share/fonts/microsoft/verdana.ttf
p195
sg20
g21
sbag1
(g8
g3
NtRp196
(dp197
g11
g53
sg13
VCambria
p198
sg15
I700
sg16
g12
sg17
g12
sg18
V/usr/share/fonts/microsoft/cambriaz.ttf
p199
sg20
g21
sbag1
(g8
g3
NtRp200
(dp201
g11
g53
sg13
VDejaVu Serif
p202
sg15
I700
sg16
Vcondensed
p203
sg17
g12
sg18
V/usr/share/fonts/dejavu/DejaVuSerifCondensed-BoldItalic.ttf
p204
sg20
g21
sbag1
(g8
g3
NtRp205
(dp206
g11
g53
sg13
VArial
p207
sg15
I400
sg16
g12
sg17
g12
sg18
V/usr/share/fonts/microsoft/ariali.ttf
p208
sg20
g21
sbag1
(g8
g3
NtRp209
(dp210
g11
g12
sg13
VVerdana
p211
sg15
I700
sg16
g12
sg17
g12
sg18
V/usr/share/fonts/microsoft/verdanab.ttf
p212
sg20
g21
sbag1
(g8
g3
NtRp213
(dp214
g11
g12
sg13
VMicrosoft MHei
p215
sg15
I400
sg16
g12
sg17
g12
sg18
V/usr/share/fonts/microsoft/MSMHei.ttf
p216
sg20
g21
sbag1
(g8
g3
NtRp217
(dp218
g11
g53
sg13
VGeorgia
p219
sg15
I400
sg16
g12
sg17
g12
sg18
V/usr/share/fonts/microsoft/georgiai.ttf
p220
sg20
g21
sbag1
(g8
g3
NtRp221
(dp222
g11
g12
sg13
VSegoe WP
p223
sg15
I700
sg16
g12
sg17
g12
sg18
V/usr/share/fonts/microsoft/SegoeWP-Bold.ttf
p224
sg20
g21
sbag1
(g8
g3
NtRp225
(dp226
g11
g53
sg13
VCourier New
p227
sg15
I400
sg16
g12
sg17
g12
sg18
V/usr/share/fonts/microsoft/couri.ttf
p228
sg20
g21
sbag1
(g8
g3
NtRp229
(dp230
g11
g12
sg13
VMicrosoft Sans Serif
p231
sg15
I400
sg16
g12
sg17
g12
sg18
V/usr/share/fonts/microsoft/micross.ttf
p232
sg20
g21
sbag1
(g8
g3
NtRp233
(dp234
g11
g53
sg13
VSegoe UI
p235
sg15
I400
sg16
g12
sg17
g12
sg18
V/usr/share/fonts/microsoft/seguisli.ttf
p236
sg20
g21
sbag1
(g8
g3
NtRp237
(dp238
g11
g12
sg13
VConsolas
p239
sg15
I400
sg16
g12
sg17
g12
sg18
V/usr/share/fonts/microsoft/consola.ttf
p240
sg20
g21
sbag1
(g8
g3
NtRp241
(dp242
g11
g12
sg13
VMicrosoft PhagsPa
p243
sg15
I400
sg16
g12
sg17
g12
sg18
V/usr/share/fonts/microsoft/phagspa.ttf
p244
sg20
g21
sbag1
(g8
g3
NtRp245
(dp246
g11
g12
sg13
VSegoe UI Historic
p247
sg15
I400
sg16
g12
sg17
g12
sg18
V/usr/share/fonts/microsoft/seguihis.ttf
p248
sg20
g21
sbag1
(g8
g3
NtRp249
(dp250
g11
g12
sg13
VTahoma
p251
sg15
I400
sg16
g12
sg17
g12
sg18
V/usr/share/fonts/microsoft/tahoma.ttf
p252
sg20
g21
sbag1
(g8
g3
NtRp253
(dp254
g11
g12
sg13
VDejaVu Sans
p255
sg15
I400
sg16
g203
sg17
g12
sg18
V/usr/share/fonts/dejavu/DejaVuSansCondensed.ttf
p256
sg20
g21
sbag1
(g8
g3
NtRp257
(dp258
g11
g12
sg13
VNirmala UI
p259
sg15
I200
sg16
g12
sg17
g12
sg18
V/usr/share/fonts/microsoft/NirmalaS.ttf
p260
sg20
g21
sbag1
(g8
g3
NtRp261
(dp262
g11
g12
sg13
VMalgun Gothic
p263
sg15
I400
sg16
g12
sg17
g12
sg18
V/usr/share/fonts/microsoft/malgun.ttf
p264
sg20
g21
sbag1
(g8
g3
NtRp265
(dp266
g11
g12
sg13
VTrebuchet MS
p267
sg15
I700
sg16
g12
sg17
g12
sg18
V/usr/share/fonts/microsoft/trebucbd.ttf
p268
sg20
g21
sbag1
(g8
g3
NtRp269
(dp270
g11
g12
sg13
VCambria
p271
sg15
I700
sg16
g12
sg17
g12
sg18
V/usr/share/fonts/microsoft/cambriab.ttf
p272
sg20
g21
sbag1
(g8
g3
NtRp273
(dp274
g11
g44
sg13
VDejaVu Sans
p275
sg15
I400
sg16
g203
sg17
g12
sg18
V/usr/share/fonts/dejavu/DejaVuSansCondensed-Oblique.ttf
p276
sg20
g21
sbag1
(g8
g3
NtRp277
(dp278
g11
g12
sg13
VMicrosoft MHei
p279
sg15
I700
sg16
g12
sg17
g12
sg18
V/usr/share/fonts/microsoft/MSMHei-Bold.ttf
p280
sg20
g21
sbag1
(g8
g3
NtRp281
(dp282
g11
g12
sg13
VComic Sans MS
p283
sg15
I400
sg16
g12
sg17
g12
sg18
V/usr/share/fonts/microsoft/comic.ttf
p284
sg20
g21
sbag1
(g8
g3
NtRp285
(dp286
g11
g53
sg13
VTrebuchet MS
p287
sg15
I400
sg16
g12
sg17
g12
sg18
V/usr/share/fonts/microsoft/trebucit.ttf
p288
sg20
g21
sbag1
(g8
g3
NtRp289
(dp290
g11
g12
sg13
VMV Boli
p291
sg15
I400
sg16
g12
sg17
g12
sg18
V/usr/share/fonts/microsoft/mvboli.ttf
p292
sg20
g21
sbag1
(g8
g3
NtRp293
(dp294
g11
g12
sg13
VSimSun-ExtB
p295
sg15
I400
sg16
g12
sg17
g12
sg18
V/usr/share/fonts/microsoft/simsunb.ttf
p296
sg20
g21
sbag1
(g8
g3
NtRp297
(dp298
g11
g12
sg13
VMicrosoft New Tai Lue
p299
sg15
I400
sg16
g12
sg17
g12
sg18
V/usr/share/fonts/microsoft/ntailu.ttf
p300
sg20
g21
sbag1
(g8
g3
NtRp301
(dp302
g11
g12
sg13
VArial
p303
sg15
I900
sg16
g12
sg17
g12
sg18
V/usr/share/fonts/microsoft/ariblk.ttf
p304
sg20
g21
sbag1
(g8
g3
NtRp305
(dp306
g11
g12
sg13
VCalibri
p307
sg15
I400
sg16
g12
sg17
g12
sg18
V/usr/share/fonts/microsoft/calibri.ttf
p308
sg20
g21
sbag1
(g8
g3
NtRp309
(dp310
g11
g53
sg13
VCourier New
p311
sg15
I700
sg16
g12
sg17
g12
sg18
V/usr/share/fonts/microsoft/courbi.ttf
p312
sg20
g21
sbag1
(g8
g3
NtRp313
(dp314
g11
g53
sg13
VPalatino Linotype
p315
sg15
I700
sg16
g12
sg17
g12
sg18
V/usr/share/fonts/microsoft/palabi.ttf
p316
sg20
g21
sbag1
(g8
g3
NtRp317
(dp318
g11
g12
sg13
VMicrosoft NeoGothic
p319
sg15
I700
sg16
g12
sg17
g12
sg18
V/usr/share/fonts/microsoft/MSNeoGothic-Bold.ttf
p320
sg20
g21
sbag1
(g8
g3
NtRp321
(dp322
g11
g12
sg13
VSegoe WP
p323
sg15
I400
sg16
g12
sg17
g12
sg18
V/usr/share/fonts/microsoft/SegoeWP.ttf
p324
sg20
g21
sbag1
(g8
g3
NtRp325
(dp326
g11
g12
sg13
VGeorgia
p327
sg15
I400
sg16
g12
sg17
g12
sg18
V/usr/share/fonts/microsoft/georgia.ttf
p328
sg20
g21
sbag1
(g8
g3
NtRp329
(dp330
g11
g12
sg13
VWebdings
p331
sg15
I400
sg16
g12
sg17
g12
sg18
V/usr/share/fonts/microsoft/webdings.ttf
p332
sg20
g21
sbag1
(g8
g3
NtRp333
(dp334
g11
g12
sg13
VCorbel
p335
sg15
I400
sg16
g12
sg17
g12
sg18
V/usr/share/fonts/microsoft/corbel.ttf
p336
sg20
g21
sbag1
(g8
g3
NtRp337
(dp338
g11
g53
sg13
VDejaVu Serif
p339
sg15
I400
sg16
g203
sg17
g12
sg18
V/usr/share/fonts/dejavu/DejaVuSerifCondensed-Italic.ttf
p340
sg20
g21
sbag1
(g8
g3
NtRp341
(dp342
g11
g12
sg13
VLeelawadee UI
p343
sg15
I400
sg16
g12
sg17
g12
sg18
V/usr/share/fonts/microsoft/LeelUIsl.ttf
p344
sg20
g21
sbag1
(g8
g3
NtRp345
(dp346
g11
g12
sg13
VLucida Console
p347
sg15
I400
sg16
g12
sg17
g12
sg18
V/usr/share/fonts/microsoft/lucon.ttf
p348
sg20
g21
sbag1
(g8
g3
NtRp349
(dp350
g11
g12
sg13
VSegoe UI
p351
sg15
I400
sg16
g12
sg17
g12
sg18
V/usr/share/fonts/microsoft/segoeuisl.ttf
p352
sg20
g21
sbag1
(g8
g3
NtRp353
(dp354
g11
g12
sg13
VTimes New Roman
p355
sg15
I700
sg16
g12
sg17
g12
sg18
V/usr/share/fonts/microsoft/timesbd.ttf
p356
sg20
g21
sbag1
(g8
g3
NtRp357
(dp358
g11
g53
sg13
VTimes New Roman
p359
sg15
I500
sg16
g12
sg17
g12
sg18
V/usr/share/fonts/microsoft/timesi.ttf
p360
sg20
g21
sbag1
(g8
g3
NtRp361
(dp362
g11
g12
sg13
VImpact
p363
sg15
I400
sg16
g12
sg17
g12
sg18
V/usr/share/fonts/microsoft/impact.ttf
p364
sg20
g21
sbag1
(g8
g3
NtRp365
(dp366
g11
g12
sg13
VSegoe UI
p367
sg15
I400
sg16
g12
sg17
g12
sg18
V/usr/share/fonts/microsoft/segoeuil.ttf
p368
sg20
g21
sbag1
(g8
g3
NtRp369
(dp370
g11
g12
sg13
VMyanmar Text
p371
sg15
I700
sg16
g12
sg17
g12
sg18
V/usr/share/fonts/microsoft/mmrtextb.ttf
p372
sg20
g21
sbag1
(g8
g3
NtRp373
(dp374
g11
g53
sg13
VPalatino Linotype
p375
sg15
I400
sg16
g12
sg17
g12
sg18
V/usr/share/fonts/microsoft/palai.ttf
p376
sg20
g21
sbag1
(g8
g3
NtRp377
(dp378
g11
g12
sg13
VSegoe UI Symbol
p379
sg15
I400
sg16
g12
sg17
g12
sg18
V/usr/share/fonts/microsoft/seguisym.ttf
p380
sg20
g21
sbag1
(g8
g3
NtRp381
(dp382
g11
g53
sg13
VConstantia
p383
sg15
I400
sg16
g12
sg17
g12
sg18
V/usr/share/fonts/microsoft/constani.ttf
p384
sg20
g21
sbag1
(g8
g3
NtRp385
(dp386
g11
g12
sg13
VDejaVu Math TeX Gyre
p387
sg15
I400
sg16
g12
sg17
g12
sg18
V/usr/share/fonts/dejavu/DejaVuMathTeXGyre.ttf
p388
sg20
g21
sbag1
(g8
g3
NtRp389
(dp390
g11
g12
sg13
VConstantia
p391
sg15
I700
sg16
g12
sg17
g12
sg18
V/usr/share/fonts/microsoft/constanb.ttf
p392
sg20
g21
sbag1
(g8
g3
NtRp393
(dp394
g11
g12
sg13
VEbrima
p395
sg15
I400
sg16
g12
sg17
g12
sg18
V/usr/share/fonts/microsoft/ebrima.ttf
p396
sg20
g21
sbag1
(g8
g3
NtRp397
(dp398
g11
g53
sg13
VCandara
p399
sg15
I400
sg16
g12
sg17
g12
sg18
V/usr/share/fonts/microsoft/Candarai.ttf
p400
sg20
g21
sbag1
(g8
g3
NtRp401
(dp402
g11
g12
sg13
VSegoe WP
p403
sg15
I400
sg16
g12
sg17
g12
sg18
V/usr/share/fonts/microsoft/SegoeWP-Black.ttf
p404
sg20
g21
sbag1
(g8
g3
NtRp405
(dp406
g11
g12
sg13
VConstantia
p407
sg15
I400
sg16
g12
sg17
g12
sg18
V/usr/share/fonts/microsoft/constan.ttf
p408
sg20
g21
sbag1
(g8
g3
NtRp409
(dp410
g11
g53
sg13
VCorbel
p411
sg15
I700
sg16
g12
sg17
g12
sg18
V/usr/share/fonts/microsoft/corbelz.ttf
p412
sg20
g21
sbag1
(g8
g3
NtRp413
(dp414
g11
g12
sg13
VSegoe UI
p415
sg15
I400
sg16
g12
sg17
g12
sg18
V/usr/share/fonts/microsoft/seguisb.ttf
p416
sg20
g21
sbag1
(g8
g3
NtRp417
(dp418
g11
g53
sg13
VSegoe UI
p419
sg15
I700
sg16
g12
sg17
g12
sg18
V/usr/share/fonts/microsoft/segoeuiz.ttf
p420
sg20
g21
sbag1
(g8
g3
NtRp421
(dp422
g11
g12
sg13
VNirmala UI
p423
sg15
I700
sg16
g12
sg17
g12
sg18
V/usr/share/fonts/microsoft/NirmalaB.ttf
p424
sg20
g21
sbag1
(g8
g3
NtRp425
(dp426
g11
g12
sg13
VCandara
p427
sg15
I400
sg16
g12
sg17
g12
sg18
V/usr/share/fonts/microsoft/Candara.ttf
p428
sg20
g21
sbag1
(g8
g3
NtRp429
(dp430
g11
g53
sg13
VSegoe UI
p431
sg15
I400
sg16
g12
sg17
g12
sg18
V/usr/share/fonts/microsoft/seguibli.ttf
p432
sg20
g21
sbag1
(g8
g3
NtRp433
(dp434
g11
g53
sg13
VGeorgia
p435
sg15
I700
sg16
g12
sg17
g12
sg18
V/usr/share/fonts/microsoft/georgiaz.ttf
p436
sg20
g21
sbag1
(g8
g3
NtRp437
(dp438
g11
g12
sg13
VDejaVu Sans
p439
sg15
I200
sg16
g12
sg17
g12
sg18
V/usr/share/fonts/dejavu/DejaVuSans-ExtraLight.ttf
p440
sg20
g21
sbag1
(g8
g3
NtRp441
(dp442
g11
g12
sg13
VMarlett
p443
sg15
I400
sg16
g12
sg17
g12
sg18
V/usr/share/fonts/microsoft/marlett.ttf
p444
sg20
g21
sbag1
(g8
g3
NtRp445
(dp446
g11
g53
sg13
VFranklin Gothic Medium
p447
sg15
I500
sg16
g12
sg17
g12
sg18
V/usr/share/fonts/microsoft/framdit.ttf
p448
sg20
g21
sbag1
(g8
g3
NtRp449
(dp450
g11
g12
sg13
VGadugi
p451
sg15
I700
sg16
g12
sg17
g12
sg18
V/usr/share/fonts/microsoft/gadugib.ttf
p452
sg20
g21
sbag1
(g8
g3
NtRp453
(dp454
g11
g53
sg13
VSegoe UI
p455
sg15
I400
sg16
g12
sg17
g12
sg18
V/usr/share/fonts/microsoft/segoeuii.ttf
p456
sg20
g21
sbag1
(g8
g3
NtRp457
(dp458
g11
g12
sg13
VMicrosoft NeoGothic
p459
sg15
I400
sg16
g12
sg17
g12
sg18
V/usr/share/fonts/microsoft/MSNeoGothic.ttf
p460
sg20
g21
sbag1
(g8
g3
NtRp461
(dp462
g11
g12
sg13
VSegoe MDL2 Assets
p463
sg15
I400
sg16
g12
sg17
g12
sg18
V/usr/share/fonts/microsoft/segmdl2.ttf
p464
sg20
g21
sbag1
(g8
g3
NtRp465
(dp466
g11
g53
sg13
VConsolas
p467
sg15
I700
sg16
g12
sg17
g12
sg18
V/usr/share/fonts/microsoft/consolaz.ttf
p468
sg20
g21
sbag1
(g8
g3
NtRp469
(dp470
g11
g12
sg13
VJavanese Text
p471
sg15
I400
sg16
g12
sg17
g12
sg18
V/usr/share/fonts/microsoft/javatext.ttf
p472
sg20
g21
sbag1
(g8
g3
NtRp473
(dp474
g11
g12
sg13
VComic Sans MS
p475
sg15
I700
sg16
g12
sg17
g12
sg18
V/usr/share/fonts/microsoft/comicbd.ttf
p476
sg20
g21
sbag1
(g8
g3
NtRp477
(dp478
g11
g12
sg13
VFranklin Gothic Medium
p479
sg15
I500
sg16
g12
sg17
g12
sg18
V/usr/share/fonts/microsoft/framd.ttf
p480
sg20
g21
sbag1
(g8
g3
NtRp481
(dp482
g11
g12
sg13
VSegoe WP
p483
sg15
I400
sg16
g12
sg17
g12
sg18
V/usr/share/fonts/microsoft/SegoeWP-Semibold.ttf
p484
sg20
g21
sbag1
(g8
g3
NtRp485
(dp486
g11
g53
sg13
VCambria
p487
sg15
I400
sg16
g12
sg17
g12
sg18
V/usr/share/fonts/microsoft/cambriai.ttf
p488
sg20
g21
sbag1
(g8
g3
NtRp489
(dp490
g11
g12
sg13
VSegoe UI Emoji
p491
sg15
I400
sg16
g12
sg17
g12
sg18
V/usr/share/fonts/microsoft/seguiemj.ttf
p492
sg20
g21
sbag1
(g8
g3
NtRp493
(dp494
g11
g12
sg13
VSegoe UI
p495
sg15
I400
sg16
g12
sg17
g12
sg18
V/usr/share/fonts/microsoft/segoeui.ttf
p496
sg20
g21
sbag1
(g8
g3
NtRp497
(dp498
g11
g53
sg13
VCalibri
p499
sg15
I700
sg16
g12
sg17
g12
sg18
V/usr/share/fonts/microsoft/calibriz.ttf
p500
sg20
g21
sbag1
(g8
g3
NtRp501
(dp502
g11
g12
sg13
VSegoe WP
p503
sg15
I400
sg16
g12
sg17
g12
sg18
V/usr/share/fonts/microsoft/SegoeWP-Semilight.ttf
p504
sg20
g21
sbag1
(g8
g3
NtRp505
(dp506
g11
g53
sg13
VArial
p507
sg15
I700
sg16
g12
sg17
g12
sg18
V/usr/share/fonts/microsoft/arialbi.ttf
p508
sg20
g21
sbag1
(g8
g3
NtRp509
(dp510
g11
g12
sg13
VSegoe UI
p511
sg15
I700
sg16
g12
sg17
g12
sg18
V/usr/share/fonts/microsoft/segoeuib.ttf
p512
sg20
g21
sbag1
(g8
g3
NtRp513
(dp514
g11
g12
sg13
VLeelawadee UI
p515
sg15
I400
sg16
g12
sg17
g12
sg18
V/usr/share/fonts/microsoft/LeelawUI.ttf
p516
sg20
g21
sbag1
(g8
g3
NtRp517
(dp518
g11
g53
sg13
VComic Sans MS
p519
sg15
I700
sg16
g12
sg17
g12
sg18
V/usr/share/fonts/microsoft/comicz.ttf
p520
sg20
g21
sbag1
(g8
g3
NtRp521
(dp522
g11
g53
sg13
VTrebuchet MS
p523
sg15
I700
sg16
g12
sg17
g12
sg18
V/usr/share/fonts/microsoft/trebucbi.ttf
p524
sg20
g21
sbag1
(g8
g3
NtRp525
(dp526
g11
g12
sg13
VYu Gothic
p527
sg15
I700
sg16
g12
sg17
g12
sg18
V/usr/share/fonts/microsoft/YuGothic-Bold.ttf
p528
sg20
g21
sbag1
(g8
g3
NtRp529
(dp530
g11
g12
sg13
VSegoe WP
p531
sg15
I400
sg16
g12
sg17
g12
sg18
V/usr/share/fonts/microsoft/SegoeWP-Light.ttf
p532
sg20
g21
sbag1
(g8
g3
NtRp533
(dp534
g11
g53
sg13
VCandara
p535
sg15
I700
sg16
g12
sg17
g12
sg18
V/usr/share/fonts/microsoft/Candaraz.ttf
p536
sg20
g21
sbag1
(g8
g3
NtRp537
(dp538
g11
g53
sg13
VTimes New Roman
p539
sg15
I700
sg16
g12
sg17
g12
sg18
V/usr/share/fonts/microsoft/timesbi.ttf
p540
sg20
g21
sbag1
(g8
g3
NtRp541
(dp542
g11
g12
sg13
VMicrosoft Tai Le
p543
sg15
I700
sg16
g12
sg17
g12
sg18
V/usr/share/fonts/microsoft/taileb.ttf
p544
sg20
g21
sbag1
(g8
g3
NtRp545
(dp546
g11
g12
sg13
VCourier New
p547
sg15
I700
sg16
g12
sg17
g12
sg18
V/usr/share/fonts/microsoft/courbd.ttf
p548
sg20
g21
sbag1
(g8
g3
NtRp549
(dp550
g11
g12
sg13
VMyanmar Text
p551
sg15
I400
sg16
g12
sg17
g12
sg18
V/usr/share/fonts/microsoft/mmrtext.ttf
p552
sg20
g21
sbag1
(g8
g3
NtRp553
(dp554
g11
g12
sg13
VLeelawadee UI
p555
sg15
I700
sg16
g12
sg17
g12
sg18
V/usr/share/fonts/microsoft/LeelaUIb.ttf
p556
sg20
g21
sbag1
(g8
g3
NtRp557
(dp558
g11
g12
sg13
VCorbel
p559
sg15
I700
sg16
g12
sg17
g12
sg18
V/usr/share/fonts/microsoft/corbelb.ttf
p560
sg20
g21
sbag1
(g8
g3
NtRp561
(dp562
g11
g12
sg13
VPalatino Linotype
p563
sg15
I700
sg16
g12
sg17
g12
sg18
V/usr/share/fonts/microsoft/palab.ttf
p564
sg20
g21
sbag1
(g8
g3
NtRp565
(dp566
g11
g12
sg13
VMicrosoft Yi Baiti
p567
sg15
I400
sg16
g12
sg17
g12
sg18
V/usr/share/fonts/microsoft/msyi.ttf
p568
sg20
g21
sbag1
(g8
g3
NtRp569
(dp570
g11
g12
sg13
VCalibri
p571
sg15
I700
sg16
g12
sg17
g12
sg18
V/usr/share/fonts/microsoft/calibrib.ttf
p572
sg20
g21
sbag1
(g8
g3
NtRp573
(dp574
g11
g12
sg13
VGabriola
p575
sg15
I400
sg16
g12
sg17
g12
sg18
V/usr/share/fonts/microsoft/Gabriola.ttf
p576
sg20
g21
sbag1
(g8
g3
NtRp577
(dp578
g11
g12
sg13
VTahoma
p579
sg15
I700
sg16
g12
sg17
g12
sg18
V/usr/share/fonts/microsoft/tahomabd.ttf
p580
sg20
g21
sbag1
(g8
g3
NtRp581
(dp582
g11
g12
sg13
VWingdings
p583
sg15
I400
sg16
g12
sg17
g12
sg18
V/usr/share/fonts/microsoft/wingding.ttf
p584
sg20
g21
sbag1
(g8
g3
NtRp585
(dp586
g11
g12
sg13
VMalgun Gothic
p587
sg15
I200
sg16
g12
sg17
g12
sg18
V/usr/share/fonts/microsoft/malgunsl.ttf
p588
sg20
g21
sbag1
(g8
g3
NtRp589
(dp590
g11
g12
sg13
VPalatino Linotype
p591
sg15
I400
sg16
g12
sg17
g12
sg18
V/usr/share/fonts/microsoft/pala.ttf
p592
sg20
g21
sbag1
(g8
g3
NtRp593
(dp594
g11
g12
sg13
VGeorgia
p595
sg15
I700
sg16
g12
sg17
g12
sg18
V/usr/share/fonts/microsoft/georgiab.ttf
p596
sg20
g21
sbag1
(g8
g3
NtRp597
(dp598
g11
g53
sg13
VCorbel
p599
sg15
I400
sg16
g12
sg17
g12
sg18
V/usr/share/fonts/microsoft/corbeli.ttf
p600
sg20
g21
sbag1
(g8
g3
NtRp601
(dp602
g11
g53
sg13
VSegoe UI
p603
sg15
I400
sg16
g12
sg17
g12
sg18
V/usr/share/fonts/microsoft/seguili.ttf
p604
sg20
g21
sbag1
(g8
g3
NtRp605
(dp606
g11
g12
sg13
VCalibri
p607
sg15
I200
sg16
g12
sg17
g12
sg18
V/usr/share/fonts/microsoft/calibril.ttf
p608
sg20
g21
sbag1
(g8
g3
NtRp609
(dp610
g11
g12
sg13
VMalgun Gothic
p611
sg15
I700
sg16
g12
sg17
g12
sg18
V/usr/share/fonts/microsoft/malgunbd.ttf
p612
sg20
g21
sbag1
(g8
g3
NtRp613
(dp614
g11
g44
sg13
VDejaVu Sans
p615
sg15
I700
sg16
g203
sg17
g12
sg18
V/usr/share/fonts/dejavu/DejaVuSansCondensed-BoldOblique.ttf
p616
sg20
g21
sbag1
(g8
g3
NtRp617
(dp618
g11
g12
sg13
VGadugi
p619
sg15
I400
sg16
g12
sg17
g12
sg18
V/usr/share/fonts/microsoft/gadugi.ttf
p620
sg20
g21
sbag1
(g8
g3
NtRp621
(dp622
g11
g12
sg13
VDejaVu Serif
p623
sg15
I400
sg16
g203
sg17
g12
sg18
V/usr/share/fonts/dejavu/DejaVuSerifCondensed.ttf
p624
sg20
g21
sbag1
(g8
g3
NtRp625
(dp626
g11
g12
sg13
VArial
p627
sg15
I700
sg16
g12
sg17
g12
sg18
V/usr/share/fonts/microsoft/arialbd.ttf
p628
sg20
g21
sbag1
(g8
g3
NtRp629
(dp630
g11
g12
sg13
VSegoe UI
p631
sg15
I400
sg16
g12
sg17
g12
sg18
V/usr/share/fonts/microsoft/seguibl.ttf
p632
sg20
g21
sbag1
(g8
g3
NtRp633
(dp634
g11
g12
sg13
VLucida Sans Unicode
p635
sg15
I400
sg16
g12
sg17
g12
sg18
V/usr/share/fonts/microsoft/l_10646.ttf
p636
sg20
g21
sbag1
(g8
g3
NtRp637
(dp638
g11
g12
sg13
VDejaVu Sans
p639
sg15
I700
sg16
g203
sg17
g12
sg18
V/usr/share/fonts/dejavu/DejaVuSansCondensed-Bold.ttf
p640
sg20
g21
sbag1
(g8
g3
NtRp641
(dp642
g11
g12
sg13
VMicrosoft Tai Le
p643
sg15
I400
sg16
g12
sg17
g12
sg18
V/usr/share/fonts/microsoft/taile.ttf
p644
sg20
g21
sbag1
(g8
g3
NtRp645
(dp646
g11
g12
sg13
VCourier New
p647
sg15
I400
sg16
g12
sg17
g12
sg18
V/usr/share/fonts/microsoft/cour.ttf
p648
sg20
g21
sbag1
(g8
g3
NtRp649
(dp650
g11
g53
sg13
VComic Sans MS
p651
sg15
I400
sg16
g12
sg17
g12
sg18
V/usr/share/fonts/microsoft/comici.ttf
p652
sg20
g21
sbag1
(g8
g3
NtRp653
(dp654
g11
g53
sg13
VCalibri
p655
sg15
I400
sg16
g12
sg17
g12
sg18
V/usr/share/fonts/microsoft/calibrii.ttf
p656
sg20
g21
sbag1
(g8
g3
NtRp657
(dp658
g11
g12
sg13
VMicrosoft Himalaya
p659
sg15
I400
sg16
g12
sg17
g12
sg18
V/usr/share/fonts/microsoft/himalaya.ttf
p660
sg20
g21
sbag1
(g8
g3
NtRp661
(dp662
g11
g12
sg13
VMongolian Baiti
p663
sg15
I400
sg16
g12
sg17
g12
sg18
V/usr/share/fonts/microsoft/monbaiti.ttf
p664
sg20
g21
sbag1
(g8
g3
NtRp665
(dp666
g11
g12
sg13
VSegoe Print
p667
sg15
I700
sg16
g12
sg17
g12
sg18
V/usr/share/fonts/microsoft/segoeprb.ttf
p668
sg20
g21
sbag1
(g8
g3
NtRp669
(dp670
g11
g12
sg13
VSylfaen
p671
sg15
I400
sg16
g12
sg17
g12
sg18
V/usr/share/fonts/microsoft/sylfaen.ttf
p672
sg20
g21
sbag1
(g8
g3
NtRp673
(dp674
g11
g12
sg13
VNirmala UI
p675
sg15
I400
sg16
g12
sg17
g12
sg18
V/usr/share/fonts/microsoft/Nirmala.ttf
p676
sg20
g21
sbag1
(g8
g3
NtRp677
(dp678
g11
g12
sg13
VSegoe Print
p679
sg15
I400
sg16
g12
sg17
g12
sg18
V/usr/share/fonts/microsoft/segoepr.ttf
p680
sg20
g21
sbag1
(g8
g3
NtRp681
(dp682
g11
g53
sg13
VCalibri
p683
sg15
I200
sg16
g12
sg17
g12
sg18
V/usr/share/fonts/microsoft/calibrili.ttf
p684
sg20
g21
sbag1
(g8
g3
NtRp685
(dp686
g11
g12
sg13
VConsolas
p687
sg15
I700
sg16
g12
sg17
g12
sg18
V/usr/share/fonts/microsoft/consolab.ttf
p688
sg20
g21
sbag1
(g8
g3
NtRp689
(dp690
g11
g12
sg13
VArial
p691
sg15
I400
sg16
g12
sg17
g12
sg18
V/usr/share/fonts/microsoft/arial.ttf
p692
sg20
g21
sbag1
(g8
g3
NtRp693
(dp694
g11
g53
sg13
VVerdana
p695
sg15
I700
sg16
g12
sg17
g12
sg18
V/usr/share/fonts/microsoft/verdanaz.ttf
p696
sg20
g21
sbag1
(g8
g3
NtRp697
(dp698
g11
g53
sg13
VSegoe UI
p699
sg15
I400
sg16
g12
sg17
g12
sg18
V/usr/share/fonts/microsoft/seguisbi.ttf
p700
sg20
g21
sbag1
(g8
g3
NtRp701
(dp702
g11
g12
sg13
VCandara
p703
sg15
I700
sg16
g12
sg17
g12
sg18
V/usr/share/fonts/microsoft/Candarab.ttf
p704
sg20
g21
sbag1
(g8
g3
NtRp705
(dp706
g11
g12
sg13
VSegoe Script
p707
sg15
I700
sg16
g12
sg17
g12
sg18
V/usr/share/fonts/microsoft/segoescb.ttf
p708
sg20
g21
sbag1
(g8
g3
NtRp709
(dp710
g11
g12
sg13
VDejaVu Serif
p711
sg15
I700
sg16
g203
sg17
g12
sg18
V/usr/share/fonts/dejavu/DejaVuSerifCondensed-Bold.ttf
p712
sg20
g21
sbag1
(g8
g3
NtRp713
(dp714
g11
g12
sg13
VMicrosoft New Tai Lue
p715
sg15
I700
sg16
g12
sg17
g12
sg18
V/usr/share/fonts/microsoft/ntailub.ttf
p716
sg20
g21
sbag1
(g8
g3
NtRp717
(dp718
g11
g53
sg13
VVerdana
p719
sg15
I400
sg16
g12
sg17
g12
sg18
V/usr/share/fonts/microsoft/verdanai.ttf
p720
sg20
g21
sbag1
(g8
g3
NtRp721
(dp722
g11
g12
sg13
VMicrosoft PhagsPa
p723
sg15
I700
sg16
g12
sg17
g12
sg18
V/usr/share/fonts/microsoft/phagspab.ttf
p724
sg20
g21
sbag1
(g8
g3
NtRp725
(dp726
g11
g12
sg13
VTimes New Roman
p727
sg15
I500
sg16
g12
sg17
g12
sg18
V/usr/share/fonts/microsoft/times.ttf
p728
sg20
g21
sbag1
(g8
g3
NtRp729
(dp730
g11
g12
sg13
VEbrima
p731
sg15
I700
sg16
g12
sg17
g12
sg18
V/usr/share/fonts/microsoft/ebrimabd.ttf
p732
sg20
g21
sbag1
(g8
g3
NtRp733
(dp734
g11
g53
sg13
VConsolas
p735
sg15
I400
sg16
g12
sg17
g12
sg18
V/usr/share/fonts/microsoft/consolai.ttf
p736
sg20
g21
sbasS'defaultFamily'
p737
(dp738
Vafm
p739
VHelvetica
p740
sVttf
p741
VDejaVu Sans
p742
ssS'ttffiles'
p743
(lp744
g19
ag25
ag29
ag33
ag37
ag41
ag46
ag50
ag55
ag59
ag63
ag67
ag71
ag75
ag79
ag83
ag87
ag91
ag95
ag99
ag103
ag107
ag111
ag115
ag119
ag123
ag127
ag131
ag135
ag139
ag143
ag147
ag151
ag155
ag159
ag163
ag167
ag171
ag175
ag179
ag183
ag187
ag191
ag195
ag199
ag204
ag208
ag212
ag216
ag220
ag224
ag228
ag232
aV/usr/share/fonts/dejavu/DejaVuSans-Bold.ttf
p745
ag236
ag240
ag244
ag248
ag252
ag256
ag260
ag264
ag268
ag272
ag276
ag280
ag284
ag288
ag292
ag296
ag300
aV/usr/share/fonts/dejavu/DejaVuSerif.ttf
p746
ag304
ag308
ag312
ag316
ag320
ag324
ag328
ag332
ag336
aV/usr/share/fonts/dejavu/DejaVuSerif-Bold.ttf
p747
ag340
ag344
ag348
ag352
ag356
ag360
ag364
ag368
ag372
ag376
aV/usr/share/fonts/dejavu/DejaVuSans-Oblique.ttf
p748
ag380
aV/usr/share/fonts/dejavu/DejaVuSans.ttf
p749
ag384
ag388
ag392
ag396
ag400
ag404
ag408
ag412
ag416
ag420
ag424
ag428
ag432
ag436
aV/usr/share/fonts/dejavu/DejaVuSerif-Italic.ttf
p750
aV/usr/share/fonts/dejavu/DejaVuSansMono-BoldOblique.ttf
p751
ag440
ag444
ag448
ag452
ag456
ag460
ag464
ag468
ag472
aV/usr/share/fonts/dejavu/DejaVuSansMono.ttf
p752
ag476
ag480
ag484
ag488
ag492
ag496
ag500
ag504
ag508
ag512
ag516
ag520
ag524
ag528
ag532
ag536
ag540
aV/usr/share/fonts/dejavu/DejaVuSansMono-Oblique.ttf
p753
ag544
ag548
ag552
ag556
ag560
ag564
ag568
ag572
ag576
ag580
ag584
ag588
aV/usr/share/fonts/dejavu/DejaVuSans-BoldOblique.ttf
p754
ag592
ag596
ag600
ag604
ag608
ag612
ag616
ag620
ag624
ag628
ag632
ag636
ag640
ag644
ag648
ag652
ag656
ag660
ag664
ag668
ag672
aV/usr/share/fonts/dejavu/DejaVuSansMono-Bold.ttf
p755
ag676
ag680
ag684
ag688
ag692
ag696
ag700
aV/usr/share/fonts/dejavu/DejaVuSerif-BoldItalic.ttf
p756
ag704
ag708
ag712
ag716
ag720
ag724
ag728
ag732
ag736
asS'_FontManager__default_weight'
p757
Vnormal
p758
sS'_version'
p759
I200
sS'default_size'
p760
NsS'defaultFont'
p761
(dp762
g739
V/usr/lib/python2.7/site-packages/matplotlib/mpl-data/fonts/afm/putbi8a.afm
p763
sg741
g19
ssS'afmfiles'
p764
(lp765
g763
aV/usr/lib/python2.7/site-packages/matplotlib/mpl-data/fonts/pdfcorefonts/Symbol.afm
p766
aV/usr/lib/python2.7/site-packages/matplotlib/mpl-data/fonts/afm/cmex10.afm
p767
aV/usr/lib/python2.7/site-packages/matplotlib/mpl-data/fonts/pdfcorefonts/Times-Italic.afm
p768
aV/usr/lib/python2.7/site-packages/matplotlib/mpl-data/fonts/afm/pcrb8a.afm
p769
aV/usr/lib/python2.7/site-packages/matplotlib/mpl-data/fonts/afm/phvbo8an.afm
p770
aV/usr/lib/python2.7/site-packages/matplotlib/mpl-data/fonts/pdfcorefonts/Courier-Bold.afm
p771
aV/usr/lib/python2.7/site-packages/matplotlib/mpl-data/fonts/afm/phvb8an.afm
p772
aV/usr/lib/python2.7/site-packages/matplotlib/mpl-data/fonts/afm/pagd8a.afm
p773
aV/usr/lib/python2.7/site-packages/matplotlib/mpl-data/fonts/afm/pplr8a.afm
p774
aV/usr/lib/python2.7/site-packages/matplotlib/mpl-data/fonts/afm/pagdo8a.afm
p775
aV/usr/lib/python2.7/site-packages/matplotlib/mpl-data/fonts/afm/ptmbi8a.afm
p776
aV/usr/lib/python2.7/site-packages/matplotlib/mpl-data/fonts/afm/putr8a.afm
p777
aV/usr/lib/python2.7/site-packages/matplotlib/mpl-data/fonts/afm/phvro8a.afm
p778
aV/usr/lib/python2.7/site-packages/matplotlib/mpl-data/fonts/afm/pcrro8a.afm
p779
aV/usr/lib/python2.7/site-packages/matplotlib/mpl-data/fonts/afm/pbkl8a.afm
p780
aV/usr/lib/python2.7/site-packages/matplotlib/mpl-data/fonts/afm/pcrbo8a.afm
p781
aV/usr/lib/python2.7/site-packages/matplotlib/mpl-data/fonts/pdfcorefonts/Times-BoldItalic.afm
p782
aV/usr/lib/python2.7/site-packages/matplotlib/mpl-data/fonts/afm/phvr8a.afm
p783
aV/usr/lib/python2.7/site-packages/matplotlib/mpl-data/fonts/afm/psyr.afm
p784
aV/usr/lib/python2.7/site-packages/matplotlib/mpl-data/fonts/pdfcorefonts/Courier-BoldOblique.afm
p785
aV/usr/lib/python2.7/site-packages/matplotlib/mpl-data/fonts/afm/putb8a.afm
p786
aV/usr/lib/python2.7/site-packages/matplotlib/mpl-data/fonts/afm/pncb8a.afm
p787
aV/usr/lib/python2.7/site-packages/matplotlib/mpl-data/fonts/pdfcorefonts/Helvetica-BoldOblique.afm
p788
aV/usr/lib/python2.7/site-packages/matplotlib/mpl-data/fonts/afm/phvro8an.afm
p789
aV/usr/lib/python2.7/site-packages/matplotlib/mpl-data/fonts/afm/phvb8a.afm
p790
aV/usr/lib/python2.7/site-packages/matplotlib/mpl-data/fonts/pdfcorefonts/Courier-Oblique.afm
p791
aV/usr/lib/python2.7/site-packages/matplotlib/mpl-data/fonts/pdfcorefonts/Times-Bold.afm
p792
aV/usr/lib/python2.7/site-packages/matplotlib/mpl-data/fonts/afm/pzdr.afm
p793
aV/usr/lib/python2.7/site-packages/matplotlib/mpl-data/fonts/afm/pagko8a.afm
p794
aV/usr/lib/python2.7/site-packages/matplotlib/mpl-data/fonts/afm/phvr8an.afm
p795
aV/usr/lib/python2.7/site-packages/matplotlib/mpl-data/fonts/afm/pzcmi8a.afm
p796
aV/usr/lib/python2.7/site-packages/matplotlib/mpl-data/fonts/afm/pncbi8a.afm
p797
aV/usr/lib/python2.7/site-packages/matplotlib/mpl-data/fonts/afm/pbkd8a.afm
p798
aV/usr/lib/python2.7/site-packages/matplotlib/mpl-data/fonts/afm/ptmri8a.afm
p799
aV/usr/lib/python2.7/site-packages/matplotlib/mpl-data/fonts/afm/pagk8a.afm
p800
aV/usr/lib/python2.7/site-packages/matplotlib/mpl-data/fonts/afm/phvbo8a.afm
p801
aV/usr/lib/python2.7/site-packages/matplotlib/mpl-data/fonts/afm/pbkli8a.afm
p802
aV/usr/lib/python2.7/site-packages/matplotlib/mpl-data/fonts/afm/ptmr8a.afm
p803
aV/usr/lib/python2.7/site-packages/matplotlib/mpl-data/fonts/afm/putri8a.afm
p804
aV/usr/lib/python2.7/site-packages/matplotlib/mpl-data/fonts/afm/pbkdi8a.afm
p805
aV/usr/lib/python2.7/site-packages/matplotlib/mpl-data/fonts/afm/pncr8a.afm
p806
aV/usr/lib/python2.7/site-packages/matplotlib/mpl-data/fonts/afm/phvlo8a.afm
p807
aV/usr/lib/python2.7/site-packages/matplotlib/mpl-data/fonts/pdfcorefonts/Helvetica.afm
p808
aV/usr/lib/python2.7/site-packages/matplotlib/mpl-data/fonts/pdfcorefonts/Courier.afm
p809
aV/usr/lib/python2.7/site-packages/matplotlib/mpl-data/fonts/afm/pplb8a.afm
p810
aV/usr/lib/python2.7/site-packages/matplotlib/mpl-data/fonts/afm/pplri8a.afm
p811
aV/usr/lib/python2.7/site-packages/matplotlib/mpl-data/fonts/afm/cmr10.afm
p812
aV/usr/lib/python2.7/site-packages/matplotlib/mpl-data/fonts/pdfcorefonts/Times-Roman.afm
p813
aV/usr/lib/python2.7/site-packages/matplotlib/mpl-data/fonts/pdfcorefonts/Helvetica-Oblique.afm
p814
aV/usr/lib/python2.7/site-packages/matplotlib/mpl-data/fonts/afm/cmsy10.afm
p815
aV/usr/lib/python2.7/site-packages/matplotlib/mpl-data/fonts/afm/cmtt10.afm
p816
aV/usr/lib/python2.7/site-packages/matplotlib/mpl-data/fonts/afm/pplbi8a.afm
p817
aV/usr/lib/python2.7/site-packages/matplotlib/mpl-data/fonts/afm/pncri8a.afm
p818
aV/usr/lib/python2.7/site-packages/matplotlib/mpl-data/fonts/afm/phvl8a.afm
p819
aV/usr/lib/python2.7/site-packages/matplotlib/mpl-data/fonts/pdfcorefonts/ZapfDingbats.afm
p820
aV/usr/lib/python2.7/site-packages/matplotlib/mpl-data/fonts/pdfcorefonts/Helvetica-Bold.afm
p821
aV/usr/lib/python2.7/site-packages/matplotlib/mpl-data/fonts/afm/pcrr8a.afm
p822
aV/usr/lib/python2.7/site-packages/matplotlib/mpl-data/fonts/afm/cmmi10.afm
p823
aV/usr/lib/python2.7/site-packages/matplotlib/mpl-data/fonts/afm/ptmb8a.afm
p824
asS'afmlist'
p825
(lp826
g1
(g8
g3
NtRp827
(dp828
g11
Vitalic
p829
sg13
S'Utopia'
p830
sg15
I700
sg16
Vnormal
p831
sg17
g831
sg18
g763
sg20
Vscalable
p832
sbag1
(g8
g3
NtRp833
(dp834
g11
g831
sg13
S'Symbol'
p835
sg15
I500
sg16
g831
sg17
g831
sg18
g766
sg20
g832
sbag1
(g8
g3
NtRp836
(dp837
g11
g831
sg13
S'Computer Modern'
p838
sg15
I500
sg16
g831
sg17
g831
sg18
g767
sg20
g832
sbag1
(g8
g3
NtRp839
(dp840
g11
g829
sg13
S'Times'
p841
sg15
I500
sg16
g831
sg17
g831
sg18
g768
sg20
g832
sbag1
(g8
g3
NtRp842
(dp843
g11
g831
sg13
S'Courier'
p844
sg15
I700
sg16
g831
sg17
g831
sg18
g769
sg20
g832
sbag1
(g8
g3
NtRp845
(dp846
g11
g829
sg13
S'Helvetica'
p847
sg15
I700
sg16
Vcondensed
p848
sg17
g831
sg18
g770
sg20
g832
sbag1
(g8
g3
NtRp849
(dp850
g11
g831
sg13
S'Courier'
p851
sg15
I700
sg16
g831
sg17
g831
sg18
g771
sg20
g832
sbag1
(g8
g3
NtRp852
(dp853
g11
g831
sg13
S'Helvetica'
p854
sg15
I700
sg16
g848
sg17
g831
sg18
g772
sg20
g832
sbag1
(g8
g3
NtRp855
(dp856
g11
g831
sg13
S'ITC Avant Garde Gothic'
p857
sg15
I600
sg16
g831
sg17
g831
sg18
g773
sg20
g832
sbag1
(g8
g3
NtRp858
(dp859
g11
g831
sg13
S'Palatino'
p860
sg15
I500
sg16
g831
sg17
g831
sg18
g774
sg20
g832
sbag1
(g8
g3
NtRp861
(dp862
g11
g829
sg13
S'ITC Avant Garde Gothic'
p863
sg15
I600
sg16
g831
sg17
g831
sg18
g775
sg20
g832
sbag1
(g8
g3
NtRp864
(dp865
g11
g829
sg13
S'Times'
p866
sg15
I700
sg16
g831
sg17
g831
sg18
g776
sg20
g832
sbag1
(g8
g3
NtRp867
(dp868
g11
g831
sg13
S'Utopia'
p869
sg15
I400
sg16
g831
sg17
g831
sg18
g777
sg20
g832
sbag1
(g8
g3
NtRp870
(dp871
g11
g829
sg13
S'Helvetica'
p872
sg15
I500
sg16
g831
sg17
g831
sg18
g778
sg20
g832
sbag1
(g8
g3
NtRp873
(dp874
g11
g829
sg13
S'Courier'
p875
sg15
I500
sg16
g831
sg17
g831
sg18
g779
sg20
g832
sbag1
(g8
g3
NtRp876
(dp877
g11
g831
sg13
S'ITC Bookman'
p878
sg15
I200
sg16
g831
sg17
g831
sg18
g780
sg20
g832
sbag1
(g8
g3
NtRp879
(dp880
g11
g829
sg13
S'Courier'
p881
sg15
I700
sg16
g831
sg17
g831
sg18
g781
sg20
g832
sbag1
(g8
g3
NtRp882
(dp883
g11
g829
sg13
S'Times'
p884
sg15
I700
sg16
g831
sg17
g831
sg18
g782
sg20
g832
sbag1
(g8
g3
NtRp885
(dp886
g11
g831
sg13
S'Helvetica'
p887
sg15
I500
sg16
g831
sg17
g831
sg18
g783
sg20
g832
sbag1
(g8
g3
NtRp888
(dp889
g11
g831
sg13
S'Symbol'
p890
sg15
I500
sg16
g831
sg17
g831
sg18
g784
sg20
g832
sbag1
(g8
g3
NtRp891
(dp892
g11
g829
sg13
S'Courier'
p893
sg15
I700
sg16
g831
sg17
g831
sg18
g785
sg20
g832
sbag1
(g8
g3
NtRp894
(dp895
g11
g831
sg13
S'Utopia'
p896
sg15
I700
sg16
g831
sg17
g831
sg18
g786
sg20
g832
sbag1
(g8
g3
NtRp897
(dp898
g11
g831
sg13
S'New Century Schoolbook'
p899
sg15
I700
sg16
g831
sg17
g831
sg18
g787
sg20
g832
sbag1
(g8
g3
NtRp900
(dp901
g11
g829
sg13
S'Helvetica'
p902
sg15
I700
sg16
g831
sg17
g831
sg18
g788
sg20
g832
sbag1
(g8
g3
NtRp903
(dp904
g11
g829
sg13
S'Helvetica'
p905
sg15
I500
sg16
g848
sg17
g831
sg18
g789
sg20
g832
sbag1
(g8
g3
NtRp906
(dp907
g11
g831
sg13
S'Helvetica'
p908
sg15
I700
sg16
g831
sg17
g831
sg18
g790
sg20
g832
sbag1
(g8
g3
NtRp909
(dp910
g11
g829
sg13
S'Courier'
p911
sg15
I500
sg16
g831
sg17
g831
sg18
g791
sg20
g832
sbag1
(g8
g3
NtRp912
(dp913
g11
g831
sg13
S'Times'
p914
sg15
I700
sg16
g831
sg17
g831
sg18
g792
sg20
g832
sbag1
(g8
g3
NtRp915
(dp916
g11
g831
sg13
S'ITC Zapf Dingbats'
p917
sg15
I500
sg16
g831
sg17
g831
sg18
g793
sg20
g832
sbag1
(g8
g3
NtRp918
(dp919
g11
g829
sg13
S'ITC Avant Garde Gothic'
p920
sg15
I400
sg16
g831
sg17
g831
sg18
g794
sg20
g832
sbag1
(g8
g3
NtRp921
(dp922
g11
g831
sg13
S'Helvetica'
p923
sg15
I500
sg16
g848
sg17
g831
sg18
g795
sg20
g832
sbag1
(g8
g3
NtRp924
(dp925
g11
g829
sg13
S'ITC Zapf Chancery'
p926
sg15
I500
sg16
g831
sg17
g831
sg18
g796
sg20
g832
sbag1
(g8
g3
NtRp927
(dp928
g11
g829
sg13
S'New Century Schoolbook'
p929
sg15
I700
sg16
g831
sg17
g831
sg18
g797
sg20
g832
sbag1
(g8
g3
NtRp930
(dp931
g11
g831
sg13
S'ITC Bookman'
p932
sg15
I600
sg16
g831
sg17
g831
sg18
g798
sg20
g832
sbag1
(g8
g3
NtRp933
(dp934
g11
g829
sg13
S'Times'
p935
sg15
I500
sg16
g831
sg17
g831
sg18
g799
sg20
g832
sbag1
(g8
g3
NtRp936
(dp937
g11
g831
sg13
S'ITC Avant Garde Gothic'
p938
sg15
I400
sg16
g831
sg17
g831
sg18
g800
sg20
g832
sbag1
(g8
g3
NtRp939
(dp940
g11
g829
sg13
S'Helvetica'
p941
sg15
I700
sg16
g831
sg17
g831
sg18
g801
sg20
g832
sbag1
(g8
g3
NtRp942
(dp943
g11
g829
sg13
S'ITC Bookman'
p944
sg15
I200
sg16
g831
sg17
g831
sg18
g802
sg20
g832
sbag1
(g8
g3
NtRp945
(dp946
g11
g831
sg13
S'Times'
p947
sg15
I500
sg16
g831
sg17
g831
sg18
g803
sg20
g832
sbag1
(g8
g3
NtRp948
(dp949
g11
g829
sg13
S'Utopia'
p950
sg15
I400
sg16
g831
sg17
g831
sg18
g804
sg20
g832
sbag1
(g8
g3
NtRp951
(dp952
g11
g829
sg13
S'ITC Bookman'
p953
sg15
I600
sg16
g831
sg17
g831
sg18
g805
sg20
g832
sbag1
(g8
g3
NtRp954
(dp955
g11
g831
sg13
S'New Century Schoolbook'
p956
sg15
I500
sg16
g831
sg17
g831
sg18
g806
sg20
g832
sbag1
(g8
g3
NtRp957
(dp958
g11
g829
sg13
S'Helvetica'
p959
sg15
I200
sg16
g831
sg17
g831
sg18
g807
sg20
g832
sbag1
(g8
g3
NtRp960
(dp961
g11
g831
sg13
S'Helvetica'
p962
sg15
I500
sg16
g831
sg17
g831
sg18
g808
sg20
g832
sbag1
(g8
g3
NtRp963
(dp964
g11
g831
sg13
S'Courier'
p965
sg15
I500
sg16
g831
sg17
g831
sg18
g809
sg20
g832
sbag1
(g8
g3
NtRp966
(dp967
g11
g831
sg13
S'Palatino'
p968
sg15
I700
sg16
g831
sg17
g831
sg18
g810
sg20
g832
sbag1
(g8
g3
NtRp969
(dp970
g11
g829
sg13
S'Palatino'
p971
sg15
I500
sg16
g831
sg17
g831
sg18
g811
sg20
g832
sbag1
(g8
g3
NtRp972
(dp973
g11
g831
sg13
S'Computer Modern'
p974
sg15
I500
sg16
g831
sg17
g831
sg18
g812
sg20
g832
sbag1
(g8
g3
NtRp975
(dp976
g11
g831
sg13
S'Times'
p977
sg15
I500
sg16
g831
sg17
g831
sg18
g813
sg20
g832
sbag1
(g8
g3
NtRp978
(dp979
g11
g829
sg13
S'Helvetica'
p980
sg15
I500
sg16
g831
sg17
g831
sg18
g814
sg20
g832
sbag1
(g8
g3
NtRp981
(dp982
g11
g829
sg13
S'Computer Modern'
p983
sg15
I500
sg16
g831
sg17
g831
sg18
g815
sg20
g832
sbag1
(g8
g3
NtRp984
(dp985
g11
g831
sg13
S'Computer Modern'
p986
sg15
I500
sg16
g831
sg17
g831
sg18
g816
sg20
g832
sbag1
(g8
g3
NtRp987
(dp988
g11
g829
sg13
S'Palatino'
p989
sg15
I700
sg16
g831
sg17
g831
sg18
g817
sg20
g832
sbag1
(g8
g3
NtRp990
(dp991
g11
g829
sg13
S'New Century Schoolbook'
p992
sg15
I500
sg16
g831
sg17
g831
sg18
g818
sg20
g832
sbag1
(g8
g3
NtRp993
(dp994
g11
g831
sg13
S'Helvetica'
p995
sg15
I200
sg16
g831
sg17
g831
sg18
g819
sg20
g832
sbag1
(g8
g3
NtRp996
(dp997
g11
g831
sg13
S'ZapfDingbats'
p998
sg15
I500
sg16
g831
sg17
g831
sg18
g820
sg20
g832
sbag1
(g8
g3
NtRp999
(dp1000
g11
g831
sg13
S'Helvetica'
p1001
sg15
I700
sg16
g831
sg17
g831
sg18
g821
sg20
g832
sbag1
(g8
g3
NtRp1002
(dp1003
g11
g831
sg13
S'Courier'
p1004
sg15
I500
sg16
g831
sg17
g831
sg18
g822
sg20
g832
sbag1
(g8
g3
NtRp1005
(dp1006
g11
g829
sg13
S'Computer Modern'
p1007
sg15
I500
sg16
g831
sg17
g831
sg18
g823
sg20
g832
sbag1
(g8
g3
NtRp1008
(dp1009
g11
g831
sg13
S'Times'
p1010
sg15
I700
sg16
g831
sg17
g831
sg18
g824
sg20
g832
sbasb.