 git

 Timestamp is 58a72c86 (Fri Feb 17 17:01:58 2017)

 Preferred load address is 10000000

 Start         Length     Name                   Class
 0001:00000000 000ad797H .text$mn                CODE
 0002:00000000 00000318H .idata$5                DATA
 0002:00000318 00000004H .00cfg                  DATA
 0002:0000031c 00000004H .CRT$XCA                DATA
 0002:00000320 00000004H .CRT$XCU                DATA
 0002:00000324 00000004H .CRT$XCZ                DATA
 0002:00000328 00000004H .CRT$XIA                DATA
 0002:0000032c 00000010H .CRT$XIC                DATA
 0002:0000033c 00000004H .CRT$XIZ                DATA
 0002:00000340 00000004H .CRT$XPA                DATA
 0002:00000344 00000008H .CRT$XPX                DATA
 0002:0000034c 00000004H .CRT$XPXA               DATA
 0002:00000350 00000004H .CRT$XPZ                DATA
 0002:00000354 00000004H .CRT$XTA                DATA
 0002:00000358 00000008H .CRT$XTZ                DATA
 0002:00000360 00017554H .rdata                  DATA
 0002:000178b4 0000021cH .rdata$r                DATA
 0002:00017ad0 0000000cH .rdata$sxdata           DATA
 0002:00017adc 00000354H .rdata$zzzdbg           DATA
 0002:00017e30 00000004H .rtc$IAA                DATA
 0002:00017e34 00000004H .rtc$IZZ                DATA
 0002:00017e38 00000004H .rtc$TAA                DATA
 0002:00017e3c 00000004H .rtc$TZZ                DATA
 0002:00017e40 00000650H .xdata$x                DATA
 0002:00018490 00005528H .edata                  DATA
 0002:0001d9b8 000000a0H .idata$2                DATA
 0002:0001da58 00000014H .idata$3                DATA
 0002:0001da6c 00000318H .idata$4                DATA
 0002:0001dd84 0000156eH .idata$6                DATA
 0003:00000000 000010c0H .data                   DATA
 0003:000010c0 000000e0H .data$r                 DATA
 0003:000011a0 00001021H .bss                    DATA
 0004:00000000 00000094H .gfids$x                DATA
 0004:00000094 00000070H .gfids$y                DATA
 0005:00000000 00000060H .rsrc$01                DATA
 0005:00000060 00000180H .rsrc$02                DATA

  Address         Publics by Value              Rva+Base       Lib:Object

 0000:00000000       ___guard_longjmp_count     00000000     <absolute>
 0000:00000000       ___guard_iat_count         00000000     <absolute>
 0000:00000000       ___guard_iat_table         00000000     <absolute>
 0000:00000000       __except_list              00000000     <absolute>
 0000:00000000       ___guard_fids_count        00000000     <absolute>
 0000:00000000       ___guard_fids_table        00000000     <absolute>
 0000:00000000       ___guard_longjmp_table     00000000     <absolute>
 0000:00000000       ___dynamic_value_reloc_table 00000000     <absolute>
 0000:00000003       ___safe_se_handler_count   00000003     <absolute>
 0000:00000100       ___guard_flags             00000100     <absolute>
 0000:00000000       ___ImageBase               10000000     <linker-defined>
 0001:000000a0       ?New@?$Factory@VFunctionTemplate@v8@@@imp@Nan@@SA?AV?$Local@VFunctionTemplate@v8@@@v8@@P6AXABV?$FunctionCallbackInfo@VValue@v8@@@3@@ZV?$Local@VValue@v8@@@5@V?$Local@VSignature@v8@@@5@@Z 100010a0 f i repository.obj
 0001:000001f0       ?ThrowError@Nan@@YAXPBD@Z  100011f0 f i repository.obj
 0001:00000270       ?Wrap@ObjectWrap@Nan@@IAEXV?$Local@VObject@v8@@@v8@@@Z 10001270 f i repository.obj
 0001:00000320       ?Ref@ObjectWrap@Nan@@MAEXXZ 10001320 f i repository.obj
 0001:00000350       ?Unref@ObjectWrap@Nan@@MAEXXZ 10001350 f i repository.obj
 0001:000003e0       ?WeakCallback@ObjectWrap@Nan@@CAXABV?$WeakCallbackInfo@VObjectWrap@Nan@@@v8@@@Z 100013e0 f i repository.obj
 0001:00000450       ??_EObjectWrap@Nan@@UAEPAXI@Z 10001450 f i * CIL library *:* CIL module *
 0001:00000450       ??_GObjectWrap@Nan@@UAEPAXI@Z 10001450 f i repository.obj
 0001:000004d0       ?Init@Repository@@SAXV?$Local@VObject@v8@@@v8@@@Z 100014d0 f   repository.obj
 0001:000007c0       ?New@Repository@@CAXABV?$FunctionCallbackInfo@VValue@v8@@@Nan@@@Z 100017c0 f   repository.obj
 0001:00000830       ?GetRepository@Repository@@CAPAUgit_repository@@ABV?$FunctionCallbackInfo@VValue@v8@@@Nan@@@Z 10001830 f   repository.obj
 0001:000008a0       ?GetBlob@Repository@@CAHABV?$FunctionCallbackInfo@VValue@v8@@@Nan@@PAUgit_repository@@AAPAUgit_blob@@@Z 100018a0 f   repository.obj
 0001:00000b60       ?Exists@Repository@@CAXABV?$FunctionCallbackInfo@VValue@v8@@@Nan@@@Z 10001b60 f   repository.obj
 0001:00000bd0       ?GetPath@Repository@@CAXABV?$FunctionCallbackInfo@VValue@v8@@@Nan@@@Z 10001bd0 f   repository.obj
 0001:00000c70       ?GetWorkingDirectory@Repository@@CAXABV?$FunctionCallbackInfo@VValue@v8@@@Nan@@@Z 10001c70 f   repository.obj
 0001:00000d20       ?GetSubmodulePaths@Repository@@CAXABV?$FunctionCallbackInfo@VValue@v8@@@Nan@@@Z 10001d20 f   repository.obj
 0001:00000f00       ?GetHead@Repository@@CAXABV?$FunctionCallbackInfo@VValue@v8@@@Nan@@@Z 10001f00 f   repository.obj
 0001:000010c0       ?RefreshIndex@Repository@@CAXABV?$FunctionCallbackInfo@VValue@v8@@@Nan@@@Z 100020c0 f   repository.obj
 0001:00001140       ?IsIgnored@Repository@@CAXABV?$FunctionCallbackInfo@VValue@v8@@@Nan@@@Z 10002140 f   repository.obj
 0001:000012b0       ?IsSubmodule@Repository@@CAXABV?$FunctionCallbackInfo@VValue@v8@@@Nan@@@Z 100022b0 f   repository.obj
 0001:00001410       ?GetConfigValue@Repository@@CAXABV?$FunctionCallbackInfo@VValue@v8@@@Nan@@@Z 10002410 f   repository.obj
 0001:000015d0       ?SetConfigValue@Repository@@CAXABV?$FunctionCallbackInfo@VValue@v8@@@Nan@@@Z 100025d0 f   repository.obj
 0001:00001790       ?GetStatus@Repository@@CAXABV?$FunctionCallbackInfo@VValue@v8@@@Nan@@@Z 10002790 f   repository.obj
 0001:00001aa0       ?GetStatusForPaths@Repository@@CAXABV?$FunctionCallbackInfo@VValue@v8@@@Nan@@@Z 10002aa0 f   repository.obj
 0001:00001dd0       ?CheckoutHead@Repository@@CAXABV?$FunctionCallbackInfo@VValue@v8@@@Nan@@@Z 10002dd0 f   repository.obj
 0001:00001f00       ?GetReferenceTarget@Repository@@CAXABV?$FunctionCallbackInfo@VValue@v8@@@Nan@@@Z 10002f00 f   repository.obj
 0001:000020a0       ?GetDiffStats@Repository@@CAXABV?$FunctionCallbackInfo@VValue@v8@@@Nan@@@Z 100030a0 f   repository.obj
 0001:00002520       ?GetHeadBlob@Repository@@CAXABV?$FunctionCallbackInfo@VValue@v8@@@Nan@@@Z 10003520 f   repository.obj
 0001:000027f0       ?GetIndexBlob@Repository@@CAXABV?$FunctionCallbackInfo@VValue@v8@@@Nan@@@Z 100037f0 f   repository.obj
 0001:00002a70       ?StatusCallback@Repository@@CAHPBDIPAX@Z 10003a70 f   repository.obj
 0001:00002b90       ?SubmoduleCallback@Repository@@CAHPAUgit_submodule@@PBDPAX@Z 10003b90 f   repository.obj
 0001:00002c40       ?Release@Repository@@CAXABV?$FunctionCallbackInfo@VValue@v8@@@Nan@@@Z 10003c40 f   repository.obj
 0001:00002cf0       ?GetCommitCount@Repository@@CAXABV?$FunctionCallbackInfo@VValue@v8@@@Nan@@@Z 10003cf0 f   repository.obj
 0001:00003000       ?GetMergeBase@Repository@@CAXABV?$FunctionCallbackInfo@VValue@v8@@@Nan@@@Z 10004000 f   repository.obj
 0001:000032a0       ?DiffHunkCallback@Repository@@CAHPBUgit_diff_delta@@PBUgit_diff_hunk@@PAX@Z 100042a0 f   repository.obj
 0001:000032b0       ?GetLineDiffs@Repository@@CAXABV?$FunctionCallbackInfo@VValue@v8@@@Nan@@@Z 100042b0 f   repository.obj
 0001:000038f0       ?DiffLineCallback@Repository@@CAHPBUgit_diff_delta@@PBUgit_diff_hunk@@PBUgit_diff_line@@PAX@Z 100048f0 f   repository.obj
 0001:00003970       ?GetLineDiffDetails@Repository@@CAXABV?$FunctionCallbackInfo@VValue@v8@@@Nan@@@Z 10004970 f   repository.obj
 0001:00004120       ?ConvertStringVectorToV8Array@Repository@@CA?AV?$Local@VValue@v8@@@v8@@ABV?$vector@V?$basic_string@DU?$char_traits@D@std@@V?$allocator@D@2@@std@@V?$allocator@V?$basic_string@DU?$char_traits@D@std@@V?$allocator@D@2@@std@@@2@@std@@@Z 10005120 f   repository.obj
 0001:000041e0       ?GetReferences@Repository@@CAXABV?$FunctionCallbackInfo@VValue@v8@@@Nan@@@Z 100051e0 f   repository.obj
 0001:00004870       ?branch_checkout@@YAHPAUgit_repository@@PBD@Z 10005870 f   repository.obj
 0001:00004970       ?CheckoutReference@Repository@@CAXABV?$FunctionCallbackInfo@VValue@v8@@@Nan@@@Z 10005970 f   repository.obj
 0001:00004c70       ?Add@Repository@@CAXABV?$FunctionCallbackInfo@VValue@v8@@@Nan@@@Z 10005c70 f   repository.obj
 0001:00004e20       ??0Repository@@AAE@V?$Local@VString@v8@@@v8@@@Z 10005e20 f   repository.obj
 0001:00004f30       ??_ERepository@@EAEPAXI@Z  10005f30 f i * CIL library *:* CIL module *
 0001:00004f30       ??_GRepository@@EAEPAXI@Z  10005f30 f i repository.obj
 0001:00004f50       ??1Repository@@EAE@XZ      10005f50 f   repository.obj
 0001:00004fd0       ?push_back@?$vector@ULineDiff@@V?$allocator@ULineDiff@@@std@@@std@@QAEXABULineDiff@@@Z 10005fd0 f i repository.obj
 0001:00005060       ??1?$vector@ULineDiff@@V?$allocator@ULineDiff@@@std@@@std@@QAE@XZ 10006060 f i repository.obj
 0001:000050a0       ?push_back@?$vector@Ugit_diff_hunk@@V?$allocator@Ugit_diff_hunk@@@std@@@std@@QAEXABUgit_diff_hunk@@@Z 100060a0 f i repository.obj
 0001:00005130       ??1?$vector@Ugit_diff_hunk@@V?$allocator@Ugit_diff_hunk@@@std@@@std@@QAE@XZ 10006130 f i repository.obj
 0001:00005170       ?push_back@?$vector@V?$basic_string@DU?$char_traits@D@std@@V?$allocator@D@2@@std@@V?$allocator@V?$basic_string@DU?$char_traits@D@std@@V?$allocator@D@2@@std@@@2@@std@@QAEX$$QAV?$basic_string@DU?$char_traits@D@std@@V?$allocator@D@2@@2@@Z 10006170 f i repository.obj
 0001:000051f0       ??1?$basic_string@DU?$char_traits@D@std@@V?$allocator@D@2@@std@@QAE@XZ 100061f0 f i repository.obj
 0001:00005230       ??0?$basic_string@DU?$char_traits@D@std@@V?$allocator@D@2@@std@@QAE@$$QAV01@@Z 10006230 f i repository.obj
 0001:000052b0       ??0?$basic_string@DU?$char_traits@D@std@@V?$allocator@D@2@@std@@QAE@PBD@Z 100062b0 f i repository.obj
 0001:00005300       ?_Reserve@?$vector@ULineDiff@@V?$allocator@ULineDiff@@@std@@@std@@IAEXI@Z 10006300 f i repository.obj
 0001:00005390       ?_Reserve@?$vector@Ugit_diff_hunk@@V?$allocator@Ugit_diff_hunk@@@std@@@std@@IAEXI@Z 10006390 f i repository.obj
 0001:00005430       ?_Reserve@?$vector@V?$basic_string@DU?$char_traits@D@std@@V?$allocator@D@2@@std@@V?$allocator@V?$basic_string@DU?$char_traits@D@std@@V?$allocator@D@2@@std@@@2@@std@@IAEXI@Z 10006430 f i repository.obj
 0001:000054c0       ?_Traits_compare@?$basic_string@DU?$char_traits@D@std@@V?$allocator@D@2@@std@@SAHQBDI0I@Z 100064c0 f i repository.obj
 0001:00005550       ?assign@?$basic_string@DU?$char_traits@D@std@@V?$allocator@D@2@@std@@QAEAAV12@PBDI@Z 10006550 f i repository.obj
 0001:00005650       ?assign@?$basic_string@DU?$char_traits@D@std@@V?$allocator@D@2@@std@@QAEAAV12@ABV12@II@Z 10006650 f i repository.obj
 0001:00005760       ?deallocate@?$_Wrap_alloc@V?$allocator@ULineDiff@@@std@@@std@@QAEXPAULineDiff@@I@Z 10006760 f i repository.obj
 0001:000057c0       ?_Reallocate@?$vector@ULineDiff@@V?$allocator@ULineDiff@@@std@@@std@@IAEXI@Z 100067c0 f i repository.obj
 0001:000058a0       ?deallocate@?$_Wrap_alloc@V?$allocator@Ugit_diff_hunk@@@std@@@std@@QAEXPAUgit_diff_hunk@@I@Z 100068a0 f i repository.obj
 0001:00005900       ?_Reallocate@?$vector@Ugit_diff_hunk@@V?$allocator@Ugit_diff_hunk@@@std@@@std@@IAEXI@Z 10006900 f i repository.obj
 0001:000059d0       ??E?$_Tree_unchecked_const_iterator@V?$_Tree_val@U?$_Tree_simple_types@U?$pair@$$CBV?$basic_string@DU?$char_traits@D@std@@V?$allocator@D@2@@std@@I@std@@@std@@@std@@U_Iterator_base0@2@@std@@QAEAAV01@XZ 100069d0 f i repository.obj
 0001:00005a20       ?erase@?$_Tree@V?$_Tmap_traits@V?$basic_string@DU?$char_traits@D@std@@V?$allocator@D@2@@std@@IU?$less@V?$basic_string@DU?$char_traits@D@std@@V?$allocator@D@2@@std@@@2@V?$allocator@U?$pair@$$CBV?$basic_string@DU?$char_traits@D@std@@V?$allocator@D@2@@std@@I@std@@@2@$0A@@std@@@std@@QAE?AV?$_Tree_iterator@V?$_Tree_val@U?$_Tree_simple_types@U?$pair@$$CBV?$basic_string@DU?$char_traits@D@std@@V?$allocator@D@2@@std@@I@std@@@std@@@std@@@2@V?$_Tree_const_iterator@V?$_Tree_val@U?$_Tree_simple_types@U?$pair@$$CBV?$basic_string@DU?$char_traits@D@std@@V?$allocator@D@2@@std@@I@std@@@std@@@std@@@2@0@Z 10006a20 f i repository.obj
 0001:00005ae0       ?deallocate@?$_Wrap_alloc@V?$allocator@V?$basic_string@DU?$char_traits@D@std@@V?$allocator@D@2@@std@@@std@@@std@@QAEXPAV?$basic_string@DU?$char_traits@D@std@@V?$allocator@D@2@@2@I@Z 10006ae0 f i repository.obj
 0001:00005b40       ?_Reallocate@?$vector@V?$basic_string@DU?$char_traits@D@std@@V?$allocator@D@2@@std@@V?$allocator@V?$basic_string@DU?$char_traits@D@std@@V?$allocator@D@2@@std@@@2@@std@@IAEXI@Z 10006b40 f i repository.obj
 0001:00005c50       ?deallocate@?$_Wrap_alloc@V?$allocator@D@std@@@std@@QAEXPADI@Z 10006c50 f i repository.obj
 0001:00005ca0       ?erase@?$basic_string@DU?$char_traits@D@std@@V?$allocator@D@2@@std@@QAEAAV12@II@Z 10006ca0 f i repository.obj
 0001:00005d20       ?erase@?$_Tree@V?$_Tmap_traits@V?$basic_string@DU?$char_traits@D@std@@V?$allocator@D@2@@std@@IU?$less@V?$basic_string@DU?$char_traits@D@std@@V?$allocator@D@2@@std@@@2@V?$allocator@U?$pair@$$CBV?$basic_string@DU?$char_traits@D@std@@V?$allocator@D@2@@std@@I@std@@@2@$0A@@std@@@std@@QAE?AV?$_Tree_iterator@V?$_Tree_val@U?$_Tree_simple_types@U?$pair@$$CBV?$basic_string@DU?$char_traits@D@std@@V?$allocator@D@2@@std@@I@std@@@std@@@std@@@2@V?$_Tree_const_iterator@V?$_Tree_val@U?$_Tree_simple_types@U?$pair@$$CBV?$basic_string@DU?$char_traits@D@std@@V?$allocator@D@2@@std@@I@std@@@std@@@std@@@2@@Z 10006d20 f i repository.obj
 0001:00006030       ?_Copy@?$basic_string@DU?$char_traits@D@std@@V?$allocator@D@2@@std@@QAEXII@Z 10007030 f i repository.obj
 0001:00006120       ?_Rrotate@?$_Tree@V?$_Tmap_traits@V?$basic_string@DU?$char_traits@D@std@@V?$allocator@D@2@@std@@IU?$less@V?$basic_string@DU?$char_traits@D@std@@V?$allocator@D@2@@std@@@2@V?$allocator@U?$pair@$$CBV?$basic_string@DU?$char_traits@D@std@@V?$allocator@D@2@@std@@I@std@@@2@$0A@@std@@@std@@IAEXPAU?$_Tree_node@U?$pair@$$CBV?$basic_string@DU?$char_traits@D@std@@V?$allocator@D@2@@std@@I@std@@PAX@2@@Z 10007120 f i repository.obj
 0001:00006180       ?_Lrotate@?$_Tree@V?$_Tmap_traits@V?$basic_string@DU?$char_traits@D@std@@V?$allocator@D@2@@std@@IU?$less@V?$basic_string@DU?$char_traits@D@std@@V?$allocator@D@2@@std@@@2@V?$allocator@U?$pair@$$CBV?$basic_string@DU?$char_traits@D@std@@V?$allocator@D@2@@std@@I@std@@@2@$0A@@std@@@std@@IAEXPAU?$_Tree_node@U?$pair@$$CBV?$basic_string@DU?$char_traits@D@std@@V?$allocator@D@2@@std@@I@std@@PAX@2@@Z 10007180 f i repository.obj
 0001:000061d0       ?_Erase@?$_Tree@V?$_Tmap_traits@V?$basic_string@DU?$char_traits@D@std@@V?$allocator@D@2@@std@@IU?$less@V?$basic_string@DU?$char_traits@D@std@@V?$allocator@D@2@@std@@@2@V?$allocator@U?$pair@$$CBV?$basic_string@DU?$char_traits@D@std@@V?$allocator@D@2@@std@@I@std@@@2@$0A@@std@@@std@@IAEXPAU?$_Tree_node@U?$pair@$$CBV?$basic_string@DU?$char_traits@D@std@@V?$allocator@D@2@@std@@I@std@@PAX@2@@Z 100071d0 f i repository.obj
 0001:00006260       ??$SetMethod@VObjectTemplate@v8@@VLocal@2@@Nan@@YAXV?$Local@VObjectTemplate@v8@@@v8@@PBDP6AXABV?$FunctionCallbackInfo@VValue@v8@@@0@@Z@Z 10007260 f i repository.obj
 0001:000062f0       ??$_Destroy_range1@V?$allocator@V?$basic_string@DU?$char_traits@D@std@@V?$allocator@D@2@@std@@@std@@PAV?$basic_string@DU?$char_traits@D@std@@V?$allocator@D@2@@2@@std@@YAXPAV?$basic_string@DU?$char_traits@D@std@@V?$allocator@D@2@@0@0AAU?$_Wrap_alloc@V?$allocator@V?$basic_string@DU?$char_traits@D@std@@V?$allocator@D@2@@std@@@std@@@0@U?$integral_constant@_N$0A@@0@@Z 100072f0 f i repository.obj
 0001:00006370       ??$_Insert_nohint@AAU?$pair@$$CBV?$basic_string@DU?$char_traits@D@std@@V?$allocator@D@2@@std@@I@std@@PAU?$_Tree_node@U?$pair@$$CBV?$basic_string@DU?$char_traits@D@std@@V?$allocator@D@2@@std@@I@std@@PAX@2@@?$_Tree@V?$_Tmap_traits@V?$basic_string@DU?$char_traits@D@std@@V?$allocator@D@2@@std@@IU?$less@V?$basic_string@DU?$char_traits@D@std@@V?$allocator@D@2@@std@@@2@V?$allocator@U?$pair@$$CBV?$basic_string@DU?$char_traits@D@std@@V?$allocator@D@2@@std@@I@std@@@2@$0A@@std@@@std@@IAE?AU?$pair@V?$_Tree_iterator@V?$_Tree_val@U?$_Tree_simple_types@U?$pair@$$CBV?$basic_string@DU?$char_traits@D@std@@V?$allocator@D@2@@std@@I@std@@@std@@@std@@@std@@_N@1@_NAAU?$pair@$$CBV?$basic_string@DU?$char_traits@D@std@@V?$allocator@D@2@@std@@I@1@PAU?$_Tree_node@U?$pair@$$CBV?$basic_string@DU?$char_traits@D@std@@V?$allocator@D@2@@std@@I@std@@PAX@1@@Z 10007370 f i repository.obj
 0001:00006500       ?_Destroy_if_not_nil@?$_Tree@V?$_Tmap_traits@V?$basic_string@DU?$char_traits@D@std@@V?$allocator@D@2@@std@@IU?$less@V?$basic_string@DU?$char_traits@D@std@@V?$allocator@D@2@@std@@@2@V?$allocator@U?$pair@$$CBV?$basic_string@DU?$char_traits@D@std@@V?$allocator@D@2@@std@@I@std@@@2@$0A@@std@@@std@@IAEXPAU?$_Tree_node@U?$pair@$$CBV?$basic_string@DU?$char_traits@D@std@@V?$allocator@D@2@@std@@I@std@@PAX@2@@Z 10007500 f i repository.obj
 0001:00006550       ??F?$_Tree_unchecked_const_iterator@V?$_Tree_val@U?$_Tree_simple_types@U?$pair@$$CBV?$basic_string@DU?$char_traits@D@std@@V?$allocator@D@2@@std@@I@std@@@std@@@std@@U_Iterator_base0@2@@std@@QAEAAV01@XZ 10007550 f i repository.obj
 0001:000065b0       ??$_Insert_at@AAU?$pair@$$CBV?$basic_string@DU?$char_traits@D@std@@V?$allocator@D@2@@std@@I@std@@PAU?$_Tree_node@U?$pair@$$CBV?$basic_string@DU?$char_traits@D@std@@V?$allocator@D@2@@std@@I@std@@PAX@2@@?$_Tree@V?$_Tmap_traits@V?$basic_string@DU?$char_traits@D@std@@V?$allocator@D@2@@std@@IU?$less@V?$basic_string@DU?$char_traits@D@std@@V?$allocator@D@2@@std@@@2@V?$allocator@U?$pair@$$CBV?$basic_string@DU?$char_traits@D@std@@V?$allocator@D@2@@std@@I@std@@@2@$0A@@std@@@std@@IAE?AV?$_Tree_iterator@V?$_Tree_val@U?$_Tree_simple_types@U?$pair@$$CBV?$basic_string@DU?$char_traits@D@std@@V?$allocator@D@2@@std@@I@std@@@std@@@std@@@1@_NPAU?$_Tree_node@U?$pair@$$CBV?$basic_string@DU?$char_traits@D@std@@V?$allocator@D@2@@std@@I@std@@PAX@1@AAU?$pair@$$CBV?$basic_string@DU?$char_traits@D@std@@V?$allocator@D@2@@std@@I@1@1@Z 100075b0 f i repository.obj
 0001:00008ff0       ___except_validate_jump_buffer 10009ff0 f   libvcruntime:jbcxrval.obj
 0001:00008ff0       ___except_validate_context_record 10009ff0 f   libvcruntime:jbcxrval.obj
 0001:00008ff0       @_guard_check_icall_nop@4  10009ff0 f   LIBCMT:guard_support.obj
 0001:0000aec0       _git_checkout_iterator     1000bec0 f   libgit2:checkout.obj
 0001:0000b2f0       _git_checkout_index        1000c2f0 f   libgit2:checkout.obj
 0001:0000b3e0       _git_checkout_tree         1000c3e0 f   libgit2:checkout.obj
 0001:0000b530       _git_checkout_head         1000c530 f   libgit2:checkout.obj
 0001:0000b570       _git_checkout_init_options 1000c570 f   libgit2:checkout.obj
 0001:0000b750       _git_commit__free          1000c750 f   libgit2:commit.obj
 0001:0000bba0       _git_commit_create_from_callback 1000cba0 f   libgit2:commit.obj
 0001:0000bc00       _git_commit_create_v       1000cc00 f   libgit2:commit.obj
 0001:0000bcb0       _git_commit_create_from_ids 1000ccb0 f   libgit2:commit.obj
 0001:0000bd50       _git_commit_create         1000cd50 f   libgit2:commit.obj
 0001:0000be10       _git_commit_amend          1000ce10 f   libgit2:commit.obj
 0001:0000c060       _git_commit__parse         1000d060 f   libgit2:commit.obj
 0001:0000c3b0       _git_commit_author         1000d3b0 f   libgit2:commit.obj
 0001:0000c3e0       _git_commit_committer      1000d3e0 f   libgit2:commit.obj
 0001:0000c410       _git_commit_message_raw    1000d410 f   libgit2:commit.obj
 0001:0000c440       _git_commit_message_encoding 1000d440 f   libgit2:commit.obj
 0001:0000c470       _git_commit_raw_header     1000d470 f   libgit2:commit.obj
 0001:0000c4a0       _git_commit_time           1000d4a0 f   libgit2:commit.obj
 0001:0000c4d0       _git_commit_time_offset    1000d4d0 f   libgit2:commit.obj
 0001:0000c500       _git_commit_parentcount    1000d500 f   libgit2:commit.obj
 0001:0000c530       _git_commit_tree_id        1000d530 f   libgit2:commit.obj
 0001:0000c560       _git_commit_message        1000d560 f   libgit2:commit.obj
 0001:0000c5a0       _git_commit_summary        1000d5a0 f   libgit2:commit.obj
 0001:0000c740       _git_commit_body           1000d740 f   libgit2:commit.obj
 0001:0000c960       _git_commit_tree           1000d960 f   libgit2:commit.obj
 0001:0000c9a0       _git_commit_parent_id      1000d9a0 f   libgit2:commit.obj
 0001:0000c9e0       _git_commit_parent         1000d9e0 f   libgit2:commit.obj
 0001:0000ca60       _git_commit_nth_gen_ancestor 1000da60 f   libgit2:commit.obj
 0001:0000cba0       _git_commit_header_field   1000dba0 f   libgit2:commit.obj
 0001:0000cd30       _git_commit_extract_signature 1000dd30 f   libgit2:commit.obj
 0001:0000d9d0       _git_submodule_lookup      1000e9d0 f   libgit2:submodule.obj
 0001:0000dcb0       _git_submodule_free        1000ecb0 f   libgit2:submodule.obj
 0001:0000e460       _git_submodule_foreach     1000f460 f   libgit2:submodule.obj
 0001:0000e850       _git_submodule_add_setup   1000f850 f   libgit2:submodule.obj
 0001:0000eb60       _git_submodule_repo_init   1000fb60 f   libgit2:submodule.obj
 0001:0000ec80       _git_submodule_add_finalize 1000fc80 f   libgit2:submodule.obj
 0001:0000ece0       _git_submodule_add_to_index 1000fce0 f   libgit2:submodule.obj
 0001:0000ef10       _git_submodule_owner       1000ff10 f   libgit2:submodule.obj
 0001:0000ef40       _git_submodule_name        1000ff40 f   libgit2:submodule.obj
 0001:0000ef70       _git_submodule_path        1000ff70 f   libgit2:submodule.obj
 0001:0000efa0       _git_submodule_url         1000ffa0 f   libgit2:submodule.obj
 0001:0000efd0       _git_submodule_resolve_url 1000ffd0 f   libgit2:submodule.obj
 0001:0000f1e0       _git_submodule_branch      100101e0 f   libgit2:submodule.obj
 0001:0000f210       _git_submodule_set_branch  10010210 f   libgit2:submodule.obj
 0001:0000f250       _git_submodule_set_url     10010250 f   libgit2:submodule.obj
 0001:0000f2a0       _git_submodule_index_id    100102a0 f   libgit2:submodule.obj
 0001:0000f2e0       _git_submodule_head_id     100102e0 f   libgit2:submodule.obj
 0001:0000f320       _git_submodule_wd_id       10010320 f   libgit2:submodule.obj
 0001:0000f390       _git_submodule_ignore      10010390 f   libgit2:submodule.obj
 0001:0000f3c0       _git_submodule_set_ignore  100103c0 f   libgit2:submodule.obj
 0001:0000f450       _git_submodule_update_strategy 10010450 f   libgit2:submodule.obj
 0001:0000f480       _git_submodule_set_update  10010480 f   libgit2:submodule.obj
 0001:0000f510       _git_submodule_fetch_recurse_submodules 10010510 f   libgit2:submodule.obj
 0001:0000f540       _git_submodule_set_fetch_recurse_submodules 10010540 f   libgit2:submodule.obj
 0001:0000f740       _git_submodule_update_init_options 10010740 f   libgit2:submodule.obj
 0001:0000f800       _git_submodule_update      10010800 f   libgit2:submodule.obj
 0001:0000fcd0       _git_submodule_init        10010cd0 f   libgit2:submodule.obj
 0001:0000fe80       _git_submodule_sync        10010e80 f   libgit2:submodule.obj
 0001:000101f0       _git_submodule_open        100111f0 f   libgit2:submodule.obj
 0001:00010340       _git_submodule_reload      10011340 f   libgit2:submodule.obj
 0001:00010420       _git_submodule__status     10011420 f   libgit2:submodule.obj
 0001:00010570       _git_submodule_status      10011570 f   libgit2:submodule.obj
 0001:00010600       _git_submodule_location    10011600 f   libgit2:submodule.obj
 0001:00010790       _git_submodule_parse_ignore 10011790 f   libgit2:submodule.obj
 0001:000107e0       _git_submodule_parse_update 100117e0 f   libgit2:submodule.obj
 0001:00010830       _git_submodule_parse_recurse 10011830 f   libgit2:submodule.obj
 0001:00011e40       _git_tree_entry_cmp        10012e40 f   libgit2:tree.obj
 0001:00012280       _git_tree_entry_free       10013280 f   libgit2:tree.obj
 0001:00012280       _git_index_conflict_iterator_free 10013280 f   libgit2:index.obj
 0001:000122a0       _git_tree_entry_dup        100132a0 f   libgit2:tree.obj
 0001:000122f0       _git_tree__free            100132f0 f   libgit2:tree.obj
 0001:00012330       _git_tree_entry_filemode   10013330 f   libgit2:tree.obj
 0001:00012370       _git_tree_entry_filemode_raw 10013370 f   libgit2:tree.obj
 0001:00012380       _git_tree_entry_name       10013380 f   libgit2:tree.obj
 0001:000123b0       _git_tree_entry_id         100133b0 f   libgit2:tree.obj
 0001:000123e0       _git_tree_entry_type       100133e0 f   libgit2:tree.obj
 0001:00012430       _git_tree_entry_to_object  10013430 f   libgit2:tree.obj
 0001:00012480       _git_tree_entry_byname     10013480 f   libgit2:tree.obj
 0001:000124f0       _git_tree_entry_byindex    100134f0 f   libgit2:tree.obj
 0001:00012530       _git_tree_entry_byid       10013530 f   libgit2:tree.obj
 0001:000125a0       _git_tree_entrycount       100135a0 f   libgit2:tree.obj
 0001:000125d0       _git_treebuilder_entrycount 100135d0 f   libgit2:tree.obj
 0001:00012630       _git_tree__parse           10013630 f   libgit2:tree.obj
 0001:00012cc0       _git_tree__write_index     10013cc0 f   libgit2:tree.obj
 0001:00012de0       _git_treebuilder_new       10013de0 f   libgit2:tree.obj
 0001:00012ed0       _git_treebuilder_insert    10013ed0 f   libgit2:tree.obj
 0001:00013080       _git_treebuilder_get       10014080 f   libgit2:tree.obj
 0001:000130d0       _git_treebuilder_remove    100140d0 f   libgit2:tree.obj
 0001:00013190       _git_treebuilder_write     10014190 f   libgit2:tree.obj
 0001:00013460       _git_treebuilder_filter    10014460 f   libgit2:tree.obj
 0001:00013530       _git_treebuilder_clear     10014530 f   libgit2:tree.obj
 0001:000135e0       _git_treebuilder_free      100145e0 f   libgit2:tree.obj
 0001:00013630       _git_tree_entry_bypath     10014630 f   libgit2:tree.obj
 0001:00013970       _git_tree_walk             10014970 f   libgit2:tree.obj
 0001:00014040       _git_revwalk__commit_lookup 10015040 f   libgit2:revwalk.obj
 0001:000144d0       _git_revwalk_push          100154d0 f   libgit2:revwalk.obj
 0001:00014510       _git_revwalk_hide          10015510 f   libgit2:revwalk.obj
 0001:000147d0       _git_revwalk_push_glob     100157d0 f   libgit2:revwalk.obj
 0001:00014810       _git_revwalk_hide_glob     10015810 f   libgit2:revwalk.obj
 0001:00014850       _git_revwalk_push_head     10015850 f   libgit2:revwalk.obj
 0001:000148d0       _git_revwalk_hide_head     100158d0 f   libgit2:revwalk.obj
 0001:00014950       _git_revwalk_push_ref      10015950 f   libgit2:revwalk.obj
 0001:000149e0       _git_revwalk_push_range    100159e0 f   libgit2:revwalk.obj
 0001:00014ab0       _git_revwalk_hide_ref      10015ab0 f   libgit2:revwalk.obj
 0001:000155b0       _git_revwalk_new           100165b0 f   libgit2:revwalk.obj
 0001:000156b0       _git_revwalk_free          100166b0 f   libgit2:revwalk.obj
 0001:00015780       _git_revwalk_repository    10016780 f   libgit2:revwalk.obj
 0001:000157b0       _git_revwalk_sorting       100167b0 f   libgit2:revwalk.obj
 0001:00015810       _git_revwalk_simplify_first_parent 10016810 f   libgit2:revwalk.obj
 0001:00015820       _git_revwalk_next          10016820 f   libgit2:revwalk.obj
 0001:000158b0       _git_revwalk_reset         100168b0 f   libgit2:revwalk.obj
 0001:000159c0       _git_revwalk_add_hide_cb   100169c0 f   libgit2:revwalk.obj
 0001:00015f50       _git_diff_delta__cmp       10016f50 f   libgit2:diff.obj
 0001:00015fc0       _git_diff_delta__casecmp   10016fc0 f   libgit2:diff.obj
 0001:00016020       _git_diff_delta__i2w_cmp   10017020 f   libgit2:diff.obj
 0001:00016070       _git_diff_delta__i2w_casecmp 10017070 f   libgit2:diff.obj
 0001:000167c0       _git_diff_free             100177c0 f   libgit2:diff.obj
 0001:000167e0       _git_diff__oid_for_file    100177e0 f   libgit2:diff.obj
 0001:00016840       _git_diff__oid_for_entry   10017840 f   libgit2:diff.obj
 0001:000178e0       _git_diff__from_iterators  100188e0 f   libgit2:diff.obj
 0001:00017af0       _git_diff_tree_to_tree     10018af0 f   libgit2:diff.obj
 0001:00017d30       _git_diff_tree_to_index    10018d30 f   libgit2:diff.obj
 0001:00017fd0       _git_diff_index_to_workdir 10018fd0 f   libgit2:diff.obj
 0001:00018270       _git_diff_tree_to_workdir  10019270 f   libgit2:diff.obj
 0001:000184c0       _git_diff_tree_to_workdir_with_index 100194c0 f   libgit2:diff.obj
 0001:000185e0       _git_diff_index_to_index   100195e0 f   libgit2:diff.obj
 0001:00018830       _git_diff_num_deltas       10019830 f   libgit2:diff.obj
 0001:00018860       _git_diff_num_deltas_of_type 10019860 f   libgit2:diff.obj
 0001:00018910       _git_diff_get_delta        10019910 f   libgit2:diff.obj
 0001:00018950       _git_diff_is_sorted_icase  10019950 f   libgit2:diff.obj
 0001:00018960       _git_diff_get_perfdata     10019960 f   libgit2:diff.obj
 0001:000189c0       _git_diff__paired_foreach  100199c0 f   libgit2:diff.obj
 0001:00018c60       _git_diff__commit          10019c60 f   libgit2:diff.obj
 0001:00018db0       _git_diff_format_email__append_header_tobuf 10019db0 f   libgit2:diff.obj
 0001:00018ea0       _git_diff_format_email__append_patches_tobuf 10019ea0 f   libgit2:diff.obj
 0001:00018f50       _git_diff_format_email     10019f50 f   libgit2:diff.obj
 0001:000191a0       _git_diff_commit_as_email  1001a1a0 f   libgit2:diff.obj
 0001:000192b0       _git_diff_init_options     1001a2b0 f   libgit2:diff.obj
 0001:00019370       _git_diff_find_init_options 1001a370 f   libgit2:diff.obj
 0001:000193e0       _git_diff_format_email_init_options 1001a3e0 f   libgit2:diff.obj
 0001:000194d0       _giterr_set_oom            1001a4d0 f   libgit2:errors.obj
 0001:000194e0       _giterr_set                1001a4e0 f   libgit2:errors.obj
 0001:00019600       _giterr_set_str            1001a600 f   libgit2:errors.obj
 0001:000196a0       _giterr_set_regex          1001a6a0 f   libgit2:errors.obj
 0001:00019720       _giterr_clear              1001a720 f   libgit2:errors.obj
 0001:000197a0       _giterr_last               1001a7a0 f   libgit2:errors.obj
 0001:000197b0       _giterr_state_capture      1001a7b0 f   libgit2:errors.obj
 0001:00019860       _giterr_state_restore      1001a860 f   libgit2:errors.obj
 0001:000198b0       _git_repository__cleanup   1001a8b0 f   libgit2:repository.obj
 0001:000199e0       _git_repository_free       1001a9e0 f   libgit2:repository.obj
 0001:00019c20       _git_repository_new        1001ac20 f   libgit2:repository.obj
 0001:0001a3c0       _git_repository_open_bare  1001b3c0 f   libgit2:repository.obj
 0001:0001a500       _git_repository_open_ext   1001b500 f   libgit2:repository.obj
 0001:0001a680       _git_repository_open       1001b680 f   libgit2:repository.obj
 0001:0001a6a0       _git_repository_wrap_odb   1001b6a0 f   libgit2:repository.obj
 0001:0001a6d0       _git_repository_discover   1001b6d0 f   libgit2:repository.obj
 0001:0001a910       _git_repository_config__weakptr 1001b910 f   libgit2:repository.obj
 0001:0001aad0       _git_repository_config     1001bad0 f   libgit2:repository.obj
 0001:0001ab00       _git_repository_config_snapshot 1001bb00 f   libgit2:repository.obj
 0001:0001ab30       _git_repository_set_config 1001bb30 f   libgit2:repository.obj
 0001:0001abb0       _git_repository_odb__weakptr 1001bbb0 f   libgit2:repository.obj
 0001:0001ac90       _git_repository_odb        1001bc90 f   libgit2:repository.obj
 0001:0001acc0       _git_repository_set_odb    1001bcc0 f   libgit2:repository.obj
 0001:0001ad20       _git_repository_refdb__weakptr 1001bd20 f   libgit2:repository.obj
 0001:0001adb0       _git_repository_refdb      1001bdb0 f   libgit2:repository.obj
 0001:0001ade0       _git_repository_set_refdb  1001bde0 f   libgit2:repository.obj
 0001:0001ae50       _git_repository_index__weakptr 1001be50 f   libgit2:repository.obj
 0001:0001af50       _git_repository_index      1001bf50 f   libgit2:repository.obj
 0001:0001af80       _git_repository_set_index  1001bf80 f   libgit2:repository.obj
 0001:0001afe0       _git_repository_set_namespace 1001bfe0 f   libgit2:repository.obj
 0001:0001b030       _git_repository_get_namespace 1001c030 f   libgit2:repository.obj
 0001:0001b0f0       _git_repository__reserved_names 1001c0f0 f   libgit2:repository.obj
 0001:0001bcf0       _git_repository_reinit_filesystem 1001ccf0 f   libgit2:repository.obj
 0001:0001c6b0       _git_repository_init       1001d6b0 f   libgit2:repository.obj
 0001:0001c710       _git_repository_init_ext   1001d710 f   libgit2:repository.obj
 0001:0001c950       _git_repository_head_detached 1001d950 f   libgit2:repository.obj
 0001:0001ca00       _git_repository_head       1001da00 f   libgit2:repository.obj
 0001:0001caa0       _git_repository_head_unborn 1001daa0 f   libgit2:repository.obj
 0001:0001cb40       _git_repository_is_empty   1001db40 f   libgit2:repository.obj
 0001:0001cc30       _git_repository_path       1001dc30 f   libgit2:repository.obj
 0001:0001cc60       _git_repository_workdir    1001dc60 f   libgit2:repository.obj
 0001:0001cc90       _git_repository_set_workdir 1001dc90 f   libgit2:repository.obj
 0001:0001ce20       _git_repository_is_bare    1001de20 f   libgit2:repository.obj
 0001:0001ce50       _git_repository_set_bare   1001de50 f   libgit2:repository.obj
 0001:0001cf30       _git_repository_head_tree  1001df30 f   libgit2:repository.obj
 0001:0001cfb0       _git_repository__set_orig_head 1001dfb0 f   libgit2:repository.obj
 0001:0001d0c0       _git_repository_message    1001e0c0 f   libgit2:repository.obj
 0001:0001d1c0       _git_repository_message_remove 1001e1c0 f   libgit2:repository.obj
 0001:0001d240       _git_repository_hashfile   1001e240 f   libgit2:repository.obj
 0001:0001d5b0       _git_repository_set_head   1001e5b0 f   libgit2:repository.obj
 0001:0001da00       _git_repository_set_head_detached 1001ea00 f   libgit2:repository.obj
 0001:0001da20       _git_repository_set_head_detached_from_annotated 1001ea20 f   libgit2:repository.obj
 0001:0001daa0       _git_repository_detach_head 1001eaa0 f   libgit2:repository.obj
 0001:0001dce0       _git_repository_state      1001ece0 f   libgit2:repository.obj
 0001:0001df00       _git_repository__cleanup_files 1001ef00 f   libgit2:repository.obj
 0001:0001e040       _git_repository_state_cleanup 1001f040 f   libgit2:repository.obj
 0001:0001e080       _git_repository_is_shallow 1001f080 f   libgit2:repository.obj
 0001:0001e1a0       _git_repository_init_init_options 1001f1a0 f   libgit2:repository.obj
 0001:0001e210       _git_repository_ident      1001f210 f   libgit2:repository.obj
 0001:0001e230       _git_repository_set_ident  1001f230 f   libgit2:repository.obj
 0001:0001e330       _git_reference__alloc_symbolic 1001f330 f   libgit2:refs.obj
 0001:0001e3a0       _git_reference__alloc      1001f3a0 f   libgit2:refs.obj
 0001:0001e410       _git_reference__set_name   1001f410 f   libgit2:refs.obj
 0001:0001e490       _git_reference_free        1001f490 f   libgit2:refs.obj
 0001:0001e4e0       _git_reference_delete      1001f4e0 f   libgit2:refs.obj
 0001:0001e540       _git_reference_remove      1001f540 f   libgit2:refs.obj
 0001:0001e590       _git_reference_lookup      1001f590 f   libgit2:refs.obj
 0001:0001e5b0       _git_reference_name_to_id  1001f5b0 f   libgit2:refs.obj
 0001:0001e6e0       _git_reference_lookup_resolved 1001f6e0 f   libgit2:refs.obj
 0001:0001e8e0       _git_reference_dwim        1001f8e0 f   libgit2:refs.obj
 0001:0001eaa0       _git_reference_type        1001faa0 f   libgit2:refs.obj
 0001:0001ead0       _git_reference_name        1001fad0 f   libgit2:refs.obj
 0001:0001eb00       _git_reference_owner       1001fb00 f   libgit2:refs.obj
 0001:0001eb30       _git_reference_target      1001fb30 f   libgit2:refs.obj
 0001:0001eb60       _git_reference_target_peel 1001fb60 f   libgit2:refs.obj
 0001:0001ebb0       _git_reference_symbolic_target 1001fbb0 f   libgit2:refs.obj
 0001:0001edf0       _git_reference__log_signature 1001fdf0 f   libgit2:refs.obj
 0001:0001ee60       _git_reference_create_matching 1001fe60 f   libgit2:refs.obj
 0001:0001ef40       _git_reference_create      1001ff40 f   libgit2:refs.obj
 0001:0001ef70       _git_reference_symbolic_create_matching 1001ff70 f   libgit2:refs.obj
 0001:0001f050       _git_reference_symbolic_create 10020050 f   libgit2:refs.obj
 0001:0001f080       _git_reference_set_target  10020080 f   libgit2:refs.obj
 0001:0001f0f0       _git_reference_symbolic_set_target 100200f0 f   libgit2:refs.obj
 0001:0001f270       _git_reference_rename      10020270 f   libgit2:refs.obj
 0001:0001f320       _git_reference_resolve     10020320 f   libgit2:refs.obj
 0001:0001f3a0       _git_reference_foreach     100203a0 f   libgit2:refs.obj
 0001:0001f4c0       _git_reference_foreach_name 100204c0 f   libgit2:refs.obj
 0001:0001f5f0       _git_reference_foreach_glob 100205f0 f   libgit2:refs.obj
 0001:0001f720       _git_reference_iterator_new 10020720 f   libgit2:refs.obj
 0001:0001f780       _git_reference_iterator_glob_new 10020780 f   libgit2:refs.obj
 0001:0001f7f0       _git_reference_next        100207f0 f   libgit2:refs.obj
 0001:0001f820       _git_config_next           10020820 f   libgit2:config.obj
 0001:0001f820       _git_reference_next_name   10020820 f   libgit2:refs.obj
 0001:0001f830       _git_reference_iterator_free 10020830 f   libgit2:refs.obj
 0001:0001f890       _git_reference_list        10020890 f   libgit2:refs.obj
 0001:0001fa70       _git_reference__normalize_name 10020a70 f   libgit2:refs.obj
 0001:0001fc80       _git_reference_normalize_name 10020c80 f   libgit2:refs.obj
 0001:0001fd20       _git_reference_cmp         10020d20 f   libgit2:refs.obj
 0001:0001fee0       _git_reference__update_terminal 10020ee0 f   libgit2:refs.obj
 0001:000200d0       _git_reference__update_for_commit 100210d0 f   libgit2:refs.obj
 0001:00020270       _git_reference_has_log     10021270 f   libgit2:refs.obj
 0001:000202e0       _git_reference_ensure_log  100212e0 f   libgit2:refs.obj
 0001:00020350       _git_reference__is_branch  10021350 f   libgit2:refs.obj
 0001:00020390       _git_reference_is_branch   10021390 f   libgit2:refs.obj
 0001:000203f0       _git_reference_is_remote   100213f0 f   libgit2:refs.obj
 0001:00020450       _git_reference_is_tag      10021450 f   libgit2:refs.obj
 0001:000204b0       _git_reference_is_note     100214b0 f   libgit2:refs.obj
 0001:00020510       _git_reference_peel        10021510 f   libgit2:refs.obj
 0001:00020690       _git_reference_is_valid_name 10021690 f   libgit2:refs.obj
 0001:000206c0       _git_reference__shorthand  100216c0 f   libgit2:refs.obj
 0001:00020780       _git_reference_shorthand   10021780 f   libgit2:refs.obj
 0001:00020790       ___local_stdio_printf_options 10021790 f i libgit2:util.obj
 0001:000207a0       _git_strarray_free         100217a0 f   libgit2:util.obj
 0001:000207e0       _git_strarray_copy         100217e0 f   libgit2:util.obj
 0001:000208c0       _git__strtol64             100218c0 f   libgit2:util.obj
 0001:00020a80       _git__strtol32             10021a80 f   libgit2:util.obj
 0001:00020ae0       _git__strcmp               10021ae0 f   libgit2:util.obj
 0001:00020b10       _git__strcasecmp           10021b10 f   libgit2:util.obj
 0001:00020b80       _git__strncmp              10021b80 f   libgit2:util.obj
 0001:00020bc0       _git__strncasecmp          10021bc0 f   libgit2:util.obj
 0001:00020c10       _git__strtolower           10021c10 f   libgit2:util.obj
 0001:00020c50       _git__prefixcmp            10021c50 f   libgit2:util.obj
 0001:00020c80       _git__prefixcmp_icase      10021c80 f   libgit2:util.obj
 0001:00020cb0       _git__suffixcmp            10021cb0 f   libgit2:util.obj
 0001:00020d20       _git__strtok               10021d20 f   libgit2:util.obj
 0001:00020da0       _git__strsep               10021da0 f   libgit2:util.obj
 0001:00020df0       _git__bsearch              10021df0 f   libgit2:util.obj
 0001:00020e60       _git__bsearch_r            10021e60 f   libgit2:util.obj
 0001:00020ed0       _git__strcmp_cb            10021ed0 f   libgit2:util.obj
 0001:00020f00       _git__strcasecmp_cb        10021f00 f   libgit2:util.obj
 0001:00020f10       _git__parse_bool           10021f10 f   libgit2:util.obj
 0001:00020fb0       _git__unescape             10021fb0 f   libgit2:util.obj
 0001:00020ff0       _git__insertsort_r         10021ff0 f   libgit2:util.obj
 0001:00021090       _git__utf8_iterate         10022090 f   libgit2:util.obj
 0001:000211d0       _git__getenv               100221d0 f   libgit2:util.obj
 0001:00021700       _git_status_list_new       10022700 f   libgit2:status.obj
 0001:00021a60       _git_status_list_entrycount 10022a60 f   libgit2:status.obj
 0001:00021a90       _git_status_byindex        10022a90 f   libgit2:status.obj
 0001:00021ad0       _git_status_list_free      10022ad0 f   libgit2:status.obj
 0001:00021b40       _git_status_foreach_ext    10022b40 f   libgit2:status.obj
 0001:00021c40       _git_status_foreach        10022c40 f   libgit2:status.obj
 0001:00021cc0       _git_status_file           10022cc0 f   libgit2:status.obj
 0001:00021e00       _git_status_should_ignore  10022e00 f   libgit2:status.obj
 0001:00021e10       _git_status_init_options   10022e10 f   libgit2:status.obj
 0001:00021e70       _git_status_list_get_perfdata 10022e70 f   libgit2:status.obj
 0001:000228c0       _git_index_entry_srch      100238c0 f   libgit2:index.obj
 0001:00022970       _git_index_entry_isrch     10023970 f   libgit2:index.obj
 0001:00022a40       _git_index_entry_cmp       10023a40 f   libgit2:index.obj
 0001:00022aa0       _git_index_entry_icmp      10023aa0 f   libgit2:index.obj
 0001:00022da0       _git_index__set_ignore_case 10023da0 f   libgit2:index.obj
 0001:00022f00       _git_index_open            10023f00 f   libgit2:index.obj
 0001:00023110       _git_index_new             10024110 f   libgit2:index.obj
 0001:00023290       _git_index_free            10024290 f   libgit2:index.obj
 0001:00023490       _git_index_clear           10024490 f   libgit2:index.obj
 0001:00023570       _git_index_set_caps        10024570 f   libgit2:index.obj
 0001:000236f0       _git_index_caps            100246f0 f   libgit2:index.obj
 0001:00023720       _git_index_checksum        10024720 f   libgit2:index.obj
 0001:00023860       _git_index_read            10024860 f   libgit2:index.obj
 0001:00023ba0       _git_index_write           10024ba0 f   libgit2:index.obj
 0001:00023c90       _git_index_path            10024c90 f   libgit2:index.obj
 0001:00023cc0       _git_index_write_tree      10024cc0 f   libgit2:index.obj
 0001:00023d20       _git_index_write_tree_to   10024d20 f   libgit2:index.obj
 0001:00023d70       _git_index_entrycount      10024d70 f   libgit2:index.obj
 0001:00023da0       _git_index_get_byindex     10024da0 f   libgit2:index.obj
 0001:00023e20       _git_index_get_bypath      10024e20 f   libgit2:index.obj
 0001:00023ec0       _git_index_entry__init_from_stat 10024ec0 f   libgit2:index.obj
 0001:00024e50       _git_index_add_frombuffer  10025e50 f   libgit2:index.obj
 0001:00025150       _git_index_add_bypath      10026150 f   libgit2:index.obj
 0001:000252a0       _git_index_remove_bypath   100262a0 f   libgit2:index.obj
 0001:00025310       _git_index__fill           10026310 f   libgit2:index.obj
 0001:00025560       _git_index_add             10026560 f   libgit2:index.obj
 0001:00025640       _git_index_remove          10026640 f   libgit2:index.obj
 0001:000257b0       _git_index_remove_directory 100267b0 f   libgit2:index.obj
 0001:00025900       _git_index_find_prefix     10026900 f   libgit2:index.obj
 0001:00025990       _git_index__find_pos       10026990 f   libgit2:index.obj
 0001:000259e0       _git_index_find            100269e0 f   libgit2:index.obj
 0001:00025aa0       _git_index_conflict_add    10026aa0 f   libgit2:index.obj
 0001:00025e20       _git_index_conflict_get    10026e20 f   libgit2:index.obj
 0001:00025f70       _git_index_conflict_remove 10026f70 f   libgit2:index.obj
 0001:00025fb0       _git_index_conflict_cleanup 10026fb0 f   libgit2:index.obj
 0001:00026010       _git_index_has_conflicts   10027010 f   libgit2:index.obj
 0001:00026060       _git_index_conflict_iterator_new 10027060 f   libgit2:index.obj
 0001:000260c0       _git_index_conflict_next   100270c0 f   libgit2:index.obj
 0001:000261f0       _git_index_name_entrycount 100271f0 f   libgit2:index.obj
 0001:00026220       _git_index_name_get_byindex 10027220 f   libgit2:index.obj
 0001:000262a0       _git_index_name_add        100272a0 f   libgit2:index.obj
 0001:000263b0       _git_index_name_clear      100273b0 f   libgit2:index.obj
 0001:00026450       _git_index_reuc_entrycount 10027450 f   libgit2:index.obj
 0001:00026510       _git_index_reuc_add        10027510 f   libgit2:index.obj
 0001:000265a0       _git_index_reuc_find       100275a0 f   libgit2:index.obj
 0001:000265d0       _git_index_reuc_get_bypath 100275d0 f   libgit2:index.obj
 0001:00026670       _git_index_reuc_get_byindex 10027670 f   libgit2:index.obj
 0001:000266d0       _git_index_reuc_remove     100276d0 f   libgit2:index.obj
 0001:00026770       _git_index_reuc_clear      10027770 f   libgit2:index.obj
 0001:00027ac0       _git_index_entry_stage     10028ac0 f   libgit2:index.obj
 0001:00027ad0       _git_index_entry_is_conflict 10028ad0 f   libgit2:index.obj
 0001:00027ca0       _git_index_read_tree       10028ca0 f   libgit2:index.obj
 0001:00027fa0       _git_index_owner           10028fa0 f   libgit2:index.obj
 0001:00027fa0       _git_filter_source_path    10028fa0 f   libgit2:filter.obj
 0001:00027fb0       _git_index_add_all         10028fb0 f   libgit2:index.obj
 0001:000285b0       _git_index_remove_all      100295b0 f   libgit2:index.obj
 0001:00028610       _git_index_update_all      10029610 f   libgit2:index.obj
 0001:00028670       _git_index_snapshot_new    10029670 f   libgit2:index.obj
 0001:00028700       _git_index_snapshot_release 10029700 f   libgit2:index.obj
 0001:00028770       _git_indexwriter_init      10029770 f   libgit2:index.obj
 0001:000287e0       _git_indexwriter_commit    100297e0 f   libgit2:index.obj
 0001:00029530       _git_diff_foreach          1002a530 f   libgit2:diff_patch.obj
 0001:00029bd0       _git_diff_blobs            1002abd0 f   libgit2:diff_patch.obj
 0001:00029c40       _git_patch_from_blobs      1002ac40 f   libgit2:diff_patch.obj
 0001:00029ca0       _git_diff_blob_to_buffer   1002aca0 f   libgit2:diff_patch.obj
 0001:00029d10       _git_patch_from_blob_and_buffer 1002ad10 f   libgit2:diff_patch.obj
 0001:00029d70       _git_diff_buffers          1002ad70 f   libgit2:diff_patch.obj
 0001:00029de0       _git_patch_from_buffers    1002ade0 f   libgit2:diff_patch.obj
 0001:00029e40       _git_patch_from_diff       1002ae40 f   libgit2:diff_patch.obj
 0001:00029f90       _git_patch_free            1002af90 f   libgit2:diff_patch.obj
 0001:00029fb0       _git_patch_get_delta       1002afb0 f   libgit2:diff_patch.obj
 0001:00029fe0       _git_patch_num_hunks       1002afe0 f   libgit2:diff_patch.obj
 0001:0002a010       _git_patch_line_stats      1002b010 f   libgit2:diff_patch.obj
 0001:0002a0a0       _git_patch_get_hunk        1002b0a0 f   libgit2:diff_patch.obj
 0001:0002a130       _git_patch_num_lines_in_hunk 1002b130 f   libgit2:diff_patch.obj
 0001:0002a190       _git_patch_get_line_in_hunk 1002b190 f   libgit2:diff_patch.obj
 0001:0002a250       _git_patch_size            1002b250 f   libgit2:diff_patch.obj
 0001:0002a360       _git_patch__invoke_callbacks 1002b360 f   libgit2:diff_patch.obj
 0001:0002ad50       _git_ignore__for_path      1002bd50 f   libgit2:ignore.obj
 0001:0002af60       _git_ignore__push_dir      1002bf60 f   libgit2:ignore.obj
 0001:0002b000       _git_ignore__pop_dir       1002c000 f   libgit2:ignore.obj
 0001:0002b100       _git_ignore__free          1002c100 f   libgit2:ignore.obj
 0001:0002b440       _git_ignore__lookup        1002c440 f   libgit2:ignore.obj
 0001:0002b530       _git_ignore_add_rule       1002c530 f   libgit2:ignore.obj
 0001:0002b5c0       _git_ignore_clear_internal_rules 1002c5c0 f   libgit2:ignore.obj
 0001:0002b6d0       _git_ignore_path_is_ignored 1002c6d0 f   libgit2:ignore.obj
 0001:0002b8a0       _git_ignore__check_pathspec_for_exact_ignores 1002c8a0 f   libgit2:ignore.obj
 0001:0002ba40       _git_config_entry_free     1002ca40 f   libgit2:config.obj
 0001:0002ba40       _git_config_iterator_free  1002ca40 f   libgit2:config.obj
 0001:0002bb00       _git_config_free           1002cb00 f   libgit2:config.obj
 0001:0002bb30       _git_config_new            1002cb30 f   libgit2:config.obj
 0001:0002bbe0       _git_config_add_file_ondisk 1002cbe0 f   libgit2:config.obj
 0001:0002bc90       _git_config_open_ondisk    1002cc90 f   libgit2:config.obj
 0001:0002bd00       _git_config_snapshot       1002cd00 f   libgit2:config.obj
 0001:0002bfc0       _git_config_open_global    1002cfc0 f   libgit2:config.obj
 0001:0002bff0       _git_config_open_level     1002cff0 f   libgit2:config.obj
 0001:0002c070       _git_config_add_backend    1002d070 f   libgit2:config.obj
 0001:0002c2e0       _git_config_iterator_new   1002d2e0 f   libgit2:config.obj
 0001:0002c330       _git_config_iterator_glob_new 1002d330 f   libgit2:config.obj
 0001:0002c3e0       _git_config_foreach        1002d3e0 f   libgit2:config.obj
 0001:0002c400       _git_config_backend_foreach_match 1002d400 f   libgit2:config.obj
 0001:0002c600       _git_config_foreach_match  1002d600 f   libgit2:config.obj
 0001:0002c6c0       _git_config_delete_entry   1002d6c0 f   libgit2:config.obj
 0001:0002c710       _git_config_set_int64      1002d710 f   libgit2:config.obj
 0001:0002c770       _git_config_set_int32      1002d770 f   libgit2:config.obj
 0001:0002c7d0       _git_config_set_bool       1002d7d0 f   libgit2:config.obj
 0001:0002c7f0       _git_config_set_string     1002d7f0 f   libgit2:config.obj
 0001:0002c870       _git_config__update_entry  1002d870 f   libgit2:config.obj
 0001:0002ca10       _git_config_get_entry      1002da10 f   libgit2:config.obj
 0001:0002ca30       _git_config_get_mapped     1002da30 f   libgit2:config.obj
 0001:0002ca80       _git_config_get_int64      1002da80 f   libgit2:config.obj
 0001:0002cad0       _git_config_get_int32      1002dad0 f   libgit2:config.obj
 0001:0002cb60       _git_config_get_bool       1002db60 f   libgit2:config.obj
 0001:0002cbb0       _git_config_get_path       1002dbb0 f   libgit2:config.obj
 0001:0002cc00       _git_config_get_string     1002dc00 f   libgit2:config.obj
 0001:0002cc90       _git_config_get_string_buf 1002dc90 f   libgit2:config.obj
 0001:0002cd40       _git_config__get_string_force 1002dd40 f   libgit2:config.obj
 0001:0002ce00       _git_config__get_bool_force 1002de00 f   libgit2:config.obj
 0001:0002cec0       _git_config__get_int_force 1002dec0 f   libgit2:config.obj
 0001:0002cfb0       _git_config_get_multivar_foreach 1002dfb0 f   libgit2:config.obj
 0001:0002d150       _multivar_iter_free        1002e150 f   libgit2:config.obj
 0001:0002d1c0       _git_config_multivar_iterator_new 1002e1c0 f   libgit2:config.obj
 0001:0002d2a0       _git_config_set_multivar   1002e2a0 f   libgit2:config.obj
 0001:0002d2f0       _git_config_delete_multivar 1002e2f0 f   libgit2:config.obj
 0001:0002d330       _git_config_find_global    1002e330 f   libgit2:config.obj
 0001:0002d390       _git_config_find_xdg       1002e390 f   libgit2:config.obj
 0001:0002d3f0       _git_config_find_system    1002e3f0 f   libgit2:config.obj
 0001:0002d450       _git_config_find_programdata 1002e450 f   libgit2:config.obj
 0001:0002d4b0       _git_config__global_location 1002e4b0 f   libgit2:config.obj
 0001:0002d520       _git_config_open_default   1002e520 f   libgit2:config.obj
 0001:0002d670       _git_config_lock           1002e670 f   libgit2:config.obj
 0001:0002d6c0       _git_config_unlock         1002e6c0 f   libgit2:config.obj
 0001:0002d700       _git_config_lookup_map_value 1002e700 f   libgit2:config.obj
 0001:0002d7b0       _git_config_parse_bool     1002e7b0 f   libgit2:config.obj
 0001:0002d840       _git_config_parse_int64    1002e840 f   libgit2:config.obj
 0001:0002d990       _git_config_parse_int32    1002e990 f   libgit2:config.obj
 0001:0002d9f0       _git_config_parse_path     1002e9f0 f   libgit2:config.obj
 0001:0002daf0       _git_config__normalize_name 1002eaf0 f   libgit2:config.obj
 0001:0002dcc0       _git_config_rename_section 1002ecc0 f   libgit2:config.obj
 0001:0002de10       _git_config_init_backend   1002ee10 f   libgit2:config.obj
 0001:0002df00       _merge_bases_many          1002ef00 f   libgit2:merge.obj
 0001:0002e040       _git_merge_base_many       1002f040 f   libgit2:merge.obj
 0001:0002e0e0       _git_merge_bases_many      1002f0e0 f   libgit2:merge.obj
 0001:0002e1f0       _git_merge_base_octopus    1002f1f0 f   libgit2:merge.obj
 0001:0002e400       _git_merge_base            1002f400 f   libgit2:merge.obj
 0001:0002e470       _git_merge_bases           1002f470 f   libgit2:merge.obj
 0001:0002ec90       _git_merge__bases_many     1002fc90 f   libgit2:merge.obj
 0001:0002ef10       _git_repository_mergehead_foreach 1002ff10 f   libgit2:merge.obj
 0001:0002ff50       _git_merge_diff_list__find_renames 10030f50 f   libgit2:merge.obj
 0001:00030630       _git_merge_diff_list__find_differences 10031630 f   libgit2:merge.obj
 0001:00030690       _git_merge_diff_list__alloc 10031690 f   libgit2:merge.obj
 0001:00030710       _git_merge_diff_list__free 10031710 f   libgit2:merge.obj
 0001:00030dd0       _git_merge__iterators      10031dd0 f   libgit2:merge.obj
 0001:000310c0       _git_merge_trees           100320c0 f   libgit2:merge.obj
 0001:000316e0       _git_merge_commits         100326e0 f   libgit2:merge.obj
 0001:000320b0       _git_merge__setup          100330b0 f   libgit2:merge.obj
 0001:00032740       _git_merge__check_result   10033740 f   libgit2:merge.obj
 0001:00032b20       _git_merge__append_conflicts_to_merge_msg 10033b20 f   libgit2:merge.obj
 0001:00032ec0       _git_merge_analysis        10033ec0 f   libgit2:merge.obj
 0001:00033000       _git_merge                 10034000 f   libgit2:merge.obj
 0001:000332f0       _git_merge_init_options    100342f0 f   libgit2:merge.obj
 0001:00033360       _git_merge_file_init_input 10034360 f   libgit2:merge.obj
 0001:000333c0       _git_merge_file_init_options 100343c0 f   libgit2:merge.obj
 0001:00033430       _git_commit_lookup         10034430 f   libgit2:object_api.obj
 0001:00033450       _git_commit_lookup_prefix  10034450 f   libgit2:object_api.obj
 0001:00033470       _git_commit_free           10034470 f   libgit2:object_api.obj
 0001:00033470       _git_tag_free              10034470 f   libgit2:object_api.obj
 0001:00033470       _git_odb_object_free       10034470 f   libgit2:odb.obj
 0001:00033470       _git_blob_free             10034470 f   libgit2:object_api.obj
 0001:00033470       _git_object_free           10034470 f   libgit2:object.obj
 0001:00033470       _git_tree_free             10034470 f   libgit2:object_api.obj
 0001:00033480       _git_commit_id             10034480 f   libgit2:object_api.obj
 0001:00033480       _git_tree_id               10034480 f   libgit2:object_api.obj
 0001:00033480       _git_blob_id               10034480 f   libgit2:object_api.obj
 0001:00033480       _git_object_id             10034480 f   libgit2:object.obj
 0001:00033480       _git_tag_id                10034480 f   libgit2:object_api.obj
 0001:000334b0       _git_tag_owner             100344b0 f   libgit2:object_api.obj
 0001:000334b0       _git_tree_owner            100344b0 f   libgit2:object_api.obj
 0001:000334b0       _git_object_owner          100344b0 f   libgit2:object.obj
 0001:000334b0       _git_blob_owner            100344b0 f   libgit2:object_api.obj
 0001:000334b0       _git_commit_owner          100344b0 f   libgit2:object_api.obj
 0001:000334e0       _git_tree_lookup           100344e0 f   libgit2:object_api.obj
 0001:00033500       _git_tree_lookup_prefix    10034500 f   libgit2:object_api.obj
 0001:00033520       _git_tag_lookup            10034520 f   libgit2:object_api.obj
 0001:00033540       _git_tag_lookup_prefix     10034540 f   libgit2:object_api.obj
 0001:00033560       _git_blob_lookup           10034560 f   libgit2:object_api.obj
 0001:00033580       _git_blob_lookup_prefix    10034580 f   libgit2:object_api.obj
 0001:000335a0       _git_blob_rawcontent       100345a0 f   libgit2:blob.obj
 0001:000335d0       _git_blob_rawsize          100345d0 f   libgit2:blob.obj
 0001:00033600       _git_blob__free            10034600 f   libgit2:blob.obj
 0001:00033620       _git_blob__parse           10034620 f   libgit2:blob.obj
 0001:00033650       _git_blob_create_frombuffer 10034650 f   libgit2:blob.obj
 0001:00033a90       _git_blob__create_from_paths 10034a90 f   libgit2:blob.obj
 0001:00033d70       _git_blob_create_fromworkdir 10034d70 f   libgit2:blob.obj
 0001:00033d90       _git_blob_create_fromdisk  10034d90 f   libgit2:blob.obj
 0001:00033ea0       _git_blob_create_fromchunks 10034ea0 f   libgit2:blob.obj
 0001:00034100       _git_blob_is_binary        10035100 f   libgit2:blob.obj
 0001:00034180       _git_blob_filtered_content 10035180 f   libgit2:blob.obj
 0001:000342e0       _git_libgit2_init          100352e0 f   libgit2:global.obj
 0001:00034370       _git_libgit2_shutdown      10035370 f   libgit2:global.obj
 0001:00034410       _git__global_state         10035410 f   libgit2:global.obj
 0001:00034490       _DllMain@12                10035490 f   libgit2:global.obj
 0001:000344f0       _git_object__from_odb_object 100354f0 f   libgit2:object.obj
 0001:00034630       _git_object_lookup_prefix  10035630 f   libgit2:object.obj
 0001:00034830       _git_object_lookup         10035830 f   libgit2:object.obj
 0001:00034850       _git_object_type           10035850 f   libgit2:object.obj
 0001:00034880       _git_object_type2string    10035880 f   libgit2:object.obj
 0001:000348a0       _git_object_string2type    100358a0 f   libgit2:object.obj
 0001:00034910       _git_object_typeisloose    10035910 f   libgit2:object.obj
 0001:00034930       _git_object__size          10035930 f   libgit2:object.obj
 0001:000349c0       _git_object_peel           100359c0 f   libgit2:object.obj
 0001:00034c30       _git_odb_object_dup        10035c30 f   libgit2:odb.obj
 0001:00034c30       _git_object_dup            10035c30 f   libgit2:object.obj
 0001:00034c50       _git_object_lookup_bypath  10035c50 f   libgit2:object.obj
 0001:00034d50       _git_object_short_id       10035d50 f   libgit2:object.obj
 0001:00034f40       _git_object__is_valid      10035f40 f   libgit2:object.obj
 0001:00034fc0       _git_oid_fromstrn          10035fc0 f   libgit2:oid.obj
 0001:00035070       _git_oid_fromstrp          10036070 f   libgit2:oid.obj
 0001:000350a0       _git_oid_fromstr           100360a0 f   libgit2:oid.obj
 0001:00035130       _git_oid_nfmt              10036130 f   libgit2:oid.obj
 0001:000351e0       _git_oid_fmt               100361e0 f   libgit2:oid.obj
 0001:00035200       _git_oid_pathfmt           10036200 f   libgit2:oid.obj
 0001:00035260       _git_oid_tostr_s           10036260 f   libgit2:oid.obj
 0001:00035280       _git_oid_tostr             10036280 f   libgit2:oid.obj
 0001:000352c0       _git_oid__parse            100362c0 f   libgit2:oid.obj
 0001:00035370       _git_oid__writebuf         10036370 f   libgit2:oid.obj
 0001:000354a0       _git_oid_fromraw           100364a0 f   libgit2:oid.obj
 0001:000354a0       _git_oid_cpy               100364a0 f   libgit2:oid.obj
 0001:000354c0       _git_oid_cmp               100364c0 f   libgit2:oid.obj
 0001:000354f0       _git_oid_equal             100364f0 f   libgit2:oid.obj
 0001:00035530       _git_oid_ncmp              10036530 f   libgit2:oid.obj
 0001:00035580       _git_oid_strcmp            10036580 f   libgit2:oid.obj
 0001:000355f0       _git_oid_streq             100365f0 f   libgit2:oid.obj
 0001:00035610       _git_oid_iszero            10036610 f   libgit2:oid.obj
 0001:00035720       _git_oid_shorten_new       10036720 f   libgit2:oid.obj
 0001:000357a0       _git_oid_shorten_free      100367a0 f   libgit2:oid.obj
 0001:000357c0       _git_oid_shorten_add       100367c0 f   libgit2:oid.obj
 0001:00035b80       _git_branch_create         10036b80 f   libgit2:branch.obj
 0001:00035be0       _git_branch_create_from_annotated 10036be0 f   libgit2:branch.obj
 0001:00035c10       _git_branch_delete         10036c10 f   libgit2:branch.obj
 0001:00035d90       _git_branch_next           10036d90 f   libgit2:branch.obj
 0001:00035ed0       _git_branch_iterator_new   10036ed0 f   libgit2:branch.obj
 0001:00035f60       _git_branch_iterator_free  10036f60 f   libgit2:branch.obj
 0001:00035fa0       _git_branch_move           10036fa0 f   libgit2:branch.obj
 0001:000361d0       _git_branch_lookup         100371d0 f   libgit2:branch.obj
 0001:00036220       _git_branch_name           10037220 f   libgit2:branch.obj
 0001:00036320       _git_branch_upstream_name  10037320 f   libgit2:branch.obj
 0001:00036650       _git_branch_upstream_remote 10037650 f   libgit2:branch.obj
 0001:00036790       _git_branch_remote_name    10037790 f   libgit2:branch.obj
 0001:000369e0       _git_branch_upstream       100379e0 f   libgit2:branch.obj
 0001:00036ba0       _git_branch_set_upstream   10037ba0 f   libgit2:branch.obj
 0001:00036eb0       _git_branch_is_head        10037eb0 f   libgit2:branch.obj
 0001:00037320       _git_iterator_for_nothing  10038320 f   libgit2:iterator.obj
 0001:000382d0       _git_iterator_for_tree     100392d0 f   libgit2:iterator.obj
 0001:00038950       _git_iterator_for_index    10039950 f   libgit2:iterator.obj
 0001:00039680       _git_iterator_for_filesystem 1003a680 f   libgit2:iterator.obj
 0001:00039c30       _git_iterator_for_workdir_ext 1003ac30 f   libgit2:iterator.obj
 0001:00039ed0       _git_iterator_free         1003aed0 f   libgit2:iterator.obj
 0001:00039fc0       _git_iterator_current_is_ignored 1003afc0 f   libgit2:iterator.obj
 0001:00039ff0       _git_iterator_advance_over_with_status 1003aff0 f   libgit2:iterator.obj
 0001:0003a1a0       _git_iterator_walk         1003b1a0 f   libgit2:iterator.obj
 0001:0003a7a0       _git_filter_global_init    1003b7a0 f   libgit2:filter.obj
 0001:0003aa20       _git_filter_register       1003ba20 f   libgit2:filter.obj
 0001:0003aac0       _git_filter_unregister     1003bac0 f   libgit2:filter.obj
 0001:0003ac20       _git_filter_lookup         1003bc20 f   libgit2:filter.obj
 0001:0003acb0       _git_hashsig_free          1003bcb0 f   libgit2:hashsig.obj
 0001:0003acb0       _git_filter_free           1003bcb0 f   libgit2:filter.obj
 0001:0003acb0       ??3@YAXPAX@Z               1003bcb0 f   LIBCMT:delete_scalar.obj
 0001:0003acc0       _git_filter_source_repo    1003bcc0 f   libgit2:filter.obj
 0001:0003acd0       _git_filter_source_filemode 1003bcd0 f   libgit2:filter.obj
 0001:0003ace0       _git_filter_source_id      1003bce0 f   libgit2:filter.obj
 0001:0003ad20       _git_odb_object_data       1003bd20 f   libgit2:odb.obj
 0001:0003ad20       _git_filter_source_mode    1003bd20 f   libgit2:filter.obj
 0001:0003ad30       _git_filter_source_flags   1003bd30 f   libgit2:filter.obj
 0001:0003af80       _git_filter_list_new       1003bf80 f   libgit2:filter.obj
 0001:0003afd0       _git_filter_list__load_ext 1003bfd0 f   libgit2:filter.obj
 0001:0003b230       _git_filter_list_load      1003c230 f   libgit2:filter.obj
 0001:0003b270       _git_filter_list_free      1003c270 f   libgit2:filter.obj
 0001:0003b2e0       _git_filter_list_contains  1003c2e0 f   libgit2:filter.obj
 0001:0003b370       _git_filter_list_push      1003c370 f   libgit2:filter.obj
 0001:0003b4a0       _git_filter_list_length    1003c4a0 f   libgit2:filter.obj
 0001:0003b560       _git_filter_list_apply_to_data 1003c560 f   libgit2:filter.obj
 0001:0003b690       _git_filter_list_apply_to_file 1003c690 f   libgit2:filter.obj
 0001:0003b730       _git_filter_list_apply_to_blob 1003c730 f   libgit2:filter.obj
 0001:0003baf0       _stream_list_free          1003caf0 f   libgit2:filter.obj
 0001:0003bb40       _git_filter_list_stream_file 1003cb40 f   libgit2:filter.obj
 0001:0003bd00       _git_filter_list_stream_data 1003cd00 f   libgit2:filter.obj
 0001:0003bdb0       _git_filter_list_stream_blob 1003cdb0 f   libgit2:filter.obj
 0001:0003be60       _git_vector_dup            1003ce60 f   libgit2:vector.obj
 0001:0003bf20       _git_vector_free           1003cf20 f   libgit2:vector.obj
 0001:0003bf60       _git_vector_free_deep      1003cf60 f   libgit2:vector.obj
 0001:0003bfd0       _git_vector_init           1003cfd0 f   libgit2:vector.obj
 0001:0003c070       _git_vector_insert         1003d070 f   libgit2:vector.obj
 0001:0003c130       _git_vector_insert_sorted  1003d130 f   libgit2:vector.obj
 0001:0003c250       _git_vector_sort           1003d250 f   libgit2:vector.obj
 0001:0003c2a0       _git_vector_bsearch2       1003d2a0 f   libgit2:vector.obj
 0001:0003c320       _git_vector_search2        1003d320 f   libgit2:vector.obj
 0001:0003c3b0       _git_vector_remove         1003d3b0 f   libgit2:vector.obj
 0001:0003c410       _git_vector_uniq           1003d410 f   libgit2:vector.obj
 0001:0003c4c0       _git_vector_clear          1003d4c0 f   libgit2:vector.obj
 0001:0003c4f0       _git_vector_swap           1003d4f0 f   libgit2:vector.obj
 0001:0003c540       _git_vector_resize_to      1003d540 f   libgit2:vector.obj
 0001:0003c5b0       _git_pool_init             1003d5b0 f   libgit2:pool.obj
 0001:0003c620       _git_pool_clear            1003d620 f   libgit2:pool.obj
 0001:0003c6d0       _git_pool_malloc           1003d6d0 f   libgit2:pool.obj
 0001:0003c700       _git_pool_mallocz          1003d700 f   libgit2:pool.obj
 0001:0003c740       _git_pool_strndup          1003d740 f   libgit2:pool.obj
 0001:0003c7c0       _git_pool_strdup           1003d7c0 f   libgit2:pool.obj
 0001:0003c810       _git_pool_strdup_safe      1003d810 f   libgit2:pool.obj
 0001:0003c860       _git_pool_strcat           1003d860 f   libgit2:pool.obj
 0001:0003c8f0       _git_buf_try_grow          1003d8f0 f   libgit2:buffer.obj
 0001:0003c9e0       _git_buf_grow              1003d9e0 f   libgit2:buffer.obj
 0001:0003ca00       _git_buf_free              1003da00 f   libgit2:buffer.obj
 0001:0003ca40       _git_buf_sanitize          1003da40 f   libgit2:buffer.obj
 0001:0003ca80       _git_buf_clear             1003da80 f   libgit2:buffer.obj
 0001:0003cab0       _git_buf_set               1003dab0 f   libgit2:buffer.obj
 0001:0003cb50       _git_buf_is_binary         1003db50 f   libgit2:buffer.obj
 0001:0003cb60       _git_buf_contains_nul      1003db60 f   libgit2:buffer.obj
 0001:0003cb80       _git_buf_sets              1003db80 f   libgit2:buffer.obj
 0001:0003cbc0       _git_buf_putc              1003dbc0 f   libgit2:buffer.obj
 0001:0003cc20       _git_buf_putcn             1003dc20 f   libgit2:buffer.obj
 0001:0003cc90       _git_buf_put               1003dc90 f   libgit2:buffer.obj
 0001:0003cd20       _git_buf_puts              1003dd20 f   libgit2:buffer.obj
 0001:0003cd70       _git_buf_encode_base64     1003dd70 f   libgit2:buffer.obj
 0001:0003cf20       _git_buf_encode_base85     1003df20 f   libgit2:buffer.obj
 0001:0003d0b0       _git_buf_vprintf           1003e0b0 f   libgit2:buffer.obj
 0001:0003d1c0       _git_buf_printf            1003e1c0 f   libgit2:buffer.obj
 0001:0003d1e0       _git_buf_copy_cstr         1003e1e0 f   libgit2:buffer.obj
 0001:0003d240       _git_buf_truncate          1003e240 f   libgit2:buffer.obj
 0001:0003d260       _git_buf_shorten           1003e260 f   libgit2:buffer.obj
 0001:0003d2b0       _git_buf_rtruncate_at_char 1003e2b0 f   libgit2:buffer.obj
 0001:0003d300       _git_buf_detach            1003e300 f   libgit2:buffer.obj
 0001:0003d330       _git_buf_attach            1003e330 f   libgit2:buffer.obj
 0001:0003d3b0       _git_buf_attach_notowned   1003e3b0 f   libgit2:buffer.obj
 0001:0003d410       _git_buf_join              1003e410 f   libgit2:buffer.obj
 0001:0003d5c0       _git_buf_join3             1003e5c0 f   libgit2:buffer.obj
 0001:0003d800       _git_buf_rtrim             1003e800 f   libgit2:buffer.obj
 0001:0003dab0       _git_filebuf_cleanup       1003eab0 f   libgit2:filebuf.obj
 0001:0003dfd0       _git_filebuf_open          1003efd0 f   libgit2:filebuf.obj
 0001:0003e2b0       _git_filebuf_hash          1003f2b0 f   libgit2:filebuf.obj
 0001:0003e360       _git_filebuf_commit_at     1003f360 f   libgit2:filebuf.obj
 0001:0003e3b0       _git_filebuf_commit        1003f3b0 f   libgit2:filebuf.obj
 0001:0003e4f0       _git_filebuf_write         1003f4f0 f   libgit2:filebuf.obj
 0001:0003e5b0       _git_filebuf_reserve       1003f5b0 f   libgit2:filebuf.obj
 0001:0003e630       _git_filebuf_printf        1003f630 f   libgit2:filebuf.obj
 0001:0003ea60       _git_path_dirname_r        1003fa60 f   libgit2:path.obj
 0001:0003eb40       _git_path_root             1003fb40 f   libgit2:path.obj
 0001:0003ebc0       _git_path_trim_slashes     1003fbc0 f   libgit2:path.obj
 0001:0003ec10       _git_path_join_unrooted    1003fc10 f   libgit2:path.obj
 0001:0003ece0       _git_path_prettify         1003fce0 f   libgit2:path.obj
 0001:0003ee20       _git_path_prettify_dir     1003fe20 f   libgit2:path.obj
 0001:0003ee70       _git_path_to_dir           1003fe70 f   libgit2:path.obj
 0001:0003eea0       _git__percent_decode       1003fea0 f   libgit2:path.obj
 0001:0003f030       _git_path_fromurl          10040030 f   libgit2:path.obj
 0001:0003f0c0       _git_path_walk_up          100400c0 f   libgit2:path.obj
 0001:0003f270       _git_path_exists           10040270 f   libgit2:path.obj
 0001:0003f2f0       _git_path_isdir            100402f0 f   libgit2:path.obj
 0001:0003f330       _git_path_isfile           10040330 f   libgit2:path.obj
 0001:0003f380       _git_path_is_empty_dir     10040380 f   libgit2:path.obj
 0001:0003f480       _git_path_set_error        10040480 f   libgit2:path.obj
 0001:0003f5b0       _git_path_find_dir         100405b0 f   libgit2:path.obj
 0001:0003f690       _git_path_resolve_relative 10040690 f   libgit2:path.obj
 0001:0003f810       _git_path_make_relative    10040810 f   libgit2:path.obj
 0001:0003fa90       _git_path_direach          10040a90 f   libgit2:path.obj
 0001:0003fbf0       _git_path_diriter_init     10040bf0 f   libgit2:path.obj
 0001:0003fe90       _git_path_diriter_next     10040e90 f   libgit2:path.obj
 0001:0003ff20       _git_path_diriter_free     10040f20 f   libgit2:path.obj
 0001:0003ff90       _git_path_from_url_or_path 10040f90 f   libgit2:path.obj
 0001:00040540       _git_path_isvalid          10041540 f   libgit2:path.obj
 0001:000405b0       _git_path_normalize_slashes 100415b0 f   libgit2:path.obj
 0001:00040620       _git_pathspec_prefix       10041620 f   libgit2:pathspec.obj
 0001:000406f0       _git_pathspec__vinit       100416f0 f   libgit2:pathspec.obj
 0001:00040a40       _git_pathspec__match       10041a40 f   libgit2:pathspec.obj
 0001:00040b20       _git_pathspec__clear       10041b20 f   libgit2:pathspec.obj
 0001:00040b70       _git_pathspec_new          10041b70 f   libgit2:pathspec.obj
 0001:00040c40       _git_pathspec_free         10041c40 f   libgit2:pathspec.obj
 0001:00040c60       _git_pathspec_matches_path 10041c60 f   libgit2:pathspec.obj
 0001:000413a0       _git_pathspec_match_workdir 100423a0 f   libgit2:pathspec.obj
 0001:00041440       _git_pathspec_match_index  10042440 f   libgit2:pathspec.obj
 0001:000414e0       _git_pathspec_match_tree   100424e0 f   libgit2:pathspec.obj
 0001:00041580       _git_pathspec_match_diff   10042580 f   libgit2:pathspec.obj
 0001:00041850       _git_pathspec_match_list_free 10042850 f   libgit2:pathspec.obj
 0001:00041860       _git_pathspec_match_list_entrycount 10042860 f   libgit2:pathspec.obj
 0001:00041870       _git_pathspec_match_list_entry 10042870 f   libgit2:pathspec.obj
 0001:000418a0       _git_pathspec_match_list_diff_entry 100428a0 f   libgit2:pathspec.obj
 0001:000418d0       _git_pathspec_match_list_failed_entrycount 100428d0 f   libgit2:pathspec.obj
 0001:000418e0       _git_pathspec_match_list_failed_entry 100428e0 f   libgit2:pathspec.obj
 0001:00041910       _p_read                    10042910 f   libgit2:posix.obj
 0001:00041970       _p_write                   10042970 f   libgit2:posix.obj
 0001:00041ee0       _git_futils_mktmp          10042ee0 f   libgit2:fileops.obj
 0001:00042010       _git_futils_open_ro        10043010 f   libgit2:fileops.obj
 0001:00042040       _git_futils_readbuffer_fd  10043040 f   libgit2:fileops.obj
 0001:000420e0       _git_futils_readbuffer_updated 100430e0 f   libgit2:fileops.obj
 0001:00042370       _git_futils_writebuffer    10043370 f   libgit2:fileops.obj
 0001:00042650       _git_futils_mkdir          10043650 f   libgit2:fileops.obj
 0001:00042930       _git_futils_mkdir_relative 10043930 f   libgit2:fileops.obj
 0001:00043130       _git_futils_rmdir_r        10044130 f   libgit2:fileops.obj
 0001:00043220       _git_futils_fake_symlink   10044220 f   libgit2:fileops.obj
 0001:000433e0       _git_futils_cp             100443e0 f   libgit2:fileops.obj
 0001:00043850       _git_futils_cp_r           10044850 f   libgit2:fileops.obj
 0001:00043970       _git_futils_filestamp_check 10044970 f   libgit2:fileops.obj
 0001:00043a00       _git_futils_filestamp_set  10044a00 f   libgit2:fileops.obj
 0001:00043a50       _git_futils_filestamp_set_from_stat 10044a50 f   libgit2:fileops.obj
 0001:00043a90       _p_mkdir                   10044a90 f   libgit2:posix_w32.obj
 0001:00043af0       _p_unlink                  10044af0 f   libgit2:posix_w32.obj
 0001:00043ca0       _p_lstat                   10044ca0 f   libgit2:posix_w32.obj
 0001:00043d10       _p_readlink                10044d10 f   libgit2:posix_w32.obj
 0001:00043dc0       _p_open                    10044dc0 f   libgit2:posix_w32.obj
 0001:00043f00       _p_fstat                   10044f00 f   libgit2:posix_w32.obj
 0001:00043f90       _p_stat                    10044f90 f   libgit2:posix_w32.obj
 0001:00044050       _p_rmdir                   10045050 f   libgit2:posix_w32.obj
 0001:00044100       _p_realpath                10045100 f   libgit2:posix_w32.obj
 0001:00044260       _p_vsnprintf               10045260 f   libgit2:posix_w32.obj
 0001:00044300       _p_snprintf                10045300 f   libgit2:posix_w32.obj
 0001:00044320       _p_rename                  10045320 f   libgit2:posix_w32.obj
 0001:00044420       _git_config__cvar          10045420 f   libgit2:config_cache.obj
 0001:000444a0       _git_repository__cvar      100454a0 f   libgit2:config_cache.obj
 0001:000444f0       _git_repository__cvar_cache_clear 100454f0 f   libgit2:config_cache.obj
 0001:000446e0       _git_attr_file__load       100456e0 f   libgit2:attr_file.obj
 0001:00044970       _git_attr_file__out_of_date 10045970 f   libgit2:attr_file.obj
 0001:00044a90       _git_attr_file__parse_buffer 10045a90 f   libgit2:attr_file.obj
 0001:00044bd0       _git_attr_file__name_hash  10045bd0 f   libgit2:attr_file.obj
 0001:00044c20       _git_attr_fnmatch__match   10045c20 f   libgit2:attr_file.obj
 0001:00044dc0       _git_attr_path__init       10045dc0 f   libgit2:attr_file.obj
 0001:00044ec0       _git_attr_fnmatch__parse   10045ec0 f   libgit2:attr_file.obj
 0001:00045200       _git_attr_assignment__parse 10046200 f   libgit2:attr_file.obj
 0001:000455d0       _git_attr_session__free    100465d0 f   libgit2:attr_file.obj
 0001:000457a0       _git_merge_file__input_from_index 100467a0 f   libgit2:merge_file.obj
 0001:00045be0       _git_merge_file            10046be0 f   libgit2:merge_file.obj
 0001:00045d20       _git_merge_file_from_index 10046d20 f   libgit2:merge_file.obj
 0001:00045e90       _git_merge_file_result_free 10046e90 f   libgit2:merge_file.obj
 0001:00045eb0       _git_signature_free        10046eb0 f   libgit2:signature.obj
 0001:00045fa0       _git_signature_new         10046fa0 f   libgit2:signature.obj
 0001:000460f0       _git_signature_dup         100470f0 f   libgit2:signature.obj
 0001:00046190       _git_signature__pdup       10047190 f   libgit2:signature.obj
 0001:00046230       _git_signature_now         10047230 f   libgit2:signature.obj
 0001:00046320       _git_signature_default     10047320 f   libgit2:signature.obj
 0001:000463c0       _git_signature__parse      100473c0 f   libgit2:signature.obj
 0001:000465d0       _git_signature__writebuf   100475d0 f   libgit2:signature.obj
 0001:00046670       _git_odb__format_object_header 10047670 f   libgit2:odb.obj
 0001:000466d0       _git_odb__hashobj          100476d0 f   libgit2:odb.obj
 0001:00046790       _git_odb_object_id         10047790 f   libgit2:odb.obj
 0001:000467a0       _git_odb_object_size       100477a0 f   libgit2:odb.obj
 0001:000467b0       _git_odb_object_type       100477b0 f   libgit2:odb.obj
 0001:000467c0       _git_odb__hashfd           100477c0 f   libgit2:odb.obj
 0001:00046950       _git_odb__hashfd_filtered  10047950 f   libgit2:odb.obj
 0001:00046a30       _git_odb__hashlink         10047a30 f   libgit2:odb.obj
 0001:00046b90       _git_odb_hashfile          10047b90 f   libgit2:odb.obj
 0001:00046c50       _git_odb_hash              10047c50 f   libgit2:odb.obj
 0001:00046df0       _git_odb_new               10047df0 f   libgit2:odb.obj
 0001:00046fb0       _git_odb_add_backend       10047fb0 f   libgit2:odb.obj
 0001:00046fd0       _git_odb_add_alternate     10047fd0 f   libgit2:odb.obj
 0001:00047000       _git_odb_num_backends      10048000 f   libgit2:odb.obj
 0001:00047030       _git_odb_get_backend       10048030 f   libgit2:odb.obj
 0001:00047280       _git_odb_add_disk_alternate 10048280 f   libgit2:odb.obj
 0001:000472a0       _git_odb_open              100482a0 f   libgit2:odb.obj
 0001:000473d0       _git_odb_free              100483d0 f   libgit2:odb.obj
 0001:00047450       _git_odb_exists            10048450 f   libgit2:odb.obj
 0001:00047650       _git_odb_exists_prefix     10048650 f   libgit2:odb.obj
 0001:000477f0       _git_odb_read_header       100487f0 f   libgit2:odb.obj
 0001:00047830       _git_odb__read_header_or_object 10048830 f   libgit2:odb.obj
 0001:00047ac0       _git_odb_read              10048ac0 f   libgit2:odb.obj
 0001:00047de0       _git_odb_read_prefix       10048de0 f   libgit2:odb.obj
 0001:00047f40       _git_odb_foreach           10048f40 f   libgit2:odb.obj
 0001:00047f80       _git_odb_write             10048f80 f   libgit2:odb.obj
 0001:00048150       _git_odb_open_wstream      10049150 f   libgit2:odb.obj
 0001:000482d0       _git_odb_stream_write      100492d0 f   libgit2:odb.obj
 0001:00048350       _git_odb_stream_finalize_write 10049350 f   libgit2:odb.obj
 0001:000483d0       _git_odb_stream_read       100493d0 f   libgit2:odb.obj
 0001:000483e0       _git_odb_stream_free       100493e0 f   libgit2:odb.obj
 0001:00048400       _git_odb_open_rstream      10049400 f   libgit2:odb.obj
 0001:000484a0       _git_odb_write_pack        100494a0 f   libgit2:odb.obj
 0001:00048550       _git_odb_backend_malloc    10049550 f   libgit2:odb.obj
 0001:00048580       _git_odb_refresh           10049580 f   libgit2:odb.obj
 0001:000485e0       _git_odb__error_notfound   100495e0 f   libgit2:odb.obj
 0001:00048650       _git_odb__error_ambiguous  10049650 f   libgit2:odb.obj
 0001:00048670       _git_odb_init_backend      10049670 f   libgit2:odb.obj
 0001:00048d20       _git_remote_create         10049d20 f   libgit2:remote.obj
 0001:00048db0       _git_remote_create_with_fetchspec 10049db0 f   libgit2:remote.obj
 0001:00048e80       _git_remote_create_anonymous 10049e80 f   libgit2:remote.obj
 0001:00048ea0       _git_remote_dup            10049ea0 f   libgit2:remote.obj
 0001:000490c0       _git_remote_lookup         1004a0c0 f   libgit2:remote.obj
 0001:000495e0       _git_remote_name           1004a5e0 f   libgit2:remote.obj
 0001:00049610       _git_remote_owner          1004a610 f   libgit2:remote.obj
 0001:00049640       _git_remote_url            1004a640 f   libgit2:remote.obj
 0001:00049780       _git_remote_set_url        1004a780 f   libgit2:remote.obj
 0001:000497a0       _git_remote_pushurl        1004a7a0 f   libgit2:remote.obj
 0001:000497d0       _git_remote_set_pushurl    1004a7d0 f   libgit2:remote.obj
 0001:000497f0       _git_remote_connect        1004a7f0 f   libgit2:remote.obj
 0001:000499a0       _git_remote_ls             1004a9a0 f   libgit2:remote.obj
 0001:000499f0       _git_remote__get_http_proxy 1004a9f0 f   libgit2:remote.obj
 0001:0004a060       _git_remote_download       1004b060 f   libgit2:remote.obj
 0001:0004a2b0       _git_remote_fetch          1004b2b0 f   libgit2:remote.obj
 0001:0004ab20       _git_remote_prune          1004bb20 f   libgit2:remote.obj
 0001:0004b710       _git_remote_update_tips    1004c710 f   libgit2:remote.obj
 0001:0004b860       _git_remote_connected      1004c860 f   libgit2:remote.obj
 0001:0004b8a0       _git_remote_stop           1004c8a0 f   libgit2:remote.obj
 0001:0004b8e0       _git_remote_disconnect     1004c8e0 f   libgit2:remote.obj
 0001:0004b940       _git_remote_free           1004c940 f   libgit2:remote.obj
 0001:0004bb60       _git_remote_list           1004cb60 f   libgit2:remote.obj
 0001:0004bc30       _git_remote_stats          1004cc30 f   libgit2:remote.obj
 0001:0004bc60       _git_remote_autotag        1004cc60 f   libgit2:remote.obj
 0001:0004bc70       _git_remote_set_autotag    1004cc70 f   libgit2:remote.obj
 0001:0004bdb0       _git_remote_prune_refs     1004cdb0 f   libgit2:remote.obj
 0001:0004c680       _git_remote_rename         1004d680 f   libgit2:remote.obj
 0001:0004c7f0       _git_remote_is_valid_name  1004d7f0 f   libgit2:remote.obj
 0001:0004c8b0       _git_remote__matching_refspec 1004d8b0 f   libgit2:remote.obj
 0001:0004c900       _git_remote__matching_dst_refspec 1004d900 f   libgit2:remote.obj
 0001:0004c950       _git_remote_add_fetch      1004d950 f   libgit2:remote.obj
 0001:0004c970       _git_remote_add_push       1004d970 f   libgit2:remote.obj
 0001:0004ca60       _git_remote_get_fetch_refspecs 1004da60 f   libgit2:remote.obj
 0001:0004ca80       _git_remote_get_push_refspecs 1004da80 f   libgit2:remote.obj
 0001:0004caa0       _git_remote_refspec_count  1004daa0 f   libgit2:remote.obj
 0001:0004cab0       _git_remote_get_refspec    1004dab0 f   libgit2:remote.obj
 0001:0004cad0       _git_remote_init_callbacks 1004dad0 f   libgit2:remote.obj
 0001:0004cfd0       _git_remote_delete         1004dfd0 f   libgit2:remote.obj
 0001:0004d030       _git_remote_default_branch 1004e030 f   libgit2:remote.obj
 0001:0004d1d0       _git_remote_upload         1004e1d0 f   libgit2:remote.obj
 0001:0004d380       _git_remote_push           1004e380 f   libgit2:remote.obj
 0001:0004d430       _apply_insteadof           1004e430 f   libgit2:remote.obj
 0001:0004dfb0       _git_clone__should_clone_local 1004efb0 f   libgit2:clone.obj
 0001:0004e070       _git_clone                 1004f070 f   libgit2:clone.obj
 0001:0004e3b0       _git_clone_init_options    1004f3b0 f   libgit2:clone.obj
 0001:0004e800       _git_config_file_normalize_section 1004f800 f   libgit2:config_file.obj
 0001:0004f550       _git_config_file__ondisk   10050550 f   libgit2:config_file.obj
 0001:0004f6c0       _git_config_file__snapshot 100506c0 f   libgit2:config_file.obj
 0001:00051190       _git_tree_cache_invalidate_path 10052190 f   libgit2:tree-cache.obj
 0001:00051280       _git_tree_cache_get        10052280 f   libgit2:tree-cache.obj
 0001:00051870       _git_tree_cache_read_tree  10052870 f   libgit2:tree-cache.obj
 0001:000518b0       _git_tree_cache_new        100528b0 f   libgit2:tree-cache.obj
 0001:00051aa0       _git_pqueue_insert         10052aa0 f   libgit2:pqueue.obj
 0001:00051b00       _git_pqueue_pop            10052b00 f   libgit2:pqueue.obj
 0001:00051b60       _git_commit_list_time_cmp  10052b60 f   libgit2:commit_list.obj
 0001:00051b90       _git_commit_list_insert    10052b90 f   libgit2:commit_list.obj
 0001:00051bd0       _git_commit_list_insert_by_date 10052bd0 f   libgit2:commit_list.obj
 0001:00051eb0       _git_commit_list_parse     10052eb0 f   libgit2:commit_list.obj
 0001:00053400       _revparse__ext             10054400 f   libgit2:revparse.obj
 0001:00053900       _git_revparse_ext          10054900 f   libgit2:revparse.obj
 0001:000539b0       _git_revparse_single       100549b0 f   libgit2:revparse.obj
 0001:00053aa0       _git_revparse              10054aa0 f   libgit2:revparse.obj
 0001:00053c40       _git_diff__delta_dup       10054c40 f   libgit2:diff_tform.obj
 0001:00053cf0       _git_diff__merge_like_cgit 10054cf0 f   libgit2:diff_tform.obj
 0001:00053dd0       _git_diff__merge           10054dd0 f   libgit2:diff_tform.obj
 0001:00054090       _git_diff_merge            10055090 f   libgit2:diff_tform.obj
 0001:000540b0       _git_diff_find_similar__hashsig_for_file 100550b0 f   libgit2:diff_tform.obj
 0001:000540d0       _git_diff_find_similar__hashsig_for_buf 100550d0 f   libgit2:diff_tform.obj
 0001:000540f0       _git_diff_find_similar__hashsig_free 100550f0 f   libgit2:diff_tform.obj
 0001:00054100       _git_diff_find_similar__calc_similarity 10055100 f   libgit2:diff_tform.obj
 0001:00054d50       _git_diff_find_similar     10055d50 f   libgit2:diff_tform.obj
 0001:00056a40       _git__date_parse           10057a40 f   libgit2:date.obj
 0001:00056ac0       _git__date_rfc2822_fmt     10057ac0 f   libgit2:date.obj
 0001:00056d00       _git_diff_status_char      10057d00 f   libgit2:diff_print.obj
 0001:000573e0       _git_diff_delta__format_file_header 100583e0 f   libgit2:diff_print.obj
 0001:00057ad0       _git_diff_print            10058ad0 f   libgit2:diff_print.obj
 0001:00057c60       _git_patch_print           10058c60 f   libgit2:diff_print.obj
 0001:00057d40       _git_diff_print_callback__to_buf 10058d40 f   libgit2:diff_print.obj
 0001:00057de0       _git_diff_print_callback__to_file_handle 10058de0 f   libgit2:diff_print.obj
 0001:00057e30       _git_patch_to_buf          10058e30 f   libgit2:diff_print.obj
 0001:00057ec0       _git_diff_file_stats__full_to_buf 10058ec0 f   libgit2:diff_stats.obj
 0001:000580e0       _git_diff_get_stats        100590e0 f   libgit2:diff_stats.obj
 0001:00058360       _git_diff_stats_files_changed 10059360 f   libgit2:diff_stats.obj
 0001:00058390       _git_diff_stats_insertions 10059390 f   libgit2:diff_stats.obj
 0001:000583c0       _git_diff_stats_deletions  100593c0 f   libgit2:diff_stats.obj
 0001:000583f0       _git_diff_stats_to_buf     100593f0 f   libgit2:diff_stats.obj
 0001:00058660       _git_diff_stats_free       10059660 f   libgit2:diff_stats.obj
 0001:000586a0       _git_win32_get_error_message 100596a0 f   libgit2:error.obj
 0001:00059b40       _re_compile_fastmap        1005ab40 f   libgit2:regex.obj
 0001:00059d00       _regcomp                   1005ad00 f   libgit2:regex.obj
 0001:00059de0       _regerror                  1005ade0 f   libgit2:regex.obj
 0001:00059fe0       _regfree                   1005afe0 f   libgit2:regex.obj
 0001:00061fb0       _git_diff_driver_registry_new 10062fb0 f   libgit2:diff_driver.obj
 0001:00062020       _git_diff_driver_registry_free 10063020 f   libgit2:diff_driver.obj
 0001:00062800       _git_diff_driver_lookup    10063800 f   libgit2:diff_driver.obj
 0001:000628d0       _git_diff_driver_free      100638d0 f   libgit2:diff_driver.obj
 0001:00062b60       _git_diff_find_context_clear 10063b60 f   libgit2:diff_driver.obj
 0001:00062ca0       _git_annotated_commit_from_ref 10063ca0 f   libgit2:annotated_commit.obj
 0001:00062d90       _git_annotated_commit_from_head 10063d90 f   libgit2:annotated_commit.obj
 0001:00062e40       _git_annotated_commit_from_commit 10063e40 f   libgit2:annotated_commit.obj
 0001:00062ed0       _git_annotated_commit_lookup 10063ed0 f   libgit2:annotated_commit.obj
 0001:00062f80       _git_annotated_commit_from_fetchhead 10063f80 f   libgit2:annotated_commit.obj
 0001:00062fd0       _git_annotated_commit_from_revspec 10063fd0 f   libgit2:annotated_commit.obj
 0001:000630a0       _git_annotated_commit_id   100640a0 f   libgit2:annotated_commit.obj
 0001:000630f0       _git_annotated_commit_free 100640f0 f   libgit2:annotated_commit.obj
 0001:00063190       _git_win32__findfirstfile_filter 10064190 f   libgit2:w32_util.obj
 0001:00063200       _git_win32__set_hidden     10064200 f   libgit2:w32_util.obj
 0001:000632a0       _git_win32__path_trim_end  100642a0 f   libgit2:w32_util.obj
 0001:000632e0       _git_win32__canonicalize_path 100642e0 f   libgit2:w32_util.obj
 0001:00063360       _git_refdb_new             10064360 f   libgit2:refdb.obj
 0001:000633c0       _git_refdb_open            100643c0 f   libgit2:refdb.obj
 0001:00063480       _git_refdb_set_backend     10064480 f   libgit2:refdb.obj
 0001:000634a0       _git_refdb_compress        100644a0 f   libgit2:refdb.obj
 0001:000634e0       _git_refdb__free           100644e0 f   libgit2:refdb.obj
 0001:00063520       _git_refdb_free            10064520 f   libgit2:refdb.obj
 0001:00063540       _git_refdb_write           10064540 f   libgit2:refdb.obj
 0001:00063590       _git_refdb_rename          10064590 f   libgit2:refdb.obj
 0001:000635f0       _git_refdb_init_backend    100645f0 f   libgit2:refdb.obj
 0001:00063670       _git_refdb_lock            10064670 f   libgit2:refdb.obj
 0001:000636d0       _git_refdb_unlock          100646d0 f   libgit2:refdb.obj
 0001:00063750       _git_attr_cache__alloc_file_entry 10064750 f   libgit2:attrcache.obj
 0001:00063b70       _git_attr_cache__get       10064b70 f   libgit2:attrcache.obj
 0001:00063f80       _git_attr_cache__do_init   10064f80 f   libgit2:attrcache.obj
 0001:000640f0       _git_attr_cache_flush      100650f0 f   libgit2:attrcache.obj
 0001:00064110       _git_attr_cache__insert_macro 10065110 f   libgit2:attrcache.obj
 0001:00064430       _git_cache_free            10065430 f   libgit2:cache.obj
 0001:00064760       _git_cache_get_raw         10065760 f   libgit2:cache.obj
 0001:000647e0       _git_cache_get_any         100657e0 f   libgit2:cache.obj
 0001:00064850       _git_cached_obj_decref     10065850 f   libgit2:cache.obj
 0001:00064a70       _git_win32_path_canonicalize 10065a70 f   libgit2:path_w32.obj
 0001:00064be0       _git_win32_path__cwd       10065be0 f   libgit2:path_w32.obj
 0001:00064c60       _git_win32_path_from_utf8  10065c60 f   libgit2:path_w32.obj
 0001:00064e20       _git_win32_path_to_utf8    10065e20 f   libgit2:path_w32.obj
 0001:00064ef0       _git_win32_path_8dot3_name 10065ef0 f   libgit2:path_w32.obj
 0001:00065040       _git_win32_path_readlink_w 10066040 f   libgit2:path_w32.obj
 0001:00065240       _git_sysdir_global_init    10066240 f   libgit2:sysdir.obj
 0001:000652b0       _git_sysdir_get            100662b0 f   libgit2:sysdir.obj
 0001:00065310       _git_sysdir_set            10066310 f   libgit2:sysdir.obj
 0001:00065450       _git_sysdir_find_system_file 10066450 f   libgit2:sysdir.obj
 0001:000655a0       _git_sysdir_find_global_file 100665a0 f   libgit2:sysdir.obj
 0001:000656f0       _git_sysdir_find_xdg_file  100666f0 f   libgit2:sysdir.obj
 0001:00065840       _git_sysdir_find_programdata_file 10066840 f   libgit2:sysdir.obj
 0001:000659b0       _git_sysdir_find_template_dir 100669b0 f   libgit2:sysdir.obj
 0001:00065b00       _git_buf_put_w             10066b00 f   libgit2:w32_buffer.obj
 0001:00065c30       _git__utf8_to_16           10066c30 f   libgit2:utf-conv.obj
 0001:00065c80       _git__utf16_to_8           10066c80 f   libgit2:utf-conv.obj
 0001:00065cd0       _git__utf8_to_16_alloc     10066cd0 f   libgit2:utf-conv.obj
 0001:00065dc0       _git__utf16_to_8_alloc     10066dc0 f   libgit2:utf-conv.obj
 0001:00066270       _git_hash_buf              10067270 f   libgit2:hash.obj
 0001:000662f0       _git_hash_vec              100672f0 f   libgit2:hash.obj
 0001:00066900       _git_xdiff_init            10067900 f   libgit2:diff_xdiff.obj
 0001:00066a10       _git_delta_create_index    10067a10 f   libgit2:delta.obj
 0001:00066c20       _git_delta_create          10067c20 f   libgit2:delta.obj
 0001:00067280       _git_diff_file_content__init_from_src 10068280 f   libgit2:diff_file.obj
 0001:00067ae0       _git_diff_file_content__load 10068ae0 f   libgit2:diff_file.obj
 0001:00067b30       _git_diff_file_content__unload 10068b30 f   libgit2:diff_file.obj
 0001:00067c00       _git_zstream_init          10068c00 f   libgit2:zstream.obj
 0001:00067c70       _git_zstream_get_output    10068c70 f   libgit2:zstream.obj
 0001:00067d20       _git_zstream_deflatebuf    10068d20 f   libgit2:zstream.obj
 0001:00067ee0       _git_threads_init          10068ee0 f   libgit2:thread.obj
 0001:00067f40       _git_cond_init             10068f40 f   libgit2:thread.obj
 0001:00067f80       _git_transaction_config_new 10068f80 f   libgit2:transaction.obj
 0001:00067ff0       _git_transaction_new       10068ff0 f   libgit2:transaction.obj
 0001:00068120       _git_transaction_lock_ref  10069120 f   libgit2:transaction.obj
 0001:00068300       _git_transaction_set_target 10069300 f   libgit2:transaction.obj
 0001:000683a0       _git_transaction_set_symbolic_target 100693a0 f   libgit2:transaction.obj
 0001:00068450       _git_transaction_remove    10069450 f   libgit2:transaction.obj
 0001:00068680       _git_transaction_set_reflog 10069680 f   libgit2:transaction.obj
 0001:00068830       _git_transaction_commit    10069830 f   libgit2:transaction.obj
 0001:00068910       _git_transaction_free      10069910 f   libgit2:transaction.obj
 0001:00068ab0       _git_buf_text_puts_escaped 10069ab0 f   libgit2:buf_text.obj
 0001:00068bd0       _git_buf_text_unescape     10069bd0 f   libgit2:buf_text.obj
 0001:00068c20       _git_buf_text_crlf_to_lf   10069c20 f   libgit2:buf_text.obj
 0001:00068d40       _git_buf_text_lf_to_crlf   10069d40 f   libgit2:buf_text.obj
 0001:00068ec0       _git_buf_text_common_prefix 10069ec0 f   libgit2:buf_text.obj
 0001:00068f90       _git_buf_text_is_binary    10069f90 f   libgit2:buf_text.obj
 0001:00069020       _git_buf_text_detect_bom   1006a020 f   libgit2:buf_text.obj
 0001:00069130       _git_buf_text_gather_stats 1006a130 f   libgit2:buf_text.obj
 0001:00069210       _git_oidarray_free         1006a210 f   libgit2:oidarray.obj
 0001:00069220       _git_smart_subtransport_ssh 1006a220 f   libgit2:ssh.obj
 0001:00069260       _git_transport_ssh_with_paths 1006a260 f   libgit2:ssh.obj
 0001:00069600       _git_mwindow_global_init   1006a600 f   libgit2:mwindow.obj
 0001:00069690       _git_mwindow_get_pack      1006a690 f   libgit2:mwindow.obj
 0001:00069790       _git_mwindow_put_pack      1006a790 f   libgit2:mwindow.obj
 0001:00069840       _git_mwindow_free_all_locked 1006a840 f   libgit2:mwindow.obj
 0001:000699a0       _git_mwindow_contains      1006a9a0 f   libgit2:mwindow.obj
 0001:00069c40       _git_mwindow_open          1006ac40 f   libgit2:mwindow.obj
 0001:00069da0       _git_mwindow_file_register 1006ada0 f   libgit2:mwindow.obj
 0001:00069e00       _git_mwindow_close         1006ae00 f   libgit2:mwindow.obj
 0001:00069e30       _git_openssl_set_locking   1006ae30 f   libgit2:openssl_stream.obj
 0001:00069e90       _git_tag__free             1006ae90 f   libgit2:tag.obj
 0001:00069ee0       _git_tag_target            1006aee0 f   libgit2:tag.obj
 0001:00069f20       _git_tag_target_id         1006af20 f   libgit2:tag.obj
 0001:00069f50       _git_tag_target_type       1006af50 f   libgit2:tag.obj
 0001:00069f80       _git_tag_name              1006af80 f   libgit2:tag.obj
 0001:00069fb0       _git_tag_tagger            1006afb0 f   libgit2:tag.obj
 0001:00069fc0       _git_tag_message           1006afc0 f   libgit2:tag.obj
 0001:0006a2a0       _git_tag__parse            1006b2a0 f   libgit2:tag.obj
 0001:0006a690       _git_tag_create            1006b690 f   libgit2:tag.obj
 0001:0006a6c0       _git_tag_annotation_create 1006b6c0 f   libgit2:tag.obj
 0001:0006a730       _git_tag_create_lightweight 1006b730 f   libgit2:tag.obj
 0001:0006a760       _git_tag_create_frombuffer 1006b760 f   libgit2:tag.obj
 0001:0006aa10       _git_tag_delete            1006ba10 f   libgit2:tag.obj
 0001:0006abf0       _git_tag_foreach           1006bbf0 f   libgit2:tag.obj
 0001:0006acb0       _git_tag_list_match        1006bcb0 f   libgit2:tag.obj
 0001:0006ad80       _git_tag_list              1006bd80 f   libgit2:tag.obj
 0001:0006ada0       _git_tag_peel              1006bda0 f   libgit2:tag.obj
 0001:0006adc0       _git_refspec__parse        1006bdc0 f   libgit2:refspec.obj
 0001:0006b120       _git_refspec_src           1006c120 f   libgit2:refspec.obj
 0001:0006b130       _git_refspec_dst           1006c130 f   libgit2:refspec.obj
 0001:0006b140       _git_refspec_string        1006c140 f   libgit2:refspec.obj
 0001:0006b150       _git_refspec_force         1006c150 f   libgit2:refspec.obj
 0001:0006b180       _git_refspec_src_matches   1006c180 f   libgit2:refspec.obj
 0001:0006b1b0       _git_refspec_dst_matches   1006c1b0 f   libgit2:refspec.obj
 0001:0006b350       _git_refspec_transform     1006c350 f   libgit2:refspec.obj
 0001:0006b460       _git_refspec_rtransform    1006c460 f   libgit2:refspec.obj
 0001:0006b570       _git_refspec_is_wildcard   1006c570 f   libgit2:refspec.obj
 0001:0006b5c0       _git_refspec_direction     1006c5c0 f   libgit2:refspec.obj
 0001:0006b5f0       _git_refspec__dwim_one     1006c5f0 f   libgit2:refspec.obj
 0001:0006be70       _git__tsort_r              1006ce70 f   libgit2:tsort.obj
 0001:0006c7c0       _zcfree                    1006d7c0 f   zlib:zutil.obj
 0001:0006c7d0       _git_crlf_filter_new       1006d7d0 f   libgit2:crlf.obj
 0001:0006c860       _git_attr_value            1006d860 f   libgit2:attr.obj
 0001:0006c890       _git_attr_get              1006d890 f   libgit2:attr.obj
 0001:0006ca30       _git_attr_get_many_with_session 1006da30 f   libgit2:attr.obj
 0001:0006ccc0       _git_attr_get_many         1006dcc0 f   libgit2:attr.obj
 0001:0006ccf0       _git_attr_foreach          1006dcf0 f   libgit2:attr.obj
 0001:0006d170       _git_attr_add_macro        1006e170 f   libgit2:attr.obj
 0001:0006d930       _git_ident_filter_new      1006e930 f   libgit2:ident.obj
 0001:0006d970       _p_mmap                    1006e970 f   libgit2:map.obj
 0001:0006db50       _p_munmap                  1006eb50 f   libgit2:map.obj
 0001:0006ecf0       _git_hash_update           1006fcf0 f   libgit2:hash_generic.obj
 0001:0006ed80       _git_hash_final            1006fd80 f   libgit2:hash_generic.obj
 0001:0006ee00       _git__opendir              1006fe00 f   libgit2:dir.obj
 0001:0006ef00       _git__readdir_ext          1006ff00 f   libgit2:dir.obj
 0001:000700f0       _xdl_merge                 100710f0 f   libgit2:xmerge.obj
 0001:00071c60       _git_odb_backend_loose     10072c60 f   libgit2:odb_loose.obj
 0001:00072880       _git_odb_backend_one_pack  10073880 f   libgit2:odb_pack.obj
 0001:000728f0       _git_odb_backend_pack      100738f0 f   libgit2:odb_pack.obj
 0001:00072a40       _git_fetchhead_ref_cmp     10073a40 f   libgit2:fetchhead.obj
 0001:00072ab0       _git_fetchhead_ref_create  10073ab0 f   libgit2:fetchhead.obj
 0001:00072cb0       _git_fetchhead_write       10073cb0 f   libgit2:fetchhead.obj
 0001:00073070       _git_repository_fetchhead_foreach 10074070 f   libgit2:fetchhead.obj
 0001:00073480       _git_fetch_negotiate       10074480 f   libgit2:fetch.obj
 0001:000734e0       _git_fetch_init_options    100744e0 f   libgit2:fetch.obj
 0001:000735c0       _git_push_new              100745c0 f   libgit2:push.obj
 0001:00073710       _git_push_set_options      10074710 f   libgit2:push.obj
 0001:000738c0       _git_push_update_tips      100748c0 f   libgit2:push.obj
 0001:00074c10       _git_push_finish           10075c10 f   libgit2:push.obj
 0001:00074ca0       _git_push_status_foreach   10075ca0 f   libgit2:push.obj
 0001:00074d20       _git_push_status_free      10075d20 f   libgit2:push.obj
 0001:00074d50       _git_push_free             10075d50 f   libgit2:push.obj
 0001:00074ec0       _git_push_init_options     10075ec0 f   libgit2:push.obj
 0001:000750e0       _git_transport_new         100760e0 f   libgit2:transport.obj
 0001:00075170       _git_transport_register    10076170 f   libgit2:transport.obj
 0001:000752c0       _git_transport_unregister  100762c0 f   libgit2:transport.obj
 0001:000753e0       _git_transport_init        100763e0 f   libgit2:transport.obj
 0001:00075450       _git_strmap_next           10076450 f   libgit2:strmap.obj
 0001:000754c0       _git_reflog_free           100764c0 f   libgit2:reflog.obj
 0001:000755a0       _git_reflog_read           100765a0 f   libgit2:reflog.obj
 0001:00075630       _git_reflog_write          10076630 f   libgit2:reflog.obj
 0001:00075670       _git_reflog_append         10076670 f   libgit2:reflog.obj
 0001:000757d0       _git_reflog_rename         100767d0 f   libgit2:reflog.obj
 0001:00075800       _git_reflog_delete         10076800 f   libgit2:reflog.obj
 0001:00075830       _git_reflog_entrycount     10076830 f   libgit2:reflog.obj
 0001:00075860       _git_reflog_entry_byindex  10076860 f   libgit2:reflog.obj
 0001:000758a0       _git_reflog_entry_id_old   100768a0 f   libgit2:reflog.obj
 0001:000758d0       _git_reflog_entry_id_new   100768d0 f   libgit2:reflog.obj
 0001:00075900       _git_reflog_entry_committer 10076900 f   libgit2:reflog.obj
 0001:00075930       _git_reflog_entry_message  10076930 f   libgit2:reflog.obj
 0001:00075960       _git_reflog_drop           10076960 f   libgit2:reflog.obj
 0001:00075f90       _git_hashsig_create        10076f90 f   libgit2:hashsig.obj
 0001:00076090       _git_hashsig_create_fromfile 10077090 f   libgit2:hashsig.obj
 0001:00076340       _git_hashsig_compare       10077340 f   libgit2:hashsig.obj
 0001:00079dc0       _git_refdb_backend_fs      1007adc0 f   libgit2:refdb_fs.obj
 0001:0007a540       _git_win32__find_system_dirs 1007b540 f   libgit2:findfile.obj
 0001:0007ae10       _xdl_recs_cmp              1007be10 f   libgit2:xdiffi.obj
 0001:0007afa0       _xdl_do_diff               1007bfa0 f   libgit2:xdiffi.obj
 0001:0007b240       _xdl_change_compact        1007c240 f   libgit2:xdiffi.obj
 0001:0007b450       _xdl_build_script          1007c450 f   libgit2:xdiffi.obj
 0001:0007b590       _xdl_free_script           1007c590 f   libgit2:xdiffi.obj
 0001:0007b7f0       _xdl_diff                  1007c7f0 f   libgit2:xdiffi.obj
 0001:0007c580       _git_packfile__object_header 1007d580 f   libgit2:pack.obj
 0001:0007c6a0       _git_packfile_unpack_header 1007d6a0 f   libgit2:pack.obj
 0001:0007c760       _git_packfile_resolve_header 1007d760 f   libgit2:pack.obj
 0001:0007cce0       _git_packfile_unpack       1007dce0 f   libgit2:pack.obj
 0001:0007d0b0       _git_packfile_stream_open  1007e0b0 f   libgit2:pack.obj
 0001:0007d120       _git_packfile_stream_read  1007e120 f   libgit2:pack.obj
 0001:0007d460       _get_delta_base            1007e460 f   libgit2:pack.obj
 0001:0007d670       _git_packfile_free         1007e670 f   libgit2:pack.obj
 0001:0007d990       _git_packfile__name        1007e990 f   libgit2:pack.obj
 0001:0007da30       _git_packfile_alloc        1007ea30 f   libgit2:pack.obj
 0001:0007dcd0       _git_pack_foreach_entry    1007ecd0 f   libgit2:pack.obj
 0001:0007e170       _git_pack_entry_find       1007f170 f   libgit2:pack.obj
 0001:0007e260       _xdl_bogosqrt              1007f260 f   libgit2:xutils.obj
 0001:0007e280       _xdl_cha_init              1007f280 f   libgit2:xutils.obj
 0001:0007e2b0       _xdl_cha_free              1007f2b0 f   libgit2:xutils.obj
 0001:0007e2e0       _xdl_cha_alloc             1007f2e0 f   libgit2:xutils.obj
 0001:0007e350       _xdl_guess_lines           1007f350 f   libgit2:xutils.obj
 0001:0007e3c0       _xdl_recmatch              1007f3c0 f   libgit2:xutils.obj
 0001:0007e760       _xdl_hash_record           1007f760 f   libgit2:xutils.obj
 0001:0007e7c0       _xdl_hashbits              1007f7c0 f   libgit2:xutils.obj
 0001:0007e7f0       _xdl_num_out               1007f7f0 f   libgit2:xutils.obj
 0001:0007e890       _xdl_emit_hunk_hdr         1007f890 f   libgit2:xutils.obj
 0001:0007e9d0       _xdl_fall_back_diff        1007f9d0 f   libgit2:xutils.obj
 0001:0007f110       _xdl_prepare_env           10080110 f   libgit2:xprepare.obj
 0001:0007f620       _git_indexer_hash          10080620 f   libgit2:indexer.obj
 0001:0007f700       _git_indexer_new           10080700 f   libgit2:indexer.obj
 0001:00080370       _git_indexer_append        10081370 f   libgit2:indexer.obj
 0001:00081070       _git_indexer_commit        10082070 f   libgit2:indexer.obj
 0001:000816a0       _git_indexer_free          100826a0 f   libgit2:indexer.obj
 0001:00081ff0       _git_packbuilder_new       10082ff0 f   libgit2:pack-objects.obj
 0001:00082150       _git_packbuilder_set_threads 10083150 f   libgit2:pack-objects.obj
 0001:00082220       _git_packbuilder_insert    10083220 f   libgit2:pack-objects.obj
 0001:00083ed0       _git_packbuilder_foreach   10084ed0 f   libgit2:pack-objects.obj
 0001:00083f00       _git_packbuilder_write_buf 10084f00 f   libgit2:pack-objects.obj
 0001:00083fa0       _git_packbuilder_write     10084fa0 f   libgit2:pack-objects.obj
 0001:00084090       _git_packbuilder_hash      10085090 f   libgit2:pack-objects.obj
 0001:00084170       _git_packbuilder_insert_commit 10085170 f   libgit2:pack-objects.obj
 0001:00084200       _git_packbuilder_insert_tree 10085200 f   libgit2:pack-objects.obj
 0001:000842f0       _git_packbuilder_insert_recur 100852f0 f   libgit2:pack-objects.obj
 0001:00084430       _git_packbuilder_object_count 10085430 f   libgit2:pack-objects.obj
 0001:00084440       _git_packbuilder_written   10085440 f   libgit2:pack-objects.obj
 0001:00084450       _lookup_walk_object        10085450 f   libgit2:pack-objects.obj
 0001:00084740       _insert_tree               10085740 f   libgit2:pack-objects.obj
 0001:000848b0       _insert_commit             100858b0 f   libgit2:pack-objects.obj
 0001:00084970       _git_packbuilder_insert_walk 10085970 f   libgit2:pack-objects.obj
 0001:00084a60       _git_packbuilder_set_callbacks 10085a60 f   libgit2:pack-objects.obj
 0001:00084a90       _git_packbuilder_free      10085a90 f   libgit2:pack-objects.obj
 0001:00084dd0       _git_smart__update_heads   10085dd0 f   libgit2:smart.obj
 0001:000852c0       _git_smart__negotiation_step 100862c0 f   libgit2:smart.obj
 0001:000853b0       _git_smart__get_push_stream 100863b0 f   libgit2:smart.obj
 0001:00085790       _git_transport_smart_certificate_check 10086790 f   libgit2:smart.obj
 0001:000857b0       _git_transport_smart_credentials 100867b0 f   libgit2:smart.obj
 0001:000857d0       _git_transport_smart       100867d0 f   libgit2:smart.obj
 0001:000860e0       _git_smart_subtransport_git 100870e0 f   libgit2:git.obj
 0001:00086130       _swprintf_s                10087130 f i libgit2:winhttp.obj
 0001:00087e80       _git_smart_subtransport_http 10088e80 f   libgit2:winhttp.obj
 0001:00088fb0       _git_transport_local       10089fb0 f   libgit2:local.obj
 0001:00089090       _git_sortedcache_new       1008a090 f   libgit2:sortedcache.obj
 0001:000893b0       _git_sortedcache_copy      1008a3b0 f   libgit2:sortedcache.obj
 0001:000894b0       _git_sortedcache_wlock     1008a4b0 f   libgit2:sortedcache.obj
 0001:000894d0       _git_sortedcache_wunlock   1008a4d0 f   libgit2:sortedcache.obj
 0001:00089540       _git_sortedcache_lockandload 1008a540 f   libgit2:sortedcache.obj
 0001:00089620       _git_sortedcache_upsert    1008a620 f   libgit2:sortedcache.obj
 0001:00089730       _git_sortedcache_entry     1008a730 f   libgit2:sortedcache.obj
 0001:000897e0       _git_sortedcache_lookup_index 1008a7e0 f   libgit2:sortedcache.obj
 0001:00089870       _git_sortedcache_remove    1008a870 f   libgit2:sortedcache.obj
 0001:00089900       _xdl_get_hunk              1008a900 f   libgit2:xemit.obj
 0001:00089bb0       _xdl_emit_diff             1008abb0 f   libgit2:xemit.obj
 0001:0008aff0       _git__delta_read_header_fromstream 1008bff0 f   libgit2:delta-apply.obj
 0001:0008b0a0       _git__delta_apply          1008c0a0 f   libgit2:delta-apply.obj
 0001:0008b280       _sha1_position             1008c280 f   libgit2:sha1_lookup.obj
 0001:0008b300       _git_smart__store_refs     1008c300 f   libgit2:smart_protocol.obj
 0001:0008b660       _git_smart__detect_caps    1008c660 f   libgit2:smart_protocol.obj
 0001:0008bca0       _git_smart__negotiate_fetch 1008cca0 f   libgit2:smart_protocol.obj
 0001:0008c1b0       _git_smart__download_pack  1008d1b0 f   libgit2:smart_protocol.obj
 0001:0008cf20       _git_smart__push           1008df20 f   libgit2:smart_protocol.obj
 0001:0008d8f0       _git_pkt_parse_line        1008e8f0 f   libgit2:smart_pkt.obj
 0001:0008db50       _git_pkt_free              1008eb50 f   libgit2:smart_pkt.obj
 0001:0008dd50       _git_pkt_buffer_wants      1008ed50 f   libgit2:smart_pkt.obj
 0001:0008df70       _git_pkt_buffer_have       1008ef70 f   libgit2:smart_pkt.obj
 0001:0008e050       _gitno_consume             1008f050 f   libgit2:netops.obj
 0001:0008e0c0       _gitno_connection_data_from_url 1008f0c0 f   libgit2:netops.obj
 0001:0008e450       _gitno_extract_url_parts   1008f450 f   libgit2:netops.obj
 0001:0008e720       _socket_connect            1008f720 f   libgit2:socket_stream.obj
 0001:0008e8d0       _socket_write              1008f8d0 f   libgit2:socket_stream.obj
 0001:0008e970       _socket_read               1008f970 f   libgit2:socket_stream.obj
 0001:0008e9e0       _socket_close              1008f9e0 f   libgit2:socket_stream.obj
 0001:0008ea30       _socket_free               1008fa30 f   libgit2:socket_stream.obj
 0001:0008ea50       _git_socket_stream_new     1008fa50 f   libgit2:socket_stream.obj
 0001:0008eb20       _git_cred_has_username     1008fb20 f   libgit2:cred.obj
 0001:0008eb90       _git_cred_userpass_plaintext_new 1008fb90 f   libgit2:cred.obj
 0001:0008ed50       _git_cred_ssh_key_new      1008fd50 f   libgit2:cred.obj
 0001:0008ed70       _git_cred_ssh_key_memory_new 1008fd70 f   libgit2:cred.obj
 0001:0008ee90       _git_cred_ssh_interactive_new 1008fe90 f   libgit2:cred.obj
 0001:0008ef30       _git_cred_ssh_key_from_agent 1008ff30 f   libgit2:cred.obj
 0001:0008efc0       _git_cred_ssh_custom_new   1008ffc0 f   libgit2:cred.obj
 0001:0008f0a0       _git_cred_default_new      100900a0 f   libgit2:cred.obj
 0001:0008f100       _git_cred_username_new     10090100 f   libgit2:cred.obj
 0001:0008f1a0       _git_cred_free             100901a0 f   libgit2:cred.obj
 0001:0008f1c0       _git_libgit2_version       100901c0 f   libgit2:settings.obj
 0001:0008f1e0       _git_libgit2_features      100901e0 f   libgit2:settings.obj
 0001:0008f240       _git_libgit2_opts          10090240 f   libgit2:settings.obj
 0001:0008f5a0       _deflateInit2_             100905a0 f   zlib:deflate.obj
 0001:0008f730       _deflateResetKeep          10090730 f   zlib:deflate.obj
 0001:0008f7b0       _deflateReset              100907b0 f   zlib:deflate.obj
 0001:0008f850       _deflate                   10090850 f   zlib:deflate.obj
 0001:0008fb50       _deflateEnd                10090b50 f   zlib:deflate.obj
 0001:00091250       _inflateResetKeep          10092250 f   zlib:inflate.obj
 0001:000912f0       _inflateReset2             100922f0 f   zlib:inflate.obj
 0001:00091360       _inflateInit2_             10092360 f   zlib:inflate.obj
 0001:000914e0       _inflate                   100924e0 f   zlib:inflate.obj
 0001:00092590       _inflateEnd                10093590 f   zlib:inflate.obj
 0001:000925e0       _crc32                     100935e0 f   zlib:crc32.obj
 0001:000926d0       __tr_init                  100936d0 f   zlib:trees.obj
 0001:00093680       __tr_stored_block          10094680 f   zlib:trees.obj
 0001:00093730       __tr_align                 10094730 f   zlib:trees.obj
 0001:00093820       __tr_flush_block           10094820 f   zlib:trees.obj
 0001:00094030       _zcalloc                   10095030 f   zlib:zutil.obj
 0001:00094050       _adler32                   10095050 f   zlib:adler32.obj
 0001:000942b0       _inflate_table             100952b0 f   zlib:inftrees.obj
 0001:00094740       _inflate_fast              10095740 f   zlib:inffast.obj
 0001:00095080       _http_parser_parse_url     10096080 f   http_parser:http_parser.obj
 0001:000951e2       ??0bad_alloc@std@@QAE@ABV01@@Z 100961e2 f i libcpmt:xthrow.obj
 0001:000951fd       ??0bad_alloc@std@@QAE@XZ   100961fd f i libcpmt:xthrow.obj
 0001:00095215       ??0exception@std@@QAE@ABV01@@Z 10096215 f i libcpmt:xthrow.obj
 0001:00095241       ??0exception@std@@QAE@QBD@Z 10096241 f i libcpmt:xthrow.obj
 0001:00095278       ??0length_error@std@@QAE@ABV01@@Z 10096278 f i libcpmt:xthrow.obj
 0001:00095293       ??0length_error@std@@QAE@PBD@Z 10096293 f i libcpmt:xthrow.obj
 0001:000952b4       ??0logic_error@std@@QAE@ABV01@@Z 100962b4 f i libcpmt:xthrow.obj
 0001:000952cf       ??0out_of_range@std@@QAE@ABV01@@Z 100962cf f i libcpmt:xthrow.obj
 0001:000952ea       ??0out_of_range@std@@QAE@PBD@Z 100962ea f i libcpmt:xthrow.obj
 0001:0009530b       ??_Eout_of_range@std@@UAEPAXI@Z 1009630b f i libcpmt:xthrow.obj
 0001:0009530b       ??_Gbad_alloc@std@@UAEPAXI@Z 1009630b f i libcpmt:xthrow.obj
 0001:0009530b       ??_Glogic_error@std@@UAEPAXI@Z 1009630b f i libcpmt:xthrow.obj
 0001:0009530b       ??_Gbad_array_new_length@std@@UAEPAXI@Z 1009630b f i LIBCMT:throw_bad_alloc.obj
 0001:0009530b       ??_Ebad_alloc@std@@UAEPAXI@Z 1009630b f i libcpmt:xthrow.obj
 0001:0009530b       ??_Gout_of_range@std@@UAEPAXI@Z 1009630b f i libcpmt:xthrow.obj
 0001:0009530b       ??_Glength_error@std@@UAEPAXI@Z 1009630b f i libcpmt:xthrow.obj
 0001:0009530b       ??_Elength_error@std@@UAEPAXI@Z 1009630b f i libcpmt:xthrow.obj
 0001:0009530b       ??_Eexception@std@@UAEPAXI@Z 1009630b f i libcpmt:xthrow.obj
 0001:0009530b       ??_Elogic_error@std@@UAEPAXI@Z 1009630b f i libcpmt:xthrow.obj
 0001:0009530b       ??_Gexception@std@@UAEPAXI@Z 1009630b f i libcpmt:xthrow.obj
 0001:0009530b       ??_Ebad_array_new_length@std@@UAEPAXI@Z 1009630b f i LIBCMT:throw_bad_alloc.obj
 0001:00095338       ?_Xlength_error@std@@YAXPBD@Z 10096338 f   libcpmt:xthrow.obj
 0001:00095358       ?_Xout_of_range@std@@YAXPBD@Z 10096358 f   libcpmt:xthrow.obj
 0001:00095378       ?what@exception@std@@UBEPBDXZ 10096378 f i libcpmt:xthrow.obj
 0001:00095385       @__security_check_cookie@4 10096385 f   LIBCMT:_secchk_.obj
 0001:00095396       ??2@YAPAXI@Z               10096396 f   LIBCMT:new_scalar.obj
 0001:000953c9       ??3@YAXPAXI@Z              100963c9 f   LIBCMT:delete_scalar_size.obj
 0001:000956df       __DllMainCRTStartup@12     100966df f   LIBCMT:dll_dllmain.obj
 0001:00095702       ___raise_securityfailure   10096702 f   LIBCMT:gs_report.obj
 0001:0009572a       ___report_gsfailure        1009672a f   LIBCMT:gs_report.obj
 0001:00095825       ___report_rangecheckfailure 10096825 f   LIBCMT:gs_report.obj
 0001:00095831       ___report_securityfailure  10096831 f   LIBCMT:gs_report.obj
 0001:00095901       ??_Etype_info@@UAEPAXI@Z   10096901 f i LIBCMT:std_type_info_static.obj
 0001:00095901       ??_Gtype_info@@UAEPAXI@Z   10096901 f i LIBCMT:std_type_info_static.obj
 0001:00095924       ??0bad_array_new_length@std@@QAE@ABV01@@Z 10096924 f i LIBCMT:throw_bad_alloc.obj
 0001:0009593f       ??0bad_array_new_length@std@@QAE@XZ 1009693f f i LIBCMT:throw_bad_alloc.obj
 0001:00095957       ??1out_of_range@std@@UAE@XZ 10096957 f i libcpmt:xthrow.obj
 0001:00095957       ??1bad_array_new_length@std@@UAE@XZ 10096957 f i LIBCMT:throw_bad_alloc.obj
 0001:00095957       ??1bad_alloc@std@@UAE@XZ   10096957 f i libcpmt:xthrow.obj
 0001:00095957       ??1length_error@std@@UAE@XZ 10096957 f i libcpmt:xthrow.obj
 0001:00095968       ?_Xbad_alloc@std@@YAXXZ    10096968 f   libcpmt:xthrow.obj
 0001:00095968       ?__scrt_throw_std_bad_alloc@@YAXXZ 10096968 f   LIBCMT:throw_bad_alloc.obj
 0001:00095985       ?__scrt_throw_std_bad_array_new_length@@YAXXZ 10096985 f   LIBCMT:throw_bad_alloc.obj
 0001:000959e6       ___scrt_acquire_startup_lock 100969e6 f   LIBCMT:utility.obj
 0001:00095a1b       ___scrt_dllmain_after_initialize_c 10096a1b f   LIBCMT:utility.obj
 0001:00095a46       ___scrt_dllmain_before_initialize_c 10096a46 f   LIBCMT:utility.obj
 0001:00095a54       ___scrt_dllmain_crt_thread_attach 10096a54 f   LIBCMT:utility.obj
 0001:00095a73       ___scrt_dllmain_crt_thread_detach 10096a73 f   LIBCMT:utility.obj
 0001:00095a80       ___scrt_dllmain_exception_filter 10096a80 f   LIBCMT:utility.obj
 0001:00095ab3       ___scrt_dllmain_uninitialize_c 10096ab3 f   LIBCMT:utility.obj
 0001:00095ad6       ___scrt_dllmain_uninitialize_critical 10096ad6 f   LIBCMT:utility.obj
 0001:00095ae3       ___scrt_initialize_crt     10096ae3 f   LIBCMT:utility.obj
 0001:00095b1c       ___scrt_initialize_onexit_tables 10096b1c f   LIBCMT:utility.obj
 0001:00095bb3       ___scrt_is_nonwritable_in_current_image 10096bb3 f   LIBCMT:utility.obj
 0001:00095c3d       ___scrt_release_startup_lock 10096c3d f   LIBCMT:utility.obj
 0001:00095c5a       ___scrt_uninitialize_crt   10096c5a f   LIBCMT:utility.obj
 0001:00095c82       __onexit                   10096c82 f   LIBCMT:utility.obj
 0001:00095cbd       _atexit                    10096cbd f   LIBCMT:utility.obj
 0001:00095cd2       ___security_init_cookie    10096cd2 f   LIBCMT:gs_support.obj
 0001:00095d6e       ?__scrt_initialize_type_info@@YAXXZ 10096d6e f   LIBCMT:tncleanup.obj
 0001:00095d7a       ?__scrt_uninitialize_type_info@@YAXXZ 10096d7a f   LIBCMT:tncleanup.obj
 0001:00095d86       ___local_stdio_scanf_options 10096d86 f i LIBCMT:default_local_stdio_options.obj
 0001:00095d8c       ___scrt_initialize_default_local_stdio_options 10096d8c f   LIBCMT:default_local_stdio_options.obj
 0001:00095da9       ___scrt_get_dyn_tls_init_callback 10096da9 f   LIBCMT:dyn_tls_init.obj
 0001:00095daf       ___scrt_fastfail           10096daf f   LIBCMT:utility_desktop.obj
 0001:00095eca       __crt_debugger_hook        10096eca f   LIBCMT:utility_desktop.obj
 0001:00095ed2       __RTC_Initialize           10096ed2 f   LIBCMT:_initsect_.obj
 0001:00095efd       __RTC_Terminate            10096efd f   LIBCMT:_initsect_.obj
 0001:00095f28       @_guard_check_icall@4      10096f28 f i LIBCMT:checkcfg.obj
 0001:00095f30       __SEH_prolog4              10096f30 f   LIBCMT:_sehprolg4_.obj
 0001:00095f76       __SEH_epilog4              10096f76 f   LIBCMT:_sehprolg4_.obj
 0001:00095f8b       ___isa_available_init      10096f8b f   LIBCMT:_cpu_disp_.obj
 0001:00096125       __get_startup_argv_mode    10097125 f   LIBCMT:argv_mode.obj
 0001:00096129       ___scrt_is_ucrt_dll_in_use 10097129 f   LIBCMT:ucrt_detection.obj
 0001:00096140       _memmove                   10097140 f   libvcruntime:memmove.obj
 0001:000966c0       _strchr                    100976c0 f   libvcruntime:strchr.obj
 0001:0009672e       ___from_strstr_to_strchr   1009772e     libvcruntime:strchr.obj
 0001:000967f0       _strrchr                   100977f0 f   libvcruntime:strrchr.obj
 0001:00096930       _memchr                    10097930 f   libvcruntime:memchr.obj
 0001:000969e0       _strstr                    100979e0 f   libvcruntime:strstr.obj
 0001:00096c43       ___std_exception_copy      10097c43 f   libvcruntime:std_exception.obj
 0001:00096ca6       ___std_exception_destroy   10097ca6 f   libvcruntime:std_exception.obj
 0001:00096cc5       __CxxThrowException@8      10097cc5 f   libvcruntime:throw.obj
 0001:00096d80       __except_handler4          10097d80 f   libvcruntime:_chandler4_.obj
 0001:00096ee6       ___vcrt_initialize         10097ee6 f   libvcruntime:initialization.obj
 0001:00096f0f       ___vcrt_thread_attach      10097f0f f   libvcruntime:initialization.obj
 0001:00096f1a       ___vcrt_thread_detach      10097f1a f   libvcruntime:initialization.obj
 0001:00096f25       ___vcrt_uninitialize       10097f25 f   libvcruntime:initialization.obj
 0001:00096f44       ___vcrt_uninitialize_critical 10097f44 f   libvcruntime:initialization.obj
 0001:00096f4c       ___std_type_info_destroy_list 10097f4c f   libvcruntime:std_type_info.obj
 0001:00096f70       _memset                    10097f70 f   libvcruntime:memset.obj
 0001:000970d0       __local_unwind4            100980d0 f   libvcruntime:_exsup4_.obj
 0001:000971a6       __seh_longjmp_unwind4@4    100981a6 f   libvcruntime:_exsup4_.obj
 0001:000971ce       @_EH4_CallFilterFunc@8     100981ce f   libvcruntime:_exsup4_.obj
 0001:000971e5       @_EH4_TransferToHandler@8  100981e5 f   libvcruntime:_exsup4_.obj
 0001:000971fe       @_EH4_GlobalUnwind2@8      100981fe f   libvcruntime:_exsup4_.obj
 0001:00097217       @_EH4_LocalUnwind@16       10098217 f   libvcruntime:_exsup4_.obj
 0001:0009722e       ___vcrt_freefls@4          1009822e f   libvcruntime:per_thread_data.obj
 0001:0009724a       ___vcrt_freeptd            1009824a f   libvcruntime:per_thread_data.obj
 0001:00097280       ___vcrt_getptd_noexit      10098280 f   libvcruntime:per_thread_data.obj
 0001:00097312       ___vcrt_initialize_ptd     10098312 f   libvcruntime:per_thread_data.obj
 0001:00097345       ___vcrt_uninitialize_ptd   10098345 f   libvcruntime:per_thread_data.obj
 0001:00097360       ___vcrt_initialize_locks   10098360 f   libvcruntime:locks.obj
 0001:0009739c       ___vcrt_uninitialize_locks 1009839c f   libvcruntime:locks.obj
 0001:000973cb       ??$__crt_fast_encode_pointer@PAP6AXXZ@@YAPAP6AXXZQAP6AXXZ@Z 100983cb f i LIBCMT:utility.obj
 0001:000973cb       ??$__crt_fast_encode_pointer@PAX@@YAPAXQAX@Z 100983cb f i libvcruntime:winapi_downlevel.obj
 0001:00097509       ___vcrt_FlsAlloc           10098509 f   libvcruntime:winapi_downlevel.obj
 0001:00097543       ___vcrt_FlsFree            10098543 f   libvcruntime:winapi_downlevel.obj
 0001:0009757d       ___vcrt_FlsGetValue        1009857d f   libvcruntime:winapi_downlevel.obj
 0001:000975b7       ___vcrt_FlsSetValue        100985b7 f   libvcruntime:winapi_downlevel.obj
 0001:000975f4       ___vcrt_InitializeCriticalSectionEx 100985f4 f   libvcruntime:winapi_downlevel.obj
 0001:0009763a       ___vcrt_initialize_winapi_thunks 1009863a f   libvcruntime:winapi_downlevel.obj
 0001:00097674       ___vcrt_uninitialize_winapi_thunks 10098674 f   libvcruntime:winapi_downlevel.obj
 0001:000976a6       ___vcrt_initialize_pure_virtual_call_handler 100986a6 f   libvcruntime:purevirt_data.obj
 0001:000976d0       __global_unwind2           100986d0 f   libvcruntime:_exsup_.obj
 0001:00097735       __local_unwind2            10098735 f   libvcruntime:_exsup_.obj
 0001:000977b9       __abnormal_termination     100987b9 f   libvcruntime:_exsup_.obj
 0001:000977dc       __NLG_Notify1              100987dc f   libvcruntime:_exsup_.obj
 0001:000977e5       __NLG_Notify               100987e5 f   libvcruntime:_exsup_.obj
 0001:000977fc       __NLG_Dispatch2            100987fc     libvcruntime:_exsup_.obj
 0001:000977fc       __NLG_Dispatch             100987fc     libvcruntime:_exsup_.obj
 0001:00097804       __NLG_Call                 10098804 f   libvcruntime:_exsup_.obj
 0001:00097806       __NLG_Return2              10098806     libvcruntime:_exsup_.obj
 0001:00097810       _strncmp                   10098810 f   libucrt:strncmp.obj
 0001:00097eec       ??$ftprintf@PAU_iobuf@@PB_WABQB_WABQB_WABI@?$__crt_char_traits@_W@@SAH$$QAPAU_iobuf@@$$QAPB_WABQB_W2ABI@Z 10098eec f i libucrt:assert.obj
 0001:00097fcb       __vfwprintf_l              10098fcb f i libucrt:assert.obj
 0001:00097ff0       __vswprintf_c_l            10098ff0 f i libucrt:assert.obj
 0001:0009801f       __wassert                  1009901f f   libucrt:assert.obj
 0001:00098067       _fwprintf                  10099067 f i libucrt:assert.obj
 0001:00098082       _swprintf                  10099082 f i libucrt:assert.obj
 0001:000980a0       ___acrt_call_reportfault   100990a0 f   libucrt:invalid_parameter.obj
 0001:000981db       ___acrt_initialize_invalid_parameter_handler 100991db f   libucrt:invalid_parameter.obj
 0001:000981ef       __invalid_parameter        100991ef f   libucrt:invalid_parameter.obj
 0001:0009826a       __invalid_parameter_noinfo 1009926a f   libucrt:invalid_parameter.obj
 0001:0009827a       __invalid_parameter_noinfo_noreturn 1009927a f   libucrt:invalid_parameter.obj
 0001:00098297       __invoke_watson            10099297 f   libucrt:invalid_parameter.obj
 0001:000982ca       _malloc                    100992ca f   libucrt:malloc.obj
 0001:000982d5       _abort                     100992d5 f   libucrt:abort.obj
 0001:00098318       _calloc                    10099318 f   libucrt:calloc.obj
 0001:00098323       ___acrt_errno_from_os_error 10099323 f   libucrt:errno.obj
 0001:00098366       ___acrt_errno_map_os_error 10099366 f   libucrt:errno.obj
 0001:00098389       ___doserrno                10099389 f   libucrt:errno.obj
 0001:0009839c       __errno                    1009939c f   libucrt:errno.obj
 0001:000983af       _free                      100993af f   libucrt:free.obj
 0001:000983b4       _realloc                   100993b4 f   libucrt:realloc.obj
 0001:000983bf       _strnlen                   100993bf f   libucrt:strnlen.obj
 0001:000984e6       _wcsnlen                   100994e6 f   libucrt:strnlen.obj
 0001:000986a0       _strcspn                   100996a0 f   libucrt:strcspn.obj
 0001:000986f0       _strpbrk                   100996f0 f   libucrt:strpbrk.obj
 0001:00098730       _strncpy                   10099730 f   libucrt:strncpy.obj
 0001:00098854       ??0_LocaleUpdate@@QAE@QAU__crt_locale_pointers@@@Z 10099854 f i libucrt:stricmp.obj
 0001:000988d7       ___ascii_stricmp           100998d7 f   libucrt:stricmp.obj
 0001:00098912       __stricmp                  10099912 f   libucrt:stricmp.obj
 0001:0009895a       __stricmp_l                1009995a f   libucrt:stricmp.obj
 0001:00098a70       __get_sys_err_msg          10099a70 f i libucrt:strerror.obj
 0001:00098a94       _strerror                  10099a94 f   libucrt:strerror.obj
 0001:00098a9f       ___acrt_initialize_stdio   10099a9f f   libucrt:_file.obj
 0001:00098b67       ___acrt_iob_func           10099b67 f   libucrt:_file.obj
 0001:00098b77       ___acrt_uninitialize_stdio 10099b77 f   libucrt:_file.obj
 0001:00098bc3       __lock_file                10099bc3 f   libucrt:_file.obj
 0001:00098bd7       __unlock_file              10099bd7 f   libucrt:_file.obj
 0001:00098beb       ??$?RV<lambda_ab9923ffb5d694ec0d78876dd103e44f>@@AAV<lambda_481dd5778c961fbcd3b60b650e9b9dc4>@@V<lambda_7923d86c9e3f319b415918ec4b39749c>@@@?$__crt_seh_guarded_call@H@@QAEH$$QAV<lambda_ab9923ffb5d694ec0d78876dd103e44f>@@AAV<lambda_481dd5778c961fbcd3b60b650e9b9dc4>@@$$QAV<lambda_7923d86c9e3f319b415918ec4b39749c>@@@Z 10099beb f i libucrt:output.obj
 0001:00098c3c       ??$__acrt_lock_stream_and_call@V<lambda_481dd5778c961fbcd3b60b650e9b9dc4>@@@@YAHQAU_iobuf@@$$QAV<lambda_481dd5778c961fbcd3b60b650e9b9dc4>@@@Z 10099c3c f i libucrt:output.obj
 0001:000993e4       ??$count@D@formatting_buffer@__crt_stdio_output@@QBEIXZ 1009a3e4 f i libucrt:output.obj
 0001:000993fc       ??$ensure_buffer_is_big_enough@D@formatting_buffer@__crt_stdio_output@@QAE_NI@Z 1009a3fc f i libucrt:output.obj
 0001:00099482       ??$is_wide_character_specifier@D@__crt_stdio_output@@YA_N_KDW4length_modifier@0@@Z 1009a482 f i libucrt:output.obj
 0001:000994c2       ??$is_wide_character_specifier@_W@__crt_stdio_output@@YA_N_K_WW4length_modifier@0@@Z 1009a4c2 f i libucrt:output.obj
 0001:00099511       ??$scratch_data@D@formatting_buffer@__crt_stdio_output@@QAEPADXZ 1009a511 f i libucrt:output.obj
 0001:0009952f       ??$type_case_integer_parse_into_buffer@I@?$output_processor@DV?$string_output_adapter@D@__crt_stdio_output@@V?$standard_base@DV?$string_output_adapter@D@__crt_stdio_output@@@2@@__crt_stdio_output@@AAEXII_N@Z 1009a52f f i libucrt:output.obj
 0001:0009952f       ??$type_case_integer_parse_into_buffer@I@?$output_processor@DV?$string_output_adapter@D@__crt_stdio_output@@V?$format_validation_base@DV?$string_output_adapter@D@__crt_stdio_output@@@2@@__crt_stdio_output@@AAEXII_N@Z 1009a52f f i libucrt:output.obj
 0001:0009952f       ??$type_case_integer_parse_into_buffer@I@?$output_processor@_WV?$string_output_adapter@_W@__crt_stdio_output@@V?$standard_base@_WV?$string_output_adapter@_W@__crt_stdio_output@@@2@@__crt_stdio_output@@AAEXII_N@Z 1009a52f f i libucrt:output.obj
 0001:0009952f       ??$type_case_integer_parse_into_buffer@I@?$output_processor@_WV?$stream_output_adapter@_W@__crt_stdio_output@@V?$standard_base@_WV?$stream_output_adapter@_W@__crt_stdio_output@@@2@@__crt_stdio_output@@AAEXII_N@Z 1009a52f f i libucrt:output.obj
 0001:0009952f       ??$type_case_integer_parse_into_buffer@I@?$output_processor@_WV?$string_output_adapter@_W@__crt_stdio_output@@V?$format_validation_base@_WV?$string_output_adapter@_W@__crt_stdio_output@@@2@@__crt_stdio_output@@AAEXII_N@Z 1009a52f f i libucrt:output.obj
 0001:000995a4       ??$type_case_integer_parse_into_buffer@_K@?$output_processor@DV?$string_output_adapter@D@__crt_stdio_output@@V?$format_validation_base@DV?$string_output_adapter@D@__crt_stdio_output@@@2@@__crt_stdio_output@@AAEX_KI_N@Z 1009a5a4 f i libucrt:output.obj
 0001:000995a4       ??$type_case_integer_parse_into_buffer@_K@?$output_processor@DV?$string_output_adapter@D@__crt_stdio_output@@V?$standard_base@DV?$string_output_adapter@D@__crt_stdio_output@@@2@@__crt_stdio_output@@AAEX_KI_N@Z 1009a5a4 f i libucrt:output.obj
 0001:000995a4       ??$type_case_integer_parse_into_buffer@_K@?$output_processor@_WV?$string_output_adapter@_W@__crt_stdio_output@@V?$standard_base@_WV?$string_output_adapter@_W@__crt_stdio_output@@@2@@__crt_stdio_output@@AAEX_KI_N@Z 1009a5a4 f i libucrt:output.obj
 0001:000995a4       ??$type_case_integer_parse_into_buffer@_K@?$output_processor@_WV?$stream_output_adapter@_W@__crt_stdio_output@@V?$standard_base@_WV?$stream_output_adapter@_W@__crt_stdio_output@@@2@@__crt_stdio_output@@AAEX_KI_N@Z 1009a5a4 f i libucrt:output.obj
 0001:000995a4       ??$type_case_integer_parse_into_buffer@_K@?$output_processor@_WV?$string_output_adapter@_W@__crt_stdio_output@@V?$format_validation_base@_WV?$string_output_adapter@_W@__crt_stdio_output@@@2@@__crt_stdio_output@@AAEX_KI_N@Z 1009a5a4 f i libucrt:output.obj
 0001:0009962c       ??$write_multiple_characters@V?$stream_output_adapter@_W@__crt_stdio_output@@D@__crt_stdio_output@@YAXABV?$stream_output_adapter@_W@0@DHQAH@Z 1009a62c f i libucrt:output.obj
 0001:0009965d       ??$write_multiple_characters@V?$string_output_adapter@D@__crt_stdio_output@@D@__crt_stdio_output@@YAXABV?$string_output_adapter@D@0@DHQAH@Z 1009a65d f i libucrt:output.obj
 0001:00099689       ??$write_multiple_characters@V?$string_output_adapter@_W@__crt_stdio_output@@D@__crt_stdio_output@@YAXABV?$string_output_adapter@_W@0@DHQAH@Z 1009a689 f i libucrt:output.obj
 0001:000996ba       ??0?$common_data@D@__crt_stdio_output@@IAE@XZ 1009a6ba f i libucrt:output.obj
 0001:00099701       ??0?$common_data@_W@__crt_stdio_output@@IAE@XZ 1009a701 f i libucrt:output.obj
 0001:0009974d       ??0?$output_adapter_data@DV?$string_output_adapter@D@__crt_stdio_output@@@__crt_stdio_output@@IAE@ABV?$string_output_adapter@D@1@_KQBDQAU__crt_locale_pointers@@QAD@Z 1009a74d f i libucrt:output.obj
 0001:00099789       ??0?$output_adapter_data@_WV?$stream_output_adapter@_W@__crt_stdio_output@@@__crt_stdio_output@@IAE@ABV?$stream_output_adapter@_W@1@_KQB_WQAU__crt_locale_pointers@@QAD@Z 1009a789 f i libucrt:output.obj
 0001:00099789       ??0?$output_adapter_data@_WV?$string_output_adapter@_W@__crt_stdio_output@@@__crt_stdio_output@@IAE@ABV?$string_output_adapter@_W@1@_KQB_WQAU__crt_locale_pointers@@QAD@Z 1009a789 f i libucrt:output.obj
 0001:000997c5       ??0?$output_processor@DV?$string_output_adapter@D@__crt_stdio_output@@V?$standard_base@DV?$string_output_adapter@D@__crt_stdio_output@@@2@@__crt_stdio_output@@QAE@ABV?$string_output_adapter@D@1@_KQBDQAU__crt_locale_pointers@@QAD@Z 1009a7c5 f i libucrt:output.obj
 0001:000997c5       ??0?$output_processor@DV?$string_output_adapter@D@__crt_stdio_output@@V?$format_validation_base@DV?$string_output_adapter@D@__crt_stdio_output@@@2@@__crt_stdio_output@@QAE@ABV?$string_output_adapter@D@1@_KQBDQAU__crt_locale_pointers@@QAD@Z 1009a7c5 f i libucrt:output.obj
 0001:000997fa       ??0?$output_processor@_WV?$string_output_adapter@_W@__crt_stdio_output@@V?$standard_base@_WV?$string_output_adapter@_W@__crt_stdio_output@@@2@@__crt_stdio_output@@QAE@ABV?$string_output_adapter@_W@1@_KQB_WQAU__crt_locale_pointers@@QAD@Z 1009a7fa f i libucrt:output.obj
 0001:000997fa       ??0?$output_processor@_WV?$string_output_adapter@_W@__crt_stdio_output@@V?$format_validation_base@_WV?$string_output_adapter@_W@__crt_stdio_output@@@2@@__crt_stdio_output@@QAE@ABV?$string_output_adapter@_W@1@_KQB_WQAU__crt_locale_pointers@@QAD@Z 1009a7fa f i libucrt:output.obj
 0001:000997fa       ??0?$output_processor@_WV?$stream_output_adapter@_W@__crt_stdio_output@@V?$standard_base@_WV?$stream_output_adapter@_W@__crt_stdio_output@@@2@@__crt_stdio_output@@QAE@ABV?$stream_output_adapter@_W@1@_KQB_WQAU__crt_locale_pointers@@QAD@Z 1009a7fa f i libucrt:output.obj
 0001:0009982f       ??1formatting_buffer@__crt_stdio_output@@QAE@XZ 1009a82f f i libucrt:output.obj
 0001:00099849       ??4?$__crt_unique_heap_ptr@DU__crt_internal_free_policy@@@@QAEAAV0@$$QAV0@@Z 1009a849 f i libucrt:output.obj
 0001:0009992a       ?crop_zeroes@__crt_stdio_output@@YAXPADQAU__crt_locale_pointers@@@Z 1009a92a f i libucrt:output.obj
 0001:00099981       ?find_next_state@?$output_processor@DV?$string_output_adapter@D@__crt_stdio_output@@V?$format_validation_base@DV?$string_output_adapter@D@__crt_stdio_output@@@2@@__crt_stdio_output@@ABE?AW4state@2@DW432@@Z 1009a981 f i libucrt:output.obj
 0001:000999b6       ?find_next_state@?$output_processor@DV?$string_output_adapter@D@__crt_stdio_output@@V?$standard_base@DV?$string_output_adapter@D@__crt_stdio_output@@@2@@__crt_stdio_output@@ABE?AW4state@2@DW432@@Z 1009a9b6 f i libucrt:output.obj
 0001:000999e8       ?find_next_state@?$output_processor@_WV?$stream_output_adapter@_W@__crt_stdio_output@@V?$standard_base@_WV?$stream_output_adapter@_W@__crt_stdio_output@@@2@@__crt_stdio_output@@ABE?AW4state@2@_WW432@@Z 1009a9e8 f i libucrt:output.obj
 0001:000999e8       ?find_next_state@?$output_processor@_WV?$string_output_adapter@_W@__crt_stdio_output@@V?$standard_base@_WV?$string_output_adapter@_W@__crt_stdio_output@@@2@@__crt_stdio_output@@ABE?AW4state@2@_WW432@@Z 1009a9e8 f i libucrt:output.obj
 0001:00099a1c       ?find_next_state@?$output_processor@_WV?$string_output_adapter@_W@__crt_stdio_output@@V?$format_validation_base@_WV?$string_output_adapter@_W@__crt_stdio_output@@@2@@__crt_stdio_output@@ABE?AW4state@2@_WW432@@Z 1009aa1c f i libucrt:output.obj
 0001:00099a53       ?force_decimal_point@__crt_stdio_output@@YAXPADQAU__crt_locale_pointers@@@Z 1009aa53 f i libucrt:output.obj
 0001:00099aaf       ?parse_int_from_format_string@?$output_processor@DV?$string_output_adapter@D@__crt_stdio_output@@V?$format_validation_base@DV?$string_output_adapter@D@__crt_stdio_output@@@2@@__crt_stdio_output@@AAE_NQAH@Z 1009aaaf f i libucrt:output.obj
 0001:00099aaf       ?parse_int_from_format_string@?$output_processor@DV?$string_output_adapter@D@__crt_stdio_output@@V?$standard_base@DV?$string_output_adapter@D@__crt_stdio_output@@@2@@__crt_stdio_output@@AAE_NQAH@Z 1009aaaf f i libucrt:output.obj
 0001:00099b0b       ?parse_int_from_format_string@?$output_processor@_WV?$string_output_adapter@_W@__crt_stdio_output@@V?$standard_base@_WV?$string_output_adapter@_W@__crt_stdio_output@@@2@@__crt_stdio_output@@AAE_NQAH@Z 1009ab0b f i libucrt:output.obj
 0001:00099b0b       ?parse_int_from_format_string@?$output_processor@_WV?$stream_output_adapter@_W@__crt_stdio_output@@V?$standard_base@_WV?$stream_output_adapter@_W@__crt_stdio_output@@@2@@__crt_stdio_output@@AAE_NQAH@Z 1009ab0b f i libucrt:output.obj
 0001:00099b0b       ?parse_int_from_format_string@?$output_processor@_WV?$string_output_adapter@_W@__crt_stdio_output@@V?$format_validation_base@_WV?$string_output_adapter@_W@__crt_stdio_output@@@2@@__crt_stdio_output@@AAE_NQAH@Z 1009ab0b f i libucrt:output.obj
 0001:00099b69       ?process@?$output_processor@DV?$string_output_adapter@D@__crt_stdio_output@@V?$format_validation_base@DV?$string_output_adapter@D@__crt_stdio_output@@@2@@__crt_stdio_output@@QAEHXZ 1009ab69 f i libucrt:output.obj
 0001:00099c91       ?process@?$output_processor@DV?$string_output_adapter@D@__crt_stdio_output@@V?$standard_base@DV?$string_output_adapter@D@__crt_stdio_output@@@2@@__crt_stdio_output@@QAEHXZ 1009ac91 f i libucrt:output.obj
 0001:00099dad       ?process@?$output_processor@_WV?$stream_output_adapter@_W@__crt_stdio_output@@V?$standard_base@_WV?$stream_output_adapter@_W@__crt_stdio_output@@@2@@__crt_stdio_output@@QAEHXZ 1009adad f i libucrt:output.obj
 0001:00099ecd       ?process@?$output_processor@_WV?$string_output_adapter@_W@__crt_stdio_output@@V?$format_validation_base@_WV?$string_output_adapter@_W@__crt_stdio_output@@@2@@__crt_stdio_output@@QAEHXZ 1009aecd f i libucrt:output.obj
 0001:00099ffd       ?process@?$output_processor@_WV?$string_output_adapter@_W@__crt_stdio_output@@V?$standard_base@_WV?$string_output_adapter@_W@__crt_stdio_output@@@2@@__crt_stdio_output@@QAEHXZ 1009affd f i libucrt:output.obj
 0001:0009a11d       ?state_case_flag@?$output_processor@DV?$string_output_adapter@D@__crt_stdio_output@@V?$standard_base@DV?$string_output_adapter@D@__crt_stdio_output@@@2@@__crt_stdio_output@@AAE_NXZ 1009b11d f i libucrt:output.obj
 0001:0009a11d       ?state_case_flag@?$output_processor@DV?$string_output_adapter@D@__crt_stdio_output@@V?$format_validation_base@DV?$string_output_adapter@D@__crt_stdio_output@@@2@@__crt_stdio_output@@AAE_NXZ 1009b11d f i libucrt:output.obj
 0001:0009a15a       ?state_case_flag@?$output_processor@_WV?$stream_output_adapter@_W@__crt_stdio_output@@V?$standard_base@_WV?$stream_output_adapter@_W@__crt_stdio_output@@@2@@__crt_stdio_output@@AAE_NXZ 1009b15a f i libucrt:output.obj
 0001:0009a15a       ?state_case_flag@?$output_processor@_WV?$string_output_adapter@_W@__crt_stdio_output@@V?$standard_base@_WV?$string_output_adapter@_W@__crt_stdio_output@@@2@@__crt_stdio_output@@AAE_NXZ 1009b15a f i libucrt:output.obj
 0001:0009a15a       ?state_case_flag@?$output_processor@_WV?$string_output_adapter@_W@__crt_stdio_output@@V?$format_validation_base@_WV?$string_output_adapter@_W@__crt_stdio_output@@@2@@__crt_stdio_output@@AAE_NXZ 1009b15a f i libucrt:output.obj
 0001:0009a197       ?state_case_normal@?$output_processor@DV?$string_output_adapter@D@__crt_stdio_output@@V?$format_validation_base@DV?$string_output_adapter@D@__crt_stdio_output@@@2@@__crt_stdio_output@@AAE_NXZ 1009b197 f i libucrt:output.obj
 0001:0009a197       ?state_case_normal@?$output_processor@DV?$string_output_adapter@D@__crt_stdio_output@@V?$standard_base@DV?$string_output_adapter@D@__crt_stdio_output@@@2@@__crt_stdio_output@@AAE_NXZ 1009b197 f i libucrt:output.obj
 0001:0009a1b6       ?state_case_normal@?$output_processor@_WV?$stream_output_adapter@_W@__crt_stdio_output@@V?$standard_base@_WV?$stream_output_adapter@_W@__crt_stdio_output@@@2@@__crt_stdio_output@@AAE_NXZ 1009b1b6 f i libucrt:output.obj
 0001:0009a1d5       ?state_case_normal@?$output_processor@_WV?$string_output_adapter@_W@__crt_stdio_output@@V?$format_validation_base@_WV?$string_output_adapter@_W@__crt_stdio_output@@@2@@__crt_stdio_output@@AAE_NXZ 1009b1d5 f i libucrt:output.obj
 0001:0009a1d5       ?state_case_normal@?$output_processor@_WV?$string_output_adapter@_W@__crt_stdio_output@@V?$standard_base@_WV?$string_output_adapter@_W@__crt_stdio_output@@@2@@__crt_stdio_output@@AAE_NXZ 1009b1d5 f i libucrt:output.obj
 0001:0009a1f4       ?state_case_normal_common@?$output_processor@DV?$string_output_adapter@D@__crt_stdio_output@@V?$standard_base@DV?$string_output_adapter@D@__crt_stdio_output@@@2@@__crt_stdio_output@@AAE_NXZ 1009b1f4 f i libucrt:output.obj
 0001:0009a1f4       ?state_case_normal_common@?$output_processor@DV?$string_output_adapter@D@__crt_stdio_output@@V?$format_validation_base@DV?$string_output_adapter@D@__crt_stdio_output@@@2@@__crt_stdio_output@@AAE_NXZ 1009b1f4 f i libucrt:output.obj
 0001:0009a21e       ?state_case_normal_common@?$output_processor@_WV?$stream_output_adapter@_W@__crt_stdio_output@@V?$standard_base@_WV?$stream_output_adapter@_W@__crt_stdio_output@@@2@@__crt_stdio_output@@AAE_NXZ 1009b21e f i libucrt:output.obj
 0001:0009a239       ?state_case_normal_common@?$output_processor@_WV?$string_output_adapter@_W@__crt_stdio_output@@V?$standard_base@_WV?$string_output_adapter@_W@__crt_stdio_output@@@2@@__crt_stdio_output@@AAE_NXZ 1009b239 f i libucrt:output.obj
 0001:0009a239       ?state_case_normal_common@?$output_processor@_WV?$string_output_adapter@_W@__crt_stdio_output@@V?$format_validation_base@_WV?$string_output_adapter@_W@__crt_stdio_output@@@2@@__crt_stdio_output@@AAE_NXZ 1009b239 f i libucrt:output.obj
 0001:0009a254       ?state_case_normal_tchar@?$output_processor@DV?$string_output_adapter@D@__crt_stdio_output@@V?$format_validation_base@DV?$string_output_adapter@D@__crt_stdio_output@@@2@@__crt_stdio_output@@AAE_ND@Z 1009b254 f i libucrt:output.obj
 0001:0009a254       ?state_case_normal_tchar@?$output_processor@DV?$string_output_adapter@D@__crt_stdio_output@@V?$standard_base@DV?$string_output_adapter@D@__crt_stdio_output@@@2@@__crt_stdio_output@@AAE_ND@Z 1009b254 f i libucrt:output.obj
 0001:0009a2b5       ?state_case_precision@?$output_processor@DV?$string_output_adapter@D@__crt_stdio_output@@V?$standard_base@DV?$string_output_adapter@D@__crt_stdio_output@@@2@@__crt_stdio_output@@AAE_NXZ 1009b2b5 f i libucrt:output.obj
 0001:0009a2b5       ?state_case_precision@?$output_processor@DV?$string_output_adapter@D@__crt_stdio_output@@V?$format_validation_base@DV?$string_output_adapter@D@__crt_stdio_output@@@2@@__crt_stdio_output@@AAE_NXZ 1009b2b5 f i libucrt:output.obj
 0001:0009a2dd       ?state_case_precision@?$output_processor@_WV?$string_output_adapter@_W@__crt_stdio_output@@V?$standard_base@_WV?$string_output_adapter@_W@__crt_stdio_output@@@2@@__crt_stdio_output@@AAE_NXZ 1009b2dd f i libucrt:output.obj
 0001:0009a2dd       ?state_case_precision@?$output_processor@_WV?$string_output_adapter@_W@__crt_stdio_output@@V?$format_validation_base@_WV?$string_output_adapter@_W@__crt_stdio_output@@@2@@__crt_stdio_output@@AAE_NXZ 1009b2dd f i libucrt:output.obj
 0001:0009a2dd       ?state_case_precision@?$output_processor@_WV?$stream_output_adapter@_W@__crt_stdio_output@@V?$standard_base@_WV?$stream_output_adapter@_W@__crt_stdio_output@@@2@@__crt_stdio_output@@AAE_NXZ 1009b2dd f i libucrt:output.obj
 0001:0009a306       ?state_case_size@?$output_processor@DV?$string_output_adapter@D@__crt_stdio_output@@V?$standard_base@DV?$string_output_adapter@D@__crt_stdio_output@@@2@@__crt_stdio_output@@AAE_NXZ 1009b306 f i libucrt:output.obj
 0001:0009a306       ?state_case_size@?$output_processor@DV?$string_output_adapter@D@__crt_stdio_output@@V?$format_validation_base@DV?$string_output_adapter@D@__crt_stdio_output@@@2@@__crt_stdio_output@@AAE_NXZ 1009b306 f i libucrt:output.obj
 0001:0009a46f       ?state_case_size@?$output_processor@_WV?$stream_output_adapter@_W@__crt_stdio_output@@V?$standard_base@_WV?$stream_output_adapter@_W@__crt_stdio_output@@@2@@__crt_stdio_output@@AAE_NXZ 1009b46f f i libucrt:output.obj
 0001:0009a5eb       ?state_case_size@?$output_processor@_WV?$string_output_adapter@_W@__crt_stdio_output@@V?$format_validation_base@_WV?$string_output_adapter@_W@__crt_stdio_output@@@2@@__crt_stdio_output@@AAE_NXZ 1009b5eb f i libucrt:output.obj
 0001:0009a5eb       ?state_case_size@?$output_processor@_WV?$string_output_adapter@_W@__crt_stdio_output@@V?$standard_base@_WV?$string_output_adapter@_W@__crt_stdio_output@@@2@@__crt_stdio_output@@AAE_NXZ 1009b5eb f i libucrt:output.obj
 0001:0009a767       ?state_case_type@?$output_processor@DV?$string_output_adapter@D@__crt_stdio_output@@V?$standard_base@DV?$string_output_adapter@D@__crt_stdio_output@@@2@@__crt_stdio_output@@AAE_NXZ 1009b767 f i libucrt:output.obj
 0001:0009a767       ?state_case_type@?$output_processor@DV?$string_output_adapter@D@__crt_stdio_output@@V?$format_validation_base@DV?$string_output_adapter@D@__crt_stdio_output@@@2@@__crt_stdio_output@@AAE_NXZ 1009b767 f i libucrt:output.obj
 0001:0009a996       ?state_case_type@?$output_processor@_WV?$stream_output_adapter@_W@__crt_stdio_output@@V?$standard_base@_WV?$stream_output_adapter@_W@__crt_stdio_output@@@2@@__crt_stdio_output@@AAE_NXZ 1009b996 f i libucrt:output.obj
 0001:0009abf3       ?state_case_type@?$output_processor@_WV?$string_output_adapter@_W@__crt_stdio_output@@V?$standard_base@_WV?$string_output_adapter@_W@__crt_stdio_output@@@2@@__crt_stdio_output@@AAE_NXZ 1009bbf3 f i libucrt:output.obj
 0001:0009abf3       ?state_case_type@?$output_processor@_WV?$string_output_adapter@_W@__crt_stdio_output@@V?$format_validation_base@_WV?$string_output_adapter@_W@__crt_stdio_output@@@2@@__crt_stdio_output@@AAE_NXZ 1009bbf3 f i libucrt:output.obj
 0001:0009ae50       ?state_case_width@?$output_processor@DV?$string_output_adapter@D@__crt_stdio_output@@V?$standard_base@DV?$string_output_adapter@D@__crt_stdio_output@@@2@@__crt_stdio_output@@AAE_NXZ 1009be50 f i libucrt:output.obj
 0001:0009ae50       ?state_case_width@?$output_processor@DV?$string_output_adapter@D@__crt_stdio_output@@V?$format_validation_base@DV?$string_output_adapter@D@__crt_stdio_output@@@2@@__crt_stdio_output@@AAE_NXZ 1009be50 f i libucrt:output.obj
 0001:0009ae7b       ?state_case_width@?$output_processor@_WV?$stream_output_adapter@_W@__crt_stdio_output@@V?$standard_base@_WV?$stream_output_adapter@_W@__crt_stdio_output@@@2@@__crt_stdio_output@@AAE_NXZ 1009be7b f i libucrt:output.obj
 0001:0009ae7b       ?state_case_width@?$output_processor@_WV?$string_output_adapter@_W@__crt_stdio_output@@V?$standard_base@_WV?$string_output_adapter@_W@__crt_stdio_output@@@2@@__crt_stdio_output@@AAE_NXZ 1009be7b f i libucrt:output.obj
 0001:0009ae7b       ?state_case_width@?$output_processor@_WV?$string_output_adapter@_W@__crt_stdio_output@@V?$format_validation_base@_WV?$string_output_adapter@_W@__crt_stdio_output@@@2@@__crt_stdio_output@@AAE_NXZ 1009be7b f i libucrt:output.obj
 0001:0009aea7       ?to_integer_size@__crt_stdio_output@@YAIW4length_modifier@1@@Z 1009bea7 f i libucrt:output.obj
 0001:0009af03       ?type_case_Z@?$output_processor@DV?$string_output_adapter@D@__crt_stdio_output@@V?$format_validation_base@DV?$string_output_adapter@D@__crt_stdio_output@@@2@@__crt_stdio_output@@AAE_NXZ 1009bf03 f i libucrt:output.obj
 0001:0009af03       ?type_case_Z@?$output_processor@DV?$string_output_adapter@D@__crt_stdio_output@@V?$standard_base@DV?$string_output_adapter@D@__crt_stdio_output@@@2@@__crt_stdio_output@@AAE_NXZ 1009bf03 f i libucrt:output.obj
 0001:0009af66       ?type_case_Z@?$output_processor@_WV?$string_output_adapter@_W@__crt_stdio_output@@V?$standard_base@_WV?$string_output_adapter@_W@__crt_stdio_output@@@2@@__crt_stdio_output@@AAE_NXZ 1009bf66 f i libucrt:output.obj
 0001:0009af66       ?type_case_Z@?$output_processor@_WV?$stream_output_adapter@_W@__crt_stdio_output@@V?$standard_base@_WV?$stream_output_adapter@_W@__crt_stdio_output@@@2@@__crt_stdio_output@@AAE_NXZ 1009bf66 f i libucrt:output.obj
 0001:0009af66       ?type_case_Z@?$output_processor@_WV?$string_output_adapter@_W@__crt_stdio_output@@V?$format_validation_base@_WV?$string_output_adapter@_W@__crt_stdio_output@@@2@@__crt_stdio_output@@AAE_NXZ 1009bf66 f i libucrt:output.obj
 0001:0009afc9       ?type_case_a@?$output_processor@DV?$string_output_adapter@D@__crt_stdio_output@@V?$format_validation_base@DV?$string_output_adapter@D@__crt_stdio_output@@@2@@__crt_stdio_output@@AAE_NXZ 1009bfc9 f i libucrt:output.obj
 0001:0009afc9       ?type_case_a@?$output_processor@DV?$string_output_adapter@D@__crt_stdio_output@@V?$standard_base@DV?$string_output_adapter@D@__crt_stdio_output@@@2@@__crt_stdio_output@@AAE_NXZ 1009bfc9 f i libucrt:output.obj
 0001:0009b123       ?type_case_a@?$output_processor@_WV?$stream_output_adapter@_W@__crt_stdio_output@@V?$standard_base@_WV?$stream_output_adapter@_W@__crt_stdio_output@@@2@@__crt_stdio_output@@AAE_NXZ 1009c123 f i libucrt:output.obj
 0001:0009b123       ?type_case_a@?$output_processor@_WV?$string_output_adapter@_W@__crt_stdio_output@@V?$format_validation_base@_WV?$string_output_adapter@_W@__crt_stdio_output@@@2@@__crt_stdio_output@@AAE_NXZ 1009c123 f i libucrt:output.obj
 0001:0009b123       ?type_case_a@?$output_processor@_WV?$string_output_adapter@_W@__crt_stdio_output@@V?$standard_base@_WV?$string_output_adapter@_W@__crt_stdio_output@@@2@@__crt_stdio_output@@AAE_NXZ 1009c123 f i libucrt:output.obj
 0001:0009b295       ?type_case_c_tchar@?$output_processor@DV?$string_output_adapter@D@__crt_stdio_output@@V?$format_validation_base@DV?$string_output_adapter@D@__crt_stdio_output@@@2@@__crt_stdio_output@@AAE_ND@Z 1009c295 f i libucrt:output.obj
 0001:0009b295       ?type_case_c_tchar@?$output_processor@DV?$string_output_adapter@D@__crt_stdio_output@@V?$standard_base@DV?$string_output_adapter@D@__crt_stdio_output@@@2@@__crt_stdio_output@@AAE_ND@Z 1009c295 f i libucrt:output.obj
 0001:0009b325       ?type_case_c_tchar@?$output_processor@_WV?$string_output_adapter@_W@__crt_stdio_output@@V?$format_validation_base@_WV?$string_output_adapter@_W@__crt_stdio_output@@@2@@__crt_stdio_output@@AAE_N_W@Z 1009c325 f i libucrt:output.obj
 0001:0009b325       ?type_case_c_tchar@?$output_processor@_WV?$string_output_adapter@_W@__crt_stdio_output@@V?$standard_base@_WV?$string_output_adapter@_W@__crt_stdio_output@@@2@@__crt_stdio_output@@AAE_N_W@Z 1009c325 f i libucrt:output.obj
 0001:0009b325       ?type_case_c_tchar@?$output_processor@_WV?$stream_output_adapter@_W@__crt_stdio_output@@V?$standard_base@_WV?$stream_output_adapter@_W@__crt_stdio_output@@@2@@__crt_stdio_output@@AAE_N_W@Z 1009c325 f i libucrt:output.obj
 0001:0009b3bd       ?type_case_integer@?$output_processor@_WV?$string_output_adapter@_W@__crt_stdio_output@@V?$standard_base@_WV?$string_output_adapter@_W@__crt_stdio_output@@@2@@__crt_stdio_output@@AAE_NI_N@Z 1009c3bd f i libucrt:output.obj
 0001:0009b3bd       ?type_case_integer@?$output_processor@_WV?$stream_output_adapter@_W@__crt_stdio_output@@V?$standard_base@_WV?$stream_output_adapter@_W@__crt_stdio_output@@@2@@__crt_stdio_output@@AAE_NI_N@Z 1009c3bd f i libucrt:output.obj
 0001:0009b3bd       ?type_case_integer@?$output_processor@DV?$string_output_adapter@D@__crt_stdio_output@@V?$standard_base@DV?$string_output_adapter@D@__crt_stdio_output@@@2@@__crt_stdio_output@@AAE_NI_N@Z 1009c3bd f i libucrt:output.obj
 0001:0009b3bd       ?type_case_integer@?$output_processor@_WV?$string_output_adapter@_W@__crt_stdio_output@@V?$format_validation_base@_WV?$string_output_adapter@_W@__crt_stdio_output@@@2@@__crt_stdio_output@@AAE_NI_N@Z 1009c3bd f i libucrt:output.obj
 0001:0009b3bd       ?type_case_integer@?$output_processor@DV?$string_output_adapter@D@__crt_stdio_output@@V?$format_validation_base@DV?$string_output_adapter@D@__crt_stdio_output@@@2@@__crt_stdio_output@@AAE_NI_N@Z 1009c3bd f i libucrt:output.obj
 0001:0009b507       ?type_case_n@?$output_processor@DV?$string_output_adapter@D@__crt_stdio_output@@V?$format_validation_base@DV?$string_output_adapter@D@__crt_stdio_output@@@2@@__crt_stdio_output@@AAE_NXZ 1009c507 f i libucrt:output.obj
 0001:0009b507       ?type_case_n@?$output_processor@DV?$string_output_adapter@D@__crt_stdio_output@@V?$standard_base@DV?$string_output_adapter@D@__crt_stdio_output@@@2@@__crt_stdio_output@@AAE_NXZ 1009c507 f i libucrt:output.obj
 0001:0009b507       ?type_case_n@?$output_processor@_WV?$string_output_adapter@_W@__crt_stdio_output@@V?$format_validation_base@_WV?$string_output_adapter@_W@__crt_stdio_output@@@2@@__crt_stdio_output@@AAE_NXZ 1009c507 f i libucrt:output.obj
 0001:0009b507       ?type_case_n@?$output_processor@_WV?$string_output_adapter@_W@__crt_stdio_output@@V?$standard_base@_WV?$string_output_adapter@_W@__crt_stdio_output@@@2@@__crt_stdio_output@@AAE_NXZ 1009c507 f i libucrt:output.obj
 0001:0009b507       ?type_case_n@?$output_processor@_WV?$stream_output_adapter@_W@__crt_stdio_output@@V?$standard_base@_WV?$stream_output_adapter@_W@__crt_stdio_output@@@2@@__crt_stdio_output@@AAE_NXZ 1009c507 f i libucrt:output.obj
 0001:0009b57b       ?type_case_o@?$output_processor@_WV?$string_output_adapter@_W@__crt_stdio_output@@V?$standard_base@_WV?$string_output_adapter@_W@__crt_stdio_output@@@2@@__crt_stdio_output@@AAE_NXZ 1009c57b f i libucrt:output.obj
 0001:0009b57b       ?type_case_o@?$output_processor@DV?$string_output_adapter@D@__crt_stdio_output@@V?$standard_base@DV?$string_output_adapter@D@__crt_stdio_output@@@2@@__crt_stdio_output@@AAE_NXZ 1009c57b f i libucrt:output.obj
 0001:0009b57b       ?type_case_o@?$output_processor@DV?$string_output_adapter@D@__crt_stdio_output@@V?$format_validation_base@DV?$string_output_adapter@D@__crt_stdio_output@@@2@@__crt_stdio_output@@AAE_NXZ 1009c57b f i libucrt:output.obj
 0001:0009b57b       ?type_case_o@?$output_processor@_WV?$string_output_adapter@_W@__crt_stdio_output@@V?$format_validation_base@_WV?$string_output_adapter@_W@__crt_stdio_output@@@2@@__crt_stdio_output@@AAE_NXZ 1009c57b f i libucrt:output.obj
 0001:0009b57b       ?type_case_o@?$output_processor@_WV?$stream_output_adapter@_W@__crt_stdio_output@@V?$standard_base@_WV?$stream_output_adapter@_W@__crt_stdio_output@@@2@@__crt_stdio_output@@AAE_NXZ 1009c57b f i libucrt:output.obj
 0001:0009b59a       ?type_case_p@?$output_processor@DV?$string_output_adapter@D@__crt_stdio_output@@V?$standard_base@DV?$string_output_adapter@D@__crt_stdio_output@@@2@@__crt_stdio_output@@AAE_NXZ 1009c59a f i libucrt:output.obj
 0001:0009b59a       ?type_case_p@?$output_processor@DV?$string_output_adapter@D@__crt_stdio_output@@V?$format_validation_base@DV?$string_output_adapter@D@__crt_stdio_output@@@2@@__crt_stdio_output@@AAE_NXZ 1009c59a f i libucrt:output.obj
 0001:0009b59a       ?type_case_p@?$output_processor@_WV?$string_output_adapter@_W@__crt_stdio_output@@V?$standard_base@_WV?$string_output_adapter@_W@__crt_stdio_output@@@2@@__crt_stdio_output@@AAE_NXZ 1009c59a f i libucrt:output.obj
 0001:0009b59a       ?type_case_p@?$output_processor@_WV?$string_output_adapter@_W@__crt_stdio_output@@V?$format_validation_base@_WV?$string_output_adapter@_W@__crt_stdio_output@@@2@@__crt_stdio_output@@AAE_NXZ 1009c59a f i libucrt:output.obj
 0001:0009b59a       ?type_case_p@?$output_processor@_WV?$stream_output_adapter@_W@__crt_stdio_output@@V?$standard_base@_WV?$stream_output_adapter@_W@__crt_stdio_output@@@2@@__crt_stdio_output@@AAE_NXZ 1009c59a f i libucrt:output.obj
 0001:0009b5b2       ?type_case_s@?$output_processor@DV?$string_output_adapter@D@__crt_stdio_output@@V?$standard_base@DV?$string_output_adapter@D@__crt_stdio_output@@@2@@__crt_stdio_output@@AAE_NXZ 1009c5b2 f i libucrt:output.obj
 0001:0009b5b2       ?type_case_s@?$output_processor@DV?$string_output_adapter@D@__crt_stdio_output@@V?$format_validation_base@DV?$string_output_adapter@D@__crt_stdio_output@@@2@@__crt_stdio_output@@AAE_NXZ 1009c5b2 f i libucrt:output.obj
 0001:0009b625       ?type_case_s@?$output_processor@_WV?$stream_output_adapter@_W@__crt_stdio_output@@V?$standard_base@_WV?$stream_output_adapter@_W@__crt_stdio_output@@@2@@__crt_stdio_output@@AAE_NXZ 1009c625 f i libucrt:output.obj
 0001:0009b625       ?type_case_s@?$output_processor@_WV?$string_output_adapter@_W@__crt_stdio_output@@V?$standard_base@_WV?$string_output_adapter@_W@__crt_stdio_output@@@2@@__crt_stdio_output@@AAE_NXZ 1009c625 f i libucrt:output.obj
 0001:0009b625       ?type_case_s@?$output_processor@_WV?$string_output_adapter@_W@__crt_stdio_output@@V?$format_validation_base@_WV?$string_output_adapter@_W@__crt_stdio_output@@@2@@__crt_stdio_output@@AAE_NXZ 1009c625 f i libucrt:output.obj
 0001:0009b699       ?type_case_s_compute_narrow_string_length@?$output_processor@_WV?$stream_output_adapter@_W@__crt_stdio_output@@V?$standard_base@_WV?$stream_output_adapter@_W@__crt_stdio_output@@@2@@__crt_stdio_output@@ABEHH_W@Z 1009c699 f i libucrt:output.obj
 0001:0009b699       ?type_case_s_compute_narrow_string_length@?$output_processor@_WV?$string_output_adapter@_W@__crt_stdio_output@@V?$format_validation_base@_WV?$string_output_adapter@_W@__crt_stdio_output@@@2@@__crt_stdio_output@@ABEHH_W@Z 1009c699 f i libucrt:output.obj
 0001:0009b699       ?type_case_s_compute_narrow_string_length@?$output_processor@_WV?$string_output_adapter@_W@__crt_stdio_output@@V?$standard_base@_WV?$string_output_adapter@_W@__crt_stdio_output@@@2@@__crt_stdio_output@@ABEHH_W@Z 1009c699 f i libucrt:output.obj
 0001:0009b6d9       ?validate@?$string_output_adapter@D@__crt_stdio_output@@QBE_NXZ 1009c6d9 f i libucrt:output.obj
 0001:0009b6d9       ?validate@?$c_string_character_source@D@__crt_strtox@@QBE_NXZ 1009c6d9 f i libucrt:strtox.obj
 0001:0009b6d9       ?validate@?$stream_output_adapter@_W@__crt_stdio_output@@QBE_NXZ 1009c6d9 f i libucrt:output.obj
 0001:0009b6d9       ?validate@?$string_output_adapter@_W@__crt_stdio_output@@QBE_NXZ 1009c6d9 f i libucrt:output.obj
 0001:0009b6d9       ?validate@?$c_string_character_source@_W@__crt_strtox@@QBE_NXZ 1009c6d9 f i libucrt:strtox.obj
 0001:0009b6f4       ?validate_and_update_state_at_end_of_format_string@?$format_validation_base@_WV?$string_output_adapter@_W@__crt_stdio_output@@@__crt_stdio_output@@IBE_NXZ 1009c6f4 f i libucrt:output.obj
 0001:0009b6f4       ?validate_and_update_state_at_end_of_format_string@?$format_validation_base@DV?$string_output_adapter@D@__crt_stdio_output@@@__crt_stdio_output@@IBE_NXZ 1009c6f4 f i libucrt:output.obj
 0001:0009b716       ?write_character@?$stream_output_adapter@_W@__crt_stdio_output@@QBEX_WQAH@Z 1009c716 f i libucrt:output.obj
 0001:0009b756       ?write_character@?$string_output_adapter@D@__crt_stdio_output@@QBE_NDQAH@Z 1009c756 f i libucrt:output.obj
 0001:0009b798       ?write_character@?$string_output_adapter@_W@__crt_stdio_output@@QBE_N_WQAH@Z 1009c798 f i libucrt:output.obj
 0001:0009b7dd       ?write_stored_string_tchar@?$output_processor@DV?$string_output_adapter@D@__crt_stdio_output@@V?$standard_base@DV?$string_output_adapter@D@__crt_stdio_output@@@2@@__crt_stdio_output@@AAE_ND@Z 1009c7dd f i libucrt:output.obj
 0001:0009b7dd       ?write_stored_string_tchar@?$output_processor@DV?$string_output_adapter@D@__crt_stdio_output@@V?$format_validation_base@DV?$string_output_adapter@D@__crt_stdio_output@@@2@@__crt_stdio_output@@AAE_ND@Z 1009c7dd f i libucrt:output.obj
 0001:0009b884       ?write_stored_string_tchar@?$output_processor@_WV?$stream_output_adapter@_W@__crt_stdio_output@@V?$standard_base@_WV?$stream_output_adapter@_W@__crt_stdio_output@@@2@@__crt_stdio_output@@AAE_N_W@Z 1009c884 f i libucrt:output.obj
 0001:0009b90f       ?write_stored_string_tchar@?$output_processor@_WV?$string_output_adapter@_W@__crt_stdio_output@@V?$standard_base@_WV?$string_output_adapter@_W@__crt_stdio_output@@@2@@__crt_stdio_output@@AAE_N_W@Z 1009c90f f i libucrt:output.obj
 0001:0009b90f       ?write_stored_string_tchar@?$output_processor@_WV?$string_output_adapter@_W@__crt_stdio_output@@V?$format_validation_base@_WV?$string_output_adapter@_W@__crt_stdio_output@@@2@@__crt_stdio_output@@AAE_N_W@Z 1009c90f f i libucrt:output.obj
 0001:0009b99a       ?write_string@?$stream_output_adapter@_W@__crt_stdio_output@@QBEXQB_WHQAH1@Z 1009c99a f i libucrt:output.obj
 0001:0009ba27       ?write_string@?$string_output_adapter@D@__crt_stdio_output@@QBEXQBDHQAH1@Z 1009ca27 f i libucrt:output.obj
 0001:0009baba       ?write_string@?$string_output_adapter@_W@__crt_stdio_output@@QBEXQB_WHQAH1@Z 1009caba f i libucrt:output.obj
 0001:0009bb54       ___stdio_common_vfwprintf  1009cb54 f   libucrt:output.obj
 0001:0009bbcb       ___stdio_common_vsnprintf_s 1009cbcb f   libucrt:output.obj
 0001:0009bbf2       ___stdio_common_vsprintf   1009cbf2 f   libucrt:output.obj
 0001:0009bc16       ___stdio_common_vswprintf  1009cc16 f   libucrt:output.obj
 0001:0009bc3a       ___stdio_common_vswprintf_s 1009cc3a f   libucrt:output.obj
 0001:0009bc5e       __strnicmp                 1009cc5e f   libucrt:strnicmp.obj
 0001:0009bcca       __strnicmp_l               1009ccca f   libucrt:strnicmp.obj
 0001:0009bf04       __lseeki64                 1009cf04 f   libucrt:lseek.obj
 0001:0009bf1f       __lseeki64_nolock          1009cf1f f   libucrt:lseek.obj
 0001:0009bf67       __getdrive                 1009cf67 f   libucrt:drive.obj
 0001:0009c016       __chsize_nolock            1009d016 f   libucrt:chsize.obj
 0001:0009c1a7       __waccess                  1009d1a7 f   libucrt:waccess.obj
 0001:0009c1bf       __waccess_s                1009d1bf f   libucrt:waccess.obj
 0001:0009c27f       __wmkdir                   1009d27f f   libucrt:wmkdir.obj
 0001:0009c2a9       ___acrt_lowio_create_handle_array 1009d2a9 f   libucrt:osfinfo.obj
 0001:0009c323       ___acrt_lowio_destroy_handle_array 1009d323 f   libucrt:osfinfo.obj
 0001:0009c358       ___acrt_lowio_ensure_fh_exists 1009d358 f   libucrt:osfinfo.obj
 0001:0009c3f0       ___acrt_lowio_lock_fh      1009d3f0 f   libucrt:osfinfo.obj
 0001:0009c413       ___acrt_lowio_set_os_handle 1009d413 f   libucrt:osfinfo.obj
 0001:0009c4a7       ___acrt_lowio_unlock_fh    1009d4a7 f   libucrt:osfinfo.obj
 0001:0009c4ca       __alloc_osfhnd             1009d4ca f   libucrt:osfinfo.obj
 0001:0009c5dc       __free_osfhnd              1009d5dc f   libucrt:osfinfo.obj
 0001:0009c66d       __get_osfhandle            1009d66d f   libucrt:osfinfo.obj
 0001:0009cc95       __wopen                    1009dc95 f   libucrt:open.obj
 0001:0009ccad       __wsopen_nolock            1009dcad f   libucrt:open.obj
 0001:0009cfd6       __wrmdir                   1009dfd6 f   libucrt:wrmdir.obj
 0001:0009cffe       ??$__crt_time_elapsed_leap_years@H@@YAHH@Z 1009dffe f i libucrt:gmtime.obj
 0001:0009d038       ??$__crt_time_is_leap_year@H@@YA_NH@Z 1009e038 f i libucrt:gmtime.obj
 0001:0009d26a       ___getgmtimebuf            1009e26a f   libucrt:gmtime.obj
 0001:0009d2a8       __gmtime64                 1009e2a8 f   libucrt:gmtime.obj
 0001:0009d2cf       __gmtime64_s               1009e2cf f   libucrt:gmtime.obj
 0001:0009d2da       __wchmod                   1009e2da f   libucrt:wchmod.obj
 0001:0009d472       __mktemp_s                 1009e472 f   libucrt:mktemp.obj
 0001:0009d707       __localtime64              1009e707 f   libucrt:localtime.obj
 0001:0009d72e       __localtime64_s            1009e72e f   libucrt:localtime.obj
 0001:0009d739       __wremove                  1009e739 f   libucrt:wunlink.obj
 0001:0009d761       __wunlink                  1009e761 f   libucrt:wunlink.obj
 0001:0009d76c       __difftime64               1009e76c f   libucrt:difftime.obj
 0001:0009d7b3       ??$__crt_time_elapsed_leap_years@_J@@YA_J_J@Z 1009e7b3 f i libucrt:mktime.obj
 0001:0009d819       ??$__crt_time_is_leap_year@_J@@YA_N_J@Z 1009e819 f i libucrt:mktime.obj
 0001:0009dcab       __mktime64                 1009ecab f   libucrt:mktime.obj
 0001:0009dd3d       __time64                   1009ed3d f   libucrt:time.obj
 0001:0009dd7f       __chvalidchk_l             1009ed7f f i libucrt:_ctype.obj
 0001:0009dda9       __isalnum_l                1009eda9 f i libucrt:_ctype.obj
 0001:0009dde4       __isalpha_l                1009ede4 f i libucrt:_ctype.obj
 0001:0009de1f       __ischartype_l             1009ee1f f i libucrt:_ctype.obj
 0001:0009de52       __iscntrl_l                1009ee52 f i libucrt:_ctype.obj
 0001:0009de8a       __isdigit_l                1009ee8a f i libucrt:_ctype.obj
 0001:0009dec2       __isgraph_l                1009eec2 f i libucrt:_ctype.obj
 0001:0009defd       __islower_l                1009eefd f i libucrt:_ctype.obj
 0001:0009df35       __isprint_l                1009ef35 f i libucrt:_ctype.obj
 0001:0009df70       __ispunct_l                1009ef70 f i libucrt:_ctype.obj
 0001:0009dfa8       __isspace_l                1009efa8 f i libucrt:_ctype.obj
 0001:0009dfe0       __isupper_l                1009efe0 f i libucrt:_ctype.obj
 0001:0009e018       __isxdigit_l               1009f018 f i libucrt:_ctype.obj
 0001:0009e053       _isalnum                   1009f053 f i libucrt:_ctype.obj
 0001:0009e082       _isalpha                   1009f082 f i libucrt:_ctype.obj
 0001:0009e0b1       _iscntrl                   1009f0b1 f i libucrt:_ctype.obj
 0001:0009e0de       _isdigit                   1009f0de f i libucrt:_ctype.obj
 0001:0009e10b       _isgraph                   1009f10b f i libucrt:_ctype.obj
 0001:0009e13a       _islower                   1009f13a f i libucrt:_ctype.obj
 0001:0009e167       _isprint                   1009f167 f i libucrt:_ctype.obj
 0001:0009e196       _ispunct                   1009f196 f i libucrt:_ctype.obj
 0001:0009e1c3       _isspace                   1009f1c3 f i libucrt:_ctype.obj
 0001:0009e1f0       _isupper                   1009f1f0 f i libucrt:_ctype.obj
 0001:0009e21d       _isxdigit                  1009f21d f i libucrt:_ctype.obj
 0001:0009e51a       __tolower_l                1009f51a f   libucrt:tolower_toupper.obj
 0001:0009e534       __toupper_l                1009f534 f   libucrt:tolower_toupper.obj
 0001:0009e54e       _tolower                   1009f54e f   libucrt:tolower_toupper.obj
 0001:0009e57e       _toupper                   1009f57e f   libucrt:tolower_toupper.obj
 0001:0009e5ae       ??$is_overflow_condition@K@__crt_strtox@@YA_NIK@Z 1009f5ae f i libucrt:strtox.obj
 0001:0009e5e1       ??$make_c_string_character_source@D$$T@__crt_strtox@@YA?AV?$c_string_character_source@D@0@QBD$$T@Z 1009f5e1 f i libucrt:atox.obj
 0001:0009e5e1       ??$make_c_string_character_source@DPAPAD@__crt_strtox@@YA?AV?$c_string_character_source@D@0@QBDQAPAD@Z 1009f5e1 f i libucrt:strtox.obj
 0001:0009e5e1       ??$make_c_string_character_source@_WPAPA_W@__crt_strtox@@YA?AV?$c_string_character_source@_W@0@QB_WQAPA_W@Z 1009f5e1 f i libucrt:strtox.obj
 0001:0009e5fc       ??$parse_integer@KV?$c_string_character_source@D@__crt_strtox@@@__crt_strtox@@YAKQAU__crt_locale_pointers@@V?$c_string_character_source@D@0@H_N@Z 1009f5fc f i libucrt:strtox.obj
 0001:0009e824       ??$parse_integer@KV?$c_string_character_source@_W@__crt_strtox@@@__crt_strtox@@YAKQAU__crt_locale_pointers@@V?$c_string_character_source@_W@0@H_N@Z 1009f824 f i libucrt:strtox.obj
 0001:0009ef09       ?unget@?$c_string_character_source@D@__crt_strtox@@QAEXD@Z 1009ff09 f i libucrt:strtox.obj
 0001:0009ef31       ?unget@?$c_string_character_source@_W@__crt_strtox@@QAEX_W@Z 1009ff31 f i libucrt:strtox.obj
 0001:0009ef5d       _strtol                    1009ff5d f   libucrt:strtox.obj
 0001:0009ef89       _strtoul                   1009ff89 f   libucrt:strtox.obj
 0001:0009efb5       _wcstol                    1009ffb5 f   libucrt:strtox.obj
 0001:0009efe1       __fputc_nolock             1009ffe1 f   libucrt:fputc.obj
 0001:0009f00a       _fputc                     100a000a f   libucrt:fputc.obj
 0001:0009f10e       ??$?RV<lambda_11b4f7b0d3157825a5656a18eba1ae27>@@AAV<lambda_b51c0495177f500e782686251704ae76>@@V<lambda_cf89b47920b5017557bfe891e78aca36>@@@?$__crt_seh_guarded_call@I@@QAEI$$QAV<lambda_11b4f7b0d3157825a5656a18eba1ae27>@@AAV<lambda_b51c0495177f500e782686251704ae76>@@$$QAV<lambda_cf89b47920b5017557bfe891e78aca36>@@@Z 100a010e f i libucrt:fwrite.obj
 0001:0009f15f       ??$__acrt_lock_stream_and_call@V<lambda_b51c0495177f500e782686251704ae76>@@@@YAIQAU_iobuf@@$$QAV<lambda_b51c0495177f500e782686251704ae76>@@@Z 100a015f f i libucrt:fwrite.obj
 0001:0009f1cd       __fwrite_nolock            100a01cd f   libucrt:fwrite.obj
 0001:0009f346       _fwrite                    100a0346 f   libucrt:fwrite.obj
 0001:0009f39e       ____lc_codepage_func       100a039e f   libucrt:initctype.obj
 0001:0009f3c5       ____mb_cur_max_func        100a03c5 f   libucrt:initctype.obj
 0001:0009f3ec       _wcsncmp                   100a03ec f   libucrt:wcsncmp.obj
 0001:0009f426       _rand                      100a0426 f   libucrt:rand.obj
 0001:0009f450       _strspn                    100a0450 f   libucrt:strspn.obj
 0001:0009f70d       __wgetenv                  100a070d f   libucrt:getenv.obj
 0001:0009f718       _getenv_s                  100a0718 f   libucrt:getenv.obj
 0001:0009f723       ?initialize@?$dual_state_global@P6AHPAU_exception@@@Z@__crt_state_management@@QAEXQ6AHPAU_exception@@@Z@Z 100a0723 f i libucrt:matherr.obj
 0001:0009f723       ?initialize@?$dual_state_global@P6AXPB_W00II@Z@__crt_state_management@@QAEXQ6AXPB_W00II@Z@Z 100a0723 f i libucrt:invalid_parameter.obj
 0001:0009f723       ?initialize@?$dual_state_global@J@__crt_state_management@@QAEXJ@Z 100a0723 f i libucrt:timeset.obj
 0001:0009f723       ?initialize@?$dual_state_global@P6AXH@Z@__crt_state_management@@QAEXQ6AXH@Z@Z 100a0723 f i libucrt:signal.obj
 0001:0009f723       ?initialize@?$dual_state_global@H@__crt_state_management@@QAEXH@Z 100a0723 f i libucrt:timeset.obj
 0001:0009f723       ?initialize@?$dual_state_global@PAU__crt_locale_data@@@__crt_state_management@@QAEXQAU__crt_locale_data@@@Z 100a0723 f i libucrt:initialization.obj
 0001:0009f723       ?initialize@?$dual_state_global@PAPA_W@__crt_state_management@@QAEXQAPA_W@Z 100a0723 f i libucrt:environment_initialization.obj
 0001:0009f723       ?initialize@?$dual_state_global@PAPAD@__crt_state_management@@QAEXQAPAD@Z 100a0723 f i libucrt:environment_initialization.obj
 0001:0009f723       ?initialize@?$dual_state_global@P6AHI@Z@__crt_state_management@@QAEXQ6AHI@Z@Z 100a0723 f i libucrt:new_handler.obj
 0001:0009f754       ___acrt_initialize_new_handler 100a0754 f   libucrt:new_handler.obj
 0001:0009f768       __callnewh                 100a0768 f   libucrt:new_handler.obj
 0001:0009f7ac       __query_new_handler        100a07ac f   libucrt:new_handler.obj
 0001:0009f7fe       __initterm                 100a07fe f   libucrt:initterm.obj
 0001:0009f85a       __initterm_e               100a085a f   libucrt:initterm.obj
 0001:0009f89f       __seh_filter_dll           100a089f f   libucrt:exception_filter.obj
 0001:0009f8bf       __seh_filter_exe           100a08bf f   libucrt:exception_filter.obj
 0001:0009fc4d       ___acrt_initialize_thread_local_exit_callback 100a0c4d f   libucrt:exit.obj
 0001:0009fc5c       __cexit                    100a0c5c f   libucrt:exit.obj
 0001:0009fc6b       __exit                     100a0c6b f   libucrt:exit.obj
 0001:0009fc81       __is_c_termination_complete 100a0c81 f   libucrt:exit.obj
 0001:0009ff20       ___acrt_allocate_buffer_for_argv 100a0f20 f   libucrt:argv_parsing.obj
 0001:0009ff75       __configure_narrow_argv    100a0f75 f   libucrt:argv_parsing.obj
 0001:000a037d       ??$uninitialize@A6AXAAPAPAD@Z@?$dual_state_global@PAPAD@__crt_state_management@@QAEXA6AXAAPAPAD@Z@Z 100a137d f i libucrt:environment_initialization.obj
 0001:000a037d       ??$uninitialize@A6AXAAPAPA_W@Z@?$dual_state_global@PAPA_W@__crt_state_management@@QAEXA6AXAAPAPA_W@Z@Z 100a137d f i libucrt:environment_initialization.obj
 0001:000a03f3       ___dcrt_get_or_create_narrow_environment_nolock 100a13f3 f   libucrt:environment_initialization.obj
 0001:000a03f8       ___dcrt_get_or_create_wide_environment_nolock 100a13f8 f   libucrt:environment_initialization.obj
 0001:000a03fd       ___dcrt_uninitialize_environments_nolock 100a13fd f   libucrt:environment_initialization.obj
 0001:000a0434       __initialize_narrow_environment 100a1434 f   libucrt:environment_initialization.obj
 0001:000a0439       ??$?RV<lambda_800076c951b434888f4765a74a194fcc>@@AAV<lambda_4e60a939b0d047cfe11ddc22648dfba9>@@V<lambda_6dbb1268764f43b569ce7b67e331d33a>@@@?$__crt_seh_guarded_call@H@@QAEH$$QAV<lambda_800076c951b434888f4765a74a194fcc>@@AAV<lambda_4e60a939b0d047cfe11ddc22648dfba9>@@$$QAV<lambda_6dbb1268764f43b569ce7b67e331d33a>@@@Z 100a1439 f i libucrt:onexit.obj
 0001:000a048a       ??$?RV<lambda_995298e7d72eb4c2aab26c0585b3abe5>@@AAV<lambda_275893d493268fdec8709772e3fcec0e>@@V<lambda_293819299cbf9a7022e18b56a874bb5c>@@@?$__crt_seh_guarded_call@H@@QAEH$$QAV<lambda_995298e7d72eb4c2aab26c0585b3abe5>@@AAV<lambda_275893d493268fdec8709772e3fcec0e>@@$$QAV<lambda_293819299cbf9a7022e18b56a874bb5c>@@@Z 100a148a f i libucrt:onexit.obj
 0001:000a04db       ??$__acrt_lock_and_call@V<lambda_275893d493268fdec8709772e3fcec0e>@@@@YAHW4__acrt_lock_id@@$$QAV<lambda_275893d493268fdec8709772e3fcec0e>@@@Z 100a14db f i libucrt:onexit.obj
 0001:000a0503       ??$__acrt_lock_and_call@V<lambda_4e60a939b0d047cfe11ddc22648dfba9>@@@@YAHW4__acrt_lock_id@@$$QAV<lambda_4e60a939b0d047cfe11ddc22648dfba9>@@@Z 100a1503 f i libucrt:onexit.obj
 0001:000a052b       ??$__crt_fast_encode_pointer@P6AHXZ@@YAP6AHXZQ6AHXZ@Z 100a152b f i libucrt:onexit.obj
 0001:000a07ab       __crt_atexit               100a17ab f   libucrt:onexit.obj
 0001:000a07c1       __execute_onexit_table     100a17c1 f   libucrt:onexit.obj
 0001:000a07de       __initialize_onexit_table  100a17de f   libucrt:onexit.obj
 0001:000a081b       __register_onexit_function 100a181b f   libucrt:onexit.obj
 0001:000a0873       ___acrt_uninitialize_command_line 100a1873 f   libucrt:argv_data.obj
 0001:000a0933       ___acrt_initialize         100a1933 f   libucrt:initialization.obj
 0001:000a0945       ___acrt_thread_attach      100a1945 f   libucrt:initialization.obj
 0001:000a0950       ___acrt_thread_detach      100a1950 f   libucrt:initialization.obj
 0001:000a0958       ___acrt_uninitialize       100a1958 f   libucrt:initialization.obj
 0001:000a096a       ___acrt_uninitialize_critical 100a196a f   libucrt:initialization.obj
 0001:000a097c       _terminate                 100a197c f   libucrt:terminate.obj
 0001:000a09b8       _strdup                    100a19b8 f   libucrt:strdup.obj
 0001:000a09b8       __strdup                   100a19b8 f   libucrt:strdup.obj
 0001:000a0a0e       ??$?RV<lambda_123407a5e2ac06da108355a851863b7a>@@AAV<lambda_2fe9b910cf3cbf4a0ab98a02ba45b3ec>@@V<lambda_ae55bdf541ad94d75914d381c370e64d>@@@?$__crt_seh_guarded_call@H@@QAEH$$QAV<lambda_123407a5e2ac06da108355a851863b7a>@@AAV<lambda_2fe9b910cf3cbf4a0ab98a02ba45b3ec>@@$$QAV<lambda_ae55bdf541ad94d75914d381c370e64d>@@@Z 100a1a0e f i libucrt:close.obj
 0001:000a0a90       ??$__acrt_lowio_lock_fh_and_call@V<lambda_2fe9b910cf3cbf4a0ab98a02ba45b3ec>@@@@YAHH$$QAV<lambda_2fe9b910cf3cbf4a0ab98a02ba45b3ec>@@@Z 100a1a90 f i libucrt:close.obj
 0001:000a0ab8       __close                    100a1ab8 f   libucrt:close.obj
 0001:000a0ab8       _close                     100a1ab8 f   libucrt:close.obj
 0001:000a0b37       __close_nolock             100a1b37 f   libucrt:close.obj
 0001:000a10bb       _read                      100a20bb f   libucrt:read.obj
 0001:000a10bb       __read                     100a20bb f   libucrt:read.obj
 0001:000a11ce       __read_nolock              100a21ce f   libucrt:read.obj
 0001:000a1b13       __write                    100a2b13 f   libucrt:write.obj
 0001:000a1b13       _write                     100a2b13 f   libucrt:write.obj
 0001:000a1bfe       __write_nolock             100a2bfe f   libucrt:write.obj
 0001:000a1e0a       _umask                     100a2e0a f   libucrt:umask.obj
 0001:000a1e0a       __umask                    100a2e0a f   libucrt:umask.obj
 0001:000a1e2f       __umask_s                  100a2e2f f   libucrt:umask.obj
 0001:000a1e6a       _strcpy_s                  100a2e6a f   libucrt:strcpy_s.obj
 0001:000a1ec4       __free_base                100a2ec4 f   libucrt:free_base.obj
 0001:000a1efe       __malloc_base              100a2efe f   libucrt:malloc_base.obj
 0001:000a1f4c       __calloc_base              100a2f4c f   libucrt:calloc_base.obj
 0001:000a1fa9       _atol                      100a2fa9 f   libucrt:atox.obj
 0001:000a1fd3       __query_app_type           100a2fd3 f   libucrt:report_runtime_error.obj
 0001:000a20c6       __itow_s                   100a30c6 f   libucrt:xtoa.obj
 0001:000a20fb       __set_error_mode           100a30fb f   libucrt:set_error_mode.obj
 0001:000a213a       _wcscat_s                  100a313a f   libucrt:wcscat_s.obj
 0001:000a21af       _wcscpy_s                  100a31af f   libucrt:wcscpy_s.obj
 0001:000a22fc       _wcsncat_s                 100a32fc f   libucrt:wcsncat_s.obj
 0001:000a2402       ___acrt_show_wide_message_box 100a3402 f   libucrt:crtmbox.obj
 0001:000a240d       ___acrt_stdio_flush_nolock 100a340d f   libucrt:fflush.obj
 0001:000a2473       __fflush_nolock            100a3473 f   libucrt:fflush.obj
 0001:000a24ba       __flushall                 100a34ba f   libucrt:fflush.obj
 0001:000a259b       _fflush                    100a359b f   libucrt:fflush.obj
 0001:000a25f4       ??$?RV<lambda_d92cfe8357b99225085016881b624cb0>@@AAV<lambda_b721fa326cdb32351d23dfa67958c160>@@V<lambda_42d75b0848218ec137fa420c8ba9fdf9>@@@?$__crt_seh_guarded_call@H@@QAEH$$QAV<lambda_d92cfe8357b99225085016881b624cb0>@@AAV<lambda_b721fa326cdb32351d23dfa67958c160>@@$$QAV<lambda_42d75b0848218ec137fa420c8ba9fdf9>@@@Z 100a35f4 f i libucrt:setvbuf.obj
 0001:000a2645       ??$__acrt_lock_stream_and_call@V<lambda_b721fa326cdb32351d23dfa67958c160>@@@@YAHQAU_iobuf@@$$QAV<lambda_b721fa326cdb32351d23dfa67958c160>@@@Z 100a3645 f i libucrt:setvbuf.obj
 0001:000a273a       _setvbuf                   100a373a f   libucrt:setvbuf.obj
 0001:000a27b0       ??$?RV<lambda_a048d3beccc847880fc8490e18b82769>@@AAV<lambda_ec61778202f4f5fc7e7711acc23c3bca>@@V<lambda_f7496a158712204296dd6628a163878e>@@@?$__crt_seh_guarded_call@P6AXH@Z@@QAEP6AXH@Z$$QAV<lambda_a048d3beccc847880fc8490e18b82769>@@AAV<lambda_ec61778202f4f5fc7e7711acc23c3bca>@@$$QAV<lambda_f7496a158712204296dd6628a163878e>@@@Z 100a37b0 f i libucrt:signal.obj
 0001:000a280a       ??$__acrt_lock_and_call@V<lambda_ec61778202f4f5fc7e7711acc23c3bca>@@@@YAP6AXH@ZW4__acrt_lock_id@@$$QAV<lambda_ec61778202f4f5fc7e7711acc23c3bca>@@@Z 100a380a f i libucrt:signal.obj
 0001:000a289c       ___acrt_get_sigabrt_handler 100a389c f   libucrt:signal.obj
 0001:000a28b3       ___acrt_initialize_signal_handlers 100a38b3 f   libucrt:signal.obj
 0001:000a28ee       ___fpecode                 100a38ee f   libucrt:signal.obj
 0001:000a28f7       _raise                     100a38f7 f   libucrt:signal.obj
 0001:000a2aff       ??$?RV<lambda_3518db117f0e7cdb002338c5d3c47b6c>@@AAV<lambda_b2ea41f6bbb362cd97d94c6828d90b61>@@V<lambda_abdedf541bb04549bc734292b4a045d4>@@@?$__crt_seh_guarded_call@X@@QAEX$$QAV<lambda_3518db117f0e7cdb002338c5d3c47b6c>@@AAV<lambda_b2ea41f6bbb362cd97d94c6828d90b61>@@$$QAV<lambda_abdedf541bb04549bc734292b4a045d4>@@@Z 100a3aff f i libucrt:per_thread_data.obj
 0001:000a2b4f       ??$?RV<lambda_51b6e8b1eb166f2a3faf91f424b38130>@@AAV<lambda_6250bd4b2a391816dd638c3bf72b0bcb>@@V<lambda_0b5a4a3e68152e1d9b943535f5f47bed>@@@?$__crt_seh_guarded_call@X@@QAEX$$QAV<lambda_51b6e8b1eb166f2a3faf91f424b38130>@@AAV<lambda_6250bd4b2a391816dd638c3bf72b0bcb>@@$$QAV<lambda_0b5a4a3e68152e1d9b943535f5f47bed>@@@Z 100a3b4f f i libucrt:per_thread_data.obj
 0001:000a2bb0       ??$?RV<lambda_5b71d36f03204c0beab531769a5b5694>@@AAV<lambda_be2b3da3f62db62e9dad5dc70221a656>@@V<lambda_8f9ce462984622f9bf76b59e2aaaf805>@@@?$__crt_seh_guarded_call@X@@QAEX$$QAV<lambda_5b71d36f03204c0beab531769a5b5694>@@AAV<lambda_be2b3da3f62db62e9dad5dc70221a656>@@$$QAV<lambda_8f9ce462984622f9bf76b59e2aaaf805>@@@Z 100a3bb0 f i libucrt:per_thread_data.obj
 0001:000a2bfb       ??$?RV<lambda_9df27f884b057bc3edfc946cb5b7cf47>@@AAV<lambda_e69574bed617af4e071282c136b37893>@@V<lambda_cc0d902bcbbeb830f749456577db4721>@@@?$__crt_seh_guarded_call@X@@QAEX$$QAV<lambda_9df27f884b057bc3edfc946cb5b7cf47>@@AAV<lambda_e69574bed617af4e071282c136b37893>@@$$QAV<lambda_cc0d902bcbbeb830f749456577db4721>@@@Z 100a3bfb f i libucrt:per_thread_data.obj
 0001:000a2c43       ??$__acrt_lock_and_call@V<lambda_6250bd4b2a391816dd638c3bf72b0bcb>@@@@YAXW4__acrt_lock_id@@$$QAV<lambda_6250bd4b2a391816dd638c3bf72b0bcb>@@@Z 100a3c43 f i libucrt:per_thread_data.obj
 0001:000a2c6b       ??$__acrt_lock_and_call@V<lambda_b2ea41f6bbb362cd97d94c6828d90b61>@@@@YAXW4__acrt_lock_id@@$$QAV<lambda_b2ea41f6bbb362cd97d94c6828d90b61>@@@Z 100a3c6b f i libucrt:per_thread_data.obj
 0001:000a2c93       ??$__acrt_lock_and_call@V<lambda_be2b3da3f62db62e9dad5dc70221a656>@@@@YAXW4__acrt_lock_id@@$$QAV<lambda_be2b3da3f62db62e9dad5dc70221a656>@@@Z 100a3c93 f i libucrt:per_thread_data.obj
 0001:000a2cbb       ??$__acrt_lock_and_call@V<lambda_e69574bed617af4e071282c136b37893>@@@@YAXW4__acrt_lock_id@@$$QAV<lambda_e69574bed617af4e071282c136b37893>@@@Z 100a3cbb f i libucrt:per_thread_data.obj
 0001:000a2e71       ___acrt_freeptd            100a3e71 f   libucrt:per_thread_data.obj
 0001:000a2e9d       ___acrt_getptd             100a3e9d f   libucrt:per_thread_data.obj
 0001:000a2f21       ___acrt_getptd_noexit      100a3f21 f   libucrt:per_thread_data.obj
 0001:000a2fa6       ___acrt_initialize_ptd     100a3fa6 f   libucrt:per_thread_data.obj
 0001:000a2fd2       ___acrt_uninitialize_ptd   100a3fd2 f   libucrt:per_thread_data.obj
 0001:000a2fec       __realloc_base             100a3fec f   libucrt:realloc_base.obj
 0001:000a3055       ___acrt_update_locale_info 100a4055 f   libucrt:locale_update.obj
 0001:000a3082       ___acrt_update_multibyte_info 100a4082 f   libucrt:locale_update.obj
 0001:000a30af       ___acrt_set_locale_changed 100a40af f   libucrt:wsetlocale.obj
 0001:000a30ba       ___acrt_uninitialize_locale 100a40ba f   libucrt:wsetlocale.obj
 0001:000a310c       ___sys_errlist             100a410c f   libucrt:syserr.obj
 0001:000a3112       ___sys_nerr                100a4112 f   libucrt:syserr.obj
 0001:000a31c9       _strncpy_s                 100a41c9 f   libucrt:strncpy_s.obj
 0001:000a3339       ___acrt_AreFileApisANSI@0  100a4339 f   libucrt:winapi_thunks.obj
 0001:000a3387       ___acrt_CompareStringEx@36 100a4387 f   libucrt:winapi_thunks.obj
 0001:000a33fb       ___acrt_FlsAlloc@4         100a43fb f   libucrt:winapi_thunks.obj
 0001:000a3451       ___acrt_FlsFree@4          100a4451 f   libucrt:winapi_thunks.obj
 0001:000a34a7       ___acrt_FlsGetValue@4      100a44a7 f   libucrt:winapi_thunks.obj
 0001:000a34fd       ___acrt_FlsSetValue@8      100a44fd f   libucrt:winapi_thunks.obj
 0001:000a3556       ___acrt_GetSystemTimePreciseAsFileTime@4 100a4556 f   libucrt:winapi_thunks.obj
 0001:000a35ac       ___acrt_InitializeCriticalSectionEx@12 100a45ac f   libucrt:winapi_thunks.obj
 0001:000a360e       ___acrt_LCMapStringEx@36   100a460e f   libucrt:winapi_thunks.obj
 0001:000a3696       ___acrt_LocaleNameToLCID@8 100a4696 f   libucrt:winapi_thunks.obj
 0001:000a36f2       ___acrt_MessageBoxW@16     100a46f2 f   libucrt:winapi_thunks.obj
 0001:000a373b       ___acrt_can_show_message_box 100a473b f   libucrt:winapi_thunks.obj
 0001:000a3754       ___acrt_get_parent_window  100a4754 f   libucrt:winapi_thunks.obj
 0001:000a37d3       ___acrt_initialize_winapi_thunks 100a47d3 f   libucrt:winapi_thunks.obj
 0001:000a37f9       ___acrt_is_interactive     100a47f9 f   libucrt:winapi_thunks.obj
 0001:000a389f       ___acrt_is_packaged_app    100a489f f   libucrt:winapi_thunks.obj
 0001:000a3926       ___acrt_uninitialize_winapi_thunks 100a4926 f   libucrt:winapi_thunks.obj
 0001:000a395c       __fcloseall                100a495c f   libucrt:closeall.obj
 0001:000a39fc       ___acrt_stdio_free_buffer_nolock 100a49fc f   libucrt:_freebuf.obj
 0001:000a3ba6       ___acrt_initialize_lowio   100a4ba6 f   libucrt:ioinit.obj
 0001:000a3bfc       ___acrt_uninitialize_lowio 100a4bfc f   libucrt:ioinit.obj
 0001:000a3c28       __mbtowc_l                 100a4c28 f   libucrt:mbtowc.obj
 0001:000a3d22       _mbtowc                    100a4d22 f   libucrt:mbtowc.obj
 0001:000a3d3c       __wctomb_s_l               100a4d3c f   libucrt:wctomb.obj
 0001:000a3e5d       _wctomb_s                  100a4e5d f   libucrt:wctomb.obj
 0001:000a3e7a       ?__acrt_fp_classify@@YA?AW4__acrt_fp_class@@ABN@Z 100a4e7a f i libucrt:cvt.obj
 0001:000a3ee6       ?__acrt_fp_is_negative@@YA_NABN@Z 100a4ee6 f i libucrt:cvt.obj
 0001:000a4745       ___acrt_fp_format          100a5745 f   libucrt:cvt.obj
 0001:000a48c1       __fputwc_nolock            100a58c1 f   libucrt:fputwc.obj
 0001:000a49e7       __fileno                   100a59e7 f   libucrt:fileno.obj
 0001:000a4a0d       __get_printf_count_output  100a5a0d f   libucrt:printf_count_output.obj
 0001:000a4a22       ___acrt_stdio_begin_temporary_buffering_nolock 100a5a22 f   libucrt:_sftbuf.obj
 0001:000a4ad7       ___acrt_stdio_end_temporary_buffering_nolock 100a5ad7 f   libucrt:_sftbuf.obj
 0001:000a4b10       ___ascii_strnicmp          100a5b10 f   libucrt:_strnicm.obj
 0001:000a4b71       __get_fmode                100a5b71 f   libucrt:setmode.obj
 0001:000a4b9d       __setmode_nolock           100a5b9d f   libucrt:setmode.obj
 0001:000a4c6e       ___acrt_initialize_locks   100a5c6e f   libucrt:locks.obj
 0001:000a4caf       ___acrt_lock               100a5caf f   libucrt:locks.obj
 0001:000a4cc6       ___acrt_uninitialize_locks 100a5cc6 f   libucrt:locks.obj
 0001:000a4cf7       ___acrt_unlock             100a5cf7 f   libucrt:locks.obj
 0001:000a4d0e       ___acrt_copy_path_to_wide_string 100a5d0e f   libucrt:string_utilities.obj
 0001:000a4dd5       __access_s                 100a5dd5 f   libucrt:access.obj
 0001:000a4e2a       __ismbstrail               100a5e2a f   libucrt:ismbstr.obj
 0001:000a4e41       __ismbstrail_l             100a5e41 f   libucrt:ismbstr.obj
 0001:000a4ed3       ___acrt_initialize_timeset 100a5ed3 f   libucrt:timeset.obj
 0001:000a4f0a       ___daylight                100a5f0a f   libucrt:timeset.obj
 0001:000a4f10       ___dstbias                 100a5f10 f   libucrt:timeset.obj
 0001:000a4f16       ___timezone                100a5f16 f   libucrt:timeset.obj
 0001:000a4f1c       ___tzname                  100a5f1c f   libucrt:timeset.obj
 0001:000a4f22       __get_daylight             100a5f22 f   libucrt:timeset.obj
 0001:000a4f4e       __get_dstbias              100a5f4e f   libucrt:timeset.obj
 0001:000a4f7a       __get_timezone             100a5f7a f   libucrt:timeset.obj
 0001:000a56ed       ___tzset                   100a66ed f   libucrt:tzset.obj
 0001:000a573e       __isindst                  100a673e f   libucrt:tzset.obj
 0001:000a5788       ___pctype_func             100a6788 f   libucrt:ctype.obj
 0001:000a57ae       __isctype_l                100a67ae f   libucrt:isctype.obj
 0001:000a5880       __isleadbyte_l             100a6880 f i libucrt:_wctype.obj
 0001:000a5ad6       ___acrt_LCMapStringA       100a6ad6 f   libucrt:lcmapstringa.obj
 0001:000a5b21       __freea_crt                100a6b21 f i libucrt:lcmapstringa.obj
 0001:000a5b41       _iswctype                  100a6b41 f   libucrt:iswctype.obj
 0001:000a5f66       ___acrt_stdio_flush_and_write_narrow_nolock 100a6f66 f   libucrt:_flsbuf.obj
 0001:000a5f71       ___acrt_stdio_flush_and_write_wide_nolock 100a6f71 f   libucrt:_flsbuf.obj
 0001:000a5f7c       ___acrt_GetStringTypeA     100a6f7c f   libucrt:getstringtypea.obj
 0001:000a6099       __wcsnicoll                100a7099 f   libucrt:wcsnicol.obj
 0001:000a6169       __wcsnicoll_l              100a7169 f   libucrt:wcsnicol.obj
 0001:000a6296       __strnicoll                100a7296 f   libucrt:strnicol.obj
 0001:000a62bf       __strnicoll_l              100a72bf f   libucrt:strnicol.obj
 0001:000a674b       ??1?$argument_list@D@?A0xb0e4b824@@QAE@XZ 100a774b f i libucrt:argv_wildcards.obj
 0001:000a6770       ?append@?$argument_list@D@?A0xb0e4b824@@QAEHQAD@Z 100a7770 f i libucrt:argv_wildcards.obj
 0001:000a67a5       ?expand_if_necessary@?$argument_list@D@?A0xb0e4b824@@AAEHXZ 100a77a5 f i libucrt:argv_wildcards.obj
 0001:000a682c       ___acrt_expand_narrow_argv_wildcards 100a782c f   libucrt:argv_wildcards.obj
 0001:000a6837       ??$?RV<lambda_978dc153c237d78434369da87b74ff60>@@AAV<lambda_ad1ced32f4ac17aa236e5ef05d6b3b7c>@@V<lambda_4a8533e2866a575feecb8298ce776b0d>@@@?$__crt_seh_guarded_call@X@@QAEX$$QAV<lambda_978dc153c237d78434369da87b74ff60>@@AAV<lambda_ad1ced32f4ac17aa236e5ef05d6b3b7c>@@$$QAV<lambda_4a8533e2866a575feecb8298ce776b0d>@@@Z 100a7837 f i libucrt:mbctype.obj
 0001:000a687a       ??$__acrt_lock_and_call@V<lambda_ad1ced32f4ac17aa236e5ef05d6b3b7c>@@@@YAXW4__acrt_lock_id@@$$QAV<lambda_ad1ced32f4ac17aa236e5ef05d6b3b7c>@@@Z 100a787a f i libucrt:mbctype.obj
 0001:000a6d11       ___acrt_initialize_multibyte 100a7d11 f   libucrt:mbctype.obj
 0001:000a6d2f       ___acrt_update_thread_multibyte_data 100a7d2f f   libucrt:mbctype.obj
 0001:000a6dd1       __setmbcp_nolock           100a7dd1 f   libucrt:mbctype.obj
 0001:000a701b       __ismbblead                100a801b f   libucrt:ismbbyte.obj
 0001:000a7033       ___acrt_initialize_command_line 100a8033 f   libucrt:argv_data.obj
 0001:000a7083       ___dcrt_get_narrow_environment_from_os 100a8083 f   libucrt:get_environment_from_os.obj
 0001:000a7106       ___dcrt_get_wide_environment_from_os 100a8106 f   libucrt:get_environment_from_os.obj
 0001:000a77e8       ___dcrt_set_variable_in_narrow_environment_nolock 100a87e8 f   libucrt:setenv.obj
 0001:000a77f3       ___dcrt_set_variable_in_wide_environment_nolock 100a87f3 f   libucrt:setenv.obj
 0001:000a77fe       __recalloc                 100a87fe f   libucrt:recalloc.obj
 0001:000a7809       __recalloc_base            100a8809 f   libucrt:recalloc.obj
 0001:000a7876       ___acrt_initialize_heap    100a8876 f   libucrt:heap_handle.obj
 0001:000a7887       ___acrt_uninitialize_heap  100a8887 f   libucrt:heap_handle.obj
 0001:000a7891       ___acrt_execute_initializers 100a8891 f   libucrt:shared_initialization.obj
 0001:000a7914       ___acrt_execute_uninitializers 100a8914 f   libucrt:shared_initialization.obj
 0001:000a7961       ___acrt_has_user_matherr   100a8961 f   libucrt:matherr.obj
 0001:000a797a       ___acrt_initialize_user_matherr 100a897a f   libucrt:matherr.obj
 0001:000a798e       ___acrt_invoke_user_matherr 100a898e f   libucrt:matherr.obj
 0001:000a79d7       __isatty                   100a89d7 f   libucrt:isatty.obj
 0001:000a7a2d       __putwch_nolock            100a8a2d f   libucrt:putwch.obj
 0001:000a7a72       __query_new_mode           100a8a72 f   libucrt:new_mode.obj
 0001:000a7a78       ??$?RV<lambda_61cee617f5178ae960314fd4d05640a0>@@AAV<lambda_6978c1fb23f02e42e1d9e99668cc68aa>@@V<lambda_9cd88cf8ad10232537feb2133f08c833>@@@?$__crt_seh_guarded_call@H@@QAEH$$QAV<lambda_61cee617f5178ae960314fd4d05640a0>@@AAV<lambda_6978c1fb23f02e42e1d9e99668cc68aa>@@$$QAV<lambda_9cd88cf8ad10232537feb2133f08c833>@@@Z 100a8a78 f i libucrt:commit.obj
 0001:000a7b10       ??$__acrt_lowio_lock_fh_and_call@V<lambda_6978c1fb23f02e42e1d9e99668cc68aa>@@@@YAHH$$QAV<lambda_6978c1fb23f02e42e1d9e99668cc68aa>@@@Z 100a8b10 f i libucrt:commit.obj
 0001:000a7b38       __commit                   100a8b38 f   libucrt:commit.obj
 0001:000a7ba7       ___acrt_add_locale_ref     100a8ba7 f   libucrt:locale_refcounting.obj
 0001:000a7c24       ___acrt_free_locale        100a8c24 f   libucrt:locale_refcounting.obj
 0001:000a7d6e       ___acrt_locale_add_lc_time_reference 100a8d6e f   libucrt:locale_refcounting.obj
 0001:000a7d97       ___acrt_locale_free_lc_time_if_unreferenced 100a8d97 f   libucrt:locale_refcounting.obj
 0001:000a7dc7       ___acrt_locale_release_lc_time_reference 100a8dc7 f   libucrt:locale_refcounting.obj
 0001:000a7df0       ___acrt_release_locale_ref 100a8df0 f   libucrt:locale_refcounting.obj
 0001:000a7e71       ___acrt_update_thread_locale_data 100a8e71 f   libucrt:locale_refcounting.obj
 0001:000a7ee8       __updatetlocinfoEx_nolock  100a8ee8 f   libucrt:locale_refcounting.obj
 0001:000a7f38       ___acrt_locale_free_monetary 100a8f38 f   libucrt:initmon.obj
 0001:000a8036       ___acrt_locale_free_numeric 100a9036 f   libucrt:initnum.obj
 0001:000a80db       ___acrt_locale_free_time   100a90db f   libucrt:inittime.obj
 0001:000a827b       ___acrt_DownlevelLocaleNameToLCID 100a927b f   libucrt:lcidtoname_downlevel.obj
 0001:000a82a7       __fclose_nolock            100a92a7 f   libucrt:fclose.obj
 0001:000a831d       _fclose                    100a931d f   libucrt:fclose.obj
 0001:000a839d       ___acrt_fp_strflt_to_string 100a939d f   libucrt:_fptostr.obj
 0001:000a8459       ??0scoped_fp_state_reset@?A0x48fbfdd4@@QAE@XZ 100a9459 f i libucrt:cfout.obj
 0001:000a8490       ?divide@__crt_strtox@@YA_KAAUbig_integer@1@ABU21@@Z 100a9490 f i libucrt:cfout.obj
 0001:000a893e       ___acrt_fltout             100a993e f   libucrt:cfout.obj
 0001:000a9d5b       ___strncnt                 100aad5b f   libucrt:strncnt.obj
 0001:000a9d77       ___acrt_stdio_allocate_buffer_nolock 100aad77 f   libucrt:_getbuf.obj
 0001:000a9dd4       ___acrt_CompareStringW     100aadd4 f   libucrt:comparestringw.obj
 0001:000aa0e4       ___acrt_CompareStringA     100ab0e4 f   libucrt:comparestringa.obj
 0001:000aa210       _qsort                     100ab210 f   libucrt:qsort.obj
 0001:000aa5aa       __mbsdec                   100ab5aa f   libucrt:mbsdec.obj
 0001:000aa5c1       __mbsdec_l                 100ab5c1 f   libucrt:mbsdec.obj
 0001:000aa65d       __msize                    100ab65d f   libucrt:msize.obj
 0001:000aa690       ___dcrt_lowio_initialize_console_output 100ab690 f   libucrt:initcon.obj
 0001:000aa6af       ___dcrt_terminate_console_output 100ab6af f   libucrt:initcon.obj
 0001:000aa6c6       ?__acrt_stdio_free_stream@@YAXV__crt_stdio_stream@@@Z 100ab6c6 f   libucrt:stream.obj
 0001:000aa701       _fegetenv                  100ab701 f   libucrt:fegetenv.obj
 0001:000aa71e       _fesetenv                  100ab71e f   libucrt:fesetenv.obj
 0001:000aa767       _feholdexcept              100ab767 f   libucrt:feholdexcept.obj
 0001:000aa7c0       _log10                     100ab7c0 f   libucrt:log10.obj
 0001:000aa800       __CIlog10                  100ab800 f   libucrt:log10.obj
 0001:000aa83b       __CIlog10_default          100ab83b f   libucrt:log10.obj
 0001:000aa84f       __log10_default            100ab84f     libucrt:log10.obj
 0001:000aa910       _ceil                      100ab910 f   libucrt:ceil_pentium4.obj
 0001:000aa950       __ceil_pentium4            100ab950 f   libucrt:ceil_pentium4.obj
 0001:000aacd0       __getfpcontrolword         100abcd0 f   libucrt:_fenvutils.obj
 0001:000aad13       __getfpstatusword          100abd13 f   libucrt:_fenvutils.obj
 0001:000aadbb       __setfpcontrolword         100abdbb f   libucrt:_fenvutils.obj
 0001:000aae3b       __setfpstatusword          100abe3b f   libucrt:_fenvutils.obj
 0001:000aaebb       __clearfp                  100abebb f   libucrt:ieee87.obj
 0001:000aaf99       ___acrt_initialize_sse2    100abf99 f   libucrt:mathfcns.obj
 0001:000aafb0       __CIlog10_pentium4         100abfb0 f   libucrt:log10_pentium4.obj
 0001:000aafc8       __log10_pentium4           100abfc8     libucrt:log10_pentium4.obj
 0001:000ab251       __fFEXP                    100ac251     libucrt:87tran.obj
 0001:000ab2a8       __rtinfpopse               100ac2a8     libucrt:87tran.obj
 0001:000ab2aa       __rtinfnpopse              100ac2aa     libucrt:87tran.obj
 0001:000ab2ba       __fFLN                     100ac2ba     libucrt:87tran.obj
 0001:000ab36f       __rtinfpop                 100ac36f     libucrt:87tran.obj
 0001:000ab371       __rtinfnpop                100ac371     libucrt:87tran.obj
 0001:000ab38e       __ffexpm1                  100ac38e     libucrt:87tran.obj
 0001:000ab440       __trandisp1                100ac440 f   libucrt:87disp.obj
 0001:000ab4a7       __trandisp2                100ac4a7 f   libucrt:87disp.obj
 0001:000ab533       __rttospopde               100ac533     libucrt:87disp.obj
 0001:000ab538       __rttospop                 100ac538     libucrt:87disp.obj
 0001:000ab53a       __rtnospop                 100ac53a     libucrt:87disp.obj
 0001:000ab53c       __rttosnpop                100ac53c     libucrt:87disp.obj
 0001:000ab53d       __rtnospopde               100ac53d     libucrt:87disp.obj
 0001:000ab544       __rtzeropop                100ac544     libucrt:87disp.obj
 0001:000ab546       __rtzeronpop               100ac546     libucrt:87disp.obj
 0001:000ab54b       __rtzerospop               100ac54b     libucrt:87disp.obj
 0001:000ab558       __rtonepop                 100ac558     libucrt:87disp.obj
 0001:000ab55a       __rtonenpop                100ac55a     libucrt:87disp.obj
 0001:000ab55f       __tosnan1                  100ac55f     libucrt:87disp.obj
 0001:000ab58a       __nosnan2                  100ac58a     libucrt:87disp.obj
 0001:000ab58c       __tosnan2                  100ac58c     libucrt:87disp.obj
 0001:000ab5b4       __nan2                     100ac5b4     libucrt:87disp.obj
 0001:000ab5f3       __rtindfpop                100ac5f3     libucrt:87disp.obj
 0001:000ab5f5       __rtindfnpop               100ac5f5     libucrt:87disp.obj
 0001:000ab606       __rttosnpopde              100ac606     libucrt:87disp.obj
 0001:000ab610       __rtatan2inf               100ac610     libucrt:87disp.obj
 0001:000ab62d       __rtchsifneg               100ac62d     libucrt:87disp.obj
 0001:000ab640       __twoToTOS                 100ac640 f   libucrt:common.obj
 0001:000ab655       __load_CW                  100ac655 f   libucrt:common.obj
 0001:000ab66c       __convertTOStoQNaN         100ac66c f   libucrt:common.obj
 0001:000ab685       __fload_withFB             100ac685 f   libucrt:common.obj
 0001:000ab6c8       __checkTOS_withFB          100ac6c8 f   libucrt:common.obj
 0001:000ab6de       __fast_exit                100ac6de f   libucrt:common.obj
 0001:000ab6eb       __math_exit                100ac6eb f   libucrt:common.obj
 0001:000ab715       __check_overflow_exit      100ac715 f   libucrt:common.obj
 0001:000ab729       __check_range_exit         100ac729 f   libucrt:common.obj
 0001:000ab7d0       __startTwoArgErrorHandling 100ac7d0 f   libucrt:genexcep.obj
 0001:000ab7e7       __startOneArgErrorHandling 100ac7e7 f   libucrt:genexcep.obj
 0001:000ab823       ___libm_error_support      100ac823 f   libucrt:libm_error.obj
 0001:000aba3b       __ceil_default             100aca3b f   libucrt:ceil.obj
 0001:000abaf4       __clrfp                    100acaf4 f   libucrt:fpctrl.obj
 0001:000abb07       __ctrlfp                   100acb07 f   libucrt:fpctrl.obj
 0001:000abb33       __set_statfp               100acb33 f   libucrt:fpctrl.obj
 0001:000abb8e       __statfp                   100acb8e f   libucrt:fpctrl.obj
 0001:000abba0       __d_inttype                100acba0 f   libucrt:powhlp.obj
 0001:000abc0a       __powhlp                   100acc0a f   libucrt:powhlp.obj
 0001:000abd35       __87except                 100acd35 f   libucrt:87except.obj
 0001:000abe40       __frnd                     100ace40 f   libucrt:frnd.obj
 0001:000abe56       __errcode                  100ace56 f   libucrt:fpexcept.obj
 0001:000abe8a       __except1                  100ace8a f   libucrt:fpexcept.obj
 0001:000abf5b       __handle_exc               100acf5b f   libucrt:fpexcept.obj
 0001:000ac13b       __raise_exc                100ad13b f   libucrt:fpexcept.obj
 0001:000ac15e       __raise_exc_ex             100ad15e f   libucrt:fpexcept.obj
 0001:000ac44f       __set_errno_from_matherr   100ad44f f   libucrt:fpexcept.obj
 0001:000ac47e       __umatherr                 100ad47e f   libucrt:fpexcept.obj
 0001:000ac520       __decomp                   100ad520 f   libucrt:util.obj
 0001:000ac5f4       __set_exp                  100ad5f4 f   libucrt:util.obj
 0001:000ac623       __sptype                   100ad623 f   libucrt:util.obj
 0001:000ac681       __fpclass                  100ad681 f   libucrt:ieeemisc.obj
 0001:000ac726       _IsProcessorFeaturePresent@4 100ad726 f   kernel32:KERNEL32.dll
 0001:000ac72c       _RtlUnwind@16              100ad72c f   kernel32:KERNEL32.dll
 0001:000ac740       __FindPESection            100ad740 f   LIBCMT:pesect.obj
 0001:000ac790       __IsNonwritableInCurrentImage 100ad790 f   LIBCMT:pesect.obj
 0001:000ac850       __ValidateImageBase        100ad850 f   LIBCMT:pesect.obj
 0001:000ac890       __aulldvrm                 100ad890 f   LIBCMT:ulldvrm.obj
 0001:000ac930       __alldiv                   100ad930 f   LIBCMT:lldiv.obj
 0001:000ac9e0       __allrem                   100ad9e0 f   LIBCMT:llrem.obj
 0001:000acaa0       __allmul                   100adaa0 f   LIBCMT:llmul.obj
 0001:000acae0       __alldvrm                  100adae0 f   LIBCMT:lldvrm.obj
 0001:000acbc0       __SEH_prolog4_GS           100adbc0 f   LIBCMT:_sehprolg4gs_.obj
 0001:000acc09       __SEH_epilog4_GS           100adc09 f   LIBCMT:_sehprolg4gs_.obj
 0001:000acc20       __alloca_probe             100adc20 f   LIBCMT:chkstk.obj
 0001:000acc20       __chkstk                   100adc20 f   LIBCMT:chkstk.obj
 0001:000acc50       __aullshr                  100adc50 f   LIBCMT:ullshr.obj
 0001:000acc70       __alloca_probe_16          100adc70 f   LIBCMT:alloca16.obj
 0001:000acc86       __alloca_probe_8           100adc86     LIBCMT:alloca16.obj
 0001:000acca0       __allshl                   100adca0 f   LIBCMT:llshl.obj
 0001:000accc0       __ftol2_sse                100adcc0 f   LIBCMT:_ftol2_.obj
 0001:000accc9       __ftol2_pentium4           100adcc9 f   LIBCMT:_ftol2_.obj
 0001:000accdc       __ftol2_sse_excpt          100adcdc f   LIBCMT:_ftol2_.obj
 0001:000acd00       __ftol2                    100add00 f   LIBCMT:_ftol2_.obj
 0001:000acd80       _memcpy                    100add80 f   libvcruntime:memcpy.obj
 0001:000ad2f4       _wcschr                    100ae2f4 f   libvcruntime:wcschr.obj
 0001:000ad3b0       __aulldiv                  100ae3b0 f   LIBCMT:ulldiv.obj
 0001:000ad420       __ftoui3                   100ae420 f   LIBCMT:_ftol3_.obj
 0001:000ad42f       __ftoul3                   100ae42f f   LIBCMT:_ftol3_.obj
 0001:000ad43e       __ftol3                    100ae43e f   LIBCMT:_ftol3_.obj
 0001:000ad44b       __ftol3_NaN                100ae44b f   LIBCMT:_ftol3_.obj
 0001:000ad463       __ftol3_work               100ae463 f   LIBCMT:_ftol3_.obj
 0001:000ad4e9       __ftol3_common             100ae4e9 f   LIBCMT:_ftol3_.obj
 0001:000ad5ab       __ftol3_arg_error          100ae5ab f   LIBCMT:_ftol3_.obj
 0001:000ad5bd       __ftol3_except             100ae5bd f   LIBCMT:_ftol3_.obj
 0001:000ad601       __dtoui3                   100ae601 f   LIBCMT:_ftol3_.obj
 0001:000ad610       __dtoul3                   100ae610 f   LIBCMT:_ftol3_.obj
 0001:000ad61f       __dtol3                    100ae61f f   LIBCMT:_ftol3_.obj
 0001:000ad62c       __dtol3_NaN                100ae62c f   LIBCMT:_ftol3_.obj
 0001:000ad649       __dtol3_work               100ae649 f   LIBCMT:_ftol3_.obj
 0001:000ad730       __ultod3                   100ae730 f   LIBCMT:_ftol3_.obj
 0001:000ad770       __ltod3                    100ae770 f   LIBCMT:_ftol3_.obj
 0002:00000000       __imp__RegQueryValueExW@24 100af000     advapi32:ADVAPI32.dll
 0002:00000004       __imp__RegCloseKey@4       100af004     advapi32:ADVAPI32.dll
 0002:00000008       __imp__RegOpenKeyExW@20    100af008     advapi32:ADVAPI32.dll
 0002:0000000c       \177ADVAPI32_NULL_THUNK_DATA 100af00c     advapi32:ADVAPI32.dll
 0002:00000010       __imp__CertFreeCertificateContext@4 100af010     crypt32:CRYPT32.dll
 0002:00000014       \177CRYPT32_NULL_THUNK_DATA 100af014     crypt32:CRYPT32.dll
 0002:00000018       __imp__GetACP@0            100af018     kernel32:KERNEL32.dll
 0002:0000001c       __imp__HeapReAlloc@16      100af01c     kernel32:KERNEL32.dll
 0002:00000020       __imp__WaitForSingleObjectEx@12 100af020     kernel32:KERNEL32.dll
 0002:00000024       __imp__OutputDebugStringW@4 100af024     kernel32:KERNEL32.dll
 0002:00000028       __imp__HeapAlloc@12        100af028     kernel32:KERNEL32.dll
 0002:0000002c       __imp__HeapFree@12         100af02c     kernel32:KERNEL32.dll
 0002:00000030       __imp__GetConsoleCP@0      100af030     kernel32:KERNEL32.dll
 0002:00000034       __imp__ReadConsoleW@20     100af034     kernel32:KERNEL32.dll
 0002:00000038       __imp__CompareStringW@24   100af038     kernel32:KERNEL32.dll
 0002:0000003c       __imp__ExitProcess@4       100af03c     kernel32:KERNEL32.dll
 0002:00000040       __imp__GetCPInfo@8         100af040     kernel32:KERNEL32.dll
 0002:00000044       __imp__SetEnvironmentVariableW@8 100af044     kernel32:KERNEL32.dll
 0002:00000048       __imp__SetEnvironmentVariableA@8 100af048     kernel32:KERNEL32.dll
 0002:0000004c       __imp__DeleteFileW@4       100af04c     kernel32:KERNEL32.dll
 0002:00000050       __imp__RemoveDirectoryW@4  100af050     kernel32:KERNEL32.dll
 0002:00000054       __imp__SetStdHandle@8      100af054     kernel32:KERNEL32.dll
 0002:00000058       __imp__CreateDirectoryW@8  100af058     kernel32:KERNEL32.dll
 0002:0000005c       __imp__SetEndOfFile@4      100af05c     kernel32:KERNEL32.dll
 0002:00000060       __imp__LCMapStringW@24     100af060     kernel32:KERNEL32.dll
 0002:00000064       __imp__GetConsoleMode@8    100af064     kernel32:KERNEL32.dll
 0002:00000068       __imp__IsProcessorFeaturePresent@4 100af068     kernel32:KERNEL32.dll
 0002:0000006c       __imp__DecodePointer@4     100af06c     kernel32:KERNEL32.dll
 0002:00000070       __imp__HeapSize@12         100af070     kernel32:KERNEL32.dll
 0002:00000074       __imp__GetProcessHeap@0    100af074     kernel32:KERNEL32.dll
 0002:00000078       __imp__FreeEnvironmentStringsW@4 100af078     kernel32:KERNEL32.dll
 0002:0000007c       __imp__GetEnvironmentStringsW@0 100af07c     kernel32:KERNEL32.dll
 0002:00000080       __imp__GetCommandLineW@0   100af080     kernel32:KERNEL32.dll
 0002:00000084       __imp__GetCommandLineA@0   100af084     kernel32:KERNEL32.dll
 0002:00000088       __imp__GetOEMCP@0          100af088     kernel32:KERNEL32.dll
 0002:0000008c       __imp__IsValidCodePage@4   100af08c     kernel32:KERNEL32.dll
 0002:00000090       __imp__FindNextFileA@8     100af090     kernel32:KERNEL32.dll
 0002:00000094       __imp__FindFirstFileExA@24 100af094     kernel32:KERNEL32.dll
 0002:00000098       __imp__GetStringTypeW@16   100af098     kernel32:KERNEL32.dll
 0002:0000009c       __imp__GetTimeZoneInformation@4 100af09c     kernel32:KERNEL32.dll
 0002:000000a0       __imp__SetLastError@4      100af0a0     kernel32:KERNEL32.dll
 0002:000000a4       __imp__GetLastError@0      100af0a4     kernel32:KERNEL32.dll
 0002:000000a8       __imp__GetEnvironmentVariableW@12 100af0a8     kernel32:KERNEL32.dll
 0002:000000ac       __imp__TlsSetValue@8       100af0ac     kernel32:KERNEL32.dll
 0002:000000b0       __imp__Sleep@4             100af0b0     kernel32:KERNEL32.dll
 0002:000000b4       __imp__TlsAlloc@0          100af0b4     kernel32:KERNEL32.dll
 0002:000000b8       __imp__TlsGetValue@4       100af0b8     kernel32:KERNEL32.dll
 0002:000000bc       __imp__TlsFree@4           100af0bc     kernel32:KERNEL32.dll
 0002:000000c0       __imp__FindFirstFileW@8    100af0c0     kernel32:KERNEL32.dll
 0002:000000c4       __imp__FindFirstFileExW@24 100af0c4     kernel32:KERNEL32.dll
 0002:000000c8       __imp__VerifyVersionInfoA@16 100af0c8     kernel32:KERNEL32.dll
 0002:000000cc       __imp__FindNextFileW@8     100af0cc     kernel32:KERNEL32.dll
 0002:000000d0       __imp__FindClose@4         100af0d0     kernel32:KERNEL32.dll
 0002:000000d4       __imp__VerSetConditionMask@16 100af0d4     kernel32:KERNEL32.dll
 0002:000000d8       __imp__GetFullPathNameW@16 100af0d8     kernel32:KERNEL32.dll
 0002:000000dc       __imp__CreateFileW@28      100af0dc     kernel32:KERNEL32.dll
 0002:000000e0       __imp__GetFileAttributesW@4 100af0e0     kernel32:KERNEL32.dll
 0002:000000e4       __imp__SetFileAttributesW@8 100af0e4     kernel32:KERNEL32.dll
 0002:000000e8       __imp__GetFileInformationByHandle@8 100af0e8     kernel32:KERNEL32.dll
 0002:000000ec       __imp__GetFileAttributesExW@12 100af0ec     kernel32:KERNEL32.dll
 0002:000000f0       __imp__CloseHandle@4       100af0f0     kernel32:KERNEL32.dll
 0002:000000f4       __imp__GetProcAddress@8    100af0f4     kernel32:KERNEL32.dll
 0002:000000f8       __imp__MoveFileExW@12      100af0f8     kernel32:KERNEL32.dll
 0002:000000fc       __imp__GetModuleHandleW@4  100af0fc     kernel32:KERNEL32.dll
 0002:00000100       __imp__FlushFileBuffers@4  100af100     kernel32:KERNEL32.dll
 0002:00000104       __imp__FormatMessageW@28   100af104     kernel32:KERNEL32.dll
 0002:00000108       __imp__LocalFree@4         100af108     kernel32:KERNEL32.dll
 0002:0000010c       __imp__GetShortPathNameW@12 100af10c     kernel32:KERNEL32.dll
 0002:00000110       __imp__DeviceIoControl@32  100af110     kernel32:KERNEL32.dll
 0002:00000114       __imp__GetCurrentDirectoryW@8 100af114     kernel32:KERNEL32.dll
 0002:00000118       __imp__WideCharToMultiByte@32 100af118     kernel32:KERNEL32.dll
 0002:0000011c       __imp__MultiByteToWideChar@24 100af11c     kernel32:KERNEL32.dll
 0002:00000120       __imp__EnterCriticalSection@4 100af120     kernel32:KERNEL32.dll
 0002:00000124       __imp__LeaveCriticalSection@4 100af124     kernel32:KERNEL32.dll
 0002:00000128       __imp__InitializeCriticalSection@4 100af128     kernel32:KERNEL32.dll
 0002:0000012c       __imp__WaitForSingleObject@8 100af12c     kernel32:KERNEL32.dll
 0002:00000130       __imp__CreateEventW@16     100af130     kernel32:KERNEL32.dll
 0002:00000134       __imp__GetExitCodeThread@8 100af134     kernel32:KERNEL32.dll
 0002:00000138       __imp__SetEvent@4          100af138     kernel32:KERNEL32.dll
 0002:0000013c       __imp__CreateThread@24     100af13c     kernel32:KERNEL32.dll
 0002:00000140       __imp__DeleteCriticalSection@4 100af140     kernel32:KERNEL32.dll
 0002:00000144       __imp__UnmapViewOfFile@4   100af144     kernel32:KERNEL32.dll
 0002:00000148       __imp__GetSystemInfo@4     100af148     kernel32:KERNEL32.dll
 0002:0000014c       __imp__CreateFileMappingA@24 100af14c     kernel32:KERNEL32.dll
 0002:00000150       __imp__MapViewOfFile@20    100af150     kernel32:KERNEL32.dll
 0002:00000154       __imp__ExpandEnvironmentStringsW@12 100af154     kernel32:KERNEL32.dll
 0002:00000158       __imp__GetTickCount@0      100af158     kernel32:KERNEL32.dll
 0002:0000015c       __imp__ReadFile@20         100af15c     kernel32:KERNEL32.dll
 0002:00000160       __imp__WriteFile@20        100af160     kernel32:KERNEL32.dll
 0002:00000164       __imp__SetFilePointer@16   100af164     kernel32:KERNEL32.dll
 0002:00000168       __imp__GetTempPathW@8      100af168     kernel32:KERNEL32.dll
 0002:0000016c       __imp__FormatMessageA@28   100af16c     kernel32:KERNEL32.dll
 0002:00000170       __imp__UnhandledExceptionFilter@4 100af170     kernel32:KERNEL32.dll
 0002:00000174       __imp__SetUnhandledExceptionFilter@4 100af174     kernel32:KERNEL32.dll
 0002:00000178       __imp__GetCurrentProcess@0 100af178     kernel32:KERNEL32.dll
 0002:0000017c       __imp__TerminateProcess@8  100af17c     kernel32:KERNEL32.dll
 0002:00000180       __imp__QueryPerformanceCounter@4 100af180     kernel32:KERNEL32.dll
 0002:00000184       __imp__GetCurrentProcessId@0 100af184     kernel32:KERNEL32.dll
 0002:00000188       __imp__GetCurrentThreadId@0 100af188     kernel32:KERNEL32.dll
 0002:0000018c       __imp__GetSystemTimeAsFileTime@4 100af18c     kernel32:KERNEL32.dll
 0002:00000190       __imp__InitializeSListHead@4 100af190     kernel32:KERNEL32.dll
 0002:00000194       __imp__IsDebuggerPresent@0 100af194     kernel32:KERNEL32.dll
 0002:00000198       __imp__GetStartupInfoW@4   100af198     kernel32:KERNEL32.dll
 0002:0000019c       __imp__RaiseException@16   100af19c     kernel32:KERNEL32.dll
 0002:000001a0       __imp__InterlockedFlushSList@4 100af1a0     kernel32:KERNEL32.dll
 0002:000001a4       __imp__RtlUnwind@16        100af1a4     kernel32:KERNEL32.dll
 0002:000001a8       __imp__InitializeCriticalSectionAndSpinCount@8 100af1a8     kernel32:KERNEL32.dll
 0002:000001ac       __imp__FreeLibrary@4       100af1ac     kernel32:KERNEL32.dll
 0002:000001b0       __imp__LoadLibraryExW@12   100af1b0     kernel32:KERNEL32.dll
 0002:000001b4       __imp__GetStdHandle@4      100af1b4     kernel32:KERNEL32.dll
 0002:000001b8       __imp__GetFileType@4       100af1b8     kernel32:KERNEL32.dll
 0002:000001bc       __imp__GetModuleFileNameA@12 100af1bc     kernel32:KERNEL32.dll
 0002:000001c0       __imp__GetModuleFileNameW@12 100af1c0     kernel32:KERNEL32.dll
 0002:000001c4       __imp__GetModuleHandleExW@12 100af1c4     kernel32:KERNEL32.dll
 0002:000001c8       __imp__WriteConsoleW@20    100af1c8     kernel32:KERNEL32.dll
 0002:000001cc       __imp__SetFilePointerEx@20 100af1cc     kernel32:KERNEL32.dll
 0002:000001d0       \177KERNEL32_NULL_THUNK_DATA 100af1d0     kernel32:KERNEL32.dll
 0002:000001d4       __imp__UuidCreate@4        100af1d4     rpcrt4:RPCRT4.dll
 0002:000001d8       \177RPCRT4_NULL_THUNK_DATA 100af1d8     rpcrt4:RPCRT4.dll
 0002:000001dc       __imp__WinHttpConnect@16   100af1dc     winhttp:WINHTTP.dll
 0002:000001e0       __imp__WinHttpQueryOption@16 100af1e0     winhttp:WINHTTP.dll
 0002:000001e4       __imp__WinHttpSetTimeouts@20 100af1e4     winhttp:WINHTTP.dll
 0002:000001e8       __imp__WinHttpSendRequest@28 100af1e8     winhttp:WINHTTP.dll
 0002:000001ec       __imp__WinHttpWriteData@16 100af1ec     winhttp:WINHTTP.dll
 0002:000001f0       __imp__WinHttpQueryAuthSchemes@16 100af1f0     winhttp:WINHTTP.dll
 0002:000001f4       __imp__WinHttpCloseHandle@4 100af1f4     winhttp:WINHTTP.dll
 0002:000001f8       __imp__WinHttpSetOption@16 100af1f8     winhttp:WINHTTP.dll
 0002:000001fc       __imp__WinHttpOpenRequest@28 100af1fc     winhttp:WINHTTP.dll
 0002:00000200       __imp__WinHttpReadData@16  100af200     winhttp:WINHTTP.dll
 0002:00000204       __imp__WinHttpQueryHeaders@24 100af204     winhttp:WINHTTP.dll
 0002:00000208       __imp__WinHttpAddRequestHeaders@16 100af208     winhttp:WINHTTP.dll
 0002:0000020c       __imp__WinHttpOpen@20      100af20c     winhttp:WINHTTP.dll
 0002:00000210       __imp__WinHttpReceiveResponse@8 100af210     winhttp:WINHTTP.dll
 0002:00000214       \177WINHTTP_NULL_THUNK_DATA 100af214     winhttp:WINHTTP.dll
 0002:00000218       __imp__htons@4             100af218     ws2_32:WS2_32.dll
 0002:0000021c       __imp__htonl@4             100af21c     ws2_32:WS2_32.dll
 0002:00000220       __imp__ntohs@4             100af220     ws2_32:WS2_32.dll
 0002:00000224       __imp__ntohl@4             100af224     ws2_32:WS2_32.dll
 0002:00000228       __imp__WSAGetLastError@0   100af228     ws2_32:WS2_32.dll
 0002:0000022c       __imp__recv@16             100af22c     ws2_32:WS2_32.dll
 0002:00000230       __imp__send@16             100af230     ws2_32:WS2_32.dll
 0002:00000234       __imp__freeaddrinfo@4      100af234     ws2_32:WS2_32.dll
 0002:00000238       __imp__connect@12          100af238     ws2_32:WS2_32.dll
 0002:0000023c       __imp__socket@12           100af23c     ws2_32:WS2_32.dll
 0002:00000240       __imp__WSAStartup@8        100af240     ws2_32:WS2_32.dll
 0002:00000244       __imp__getaddrinfo@16      100af244     ws2_32:WS2_32.dll
 0002:00000248       __imp__closesocket@4       100af248     ws2_32:WS2_32.dll
 0002:0000024c       __imp__WSACleanup@0        100af24c     ws2_32:WS2_32.dll
 0002:00000250       \177WS2_32_NULL_THUNK_DATA 100af250     ws2_32:WS2_32.dll
 0002:00000254       __imp__node_module_register 100af254     node:node.exe
 0002:00000258       __imp_?New@ObjectTemplate@v8@@SA?AV?$Local@VObjectTemplate@v8@@@2@PAVIsolate@2@V?$Local@VFunctionTemplate@v8@@@2@@Z 100af258     node:node.exe
 0002:0000025c       __imp_?NewInstance@ObjectTemplate@v8@@QAE?AV?$MaybeLocal@VObject@v8@@@2@V?$Local@VContext@v8@@@2@@Z 100af25c     node:node.exe
 0002:00000260       __imp_?SetInternalFieldCount@ObjectTemplate@v8@@QAEXH@Z 100af260     node:node.exe
 0002:00000264       __imp_?Set@Object@v8@@QAE_NIV?$Local@VValue@v8@@@2@@Z 100af264     node:node.exe
 0002:00000268       __imp_?Set@Object@v8@@QAE_NV?$Local@VValue@v8@@@2@0@Z 100af268     node:node.exe
 0002:0000026c       __imp_?Get@Object@v8@@QAE?AV?$Local@VValue@v8@@@2@I@Z 100af26c     node:node.exe
 0002:00000270       __imp_?Get@Object@v8@@QAE?AV?$Local@VValue@v8@@@2@V32@@Z 100af270     node:node.exe
 0002:00000274       __imp_?InternalFieldCount@Object@v8@@QAEHXZ 100af274     node:node.exe
 0002:00000278       __imp_?New@External@v8@@SA?AV?$Local@VExternal@v8@@@2@PAVIsolate@2@PAX@Z 100af278     node:node.exe
 0002:0000027c       __imp_?ThrowException@Isolate@v8@@QAE?AV?$Local@VValue@v8@@@2@V32@@Z 100af27c     node:node.exe
 0002:00000280       __imp_?GetCurrentContext@Isolate@v8@@QAE?AV?$Local@VContext@v8@@@2@XZ 100af280     node:node.exe
 0002:00000284       __imp_?GetCurrent@Isolate@v8@@SAPAV12@XZ 100af284     node:node.exe
 0002:00000288       __imp_?SetInternalField@Object@v8@@QAEXHV?$Local@VValue@v8@@@2@@Z 100af288     node:node.exe
 0002:0000028c       __imp_?SetAlignedPointerInInternalField@Object@v8@@QAEXHPAX@Z 100af28c     node:node.exe
 0002:00000290       __imp_?New@Object@v8@@SA?AV?$Local@VObject@v8@@@2@PAVIsolate@2@@Z 100af290     node:node.exe
 0002:00000294       __imp_?SlowGetInternalField@Object@v8@@AAE?AV?$Local@VValue@v8@@@2@H@Z 100af294     node:node.exe
 0002:00000298       __imp_?SlowGetAlignedPointerFromInternalField@Object@v8@@AAEPAXH@Z 100af298     node:node.exe
 0002:0000029c       __imp_?New@Number@v8@@SA?AV?$Local@VNumber@v8@@@2@PAVIsolate@2@N@Z 100af29c     node:node.exe
 0002:000002a0       __imp_?NewFromUtf8@String@v8@@SA?AV?$MaybeLocal@VString@v8@@@2@PAVIsolate@2@PBDW4NewStringType@2@H@Z 100af2a0     node:node.exe
 0002:000002a4       __imp_??0Utf8Value@String@v8@@QAE@V?$Local@VValue@v8@@@2@@Z 100af2a4     node:node.exe
 0002:000002a8       __imp_??1Utf8Value@String@v8@@QAE@XZ 100af2a8     node:node.exe
 0002:000002ac       __imp_??0EscapableHandleScope@v8@@QAE@PAVIsolate@1@@Z 100af2ac     node:node.exe
 0002:000002b0       __imp_?Escape@EscapableHandleScope@v8@@AAEPAPAVObject@internal@2@PAPAV342@@Z 100af2b0     node:node.exe
 0002:000002b4       __imp_?BooleanValue@Value@v8@@QBE_NXZ 100af2b4     node:node.exe
 0002:000002b8       __imp_?GlobalizeReference@V8@v8@@CAPAPAVObject@internal@2@PAVIsolate@42@PAPAV342@@Z 100af2b8     node:node.exe
 0002:000002bc       __imp_?DisposeGlobal@V8@v8@@CAXPAPAVObject@internal@2@@Z 100af2bc     node:node.exe
 0002:000002c0       __imp_?MakeWeak@V8@v8@@CAXPAPAVObject@internal@2@PAXP6AXABV?$WeakCallbackInfo@X@2@@ZW4WeakCallbackType@2@@Z 100af2c0     node:node.exe
 0002:000002c4       __imp_?ClearWeak@V8@v8@@CAPAXPAPAVObject@internal@2@@Z 100af2c4     node:node.exe
 0002:000002c8       __imp_?ToLocalEmpty@V8@v8@@CAXXZ 100af2c8     node:node.exe
 0002:000002cc       __imp_?New@FunctionTemplate@v8@@SA?AV?$Local@VFunctionTemplate@v8@@@2@PAVIsolate@2@P6AXABV?$FunctionCallbackInfo@VValue@v8@@@2@@ZV?$Local@VValue@v8@@@2@V?$Local@VSignature@v8@@@2@H@Z 100af2cc     node:node.exe
 0002:000002d0       __imp_?GetFunction@FunctionTemplate@v8@@QAE?AV?$Local@VFunction@v8@@@2@XZ 100af2d0     node:node.exe
 0002:000002d4       __imp_?InstanceTemplate@FunctionTemplate@v8@@QAE?AV?$Local@VObjectTemplate@v8@@@2@XZ 100af2d4     node:node.exe
 0002:000002d8       __imp_?PrototypeTemplate@FunctionTemplate@v8@@QAE?AV?$Local@VObjectTemplate@v8@@@2@XZ 100af2d8     node:node.exe
 0002:000002dc       __imp_?SetClassName@FunctionTemplate@v8@@QAEXV?$Local@VString@v8@@@2@@Z 100af2dc     node:node.exe
 0002:000002e0       __imp_?Length@Array@v8@@QBEIXZ 100af2e0     node:node.exe
 0002:000002e4       __imp_?New@Array@v8@@SA?AV?$Local@VArray@v8@@@2@PAVIsolate@2@H@Z 100af2e4     node:node.exe
 0002:000002e8       __imp_?Error@Exception@v8@@SA?AV?$Local@VValue@v8@@@2@V?$Local@VString@v8@@@2@@Z 100af2e8     node:node.exe
 0002:000002ec       __imp_?Set@Template@v8@@QAEXV?$Local@VName@v8@@@2@V?$Local@VData@v8@@@2@W4PropertyAttribute@2@@Z 100af2ec     node:node.exe
 0002:000002f0       __imp_??0HandleScope@v8@@QAE@PAVIsolate@1@@Z 100af2f0     node:node.exe
 0002:000002f4       __imp_??1HandleScope@v8@@QAE@XZ 100af2f4     node:node.exe
 0002:000002f8       __imp_?CreateHandle@HandleScope@v8@@CAPAPAVObject@internal@2@PAVHeapObject@42@PAV342@@Z 100af2f8     node:node.exe
 0002:000002fc       __imp_?CreateHandle@HandleScope@v8@@KAPAPAVObject@internal@2@PAVIsolate@42@PAV342@@Z 100af2fc     node:node.exe
 0002:00000300       __imp_?Value@External@v8@@QBEPAXXZ 100af300     node:node.exe
 0002:00000304       \177node_NULL_THUNK_DATA   100af304     node:node.exe
 0002:00000308       __imp__CoCreateInstance@20 100af308     ole32:ole32.dll
 0002:0000030c       __imp__CoUninitialize@0    100af30c     ole32:ole32.dll
 0002:00000310       __imp__CoInitializeEx@8    100af310     ole32:ole32.dll
 0002:00000314       \177ole32_NULL_THUNK_DATA  100af314     ole32:ole32.dll
 0002:00000318       ___guard_check_icall_fptr  100af318     LIBCMT:guard_support.obj
 0002:0000031c       ___xc_a                    100af31c     LIBCMT:initializers.obj
 0002:00000320       __register_git_            100af320     repository.obj
 0002:00000324       ___xc_z                    100af324     LIBCMT:initializers.obj
 0002:00000328       ___xi_a                    100af328     LIBCMT:initializers.obj
 0002:0000032c       ___acrt_stdio_initializer  100af32c     libucrt:stdio_initializer.obj
 0002:00000330       ___acrt_timeset_initializer 100af330     libucrt:timeset_initializer.obj
 0002:00000334       ___acrt_multibyte_initializer 100af334     libucrt:multibyte_initializer.obj
 0002:00000338       ___acrt_tran_sse2_initializer 100af338     libucrt:sse2_initializer.obj
 0002:0000033c       ___xi_z                    100af33c     LIBCMT:initializers.obj
 0002:00000340       ___xp_a                    100af340     LIBCMT:initializers.obj
 0002:00000344       ___acrt_locale_terminator  100af344     libucrt:locale_initializer.obj
 0002:00000348       ___dcrt_console_output_terminator 100af348     libucrt:console_output_initializer.obj
 0002:0000034c       ___acrt_stdio_terminator   100af34c     libucrt:stdio_initializer.obj
 0002:00000350       ___xp_z                    100af350     LIBCMT:initializers.obj
 0002:00000354       ___xt_a                    100af354     LIBCMT:initializers.obj
 0002:00000358       ___xt_z                    100af358     LIBCMT:initializers.obj
 0002:00000364       ??_7exception@std@@6B@     100af364     libcpmt:xthrow.obj
 0002:0000036c       ??_C@_0BC@EOODALEL@Unknown?5exception?$AA@ 100af36c     libcpmt:xthrow.obj
 0002:00000384       ??_7bad_alloc@std@@6B@     100af384     libcpmt:xthrow.obj
 0002:0000038c       ??_C@_0P@GHFPNOJB@bad?5allocation?$AA@ 100af38c     libcpmt:xthrow.obj
 0002:000003a0       ??_7logic_error@std@@6B@   100af3a0     libcpmt:xthrow.obj
 0002:000003ac       ??_7length_error@std@@6B@  100af3ac     libcpmt:xthrow.obj
 0002:000003b8       ??_7out_of_range@std@@6B@  100af3b8     libcpmt:xthrow.obj
 0002:000003c0       __pRawDllMain              100af3c0     LIBCMT:dll_dllmain.obj
 0002:000003c0       __pDefaultRawDllMain       100af3c0     LIBCMT:dll_dllmain.obj
 0002:000003d0       ??_7type_info@@6B@         100af3d0     LIBCMT:std_type_info_static.obj
 0002:000003d8       ??_7bad_array_new_length@std@@6B@ 100af3d8     LIBCMT:throw_bad_alloc.obj
 0002:000003e0       ??_C@_0BF@KINCDENJ@bad?5array?5new?5length?$AA@ 100af3e0     LIBCMT:throw_bad_alloc.obj
 0002:00000428       ??_C@_1BC@DNHGCMLG@?$AAa?$AAd?$AAv?$AAa?$AAp?$AAi?$AA3?$AA2?$AA?$AA@ 100af428     libvcruntime:winapi_downlevel.obj
 0002:0000043c       ??_C@_1DM@KHCHBNEB@?$AAa?$AAp?$AAi?$AA?9?$AAm?$AAs?$AA?9?$AAw?$AAi?$AAn?$AA?9?$AAc?$AAo?$AAr?$AAe?$AA?9?$AAf?$AAi?$AAb?$AAe?$AAr?$AAs?$AA?9?$AAl?$AA1?$AA?9?$AA1?$AA?9?$AA1?$AA?$AA@ 100af43c     libvcruntime:winapi_downlevel.obj
 0002:00000478       ??_C@_1DK@LPPGFMPP@?$AAa?$AAp?$AAi?$AA?9?$AAm?$AAs?$AA?9?$AAw?$AAi?$AAn?$AA?9?$AAc?$AAo?$AAr?$AAe?$AA?9?$AAs?$AAy?$AAn?$AAc?$AAh?$AA?9?$AAl?$AA1?$AA?9?$AA2?$AA?9?$AA0?$AA?$AA@ 100af478     libvcruntime:winapi_downlevel.obj
 0002:000004bc       ??_C@_08KNHFBNJ@FlsAlloc?$AA@ 100af4bc     libvcruntime:winapi_downlevel.obj
 0002:000004d0       ??_C@_07PEJMOBNF@FlsFree?$AA@ 100af4d0     libvcruntime:winapi_downlevel.obj
 0002:000004e0       ??_C@_0M@GDNOONDI@FlsGetValue?$AA@ 100af4e0     libvcruntime:winapi_downlevel.obj
 0002:000004f4       ??_C@_0M@JCPCPOEF@FlsSetValue?$AA@ 100af4f4     libvcruntime:winapi_downlevel.obj
 0002:00000508       ??_C@_0BM@HCFOFFN@InitializeCriticalSectionEx?$AA@ 100af508     libvcruntime:winapi_downlevel.obj
 0002:000006b8       ??_C@_08EHJDFFNH@__based?$CI?$AA@ 100af6b8     libvcruntime:undname.obj
 0002:000006c4       ??_C@_07KOLFKCDI@__cdecl?$AA@ 100af6c4     libvcruntime:undname.obj
 0002:000006cc       ??_C@_08GHMPAG@__pascal?$AA@ 100af6cc     libvcruntime:undname.obj
 0002:000006d8       ??_C@_09IFJBGAPI@__stdcall?$AA@ 100af6d8     libvcruntime:undname.obj
 0002:000006e4       ??_C@_0L@NPHFGOKO@__thiscall?$AA@ 100af6e4     libvcruntime:undname.obj
 0002:000006f0       ??_C@_0L@JMKHOMEK@__fastcall?$AA@ 100af6f0     libvcruntime:undname.obj
 0002:000006fc       ??_C@_0N@BCKKPABJ@__vectorcall?$AA@ 100af6fc     libvcruntime:undname.obj
 0002:0000070c       ??_C@_09HIJEGCPM@__clrcall?$AA@ 100af70c     libvcruntime:undname.obj
 0002:00000718       ??_C@_06GHPCKEAG@__eabi?$AA@ 100af718     libvcruntime:undname.obj
 0002:00000720       ??_C@_07JOMMBBKO@__ptr64?$AA@ 100af720     libvcruntime:undname.obj
 0002:00000728       ??_C@_0L@PILCLIHE@__restrict?$AA@ 100af728     libvcruntime:undname.obj
 0002:00000734       ??_C@_0M@GFIIJFMG@__unaligned?$AA@ 100af734     libvcruntime:undname.obj
 0002:00000740       ??_C@_09DHDLOLLB@restrict?$CI?$AA@ 100af740     libvcruntime:undname.obj
 0002:0000074c       ??_C@_04NIHEBCM@?5new?$AA@ 100af74c     libvcruntime:undname.obj
 0002:00000754       ??_C@_07FPCDHGMM@?5delete?$AA@ 100af754     libvcruntime:undname.obj
 0002:0000075c       ??_C@_01NEMOKFLO@?$DN?$AA@ 100af75c     libvcruntime:undname.obj
 0002:00000760       ??_C@_02GPIOPFAK@?$DO?$DO?$AA@ 100af760     libvcruntime:undname.obj
 0002:00000764       ??_C@_02FODMEDOG@?$DM?$DM?$AA@ 100af764     libvcruntime:undname.obj
 0002:00000768       ??_C@_01DCLJPIOD@?$CB?$AA@ 100af768     libvcruntime:undname.obj
 0002:0000076c       ??_C@_02EGOFBIJA@?$DN?$DN?$AA@ 100af76c     libvcruntime:undname.obj
 0002:00000770       ??_C@_02FDNJECIE@?$CB?$DN?$AA@ 100af770     libvcruntime:undname.obj
 0002:00000774       ??_C@_02GPECMEKF@?$FL?$FN?$AA@ 100af774     libvcruntime:undname.obj
 0002:00000778       ??_C@_08LHJFAFGD@operator?$AA@ 100af778     libvcruntime:undname.obj
 0002:00000784       ??_C@_02HBOOOICD@?9?$DO?$AA@ 100af784     libvcruntime:undname.obj
 0002:00000788       ??_C@_02ECNGHCIF@?$CL?$CL?$AA@ 100af788     libvcruntime:undname.obj
 0002:0000078c       ??_C@_02BAABKJLB@?9?9?$AA@ 100af78c     libvcruntime:undname.obj
 0002:00000790       ??_C@_01HNPIGOCE@?$CG?$AA@ 100af790     libvcruntime:undname.obj
 0002:00000794       ??_C@_03MNHNFDLC@?9?$DO?$CK?$AA@ 100af794     libvcruntime:undname.obj
 0002:00000798       ??_C@_01FGNFDNOH@?$CF?$AA@ 100af798     libvcruntime:undname.obj
 0002:0000079c       ??_C@_01MNNFJEPP@?$DM?$AA@ 100af79c     libvcruntime:undname.obj
 0002:000007a0       ??_C@_02EHCHHCKH@?$DM?$DN?$AA@ 100af7a0     libvcruntime:undname.obj
 0002:000007a4       ??_C@_01PPODPGHN@?$DO?$AA@ 100af7a4     libvcruntime:undname.obj
 0002:000007a8       ??_C@_02EEKDKGMJ@?$DO?$DN?$AA@ 100af7a8     libvcruntime:undname.obj
 0002:000007ac       ??_C@_02HCKGKOFO@?$CI?$CJ?$AA@ 100af7ac     libvcruntime:undname.obj
 0002:000007b0       ??_C@_01PJKLJHI@?$HO?$AA@  100af7b0     libvcruntime:undname.obj
 0002:000007b4       ??_C@_01JKBOJNNK@?$FO?$AA@ 100af7b4     libvcruntime:undname.obj
 0002:000007b8       ??_C@_01DNKMNLPK@?$HM?$AA@ 100af7b8     libvcruntime:undname.obj
 0002:000007bc       ??_C@_02PPKAJPJL@?$CG?$CG?$AA@ 100af7bc     libvcruntime:undname.obj
 0002:000007c0       ??_C@_02NONPIBCD@?$HM?$HM?$AA@ 100af7c0     libvcruntime:undname.obj
 0002:000007c4       ??_C@_02FPIMKNGF@?$CK?$DN?$AA@ 100af7c4     libvcruntime:undname.obj
 0002:000007c8       ??_C@_02FOEOMHFC@?$CL?$DN?$AA@ 100af7c8     libvcruntime:undname.obj
 0002:000007cc       ??_C@_02FKMDLLOA@?9?$DN?$AA@ 100af7cc     libvcruntime:undname.obj
 0002:000007d0       ??_C@_02FJEHGPIO@?1?$DN?$AA@ 100af7d0     libvcruntime:undname.obj
 0002:000007d4       ??_C@_02FENAOKFI@?$CF?$DN?$AA@ 100af7d4     libvcruntime:undname.obj
 0002:000007d8       ??_C@_03IKFCCPFF@?$DO?$DO?$DN?$AA@ 100af7d8     libvcruntime:undname.obj
 0002:000007dc       ??_C@_03CDNPDDLA@?$DM?$DM?$DN?$AA@ 100af7dc     libvcruntime:undname.obj
 0002:000007e0       ??_C@_02FGJGFEAB@?$CG?$DN?$AA@ 100af7e0     libvcruntime:undname.obj
 0002:000007e4       ??_C@_02DHLNPPGH@?$HM?$DN?$AA@ 100af7e4     libvcruntime:undname.obj
 0002:000007e8       ??_C@_02MHEGNOJ@?$FO?$DN?$AA@ 100af7e8     libvcruntime:undname.obj
 0002:000007ec       ??_C@_09IFPLHPGF@?$GAvftable?8?$AA@ 100af7ec     libvcruntime:undname.obj
 0002:000007f8       ??_C@_09BLBHBJP@?$GAvbtable?8?$AA@ 100af7f8     libvcruntime:undname.obj
 0002:00000804       ??_C@_07FEEIOKP@?$GAvcall?8?$AA@ 100af804     libvcruntime:undname.obj
 0002:0000080c       ??_C@_08LLFFHHDJ@?$GAtypeof?8?$AA@ 100af80c     libvcruntime:undname.obj
 0002:00000818       ??_C@_0BF@KDPPACIK@?$GAlocal?5static?5guard?8?$AA@ 100af818     libvcruntime:undname.obj
 0002:00000830       ??_C@_08OBABFOLI@?$GAstring?8?$AA@ 100af830     libvcruntime:undname.obj
 0002:0000083c       ??_C@_0BD@JDLKDPAB@?$GAvbase?5destructor?8?$AA@ 100af83c     libvcruntime:undname.obj
 0002:00000850       ??_C@_0BN@DEGPLNFK@?$GAvector?5deleting?5destructor?8?$AA@ 100af850     libvcruntime:undname.obj
 0002:00000870       ??_C@_0BO@OBMKPJIG@?$GAdefault?5constructor?5closure?8?$AA@ 100af870     libvcruntime:undname.obj
 0002:00000890       ??_C@_0BN@IMDCHIKM@?$GAscalar?5deleting?5destructor?8?$AA@ 100af890     libvcruntime:undname.obj
 0002:000008b0       ??_C@_0BO@PFGOCPJJ@?$GAvector?5constructor?5iterator?8?$AA@ 100af8b0     libvcruntime:undname.obj
 0002:000008d0       ??_C@_0BN@LFPFMEDL@?$GAvector?5destructor?5iterator?8?$AA@ 100af8d0     libvcruntime:undname.obj
 0002:000008f0       ??_C@_0CE@IKBNEHA@?$GAvector?5vbase?5constructor?5iterat@ 100af8f0     libvcruntime:undname.obj
 0002:00000914       ??_C@_0BL@NILFHHPC@?$GAvirtual?5displacement?5map?8?$AA@ 100af914     libvcruntime:undname.obj
 0002:00000930       ??_C@_0CB@JONCMFFK@?$GAeh?5vector?5constructor?5iterator?8@ 100af930     libvcruntime:undname.obj
 0002:00000954       ??_C@_0CA@GCEOPDGL@?$GAeh?5vector?5destructor?5iterator?8?$AA@ 100af954     libvcruntime:undname.obj
 0002:00000974       ??_C@_0CH@OOJPLCPH@?$GAeh?5vector?5vbase?5constructor?5ite@ 100af974     libvcruntime:undname.obj
 0002:0000099c       ??_C@_0BL@LLKPOHJI@?$GAcopy?5constructor?5closure?8?$AA@ 100af99c     libvcruntime:undname.obj
 0002:000009b8       ??_C@_0BA@KBCDOMBN@?$GAudt?5returning?8?$AA@ 100af9b8     libvcruntime:undname.obj
 0002:000009c8       ??_C@_03KLGMFNMG@?$GAEH?$AA@ 100af9c8     libvcruntime:undname.obj
 0002:000009cc       ??_C@_05KHLCHHI@?$GARTTI?$AA@ 100af9cc     libvcruntime:undname.obj
 0002:000009d4       ??_C@_0BA@KKLDJDLB@?$GAlocal?5vftable?8?$AA@ 100af9d4     libvcruntime:undname.obj
 0002:000009e4       ??_C@_0CE@IIHCMGGL@?$GAlocal?5vftable?5constructor?5closu@ 100af9e4     libvcruntime:undname.obj
 0002:00000a08       ??_C@_06FHBGPFGH@?5new?$FL?$FN?$AA@ 100afa08     libvcruntime:undname.obj
 0002:00000a10       ??_C@_09LBNFPBCA@?5delete?$FL?$FN?$AA@ 100afa10     libvcruntime:undname.obj
 0002:00000a1c       ??_C@_0P@HJKNJFNN@?$GAomni?5callsig?8?$AA@ 100afa1c     libvcruntime:undname.obj
 0002:00000a2c       ??_C@_0BL@CNOONJFP@?$GAplacement?5delete?5closure?8?$AA@ 100afa2c     libvcruntime:undname.obj
 0002:00000a48       ??_C@_0BN@CKNJLHMB@?$GAplacement?5delete?$FL?$FN?5closure?8?$AA@ 100afa48     libvcruntime:undname.obj
 0002:00000a68       ??_C@_0CG@CFDHKGGD@?$GAmanaged?5vector?5constructor?5iter@ 100afa68     libvcruntime:undname.obj
 0002:00000a90       ??_C@_0CF@IMGKMJNO@?$GAmanaged?5vector?5destructor?5itera@ 100afa90     libvcruntime:undname.obj
 0002:00000ab8       ??_C@_0CG@HLDDJMAG@?$GAeh?5vector?5copy?5constructor?5iter@ 100afab8     libvcruntime:undname.obj
 0002:00000ae0       ??_C@_0CM@FCBBDIGB@?$GAeh?5vector?5vbase?5copy?5constructo@ 100afae0     libvcruntime:undname.obj
 0002:00000b0c       ??_C@_0BL@CLIPGLGB@?$GAdynamic?5initializer?5for?5?8?$AA@ 100afb0c     libvcruntime:undname.obj
 0002:00000b28       ??_C@_0CB@PDBIFEP@?$GAdynamic?5atexit?5destructor?5for?5?8@ 100afb28     libvcruntime:undname.obj
 0002:00000b4c       ??_C@_0CD@CGAJBKEJ@?$GAvector?5copy?5constructor?5iterato@ 100afb4c     libvcruntime:undname.obj
 0002:00000b70       ??_C@_0CJ@GJELGAMM@?$GAvector?5vbase?5copy?5constructor?5i@ 100afb70     libvcruntime:undname.obj
 0002:00000b9c       ??_C@_0CL@FGIJHLCE@?$GAmanaged?5vector?5copy?5constructor@ 100afb9c     libvcruntime:undname.obj
 0002:00000bc8       ??_C@_0BM@PMGGMLDN@?$GAlocal?5static?5thread?5guard?8?$AA@ 100afbc8     libvcruntime:undname.obj
 0002:00000be4       ??_C@_0N@BDNMDMOL@operator?5?$CC?$CC?5?$AA@ 100afbe4     libvcruntime:undname.obj
 0002:00000bf4       ??_C@_0BC@DAFEJGAK@?5Type?5Descriptor?8?$AA@ 100afbf4     libvcruntime:undname.obj
 0002:00000c08       ??_C@_0BM@LDKODKLH@?5Base?5Class?5Descriptor?5at?5?$CI?$AA@ 100afc08     libvcruntime:undname.obj
 0002:00000c24       ??_C@_0BD@LGICGFMM@?5Base?5Class?5Array?8?$AA@ 100afc24     libvcruntime:undname.obj
 0002:00000c38       ??_C@_0BN@MECKDCOJ@?5Class?5Hierarchy?5Descriptor?8?$AA@ 100afc38     libvcruntime:undname.obj
 0002:00000c58       ??_C@_0BK@CFCOFLF@?5Complete?5Object?5Locator?8?$AA@ 100afc58     libvcruntime:undname.obj
 0002:00000c78       ??_C@_1EK@MBDPDCGA@?$AAM?$AAi?$AAc?$AAr?$AAo?$AAs?$AAo?$AAf?$AAt?$AA?5?$AAV?$AAi?$AAs?$AAu?$AAa?$AAl?$AA?5?$AAC?$AA?$CL?$AA?$CL?$AA?5?$AAR?$AAu?$AAn?$AAt?$AAi?$AAm?$AAe?$AA?5?$AAL?$AAi?$AAb@ 100afc78     libucrt:assert.obj
 0002:00000cc8       ??_C@_1FE@LHBLIKM@?$AAA?$AAs?$AAs?$AAe?$AAr?$AAt?$AAi?$AAo?$AAn?$AA?5?$AAf?$AAa?$AAi?$AAl?$AAe?$AAd?$AA?3?$AA?5?$AA?$CF?$AAT?$AAs?$AA?0?$AA?5?$AAf?$AAi?$AAl?$AAe?$AA?5?$AA?$CF?$AAT?$AAs?$AA?0@ 100afcc8     libucrt:assert.obj
 0002:00000d1c       ??_C@_1CE@OJBNHDMO@?$AAA?$AAs?$AAs?$AAe?$AAr?$AAt?$AAi?$AAo?$AAn?$AA?5?$AAf?$AAa?$AAi?$AAl?$AAe?$AAd?$AA?$CB?$AA?$AA@ 100afd1c     libucrt:assert.obj
 0002:00000d40       ??_C@_1BE@PHKBBGE@?$AAP?$AAr?$AAo?$AAg?$AAr?$AAa?$AAm?$AA?3?$AA?5?$AA?$AA@ 100afd40     libucrt:assert.obj
 0002:00000d54       ??_C@_1O@HEMHKNDC@?$AAF?$AAi?$AAl?$AAe?$AA?3?$AA?5?$AA?$AA@ 100afd54     libucrt:assert.obj
 0002:00000d64       ??_C@_1O@KCAFKHJE@?$AAL?$AAi?$AAn?$AAe?$AA?3?$AA?5?$AA?$AA@ 100afd64     libucrt:assert.obj
 0002:00000d74       ??_C@_1BK@PEDCIPMA@?$AAE?$AAx?$AAp?$AAr?$AAe?$AAs?$AAs?$AAi?$AAo?$AAn?$AA?3?$AA?5?$AA?$AA@ 100afd74     libucrt:assert.obj
 0002:00000d90       ??_C@_1OA@EGMLFBHJ@?$AAF?$AAo?$AAr?$AA?5?$AAi?$AAn?$AAf?$AAo?$AAr?$AAm?$AAa?$AAt?$AAi?$AAo?$AAn?$AA?5?$AAo?$AAn?$AA?5?$AAh?$AAo?$AAw?$AA?5?$AAy?$AAo?$AAu?$AAr?$AA?5?$AAp?$AAr?$AAo?$AAg@ 100afd90     libucrt:assert.obj
 0002:00000e70       ??_C@_1HK@POCJMFGK@?$AA?$CI?$AAP?$AAr?$AAe?$AAs?$AAs?$AA?5?$AAR?$AAe?$AAt?$AAr?$AAy?$AA?5?$AAt?$AAo?$AA?5?$AAd?$AAe?$AAb?$AAu?$AAg?$AA?5?$AAt?$AAh?$AAe?$AA?5?$AAa?$AAp?$AAp?$AAl?$AAi?$AAc@ 100afe70     libucrt:assert.obj
 0002:00000eec       ??_C@_17LGKOMLJ@?$AA?4?$AA?4?$AA?4?$AA?$AA@ 100afeec     libucrt:assert.obj
 0002:00000ef4       ??_C@_13LBAGMAIH@?$AA?6?$AA?$AA@ 100afef4     libucrt:assert.obj
 0002:00000ef8       ??_C@_15IABLJNFO@?$AA?6?$AA?6?$AA?$AA@ 100afef8     libucrt:assert.obj
 0002:00000f00       ??_C@_1CO@EAEJAADC@?$AA?$DM?$AAp?$AAr?$AAo?$AAg?$AAr?$AAa?$AAm?$AA?5?$AAn?$AAa?$AAm?$AAe?$AA?5?$AAu?$AAn?$AAk?$AAn?$AAo?$AAw?$AAn?$AA?$DO?$AA?$AA@ 100aff00     libucrt:assert.obj
 0002:00001098       ??_C@_0EA@FCLIIPNN@Visual?5C?$CL?$CL?5CRT?3?5Not?5enough?5memor@ 100b0098     libucrt:strerror.obj
 0002:000010d8       _standard_lookup_table     100b00d8     libucrt:output.obj
 0002:00001138       _format_validation_lookup_table 100b0138     libucrt:output.obj
 0002:00001194       ??_C@_1O@CEDCILHN@?$AA?$CI?$AAn?$AAu?$AAl?$AAl?$AA?$CJ?$AA?$AA@ 100b0194     libucrt:output.obj
 0002:000011a8       ___acrt_exception_action_table 100b01a8     libucrt:exception_filter.obj
 0002:00001238       ___acrt_signal_action_table_count 100b0238     libucrt:exception_filter.obj
 0002:0000123c       ___acrt_signal_action_first_fpe_index 100b023c     libucrt:exception_filter.obj
 0002:00001240       ___acrt_signal_action_fpe_count 100b0240     libucrt:exception_filter.obj
 0002:00001244       ??_C@_1BI@BGOHAHKC@?$AAm?$AAs?$AAc?$AAo?$AAr?$AAe?$AAe?$AA?4?$AAd?$AAl?$AAl?$AA?$AA@ 100b0244     libucrt:exit.obj
 0002:0000125c       ??_C@_0P@MIGLKIOC@CorExitProcess?$AA@ 100b025c     libucrt:exit.obj
 0002:000012e8       ??_C@_03KOEHGMDN@Sun?$AA@  100b02e8     libucrt:nlsdata.obj
 0002:000012ec       ??_C@_03PDAGKDH@Mon?$AA@   100b02ec     libucrt:nlsdata.obj
 0002:000012f0       ??_C@_03NAGEINEP@Tue?$AA@  100b02f0     libucrt:nlsdata.obj
 0002:000012f4       ??_C@_03MHOMLAJA@Wed?$AA@  100b02f4     libucrt:nlsdata.obj
 0002:000012f8       ??_C@_03IOFIKPDN@Thu?$AA@  100b02f8     libucrt:nlsdata.obj
 0002:000012fc       ??_C@_03IDIOELNC@Fri?$AA@  100b02fc     libucrt:nlsdata.obj
 0002:00001300       ??_C@_03FEFJNEK@Sat?$AA@   100b0300     libucrt:nlsdata.obj
 0002:00001304       ??_C@_06OOPIFAJ@Sunday?$AA@ 100b0304     libucrt:nlsdata.obj
 0002:0000130c       ??_C@_06JLEDEDGH@Monday?$AA@ 100b030c     libucrt:nlsdata.obj
 0002:00001314       ??_C@_07BAAGCFCM@Tuesday?$AA@ 100b0314     libucrt:nlsdata.obj
 0002:0000131c       ??_C@_09DLIGFAKA@Wednesday?$AA@ 100b031c     libucrt:nlsdata.obj
 0002:00001328       ??_C@_08HACCIKIA@Thursday?$AA@ 100b0328     libucrt:nlsdata.obj
 0002:00001334       ??_C@_06JECMNKMI@Friday?$AA@ 100b0334     libucrt:nlsdata.obj
 0002:0000133c       ??_C@_08INBOOONO@Saturday?$AA@ 100b033c     libucrt:nlsdata.obj
 0002:00001348       ??_C@_03JIHJHPIE@Jan?$AA@  100b0348     libucrt:nlsdata.obj
 0002:0000134c       ??_C@_03HJBDCHOM@Feb?$AA@  100b034c     libucrt:nlsdata.obj
 0002:00001350       ??_C@_03ODNJBKGA@Mar?$AA@  100b0350     libucrt:nlsdata.obj
 0002:00001354       ??_C@_03LEOLGMJP@Apr?$AA@  100b0354     libucrt:nlsdata.obj
 0002:00001358       ??_C@_03IDFGHECI@Jun?$AA@  100b0358     libucrt:nlsdata.obj
 0002:0000135c       ??_C@_03LBGABGKK@Jul?$AA@  100b035c     libucrt:nlsdata.obj
 0002:00001360       ??_C@_03IFJFEIGA@Aug?$AA@  100b0360     libucrt:nlsdata.obj
 0002:00001364       ??_C@_03GGCAPAJC@Sep?$AA@  100b0364     libucrt:nlsdata.obj
 0002:00001368       ??_C@_03BMAOKBAD@Oct?$AA@  100b0368     libucrt:nlsdata.obj
 0002:0000136c       ??_C@_03JPJOFNIA@Nov?$AA@  100b036c     libucrt:nlsdata.obj
 0002:00001370       ??_C@_03MKABNOCG@Dec?$AA@  100b0370     libucrt:nlsdata.obj
 0002:00001374       ??_C@_08BPBNCDIB@MM?1dd?1yy?$AA@ 100b0374     libucrt:nlsdata.obj
 0002:00001380       ??_C@_0BE@CKGJFCPC@dddd?0?5MMMM?5dd?0?5yyyy?$AA@ 100b0380     libucrt:nlsdata.obj
 0002:00001394       ??_C@_08JCCMCCIL@HH?3mm?3ss?$AA@ 100b0394     libucrt:nlsdata.obj
 0002:000013a0       ??_C@_17MBGCMIPB@?$AAS?$AAu?$AAn?$AA?$AA@ 100b03a0     libucrt:nlsdata.obj
 0002:000013a8       ??_C@_17KBOMKBF@?$AAM?$AAo?$AAn?$AA?$AA@ 100b03a8     libucrt:nlsdata.obj
 0002:000013b0       ??_C@_17BMKGEGOJ@?$AAT?$AAu?$AAe?$AA?$AA@ 100b03b0     libucrt:nlsdata.obj
 0002:000013b8       ??_C@_17CJEDCEPE@?$AAW?$AAe?$AAd?$AA?$AA@ 100b03b8     libucrt:nlsdata.obj
 0002:000013c0       ??_C@_17PDPHAADD@?$AAT?$AAh?$AAu?$AA?$AA@ 100b03c0     libucrt:nlsdata.obj
 0002:000013c8       ??_C@_17HFOLPPLP@?$AAF?$AAr?$AAi?$AA?$AA@ 100b03c8     libucrt:nlsdata.obj
 0002:000013d0       ??_C@_17GGIBDPIH@?$AAS?$AAa?$AAt?$AA?$AA@ 100b03d0     libucrt:nlsdata.obj
 0002:000013d8       ??_C@_1O@IHNHDHPB@?$AAS?$AAu?$AAn?$AAd?$AAa?$AAy?$AA?$AA@ 100b03d8     libucrt:nlsdata.obj
 0002:000013e8       ??_C@_1O@MMNBFLIA@?$AAM?$AAo?$AAn?$AAd?$AAa?$AAy?$AA?$AA@ 100b03e8     libucrt:nlsdata.obj
 0002:000013f8       ??_C@_1BA@ENFBFFEK@?$AAT?$AAu?$AAe?$AAs?$AAd?$AAa?$AAy?$AA?$AA@ 100b03f8     libucrt:nlsdata.obj
 0002:00001408       ??_C@_1BE@EBOGMDOH@?$AAW?$AAe?$AAd?$AAn?$AAe?$AAs?$AAd?$AAa?$AAy?$AA?$AA@ 100b0408     libucrt:nlsdata.obj
 0002:0000141c       ??_C@_1BC@HHMNLIHE@?$AAT?$AAh?$AAu?$AAr?$AAs?$AAd?$AAa?$AAy?$AA?$AA@ 100b041c     libucrt:nlsdata.obj
 0002:00001430       ??_C@_1O@PDICJHAG@?$AAF?$AAr?$AAi?$AAd?$AAa?$AAy?$AA?$AA@ 100b0430     libucrt:nlsdata.obj
 0002:00001440       ??_C@_1BC@ENMNNPAJ@?$AAS?$AAa?$AAt?$AAu?$AAr?$AAd?$AAa?$AAy?$AA?$AA@ 100b0440     libucrt:nlsdata.obj
 0002:00001454       ??_C@_17DKNBKCHM@?$AAJ?$AAa?$AAn?$AA?$AA@ 100b0454     libucrt:nlsdata.obj
 0002:0000145c       ??_C@_17LMDJEKJN@?$AAF?$AAe?$AAb?$AA?$AA@ 100b045c     libucrt:nlsdata.obj
 0002:00001464       ??_C@_17CKNLEDEC@?$AAM?$AAa?$AAr?$AA?$AA@ 100b0464     libucrt:nlsdata.obj
 0002:0000146c       ??_C@_17LFPOIHDD@?$AAA?$AAp?$AAr?$AA?$AA@ 100b046c     libucrt:nlsdata.obj
 0002:00001474       ??_C@_17PNNKMEED@?$AAM?$AAa?$AAy?$AA?$AA@ 100b0474     libucrt:nlsdata.obj
 0002:0000147c       ??_C@_17KCJGOCPB@?$AAJ?$AAu?$AAn?$AA?$AA@ 100b047c     libucrt:nlsdata.obj
 0002:00001484       ??_C@_17IJPCKHK@?$AAJ?$AAu?$AAl?$AA?$AA@ 100b0484     libucrt:nlsdata.obj
 0002:0000148c       ??_C@_17ICPELBCN@?$AAA?$AAu?$AAg?$AA?$AA@ 100b048c     libucrt:nlsdata.obj
 0002:00001494       ??_C@_17HCHCOKMG@?$AAS?$AAe?$AAp?$AA?$AA@ 100b0494     libucrt:nlsdata.obj
 0002:0000149c       ??_C@_17FNLKOI@?$AAO?$AAc?$AAt?$AA?$AA@ 100b049c     libucrt:nlsdata.obj
 0002:000014a4       ??_C@_17BBDMLCIG@?$AAN?$AAo?$AAv?$AA?$AA@ 100b04a4     libucrt:nlsdata.obj
 0002:000014ac       ??_C@_17EGKACKIF@?$AAD?$AAe?$AAc?$AA?$AA@ 100b04ac     libucrt:nlsdata.obj
 0002:000014b4       ??_C@_1BA@EFMEIEBA@?$AAJ?$AAa?$AAn?$AAu?$AAa?$AAr?$AAy?$AA?$AA@ 100b04b4     libucrt:nlsdata.obj
 0002:000014c4       ??_C@_1BC@JGDDFFAM@?$AAF?$AAe?$AAb?$AAr?$AAu?$AAa?$AAr?$AAy?$AA?$AA@ 100b04c4     libucrt:nlsdata.obj
 0002:000014d8       ??_C@_1M@IKEENEDF@?$AAM?$AAa?$AAr?$AAc?$AAh?$AA?$AA@ 100b04d8     libucrt:nlsdata.obj
 0002:000014e4       ??_C@_1M@GJNLMHFD@?$AAA?$AAp?$AAr?$AAi?$AAl?$AA?$AA@ 100b04e4     libucrt:nlsdata.obj
 0002:000014f0       ??_C@_19EPFLPGAP@?$AAJ?$AAu?$AAn?$AAe?$AA?$AA@ 100b04f0     libucrt:nlsdata.obj
 0002:000014fc       ??_C@_19BIFMLPCD@?$AAJ?$AAu?$AAl?$AAy?$AA?$AA@ 100b04fc     libucrt:nlsdata.obj
 0002:00001508       ??_C@_1O@PAHLKOAC@?$AAA?$AAu?$AAg?$AAu?$AAs?$AAt?$AA?$AA@ 100b0508     libucrt:nlsdata.obj
 0002:00001518       ??_C@_1BE@DKAAMBJL@?$AAS?$AAe?$AAp?$AAt?$AAe?$AAm?$AAb?$AAe?$AAr?$AA?$AA@ 100b0518     libucrt:nlsdata.obj
 0002:0000152c       ??_C@_1BA@EPANDLNG@?$AAO?$AAc?$AAt?$AAo?$AAb?$AAe?$AAr?$AA?$AA@ 100b052c     libucrt:nlsdata.obj
 0002:0000153c       ??_C@_1BC@BGLIFPF@?$AAN?$AAo?$AAv?$AAe?$AAm?$AAb?$AAe?$AAr?$AA?$AA@ 100b053c     libucrt:nlsdata.obj
 0002:00001550       ??_C@_1BC@FEMKIFH@?$AAD?$AAe?$AAc?$AAe?$AAm?$AAb?$AAe?$AAr?$AA?$AA@ 100b0550     libucrt:nlsdata.obj
 0002:00001564       ??_C@_15ODEHAHHF@?$AAA?$AAM?$AA?$AA@ 100b0564     libucrt:nlsdata.obj
 0002:0000156c       ??_C@_15CLMNNGEL@?$AAP?$AAM?$AA?$AA@ 100b056c     libucrt:nlsdata.obj
 0002:00001574       ??_C@_1BC@IEBCMHCM@?$AAM?$AAM?$AA?1?$AAd?$AAd?$AA?1?$AAy?$AAy?$AA?$AA@ 100b0574     libucrt:nlsdata.obj
 0002:00001588       ??_C@_1CI@KNAKOEBC@?$AAd?$AAd?$AAd?$AAd?$AA?0?$AA?5?$AAM?$AAM?$AAM?$AAM?$AA?5?$AAd?$AAd?$AA?0?$AA?5?$AAy?$AAy?$AAy?$AAy?$AA?$AA@ 100b0588     libucrt:nlsdata.obj
 0002:000015b0       ??_C@_1BC@GDGBMEMK@?$AAH?$AAH?$AA?3?$AAm?$AAm?$AA?3?$AAs?$AAs?$AA?$AA@ 100b05b0     libucrt:nlsdata.obj
 0002:000015c4       ??_C@_1M@BMHNFIME@?$AAe?$AAn?$AA?9?$AAU?$AAS?$AA?$AA@ 100b05c4     libucrt:nlsdata.obj
 0002:000015d0       ___lc_time_c               100b05d0     libucrt:nlsdata.obj
 0002:00001738       __sys_errlist              100b0738     libucrt:syserr.obj
 0002:000017e8       ??_C@_08INEPGKHH@No?5error?$AA@ 100b07e8     libucrt:syserr.obj
 0002:000017f4       ??_C@_0BI@BJFCGOHL@Operation?5not?5permitted?$AA@ 100b07f4     libucrt:syserr.obj
 0002:0000180c       ??_C@_0BK@FMDHKPNF@No?5such?5file?5or?5directory?$AA@ 100b080c     libucrt:syserr.obj
 0002:00001828       ??_C@_0BA@FKIAIBGA@No?5such?5process?$AA@ 100b0828     libucrt:syserr.obj
 0002:00001838       ??_C@_0BK@FJBOAFDK@Interrupted?5function?5call?$AA@ 100b0838     libucrt:syserr.obj
 0002:00001854       ??_C@_0BD@KKNFOBBD@Input?1output?5error?$AA@ 100b0854     libucrt:syserr.obj
 0002:00001868       ??_C@_0BK@DPKMCKJ@No?5such?5device?5or?5address?$AA@ 100b0868     libucrt:syserr.obj
 0002:00001884       ??_C@_0BC@MFFGCDFL@Arg?5list?5too?5long?$AA@ 100b0884     libucrt:syserr.obj
 0002:00001898       ??_C@_0BC@HKPNECK@Exec?5format?5error?$AA@ 100b0898     libucrt:syserr.obj
 0002:000018ac       ??_C@_0BE@NFGDDCEF@Bad?5file?5descriptor?$AA@ 100b08ac     libucrt:syserr.obj
 0002:000018c0       ??_C@_0BD@LOHELEP@No?5child?5processes?$AA@ 100b08c0     libucrt:syserr.obj
 0002:000018d4       ??_C@_0CB@EPFKGNAK@Resource?5temporarily?5unavailable@ 100b08d4     libucrt:syserr.obj
 0002:000018f8       ??_C@_0BB@IMDKMPFB@Not?5enough?5space?$AA@ 100b08f8     libucrt:syserr.obj
 0002:0000190c       ??_C@_0BC@HFNFNKAI@Permission?5denied?$AA@ 100b090c     libucrt:syserr.obj
 0002:00001920       ??_C@_0M@LOEHLCJD@Bad?5address?$AA@ 100b0920     libucrt:syserr.obj
 0002:0000192c       ??_C@_0O@NIPGCINC@Unknown?5error?$AA@ 100b092c     libucrt:syserr.obj
 0002:0000193c       ??_C@_0BA@BIBLIOEK@Resource?5device?$AA@ 100b093c     libucrt:syserr.obj
 0002:0000194c       ??_C@_0M@NAAJNNGH@File?5exists?$AA@ 100b094c     libucrt:syserr.obj
 0002:00001958       ??_C@_0O@OAMDNOCP@Improper?5link?$AA@ 100b0958     libucrt:syserr.obj
 0002:00001968       ??_C@_0P@NLEIANHE@No?5such?5device?$AA@ 100b0968     libucrt:syserr.obj
 0002:00001978       ??_C@_0BA@CJBACOOL@Not?5a?5directory?$AA@ 100b0978     libucrt:syserr.obj
 0002:00001988       ??_C@_0P@NDHGCGKE@Is?5a?5directory?$AA@ 100b0988     libucrt:syserr.obj
 0002:00001998       ??_C@_0BB@HMGGCEBG@Invalid?5argument?$AA@ 100b0998     libucrt:syserr.obj
 0002:000019ac       ??_C@_0BO@IIFBODJE@Too?5many?5open?5files?5in?5system?$AA@ 100b09ac     libucrt:syserr.obj
 0002:000019cc       ??_C@_0BE@INBJMKGG@Too?5many?5open?5files?$AA@ 100b09cc     libucrt:syserr.obj
 0002:000019e0       ??_C@_0CE@ONOKNLPF@Inappropriate?5I?1O?5control?5operat@ 100b09e0     libucrt:syserr.obj
 0002:00001a04       ??_C@_0P@LFMMIPAE@File?5too?5large?$AA@ 100b0a04     libucrt:syserr.obj
 0002:00001a14       ??_C@_0BI@FEALHKLD@No?5space?5left?5on?5device?$AA@ 100b0a14     libucrt:syserr.obj
 0002:00001a2c       ??_C@_0N@FEHLOILP@Invalid?5seek?$AA@ 100b0a2c     libucrt:syserr.obj
 0002:00001a3c       ??_C@_0BG@DDBFNKBH@Read?9only?5file?5system?$AA@ 100b0a3c     libucrt:syserr.obj
 0002:00001a54       ??_C@_0P@PKCJJLLM@Too?5many?5links?$AA@ 100b0a54     libucrt:syserr.obj
 0002:00001a64       ??_C@_0M@LHEPIIOM@Broken?5pipe?$AA@ 100b0a64     libucrt:syserr.obj
 0002:00001a70       ??_C@_0N@MMJPGLJK@Domain?5error?$AA@ 100b0a70     libucrt:syserr.obj
 0002:00001a80       ??_C@_0BB@FCBJFCAJ@Result?5too?5large?$AA@ 100b0a80     libucrt:syserr.obj
 0002:00001a94       ??_C@_0BK@JAEBMJJM@Resource?5deadlock?5avoided?$AA@ 100b0a94     libucrt:syserr.obj
 0002:00001ab0       ??_C@_0BC@BEDIHIDK@Filename?5too?5long?$AA@ 100b0ab0     libucrt:syserr.obj
 0002:00001ac4       ??_C@_0BD@CLHBCGPB@No?5locks?5available?$AA@ 100b0ac4     libucrt:syserr.obj
 0002:00001ad8       ??_C@_0BJ@IHEHINLI@Function?5not?5implemented?$AA@ 100b0ad8     libucrt:syserr.obj
 0002:00001af4       ??_C@_0BE@ICMCHPHH@Directory?5not?5empty?$AA@ 100b0af4     libucrt:syserr.obj
 0002:00001b08       ??_C@_0BG@KLEAJEFJ@Illegal?5byte?5sequence?$AA@ 100b0b08     libucrt:syserr.obj
 0002:00001b20       __sys_nerr                 100b0b20     libucrt:syserr.obj
 0002:00001b78       ??_C@_1EG@CNNIPFIM@?$AAa?$AAp?$AAi?$AA?9?$AAm?$AAs?$AA?9?$AAw?$AAi?$AAn?$AA?9?$AAa?$AAp?$AAp?$AAm?$AAo?$AAd?$AAe?$AAl?$AA?9?$AAr?$AAu?$AAn?$AAt?$AAi?$AAm?$AAe?$AA?9?$AAl?$AA1?$AA?9?$AA1@ 100b0b78     libucrt:winapi_thunks.obj
 0002:00001bc0       ??_C@_1EA@JGEFHKEI@?$AAa?$AAp?$AAi?$AA?9?$AAm?$AAs?$AA?9?$AAw?$AAi?$AAn?$AA?9?$AAc?$AAo?$AAr?$AAe?$AA?9?$AAd?$AAa?$AAt?$AAe?$AAt?$AAi?$AAm?$AAe?$AA?9?$AAl?$AA1?$AA?9?$AA1?$AA?9?$AA1?$AA?$AA@ 100b0bc0     libucrt:winapi_thunks.obj
 0002:00001c00       ??_C@_1DI@GCIAAENM@?$AAa?$AAp?$AAi?$AA?9?$AAm?$AAs?$AA?9?$AAw?$AAi?$AAn?$AA?9?$AAc?$AAo?$AAr?$AAe?$AA?9?$AAf?$AAi?$AAl?$AAe?$AA?9?$AAl?$AA2?$AA?9?$AA1?$AA?9?$AA1?$AA?$AA@ 100b0c00     libucrt:winapi_thunks.obj
 0002:00001c38       ??_C@_1EI@MPIAOHOC@?$AAa?$AAp?$AAi?$AA?9?$AAm?$AAs?$AA?9?$AAw?$AAi?$AAn?$AA?9?$AAc?$AAo?$AAr?$AAe?$AA?9?$AAl?$AAo?$AAc?$AAa?$AAl?$AAi?$AAz?$AAa?$AAt?$AAi?$AAo?$AAn?$AA?9?$AAl?$AA1?$AA?9@ 100b0c38     libucrt:winapi_thunks.obj
 0002:00001c80       ??_C@_1FK@FPHCKFIE@?$AAa?$AAp?$AAi?$AA?9?$AAm?$AAs?$AA?9?$AAw?$AAi?$AAn?$AA?9?$AAc?$AAo?$AAr?$AAe?$AA?9?$AAl?$AAo?$AAc?$AAa?$AAl?$AAi?$AAz?$AAa?$AAt?$AAi?$AAo?$AAn?$AA?9?$AAo?$AAb?$AAs@ 100b0c80     libucrt:winapi_thunks.obj
 0002:00001ce0       ??_C@_1EM@DILCGIIO@?$AAa?$AAp?$AAi?$AA?9?$AAm?$AAs?$AA?9?$AAw?$AAi?$AAn?$AA?9?$AAc?$AAo?$AAr?$AAe?$AA?9?$AAp?$AAr?$AAo?$AAc?$AAe?$AAs?$AAs?$AAt?$AAh?$AAr?$AAe?$AAa?$AAd?$AAs?$AA?9?$AAl@ 100b0ce0     libucrt:winapi_thunks.obj
 0002:00001d2c       ??_C@_1DM@LNCGDDPN@?$AAa?$AAp?$AAi?$AA?9?$AAm?$AAs?$AA?9?$AAw?$AAi?$AAn?$AA?9?$AAc?$AAo?$AAr?$AAe?$AA?9?$AAs?$AAt?$AAr?$AAi?$AAn?$AAg?$AA?9?$AAl?$AA1?$AA?9?$AA1?$AA?9?$AA0?$AA?$AA@ 100b0d2c     libucrt:winapi_thunks.obj
 0002:00001d68       ??_C@_1DO@FPAPJEMD@?$AAa?$AAp?$AAi?$AA?9?$AAm?$AAs?$AA?9?$AAw?$AAi?$AAn?$AA?9?$AAc?$AAo?$AAr?$AAe?$AA?9?$AAs?$AAy?$AAs?$AAi?$AAn?$AAf?$AAo?$AA?9?$AAl?$AA1?$AA?9?$AA2?$AA?9?$AA1?$AA?$AA@ 100b0d68     libucrt:winapi_thunks.obj
 0002:00001da8       ??_C@_1DK@NDHNAHIO@?$AAa?$AAp?$AAi?$AA?9?$AAm?$AAs?$AA?9?$AAw?$AAi?$AAn?$AA?9?$AAc?$AAo?$AAr?$AAe?$AA?9?$AAw?$AAi?$AAn?$AAr?$AAt?$AA?9?$AAl?$AA1?$AA?9?$AA1?$AA?9?$AA0?$AA?$AA@ 100b0da8     libucrt:winapi_thunks.obj
 0002:00001de4       ??_C@_1DM@KGHDGBCM@?$AAa?$AAp?$AAi?$AA?9?$AAm?$AAs?$AA?9?$AAw?$AAi?$AAn?$AA?9?$AAc?$AAo?$AAr?$AAe?$AA?9?$AAx?$AAs?$AAt?$AAa?$AAt?$AAe?$AA?9?$AAl?$AA2?$AA?9?$AA1?$AA?9?$AA0?$AA?$AA@ 100b0de4     libucrt:winapi_thunks.obj
 0002:00001e20       ??_C@_1EO@IJIOEFOH@?$AAa?$AAp?$AAi?$AA?9?$AAm?$AAs?$AA?9?$AAw?$AAi?$AAn?$AA?9?$AAr?$AAt?$AAc?$AAo?$AAr?$AAe?$AA?9?$AAn?$AAt?$AAu?$AAs?$AAe?$AAr?$AA?9?$AAw?$AAi?$AAn?$AAd?$AAo?$AAw?$AA?9@ 100b0e20     libucrt:winapi_thunks.obj
 0002:00001e70       ??_C@_1FG@HHGEKANL@?$AAa?$AAp?$AAi?$AA?9?$AAm?$AAs?$AA?9?$AAw?$AAi?$AAn?$AA?9?$AAs?$AAe?$AAc?$AAu?$AAr?$AAi?$AAt?$AAy?$AA?9?$AAs?$AAy?$AAs?$AAt?$AAe?$AAm?$AAf?$AAu?$AAn?$AAc?$AAt?$AAi@ 100b0e70     libucrt:winapi_thunks.obj
 0002:00001ec8       ??_C@_1FG@NCKKOLKO@?$AAe?$AAx?$AAt?$AA?9?$AAm?$AAs?$AA?9?$AAw?$AAi?$AAn?$AA?9?$AAk?$AAe?$AAr?$AAn?$AAe?$AAl?$AA3?$AA2?$AA?9?$AAp?$AAa?$AAc?$AAk?$AAa?$AAg?$AAe?$AA?9?$AAc?$AAu?$AAr?$AAr@ 100b0ec8     libucrt:winapi_thunks.obj
 0002:00001f20       ??_C@_1EG@DBIOJECG@?$AAe?$AAx?$AAt?$AA?9?$AAm?$AAs?$AA?9?$AAw?$AAi?$AAn?$AA?9?$AAn?$AAt?$AAu?$AAs?$AAe?$AAr?$AA?9?$AAd?$AAi?$AAa?$AAl?$AAo?$AAg?$AAb?$AAo?$AAx?$AA?9?$AAl?$AA1?$AA?9?$AA1@ 100b0f20     libucrt:winapi_thunks.obj
 0002:00001f68       ??_C@_1EO@FIHMJCLF@?$AAe?$AAx?$AAt?$AA?9?$AAm?$AAs?$AA?9?$AAw?$AAi?$AAn?$AA?9?$AAn?$AAt?$AAu?$AAs?$AAe?$AAr?$AA?9?$AAw?$AAi?$AAn?$AAd?$AAo?$AAw?$AAs?$AAt?$AAa?$AAt?$AAi?$AAo?$AAn?$AA?9@ 100b0f68     libucrt:winapi_thunks.obj
 0002:00001fb8       ??_C@_1O@BCCLBEOE@?$AAu?$AAs?$AAe?$AAr?$AA3?$AA2?$AA?$AA@ 100b0fb8     libucrt:winapi_thunks.obj
 0002:00001fcc       ??_C@_0BA@FHFNEAED@AreFileApisANSI?$AA@ 100b0fcc     libucrt:winapi_thunks.obj
 0002:00001fe4       ??_C@_0BA@IHGNDAEB@CompareStringEx?$AA@ 100b0fe4     libucrt:winapi_thunks.obj
 0002:0000201c       ??_C@_0BA@HNOPNCHB@GetActiveWindow?$AA@ 100b101c     libucrt:winapi_thunks.obj
 0002:00002034       ??_C@_0BE@JOGNEJCI@GetCurrentPackageId?$AA@ 100b1034     libucrt:winapi_thunks.obj
 0002:00002050       ??_C@_0BD@HHGDFDBJ@GetLastActivePopup?$AA@ 100b1050     libucrt:winapi_thunks.obj
 0002:0000206c       ??_C@_0BI@DFKBFLJE@GetProcessWindowStation?$AA@ 100b106c     libucrt:winapi_thunks.obj
 0002:00002088       ??_C@_0BP@FPNJPEJC@GetSystemTimePreciseAsFileTime?$AA@ 100b1088     libucrt:winapi_thunks.obj
 0002:000020b0       ??_C@_0BK@DEKFELLI@GetUserObjectInformationW?$AA@ 100b10b0     libucrt:winapi_thunks.obj
 0002:000020dc       ??_C@_0O@KKBNKAPF@LCMapStringEx?$AA@ 100b10dc     libucrt:winapi_thunks.obj
 0002:000020f4       ??_C@_0BB@HBDEELFH@LocaleNameToLCID?$AA@ 100b10f4     libucrt:winapi_thunks.obj
 0002:00002110       ??_C@_0M@CHKKJDAI@MessageBoxA?$AA@ 100b1110     libucrt:winapi_thunks.obj
 0002:00002124       ??_C@_0M@DLDCCGNP@MessageBoxW?$AA@ 100b1124     libucrt:winapi_thunks.obj
 0002:00002130       ??_C@_03OEIAHPBN@INF?$AA@  100b1130     libucrt:cvt.obj
 0002:00002134       ??_C@_03OJHLLCGB@inf?$AA@  100b1134     libucrt:cvt.obj
 0002:00002138       ??_C@_03LKNCIKJB@NAN?$AA@  100b1138     libucrt:cvt.obj
 0002:0000213c       ??_C@_03LHCJEHON@nan?$AA@  100b113c     libucrt:cvt.obj
 0002:00002140       ??_C@_09OFJJIMPC@NAN?$CISNAN?$CJ?$AA@ 100b1140     libucrt:cvt.obj
 0002:0000214c       ??_C@_09IPFBKMDL@nan?$CIsnan?$CJ?$AA@ 100b114c     libucrt:cvt.obj
 0002:00002158       ??_C@_08IKHNHAJ@NAN?$CIIND?$CJ?$AA@ 100b1158     libucrt:cvt.obj
 0002:00002164       ??_C@_08OFCDMILK@nan?$CIind?$CJ?$AA@ 100b1164     libucrt:cvt.obj
 0002:00002170       ??_C@_05KLBDPFGC@e?$CL000?$AA@ 100b1170     libucrt:cvt.obj
 0002:00002178       __days                     100b1178     libucrt:days.obj
 0002:000021ac       __lpdays                   100b11ac     libucrt:days.obj
 0002:000021e0       ??_C@_02CLFPBFFP@TZ?$AA@   100b11e0     libucrt:tzset.obj
 0002:000021e8       __wctype                   100b11e8     libucrt:ctype.obj
 0002:000023f0       ___newctype                100b13f0     libucrt:ctype.obj
 0002:000026f0       ___newclmap                100b16f0     libucrt:ctype.obj
 0002:00002870       ___newcumap                100b1870     libucrt:ctype.obj
 0002:00002a00       ??_C@_1M@HPNHIDJI@?$AAj?$AAa?$AA?9?$AAJ?$AAP?$AA?$AA@ 100b1a00     libucrt:mbctype.obj
 0002:00002a0c       ??_C@_1M@BIBDDEMK@?$AAz?$AAh?$AA?9?$AAC?$AAN?$AA?$AA@ 100b1a0c     libucrt:mbctype.obj
 0002:00002a18       ??_C@_1M@JLOOOEGK@?$AAk?$AAo?$AA?9?$AAK?$AAR?$AA?$AA@ 100b1a18     libucrt:mbctype.obj
 0002:00002a24       ??_C@_1M@CLNBBOPM@?$AAz?$AAh?$AA?9?$AAT?$AAW?$AA?$AA@ 100b1a24     libucrt:mbctype.obj
 0002:00002a30       ??_C@_15PJPFLCCM@?$AAu?$AAk?$AA?$AA@ 100b1a30     libucrt:get_qualified_locale.obj
 0002:00003158       ??_C@_15EMKDOKLE@?$AAa?$AAr?$AA?$AA@ 100b2158     libucrt:lcidtoname_downlevel.obj
 0002:00003160       ??_C@_15KNPADPLH@?$AAb?$AAg?$AA?$AA@ 100b2160     libucrt:lcidtoname_downlevel.obj
 0002:00003168       ??_C@_15EDMHLDMO@?$AAc?$AAa?$AA?$AA@ 100b2168     libucrt:lcidtoname_downlevel.obj
 0002:00003170       ??_C@_1O@BPEAJADD@?$AAz?$AAh?$AA?9?$AAC?$AAH?$AAS?$AA?$AA@ 100b2170     libucrt:lcidtoname_downlevel.obj
 0002:00003180       ??_C@_15LJNHCMNK@?$AAc?$AAs?$AA?$AA@ 100b2180     libucrt:lcidtoname_downlevel.obj
 0002:00003188       ??_C@_15FOMCIDHG@?$AAd?$AAa?$AA?$AA@ 100b2188     libucrt:lcidtoname_downlevel.obj
 0002:00003190       ??_C@_15NBKABECB@?$AAd?$AAe?$AA?$AA@ 100b2190     libucrt:lcidtoname_downlevel.obj
 0002:00003198       ??_C@_15GHPEIIAO@?$AAe?$AAl?$AA?$AA@ 100b2198     libucrt:lcidtoname_downlevel.obj
 0002:000031a0       ??_C@_15MNPNEAIF@?$AAe?$AAn?$AA?$AA@ 100b21a0     libucrt:lcidtoname_downlevel.obj
 0002:000031a8       ??_C@_15GPIOMPMH@?$AAe?$AAs?$AA?$AA@ 100b21a8     libucrt:lcidtoname_downlevel.obj
 0002:000031b0       ??_C@_15NGLOAKJC@?$AAf?$AAi?$AA?$AA@ 100b21b0     libucrt:lcidtoname_downlevel.obj
 0002:000031b8       ??_C@_15FBKGNKAM@?$AAf?$AAr?$AA?$AA@ 100b21b8     libucrt:lcidtoname_downlevel.obj
 0002:000031c0       ??_C@_15KGGCNEFK@?$AAh?$AAe?$AA?$AA@ 100b21c0     libucrt:lcidtoname_downlevel.obj
 0002:000031c8       ??_C@_15PGHLIDMF@?$AAh?$AAu?$AA?$AA@ 100b21c8     libucrt:lcidtoname_downlevel.obj
 0002:000031d0       ??_C@_15BIEMAPLM@?$AAi?$AAs?$AA?$AA@ 100b21d0     libucrt:lcidtoname_downlevel.obj
 0002:000031d8       ??_C@_15IFJLDHAF@?$AAi?$AAt?$AA?$AA@ 100b21d8     libucrt:lcidtoname_downlevel.obj
 0002:000031e0       ??_C@_15GEMIOCAG@?$AAj?$AAa?$AA?$AA@ 100b21e0     libucrt:lcidtoname_downlevel.obj
 0002:000031e8       ??_C@_15EPELEGJA@?$AAk?$AAo?$AA?$AA@ 100b21e8     libucrt:lcidtoname_downlevel.obj
 0002:000031f0       ??_C@_15NDDHIMN@?$AAn?$AAl?$AA?$AA@ 100b21f0     libucrt:lcidtoname_downlevel.obj
 0002:000031f8       ??_C@_15BPIGNHCD@?$AAn?$AAo?$AA?$AA@ 100b21f8     libucrt:lcidtoname_downlevel.obj
 0002:00003200       ??_C@_15DEOPBLCG@?$AAp?$AAl?$AA?$AA@ 100b2200     libucrt:lcidtoname_downlevel.obj
 0002:00003208       ??_C@_15KBECGEFG@?$AAp?$AAt?$AA?$AA@ 100b2208     libucrt:lcidtoname_downlevel.obj
 0002:00003210       ??_C@_15GLJCBFMD@?$AAr?$AAo?$AA?$AA@ 100b2210     libucrt:lcidtoname_downlevel.obj
 0002:00003218       ??_C@_15FEDGKCDI@?$AAr?$AAu?$AA?$AA@ 100b2218     libucrt:lcidtoname_downlevel.obj
 0002:00003220       ??_C@_15GLKMLLHM@?$AAh?$AAr?$AA?$AA@ 100b2220     libucrt:lcidtoname_downlevel.obj
 0002:00003228       ??_C@_15CPKMFBDB@?$AAs?$AAk?$AA?$AA@ 100b2228     libucrt:lcidtoname_downlevel.obj
 0002:00003230       ??_C@_15BAAIOGMK@?$AAs?$AAq?$AA?$AA@ 100b2230     libucrt:lcidtoname_downlevel.obj
 0002:00003238       ??_C@_15INNPNOHD@?$AAs?$AAv?$AA?$AA@ 100b2238     libucrt:lcidtoname_downlevel.obj
 0002:00003240       ??_C@_15CABMMOGH@?$AAt?$AAh?$AA?$AA@ 100b2240     libucrt:lcidtoname_downlevel.obj
 0002:00003248       ??_C@_15BPLIHJJM@?$AAt?$AAr?$AA?$AA@ 100b2248     libucrt:lcidtoname_downlevel.obj
 0002:00003250       ??_C@_15NEOEKKDJ@?$AAu?$AAr?$AA?$AA@ 100b2250     libucrt:lcidtoname_downlevel.obj
 0002:00003258       ??_C@_15HPJPHDM@?$AAb?$AAe?$AA?$AA@ 100b2258     libucrt:lcidtoname_downlevel.obj
 0002:00003260       ??_C@_15LCHLGJII@?$AAs?$AAl?$AA?$AA@ 100b2260     libucrt:lcidtoname_downlevel.obj
 0002:00003268       ??_C@_15PCFJPHHO@?$AAe?$AAt?$AA?$AA@ 100b2268     libucrt:lcidtoname_downlevel.obj
 0002:00003270       ??_C@_15HPFPGODN@?$AAl?$AAv?$AA?$AA@ 100b2270     libucrt:lcidtoname_downlevel.obj
 0002:00003278       ??_C@_15NFFGKGLG@?$AAl?$AAt?$AA?$AA@ 100b2278     libucrt:lcidtoname_downlevel.obj
 0002:00003280       ??_C@_15BDAKCCHN@?$AAf?$AAa?$AA?$AA@ 100b2280     libucrt:lcidtoname_downlevel.obj
 0002:00003288       ??_C@_15NFGIAIAJ@?$AAv?$AAi?$AA?$AA@ 100b2288     libucrt:lcidtoname_downlevel.obj
 0002:00003290       ??_C@_15LMKNDMHN@?$AAh?$AAy?$AA?$AA@ 100b2290     libucrt:lcidtoname_downlevel.obj
 0002:00003298       ??_C@_15IJBHMCFL@?$AAa?$AAz?$AA?$AA@ 100b2298     libucrt:lcidtoname_downlevel.obj
 0002:000032a0       ??_C@_15EKOFJABL@?$AAe?$AAu?$AA?$AA@ 100b22a0     libucrt:lcidtoname_downlevel.obj
 0002:000032a8       ??_C@_15BGHADCNK@?$AAm?$AAk?$AA?$AA@ 100b22a8     libucrt:lcidtoname_downlevel.obj
 0002:000032b0       ??_C@_15JDNICKHM@?$AAa?$AAf?$AA?$AA@ 100b22b0     libucrt:lcidtoname_downlevel.obj
 0002:000032b8       ??_C@_15KPJEDBKD@?$AAk?$AAa?$AA?$AA@ 100b22b8     libucrt:lcidtoname_downlevel.obj
 0002:000032c0       ??_C@_15PDNFFFEO@?$AAf?$AAo?$AA?$AA@ 100b22c0     libucrt:lcidtoname_downlevel.obj
 0002:000032c8       ??_C@_15OMLEGLOC@?$AAh?$AAi?$AA?$AA@ 100b22c8     libucrt:lcidtoname_downlevel.obj
 0002:000032d0       ??_C@_15IDNNENKK@?$AAm?$AAs?$AA?$AA@ 100b22d0     libucrt:lcidtoname_downlevel.obj
 0002:000032d8       ??_C@_15MACJNBMH@?$AAk?$AAk?$AA?$AA@ 100b22d8     libucrt:lcidtoname_downlevel.obj
 0002:000032e0       ??_C@_15DKDJEOND@?$AAk?$AAy?$AA?$AA@ 100b22e0     libucrt:lcidtoname_downlevel.obj
 0002:000032e8       ??_C@_15DFGDLJBG@?$AAs?$AAw?$AA?$AA@ 100b22e8     libucrt:lcidtoname_downlevel.obj
 0002:000032f0       ??_C@_15BBFAICNG@?$AAu?$AAz?$AA?$AA@ 100b22f0     libucrt:lcidtoname_downlevel.obj
 0002:000032f8       ??_C@_15DKNDCGEA@?$AAt?$AAt?$AA?$AA@ 100b22f8     libucrt:lcidtoname_downlevel.obj
 0002:00003300       ??_C@_15MGIFMDPL@?$AAp?$AAa?$AA?$AA@ 100b2300     libucrt:lcidtoname_downlevel.obj
 0002:00003308       ??_C@_15HCNDBBA@?$AAg?$AAu?$AA?$AA@ 100b2308     libucrt:lcidtoname_downlevel.obj
 0002:00003310       ??_C@_15FNBEIBON@?$AAt?$AAa?$AA?$AA@ 100b2310     libucrt:lcidtoname_downlevel.obj
 0002:00003318       ??_C@_15NCHGBGLK@?$AAt?$AAe?$AA?$AA@ 100b2318     libucrt:lcidtoname_downlevel.obj
 0002:00003320       ??_C@_15PHPHCBPF@?$AAk?$AAn?$AA?$AA@ 100b2320     libucrt:lcidtoname_downlevel.obj
 0002:00003328       ??_C@_15DLGBCKMP@?$AAm?$AAr?$AA?$AA@ 100b2328     libucrt:lcidtoname_downlevel.obj
 0002:00003330       ??_C@_15EABBLBFF@?$AAs?$AAa?$AA?$AA@ 100b2330     libucrt:lcidtoname_downlevel.obj
 0002:00003338       ??_C@_15CBKOMCOI@?$AAm?$AAn?$AA?$AA@ 100b2338     libucrt:lcidtoname_downlevel.obj
 0002:00003340       ??_C@_15CKDMCJAF@?$AAg?$AAl?$AA?$AA@ 100b2340     libucrt:lcidtoname_downlevel.obj
 0002:00003348       ??_C@_17CNJFBPG@?$AAk?$AAo?$AAk?$AA?$AA@ 100b2348     libucrt:lcidtoname_downlevel.obj
 0002:00003350       ??_C@_17FFBJICPL@?$AAs?$AAy?$AAr?$AA?$AA@ 100b2350     libucrt:lcidtoname_downlevel.obj
 0002:00003358       ??_C@_17KPNDCPAF@?$AAd?$AAi?$AAv?$AA?$AA@ 100b2358     libucrt:lcidtoname_downlevel.obj
 0002:00003360       ??_C@_11LOCGONAA@?$AA?$AA@ 100b2360     libucrt:lcidtoname_downlevel.obj
 0002:00003364       ??_C@_1M@OKAHONE@?$AAa?$AAr?$AA?9?$AAS?$AAA?$AA?$AA@ 100b2364     libucrt:lcidtoname_downlevel.obj
 0002:00003370       ??_C@_1M@FFFIGIGK@?$AAb?$AAg?$AA?9?$AAB?$AAG?$AA?$AA@ 100b2370     libucrt:lcidtoname_downlevel.obj
 0002:0000337c       ??_C@_1M@BJNKEDC@?$AAc?$AAa?$AA?9?$AAE?$AAS?$AA?$AA@ 100b237c     libucrt:lcidtoname_downlevel.obj
 0002:00003388       ??_C@_1M@IJJHFJHA@?$AAc?$AAs?$AA?9?$AAC?$AAZ?$AA?$AA@ 100b2388     libucrt:lcidtoname_downlevel.obj
 0002:00003394       ??_C@_1M@CLPEOBGI@?$AAd?$AAa?$AA?9?$AAD?$AAK?$AA?$AA@ 100b2394     libucrt:lcidtoname_downlevel.obj
 0002:000033a0       ??_C@_1M@MCMADGCB@?$AAd?$AAe?$AA?9?$AAD?$AAE?$AA?$AA@ 100b23a0     libucrt:lcidtoname_downlevel.obj
 0002:000033ac       ??_C@_1M@OOCKEMAM@?$AAe?$AAl?$AA?9?$AAG?$AAR?$AA?$AA@ 100b23ac     libucrt:lcidtoname_downlevel.obj
 0002:000033b8       ??_C@_1M@DDNJFGID@?$AAf?$AAi?$AA?9?$AAF?$AAI?$AA?$AA@ 100b23b8     libucrt:lcidtoname_downlevel.obj
 0002:000033c4       ??_C@_1M@GLIPPMAC@?$AAf?$AAr?$AA?9?$AAF?$AAR?$AA?$AA@ 100b23c4     libucrt:lcidtoname_downlevel.obj
 0002:000033d0       ??_C@_1M@GFMCHPE@?$AAh?$AAe?$AA?9?$AAI?$AAL?$AA?$AA@ 100b23d0     libucrt:lcidtoname_downlevel.obj
 0002:000033dc       ??_C@_1M@MHLPGNKM@?$AAh?$AAu?$AA?9?$AAH?$AAU?$AA?$AA@ 100b23dc     libucrt:lcidtoname_downlevel.obj
 0002:000033e8       ??_C@_1M@LPDDNNPN@?$AAi?$AAs?$AA?9?$AAI?$AAS?$AA?$AA@ 100b23e8     libucrt:lcidtoname_downlevel.obj
 0002:000033f4       ??_C@_1M@MADIPODN@?$AAi?$AAt?$AA?9?$AAI?$AAT?$AA?$AA@ 100b23f4     libucrt:lcidtoname_downlevel.obj
 0002:00003400       ??_C@_1M@IHBJJGG@?$AAn?$AAl?$AA?9?$AAN?$AAL?$AA?$AA@ 100b2400     libucrt:lcidtoname_downlevel.obj
 0002:0000340c       ??_C@_1M@EANAGDL@?$AAn?$AAb?$AA?9?$AAN?$AAO?$AA?$AA@ 100b240c     libucrt:lcidtoname_downlevel.obj
 0002:00003418       ??_C@_1M@NEIEMEGP@?$AAp?$AAl?$AA?9?$AAP?$AAL?$AA?$AA@ 100b2418     libucrt:lcidtoname_downlevel.obj
 0002:00003424       ??_C@_1M@BOCFIGEP@?$AAp?$AAt?$AA?9?$AAB?$AAR?$AA?$AA@ 100b2424     libucrt:lcidtoname_downlevel.obj
 0002:00003430       ??_C@_1M@IMPFOPBG@?$AAr?$AAo?$AA?9?$AAR?$AAO?$AA?$AA@ 100b2430     libucrt:lcidtoname_downlevel.obj
 0002:0000343c       ??_C@_1M@IDNNEJMM@?$AAr?$AAu?$AA?9?$AAR?$AAU?$AA?$AA@ 100b243c     libucrt:lcidtoname_downlevel.obj
 0002:00003448       ??_C@_1M@LILEEOGM@?$AAh?$AAr?$AA?9?$AAH?$AAR?$AA?$AA@ 100b2448     libucrt:lcidtoname_downlevel.obj
 0002:00003454       ??_C@_1M@FKIFEHPB@?$AAs?$AAk?$AA?9?$AAS?$AAK?$AA?$AA@ 100b2454     libucrt:lcidtoname_downlevel.obj
 0002:00003460       ??_C@_1M@LJMAMNPJ@?$AAs?$AAq?$AA?9?$AAA?$AAL?$AA?$AA@ 100b2460     libucrt:lcidtoname_downlevel.obj
 0002:0000346c       ??_C@_1M@GIAKDKJK@?$AAs?$AAv?$AA?9?$AAS?$AAE?$AA?$AA@ 100b246c     libucrt:lcidtoname_downlevel.obj
 0002:00003478       ??_C@_1M@MKJKIKCL@?$AAt?$AAh?$AA?9?$AAT?$AAH?$AA?$AA@ 100b2478     libucrt:lcidtoname_downlevel.obj
 0002:00003484       ??_C@_1M@MFLCCMPB@?$AAt?$AAr?$AA?9?$AAT?$AAR?$AA?$AA@ 100b2484     libucrt:lcidtoname_downlevel.obj
 0002:00003490       ??_C@_1M@OIJHDKJN@?$AAu?$AAr?$AA?9?$AAP?$AAK?$AA?$AA@ 100b2490     libucrt:lcidtoname_downlevel.obj
 0002:0000349c       ??_C@_1M@LHIPCIEK@?$AAi?$AAd?$AA?9?$AAI?$AAD?$AA?$AA@ 100b249c     libucrt:lcidtoname_downlevel.obj
 0002:000034a8       ??_C@_1M@MFMOBGI@?$AAu?$AAk?$AA?9?$AAU?$AAA?$AA?$AA@ 100b24a8     libucrt:lcidtoname_downlevel.obj
 0002:000034b4       ??_C@_1M@OBGLJIPL@?$AAb?$AAe?$AA?9?$AAB?$AAY?$AA?$AA@ 100b24b4     libucrt:lcidtoname_downlevel.obj
 0002:000034c0       ??_C@_1M@BCFAJEAD@?$AAs?$AAl?$AA?9?$AAS?$AAI?$AA?$AA@ 100b24c0     libucrt:lcidtoname_downlevel.obj
 0002:000034cc       ??_C@_1M@FKFFEDDN@?$AAe?$AAt?$AA?9?$AAE?$AAE?$AA?$AA@ 100b24cc     libucrt:lcidtoname_downlevel.obj
 0002:000034d8       ??_C@_1M@KGKKAACI@?$AAl?$AAv?$AA?9?$AAL?$AAV?$AA?$AA@ 100b24d8     libucrt:lcidtoname_downlevel.obj
 0002:000034e4       ??_C@_1M@IFGBIJO@?$AAl?$AAt?$AA?9?$AAL?$AAT?$AA?$AA@ 100b24e4     libucrt:lcidtoname_downlevel.obj
 0002:000034f0       ??_C@_1M@FGEAHEDM@?$AAf?$AAa?$AA?9?$AAI?$AAR?$AA?$AA@ 100b24f0     libucrt:lcidtoname_downlevel.obj
 0002:000034fc       ??_C@_1M@KBMAIBFN@?$AAv?$AAi?$AA?9?$AAV?$AAN?$AA?$AA@ 100b24fc     libucrt:lcidtoname_downlevel.obj
 0002:00003508       ??_C@_1M@GPCBKDJK@?$AAh?$AAy?$AA?9?$AAA?$AAM?$AA?$AA@ 100b2508     libucrt:lcidtoname_downlevel.obj
 0002:00003514       ??_C@_1BG@BECMDDJB@?$AAa?$AAz?$AA?9?$AAA?$AAZ?$AA?9?$AAL?$AAa?$AAt?$AAn?$AA?$AA@ 100b2514     libucrt:lcidtoname_downlevel.obj
 0002:0000352c       ??_C@_1M@MAOFCAEA@?$AAe?$AAu?$AA?9?$AAE?$AAS?$AA?$AA@ 100b252c     libucrt:lcidtoname_downlevel.obj
 0002:00003538       ??_C@_1M@IGHABKPI@?$AAm?$AAk?$AA?9?$AAM?$AAK?$AA?$AA@ 100b2538     libucrt:lcidtoname_downlevel.obj
 0002:00003544       ??_C@_1M@IAIGNEJG@?$AAt?$AAn?$AA?9?$AAZ?$AAA?$AA?$AA@ 100b2544     libucrt:lcidtoname_downlevel.obj
 0002:00003550       ??_C@_1M@IIJCOJFA@?$AAx?$AAh?$AA?9?$AAZ?$AAA?$AA?$AA@ 100b2550     libucrt:lcidtoname_downlevel.obj
 0002:0000355c       ??_C@_1M@LGPJHNJH@?$AAz?$AAu?$AA?9?$AAZ?$AAA?$AA?$AA@ 100b255c     libucrt:lcidtoname_downlevel.obj
 0002:00003568       ??_C@_1M@HOKAOIO@?$AAa?$AAf?$AA?9?$AAZ?$AAA?$AA?$AA@ 100b2568     libucrt:lcidtoname_downlevel.obj
 0002:00003574       ??_C@_1M@DPCLHLIE@?$AAk?$AAa?$AA?9?$AAG?$AAE?$AA?$AA@ 100b2574     libucrt:lcidtoname_downlevel.obj
 0002:00003580       ??_C@_1M@BLKMHJBI@?$AAf?$AAo?$AA?9?$AAF?$AAO?$AA?$AA@ 100b2580     libucrt:lcidtoname_downlevel.obj
 0002:0000358c       ??_C@_1M@LGGJAPPB@?$AAh?$AAi?$AA?9?$AAI?$AAN?$AA?$AA@ 100b258c     libucrt:lcidtoname_downlevel.obj
 0002:00003598       ??_C@_1M@FIKPIHFE@?$AAm?$AAt?$AA?9?$AAM?$AAT?$AA?$AA@ 100b2598     libucrt:lcidtoname_downlevel.obj
 0002:000035a4       ??_C@_1M@HEGGPBFA@?$AAs?$AAe?$AA?9?$AAN?$AAO?$AA?$AA@ 100b25a4     libucrt:lcidtoname_downlevel.obj
 0002:000035b0       ??_C@_1M@EIBJEEPA@?$AAm?$AAs?$AA?9?$AAM?$AAY?$AA?$AA@ 100b25b0     libucrt:lcidtoname_downlevel.obj
 0002:000035bc       ??_C@_1M@FHLBGMPP@?$AAk?$AAk?$AA?9?$AAK?$AAZ?$AA?$AA@ 100b25bc     libucrt:lcidtoname_downlevel.obj
 0002:000035c8       ??_C@_1M@NGJJLCGI@?$AAk?$AAy?$AA?9?$AAK?$AAG?$AA?$AA@ 100b25c8     libucrt:lcidtoname_downlevel.obj
 0002:000035d4       ??_C@_1M@GIENNBFC@?$AAs?$AAw?$AA?9?$AAK?$AAE?$AA?$AA@ 100b25d4     libucrt:lcidtoname_downlevel.obj
 0002:000035e0       ??_C@_1BG@NDGMJIMJ@?$AAu?$AAz?$AA?9?$AAU?$AAZ?$AA?9?$AAL?$AAa?$AAt?$AAn?$AA?$AA@ 100b25e0     libucrt:lcidtoname_downlevel.obj
 0002:000035f8       ??_C@_1M@IDCCIHBC@?$AAt?$AAt?$AA?9?$AAR?$AAU?$AA?$AA@ 100b25f8     libucrt:lcidtoname_downlevel.obj
 0002:00003604       ??_C@_1M@LOICPMOJ@?$AAb?$AAn?$AA?9?$AAI?$AAN?$AA?$AA@ 100b2604     libucrt:lcidtoname_downlevel.obj
 0002:00003610       ??_C@_1M@KPKKNEAH@?$AAp?$AAa?$AA?9?$AAI?$AAN?$AA?$AA@ 100b2610     libucrt:lcidtoname_downlevel.obj
 0002:0000361c       ??_C@_1M@PJGPPBOG@?$AAg?$AAu?$AA?9?$AAI?$AAN?$AA?$AA@ 100b261c     libucrt:lcidtoname_downlevel.obj
 0002:00003628       ??_C@_1M@KMKMOPHI@?$AAt?$AAa?$AA?9?$AAI?$AAN?$AA?$AA@ 100b2628     libucrt:lcidtoname_downlevel.obj
 0002:00003634       ??_C@_1M@KFEHEPAC@?$AAt?$AAe?$AA?9?$AAI?$AAN?$AA?$AA@ 100b2634     libucrt:lcidtoname_downlevel.obj
 0002:00003640       ??_C@_1M@CDCLMGHI@?$AAk?$AAn?$AA?9?$AAI?$AAN?$AA?$AA@ 100b2640     libucrt:lcidtoname_downlevel.obj
 0002:0000364c       ??_C@_1M@MIODLDKF@?$AAm?$AAl?$AA?9?$AAI?$AAN?$AA?$AA@ 100b264c     libucrt:lcidtoname_downlevel.obj
 0002:00003658       ??_C@_1M@PBIEACPO@?$AAm?$AAr?$AA?9?$AAI?$AAN?$AA?$AA@ 100b2658     libucrt:lcidtoname_downlevel.obj
 0002:00003664       ??_C@_1M@NIDEAGPH@?$AAs?$AAa?$AA?9?$AAI?$AAN?$AA?$AA@ 100b2664     libucrt:lcidtoname_downlevel.obj
 0002:00003670       ??_C@_1M@FHIHCBIO@?$AAm?$AAn?$AA?9?$AAM?$AAN?$AA?$AA@ 100b2670     libucrt:lcidtoname_downlevel.obj
 0002:0000367c       ??_C@_1M@JAIJPENP@?$AAc?$AAy?$AA?9?$AAG?$AAB?$AA?$AA@ 100b267c     libucrt:lcidtoname_downlevel.obj
 0002:00003688       ??_C@_1M@PHGFBEPN@?$AAg?$AAl?$AA?9?$AAE?$AAS?$AA?$AA@ 100b2688     libucrt:lcidtoname_downlevel.obj
 0002:00003694       ??_C@_1O@KPIPDNCP@?$AAk?$AAo?$AAk?$AA?9?$AAI?$AAN?$AA?$AA@ 100b2694     libucrt:lcidtoname_downlevel.obj
 0002:000036a4       ??_C@_1O@KNHJLDJA@?$AAs?$AAy?$AAr?$AA?9?$AAS?$AAY?$AA?$AA@ 100b26a4     libucrt:lcidtoname_downlevel.obj
 0002:000036b4       ??_C@_1O@MKEKBLAH@?$AAd?$AAi?$AAv?$AA?9?$AAM?$AAV?$AA?$AA@ 100b26b4     libucrt:lcidtoname_downlevel.obj
 0002:000036c4       ??_C@_1O@OHDCKDDF@?$AAq?$AAu?$AAz?$AA?9?$AAB?$AAO?$AA?$AA@ 100b26c4     libucrt:lcidtoname_downlevel.obj
 0002:000036d4       ??_C@_1M@LEPJNLFD@?$AAn?$AAs?$AA?9?$AAZ?$AAA?$AA?$AA@ 100b26d4     libucrt:lcidtoname_downlevel.obj
 0002:000036e0       ??_C@_1M@OMLEIIJB@?$AAm?$AAi?$AA?9?$AAN?$AAZ?$AA?$AA@ 100b26e0     libucrt:lcidtoname_downlevel.obj
 0002:000036ec       ??_C@_1M@PMPEAILG@?$AAa?$AAr?$AA?9?$AAI?$AAQ?$AA?$AA@ 100b26ec     libucrt:lcidtoname_downlevel.obj
 0002:000036f8       ??_C@_1M@CNKPNOEE@?$AAd?$AAe?$AA?9?$AAC?$AAH?$AA?$AA@ 100b26f8     libucrt:lcidtoname_downlevel.obj
 0002:00003704       ??_C@_1M@LKMGMLKO@?$AAe?$AAn?$AA?9?$AAG?$AAB?$AA?$AA@ 100b2704     libucrt:lcidtoname_downlevel.obj
 0002:00003710       ??_C@_1M@PGKJFFGL@?$AAe?$AAs?$AA?9?$AAM?$AAX?$AA?$AA@ 100b2710     libucrt:lcidtoname_downlevel.obj
 0002:0000371c       ??_C@_1M@DNNANBDC@?$AAf?$AAr?$AA?9?$AAB?$AAE?$AA?$AA@ 100b271c     libucrt:lcidtoname_downlevel.obj
 0002:00003728       ??_C@_1M@HLGMDFHM@?$AAi?$AAt?$AA?9?$AAC?$AAH?$AA?$AA@ 100b2728     libucrt:lcidtoname_downlevel.obj
 0002:00003734       ??_C@_1M@CLLBGJH@?$AAn?$AAl?$AA?9?$AAB?$AAE?$AA?$AA@ 100b2734     libucrt:lcidtoname_downlevel.obj
 0002:00003740       ??_C@_1M@BODBOGLF@?$AAn?$AAn?$AA?9?$AAN?$AAO?$AA?$AA@ 100b2740     libucrt:lcidtoname_downlevel.obj
 0002:0000374c       ??_C@_1M@HFFAHKAD@?$AAp?$AAt?$AA?9?$AAP?$AAT?$AA?$AA@ 100b274c     libucrt:lcidtoname_downlevel.obj
 0002:00003758       ??_C@_1BG@LNOAKHIE@?$AAs?$AAr?$AA?9?$AAS?$AAP?$AA?9?$AAL?$AAa?$AAt?$AAn?$AA?$AA@ 100b2758     libucrt:lcidtoname_downlevel.obj
 0002:00003770       ??_C@_1M@HBMHBGAK@?$AAs?$AAv?$AA?9?$AAF?$AAI?$AA?$AA@ 100b2770     libucrt:lcidtoname_downlevel.obj
 0002:0000377c       ??_C@_1BG@DGCJGJBE@?$AAa?$AAz?$AA?9?$AAA?$AAZ?$AA?9?$AAC?$AAy?$AAr?$AAl?$AA?$AA@ 100b277c     libucrt:lcidtoname_downlevel.obj
 0002:00003794       ??_C@_1M@KEJDAAHB@?$AAs?$AAe?$AA?9?$AAS?$AAE?$AA?$AA@ 100b2794     libucrt:lcidtoname_downlevel.obj
 0002:000037a0       ??_C@_1M@HEIBJJAD@?$AAm?$AAs?$AA?9?$AAB?$AAN?$AA?$AA@ 100b27a0     libucrt:lcidtoname_downlevel.obj
 0002:000037ac       ??_C@_1BG@PBGJMCEM@?$AAu?$AAz?$AA?9?$AAU?$AAZ?$AA?9?$AAC?$AAy?$AAr?$AAl?$AA?$AA@ 100b27ac     libucrt:lcidtoname_downlevel.obj
 0002:000037c4       ??_C@_1O@LAOBCMDF@?$AAq?$AAu?$AAz?$AA?9?$AAE?$AAC?$AA?$AA@ 100b27c4     libucrt:lcidtoname_downlevel.obj
 0002:000037d4       ??_C@_1M@POEEMAIO@?$AAa?$AAr?$AA?9?$AAE?$AAG?$AA?$AA@ 100b27d4     libucrt:lcidtoname_downlevel.obj
 0002:000037e0       ??_C@_1M@EFAKDEDL@?$AAz?$AAh?$AA?9?$AAH?$AAK?$AA?$AA@ 100b27e0     libucrt:lcidtoname_downlevel.obj
 0002:000037ec       ??_C@_1M@HKKIJHGI@?$AAd?$AAe?$AA?9?$AAA?$AAT?$AA?$AA@ 100b27ec     libucrt:lcidtoname_downlevel.obj
 0002:000037f8       ??_C@_1M@KBFBEHJF@?$AAe?$AAn?$AA?9?$AAA?$AAU?$AA?$AA@ 100b27f8     libucrt:lcidtoname_downlevel.obj
 0002:00003804       ??_C@_1M@MNPLFAAH@?$AAe?$AAs?$AA?9?$AAE?$AAS?$AA?$AA@ 100b2804     libucrt:lcidtoname_downlevel.obj
 0002:00003810       ??_C@_1M@HJOOJFMA@?$AAf?$AAr?$AA?9?$AAC?$AAA?$AA?$AA@ 100b2810     libucrt:lcidtoname_downlevel.obj
 0002:0000381c       ??_C@_1BG@JPOFPNAB@?$AAs?$AAr?$AA?9?$AAS?$AAP?$AA?9?$AAC?$AAy?$AAr?$AAl?$AA?$AA@ 100b281c     libucrt:lcidtoname_downlevel.obj
 0002:00003834       ??_C@_1M@LNFOCMOB@?$AAs?$AAe?$AA?9?$AAF?$AAI?$AA?$AA@ 100b2834     libucrt:lcidtoname_downlevel.obj
 0002:00003840       ??_C@_1O@MGJBOAMB@?$AAq?$AAu?$AAz?$AA?9?$AAP?$AAE?$AA?$AA@ 100b2840     libucrt:lcidtoname_downlevel.obj
 0002:00003850       ??_C@_1M@GJINLBOK@?$AAa?$AAr?$AA?9?$AAL?$AAY?$AA?$AA@ 100b2850     libucrt:lcidtoname_downlevel.obj
 0002:0000385c       ??_C@_1M@GGMNHJNL@?$AAz?$AAh?$AA?9?$AAS?$AAG?$AA?$AA@ 100b285c     libucrt:lcidtoname_downlevel.obj
 0002:00003868       ??_C@_1M@HOIKODND@?$AAd?$AAe?$AA?9?$AAL?$AAU?$AA?$AA@ 100b2868     libucrt:lcidtoname_downlevel.obj
 0002:00003874       ??_C@_1M@DDOCCGFG@?$AAe?$AAn?$AA?9?$AAC?$AAA?$AA?$AA@ 100b2874     libucrt:lcidtoname_downlevel.obj
 0002:00003880       ??_C@_1M@BNOEMJLF@?$AAe?$AAs?$AA?9?$AAG?$AAT?$AA?$AA@ 100b2880     libucrt:lcidtoname_downlevel.obj
 0002:0000388c       ??_C@_1M@EOGNKEK@?$AAf?$AAr?$AA?9?$AAC?$AAH?$AA?$AA@ 100b288c     libucrt:lcidtoname_downlevel.obj
 0002:00003898       ??_C@_1M@FLIDJFHL@?$AAh?$AAr?$AA?9?$AAB?$AAA?$AA?$AA@ 100b2898     libucrt:lcidtoname_downlevel.obj
 0002:000038a4       ??_C@_1O@FMCELNAJ@?$AAs?$AAm?$AAj?$AA?9?$AAN?$AAO?$AA?$AA@ 100b28a4     libucrt:lcidtoname_downlevel.obj
 0002:000038b4       ??_C@_1M@JHGLJMGJ@?$AAa?$AAr?$AA?9?$AAD?$AAZ?$AA?$AA@ 100b28b4     libucrt:lcidtoname_downlevel.obj
 0002:000038c0       ??_C@_1M@JKKFDCNP@?$AAz?$AAh?$AA?9?$AAM?$AAO?$AA?$AA@ 100b28c0     libucrt:lcidtoname_downlevel.obj
 0002:000038cc       ??_C@_1M@GEEFALPE@?$AAd?$AAe?$AA?9?$AAL?$AAI?$AA?$AA@ 100b28cc     libucrt:lcidtoname_downlevel.obj
 0002:000038d8       ??_C@_1M@IGEOFBG@?$AAe?$AAn?$AA?9?$AAN?$AAZ?$AA?$AA@ 100b28d8     libucrt:lcidtoname_downlevel.obj
 0002:000038e4       ??_C@_1M@KDBONEHP@?$AAe?$AAs?$AA?9?$AAC?$AAR?$AA?$AA@ 100b28e4     libucrt:lcidtoname_downlevel.obj
 0002:000038f0       ??_C@_1M@FHMDOHNN@?$AAf?$AAr?$AA?9?$AAL?$AAU?$AA?$AA@ 100b28f0     libucrt:lcidtoname_downlevel.obj
 0002:000038fc       ??_C@_1BG@NFKKMAFG@?$AAb?$AAs?$AA?9?$AAB?$AAA?$AA?9?$AAL?$AAa?$AAt?$AAn?$AA?$AA@ 100b28fc     libucrt:lcidtoname_downlevel.obj
 0002:00003914       ??_C@_1O@IMNBEMCI@?$AAs?$AAm?$AAj?$AA?9?$AAS?$AAE?$AA?$AA@ 100b2914     libucrt:lcidtoname_downlevel.obj
 0002:00003924       ??_C@_1M@DHHMBNDP@?$AAa?$AAr?$AA?9?$AAM?$AAA?$AA?$AA@ 100b2924     libucrt:lcidtoname_downlevel.obj
 0002:00003930       ??_C@_1M@BNBLJCGH@?$AAe?$AAn?$AA?9?$AAI?$AAE?$AA?$AA@ 100b2930     libucrt:lcidtoname_downlevel.obj
 0002:0000393c       ??_C@_1M@GEPAFMDL@?$AAe?$AAs?$AA?9?$AAP?$AAA?$AA?$AA@ 100b293c     libucrt:lcidtoname_downlevel.obj
 0002:00003948       ??_C@_1M@OJONDMDL@?$AAf?$AAr?$AA?9?$AAM?$AAC?$AA?$AA@ 100b2948     libucrt:lcidtoname_downlevel.obj
 0002:00003954       ??_C@_1BG@OBCNFJB@?$AAs?$AAr?$AA?9?$AAB?$AAA?$AA?9?$AAL?$AAa?$AAt?$AAn?$AA?$AA@ 100b2954     libucrt:lcidtoname_downlevel.obj
 0002:0000396c       ??_C@_1O@KEMEEGPO@?$AAs?$AAm?$AAa?$AA?9?$AAN?$AAO?$AA?$AA@ 100b296c     libucrt:lcidtoname_downlevel.obj
 0002:0000397c       ??_C@_1M@ELMGFODK@?$AAa?$AAr?$AA?9?$AAT?$AAN?$AA?$AA@ 100b297c     libucrt:lcidtoname_downlevel.obj
 0002:00003988       ??_C@_1M@BHDLHFAF@?$AAe?$AAn?$AA?9?$AAZ?$AAA?$AA?$AA@ 100b2988     libucrt:lcidtoname_downlevel.obj
 0002:00003994       ??_C@_1M@BMGIGLIF@?$AAe?$AAs?$AA?9?$AAD?$AAO?$AA?$AA@ 100b2994     libucrt:lcidtoname_downlevel.obj
 0002:000039a0       ??_C@_1BG@CMBHIPBE@?$AAs?$AAr?$AA?9?$AAB?$AAA?$AA?9?$AAC?$AAy?$AAr?$AAl?$AA?$AA@ 100b29a0     libucrt:lcidtoname_downlevel.obj
 0002:000039b8       ??_C@_1O@HEDBLHNP@?$AAs?$AAm?$AAa?$AA?9?$AAS?$AAE?$AA?$AA@ 100b29b8     libucrt:lcidtoname_downlevel.obj
 0002:000039c8       ??_C@_1M@DAGCADIM@?$AAa?$AAr?$AA?9?$AAO?$AAM?$AA?$AA@ 100b29c8     libucrt:lcidtoname_downlevel.obj
 0002:000039d4       ??_C@_1M@FODLMICG@?$AAe?$AAn?$AA?9?$AAJ?$AAM?$AA?$AA@ 100b29d4     libucrt:lcidtoname_downlevel.obj
 0002:000039e0       ??_C@_1M@DNMLCIHB@?$AAe?$AAs?$AA?9?$AAV?$AAE?$AA?$AA@ 100b29e0     libucrt:lcidtoname_downlevel.obj
 0002:000039ec       ??_C@_1O@EOKHMKJK@?$AAs?$AAm?$AAs?$AA?9?$AAF?$AAI?$AA?$AA@ 100b29ec     libucrt:lcidtoname_downlevel.obj
 0002:000039fc       ??_C@_1M@CAFJMKOF@?$AAa?$AAr?$AA?9?$AAY?$AAE?$AA?$AA@ 100b29fc     libucrt:lcidtoname_downlevel.obj
 0002:00003a08       ??_C@_1M@CBFHIJLI@?$AAe?$AAn?$AA?9?$AAC?$AAB?$AA?$AA@ 100b2a08     libucrt:lcidtoname_downlevel.obj
 0002:00003a14       ??_C@_1M@BGNFLDN@?$AAe?$AAs?$AA?9?$AAC?$AAO?$AA?$AA@ 100b2a14     libucrt:lcidtoname_downlevel.obj
 0002:00003a20       ??_C@_1O@JMPHMAMC@?$AAs?$AAm?$AAn?$AA?9?$AAF?$AAI?$AA?$AA@ 100b2a20     libucrt:lcidtoname_downlevel.obj
 0002:00003a30       ??_C@_1M@JLANABKE@?$AAa?$AAr?$AA?9?$AAS?$AAY?$AA?$AA@ 100b2a30     libucrt:lcidtoname_downlevel.obj
 0002:00003a3c       ??_C@_1M@HPKGCFGN@?$AAe?$AAn?$AA?9?$AAB?$AAZ?$AA?$AA@ 100b2a3c     libucrt:lcidtoname_downlevel.obj
 0002:00003a48       ??_C@_1M@OLJCMLGM@?$AAe?$AAs?$AA?9?$AAP?$AAE?$AA?$AA@ 100b2a48     libucrt:lcidtoname_downlevel.obj
 0002:00003a54       ??_C@_1M@MKKGFKLE@?$AAa?$AAr?$AA?9?$AAJ?$AAO?$AA?$AA@ 100b2a54     libucrt:lcidtoname_downlevel.obj
 0002:00003a60       ??_C@_1M@EKPGLDNI@?$AAe?$AAn?$AA?9?$AAT?$AAT?$AA?$AA@ 100b2a60     libucrt:lcidtoname_downlevel.obj
 0002:00003a6c       ??_C@_1M@OONGHFHE@?$AAe?$AAs?$AA?9?$AAA?$AAR?$AA?$AA@ 100b2a6c     libucrt:lcidtoname_downlevel.obj
 0002:00003a78       ??_C@_1M@OOJFGBHE@?$AAa?$AAr?$AA?9?$AAL?$AAB?$AA?$AA@ 100b2a78     libucrt:lcidtoname_downlevel.obj
 0002:00003a84       ??_C@_1M@GCEJHNEG@?$AAe?$AAn?$AA?9?$AAZ?$AAW?$AA?$AA@ 100b2a84     libucrt:lcidtoname_downlevel.obj
 0002:00003a90       ??_C@_1M@JNOCAHJI@?$AAe?$AAs?$AA?9?$AAE?$AAC?$AA?$AA@ 100b2a90     libucrt:lcidtoname_downlevel.obj
 0002:00003a9c       ??_C@_1M@JEFHPGGB@?$AAa?$AAr?$AA?9?$AAK?$AAW?$AA?$AA@ 100b2a9c     libucrt:lcidtoname_downlevel.obj
 0002:00003aa8       ??_C@_1M@MLKIBJOJ@?$AAe?$AAn?$AA?9?$AAP?$AAH?$AA?$AA@ 100b2aa8     libucrt:lcidtoname_downlevel.obj
 0002:00003ab4       ??_C@_1M@BDNIPEND@?$AAe?$AAs?$AA?9?$AAC?$AAL?$AA?$AA@ 100b2ab4     libucrt:lcidtoname_downlevel.obj
 0002:00003ac0       ??_C@_1M@MPNMEKBD@?$AAa?$AAr?$AA?9?$AAA?$AAE?$AA?$AA@ 100b2ac0     libucrt:lcidtoname_downlevel.obj
 0002:00003acc       ??_C@_1M@KBJALCPI@?$AAe?$AAs?$AA?9?$AAU?$AAY?$AA?$AA@ 100b2acc     libucrt:lcidtoname_downlevel.obj
 0002:00003ad8       ??_C@_1M@LLCCOAGA@?$AAa?$AAr?$AA?9?$AAB?$AAH?$AA?$AA@ 100b2ad8     libucrt:lcidtoname_downlevel.obj
 0002:00003ae4       ??_C@_1M@PBFNCDEL@?$AAe?$AAs?$AA?9?$AAP?$AAY?$AA?$AA@ 100b2ae4     libucrt:lcidtoname_downlevel.obj
 0002:00003af0       ??_C@_1M@EDGINPNP@?$AAa?$AAr?$AA?9?$AAQ?$AAA?$AA?$AA@ 100b2af0     libucrt:lcidtoname_downlevel.obj
 0002:00003afc       ??_C@_1M@MKDBIIJI@?$AAe?$AAs?$AA?9?$AAB?$AAO?$AA?$AA@ 100b2afc     libucrt:lcidtoname_downlevel.obj
 0002:00003b08       ??_C@_1M@CPKKEBLD@?$AAe?$AAs?$AA?9?$AAS?$AAV?$AA?$AA@ 100b2b08     libucrt:lcidtoname_downlevel.obj
 0002:00003b14       ??_C@_1M@NDBGMMJL@?$AAe?$AAs?$AA?9?$AAH?$AAN?$AA?$AA@ 100b2b14     libucrt:lcidtoname_downlevel.obj
 0002:00003b20       ??_C@_1M@JIJIBHDP@?$AAe?$AAs?$AA?9?$AAN?$AAI?$AA?$AA@ 100b2b20     libucrt:lcidtoname_downlevel.obj
 0002:00003b2c       ??_C@_1M@CGFMKEEK@?$AAe?$AAs?$AA?9?$AAP?$AAR?$AA?$AA@ 100b2b2c     libucrt:lcidtoname_downlevel.obj
 0002:00003b38       ??_C@_1O@ICJHKIIK@?$AAz?$AAh?$AA?9?$AAC?$AAH?$AAT?$AA?$AA@ 100b2b38     libucrt:lcidtoname_downlevel.obj
 0002:00003b48       ??_C@_15CLNEJCE@?$AAs?$AAr?$AA?$AA@ 100b2b48     libucrt:lcidtoname_downlevel.obj
 0002:00004270       ??_C@_1M@KAHEKEIG@?$AAa?$AAf?$AA?9?$AAz?$AAa?$AA?$AA@ 100b3270     libucrt:lcidtoname_downlevel.obj
 0002:0000427c       ??_C@_1M@GIECOABL@?$AAa?$AAr?$AA?9?$AAa?$AAe?$AA?$AA@ 100b327c     libucrt:lcidtoname_downlevel.obj
 0002:00004288       ??_C@_1M@BMLMEKGI@?$AAa?$AAr?$AA?9?$AAb?$AAh?$AA?$AA@ 100b3288     libucrt:lcidtoname_downlevel.obj
 0002:00004294       ??_C@_1M@DAPFDGGB@?$AAa?$AAr?$AA?9?$AAd?$AAz?$AA?$AA@ 100b3294     libucrt:lcidtoname_downlevel.obj
 0002:000042a0       ??_C@_1M@FJNKGKIG@?$AAa?$AAr?$AA?9?$AAe?$AAg?$AA?$AA@ 100b32a0     libucrt:lcidtoname_downlevel.obj
 0002:000042ac       ??_C@_1M@FLGKKCLO@?$AAa?$AAr?$AA?9?$AAi?$AAq?$AA?$AA@ 100b32ac     libucrt:lcidtoname_downlevel.obj
 0002:000042b8       ??_C@_1M@GNDIPALM@?$AAa?$AAr?$AA?9?$AAj?$AAo?$AA?$AA@ 100b32b8     libucrt:lcidtoname_downlevel.obj
 0002:000042c4       ??_C@_1M@DDMJFMGJ@?$AAa?$AAr?$AA?9?$AAk?$AAw?$AA?$AA@ 100b32c4     libucrt:lcidtoname_downlevel.obj
 0002:000042d0       ??_C@_1M@EJALMLHM@?$AAa?$AAr?$AA?9?$AAl?$AAb?$AA?$AA@ 100b32d0     libucrt:lcidtoname_downlevel.obj
 0002:000042dc       ??_C@_1M@MOBDBLOC@?$AAa?$AAr?$AA?9?$AAl?$AAy?$AA?$AA@ 100b32dc     libucrt:lcidtoname_downlevel.obj
 0002:000042e8       ??_C@_1M@JAOCLHDH@?$AAa?$AAr?$AA?9?$AAm?$AAa?$AA?$AA@ 100b32e8     libucrt:lcidtoname_downlevel.obj
 0002:000042f4       ??_C@_1M@JHPMKJIE@?$AAa?$AAr?$AA?9?$AAo?$AAm?$AA?$AA@ 100b32f4     libucrt:lcidtoname_downlevel.obj
 0002:00004300       ??_C@_1M@OEPGHFNH@?$AAa?$AAr?$AA?9?$AAq?$AAa?$AA?$AA@ 100b3300     libucrt:lcidtoname_downlevel.obj
 0002:0000430c       ??_C@_1M@KJDONENM@?$AAa?$AAr?$AA?9?$AAs?$AAa?$AA?$AA@ 100b330c     libucrt:lcidtoname_downlevel.obj
 0002:00004318       ??_C@_1M@DMJDKLKM@?$AAa?$AAr?$AA?9?$AAs?$AAy?$AA?$AA@ 100b3318     libucrt:lcidtoname_downlevel.obj
 0002:00004324       ??_C@_1M@OMFIPEDC@?$AAa?$AAr?$AA?9?$AAt?$AAn?$AA?$AA@ 100b3324     libucrt:lcidtoname_downlevel.obj
 0002:00004330       ??_C@_1M@IHMHGAON@?$AAa?$AAr?$AA?9?$AAy?$AAe?$AA?$AA@ 100b3330     libucrt:lcidtoname_downlevel.obj
 0002:0000433c       ??_C@_1BG@KDCPGJGB@?$AAa?$AAz?$AA?9?$AAa?$AAz?$AA?9?$AAc?$AAy?$AAr?$AAl?$AA?$AA@ 100b333c     libucrt:lcidtoname_downlevel.obj
 0002:00004354       ??_C@_1BG@IBCKDDOE@?$AAa?$AAz?$AA?9?$AAa?$AAz?$AA?9?$AAl?$AAa?$AAt?$AAn?$AA?$AA@ 100b3354     libucrt:lcidtoname_downlevel.obj
 0002:0000436c       ??_C@_1M@EGPFDCPD@?$AAb?$AAe?$AA?9?$AAb?$AAy?$AA?$AA@ 100b336c     libucrt:lcidtoname_downlevel.obj
 0002:00004378       ??_C@_1M@PCMGMCGC@?$AAb?$AAg?$AA?9?$AAb?$AAg?$AA?$AA@ 100b3378     libucrt:lcidtoname_downlevel.obj
 0002:00004384       ??_C@_1M@BJBMFGOB@?$AAb?$AAn?$AA?9?$AAi?$AAn?$AA?$AA@ 100b3384     libucrt:lcidtoname_downlevel.obj
 0002:00004390       ??_C@_1BG@EAKMMACD@?$AAb?$AAs?$AA?9?$AAb?$AAa?$AA?9?$AAl?$AAa?$AAt?$AAn?$AA?$AA@ 100b3390     libucrt:lcidtoname_downlevel.obj
 0002:000043a8       ??_C@_1M@KGADAODK@?$AAc?$AAa?$AA?9?$AAe?$AAs?$AA?$AA@ 100b33a8     libucrt:lcidtoname_downlevel.obj
 0002:000043b4       ??_C@_1M@COAJPDHI@?$AAc?$AAs?$AA?9?$AAc?$AAz?$AA?$AA@ 100b33b4     libucrt:lcidtoname_downlevel.obj
 0002:000043c0       ??_C@_1M@DHBHFONH@?$AAc?$AAy?$AA?9?$AAg?$AAb?$AA?$AA@ 100b33c0     libucrt:lcidtoname_downlevel.obj
 0002:000043cc       ??_C@_1M@IMGKELGA@?$AAd?$AAa?$AA?9?$AAd?$AAk?$AA?$AA@ 100b33cc     libucrt:lcidtoname_downlevel.obj
 0002:000043d8       ??_C@_1M@NNDGDNGA@?$AAd?$AAe?$AA?9?$AAa?$AAt?$AA?$AA@ 100b33d8     libucrt:lcidtoname_downlevel.obj
 0002:000043e4       ??_C@_1M@IKDBHEEM@?$AAd?$AAe?$AA?9?$AAc?$AAh?$AA?$AA@ 100b33e4     libucrt:lcidtoname_downlevel.obj
 0002:000043f0       ??_C@_1M@GFFOJMCJ@?$AAd?$AAe?$AA?9?$AAd?$AAe?$AA?$AA@ 100b33f0     libucrt:lcidtoname_downlevel.obj
 0002:000043fc       ??_C@_1M@MDNLKBPM@?$AAd?$AAe?$AA?9?$AAl?$AAi?$AA?$AA@ 100b33fc     libucrt:lcidtoname_downlevel.obj
 0002:00004408       ??_C@_1M@NJBEEJNL@?$AAd?$AAe?$AA?9?$AAl?$AAu?$AA?$AA@ 100b3408     libucrt:lcidtoname_downlevel.obj
 0002:00004414       ??_C@_1O@GNNELBAP@?$AAd?$AAi?$AAv?$AA?9?$AAm?$AAv?$AA?$AA@ 100b3414     libucrt:lcidtoname_downlevel.obj
 0002:00004424       ??_C@_1M@EJLEOGAE@?$AAe?$AAl?$AA?9?$AAg?$AAr?$AA?$AA@ 100b3424     libucrt:lcidtoname_downlevel.obj
 0002:00004430       ??_C@_1M@GMPONJN@?$AAe?$AAn?$AA?9?$AAa?$AAu?$AA?$AA@ 100b3430     libucrt:lcidtoname_downlevel.obj
 0002:0000443c       ??_C@_1M@NIDIIPGF@?$AAe?$AAn?$AA?9?$AAb?$AAz?$AA?$AA@ 100b343c     libucrt:lcidtoname_downlevel.obj
 0002:00004448       ??_C@_1M@JEHMIMFO@?$AAe?$AAn?$AA?9?$AAc?$AAa?$AA?$AA@ 100b3448     libucrt:lcidtoname_downlevel.obj
 0002:00004454       ??_C@_1M@IGMJCDLA@?$AAe?$AAn?$AA?9?$AAc?$AAb?$AA?$AA@ 100b3454     libucrt:lcidtoname_downlevel.obj
 0002:00004460       ??_C@_1M@BNFIGBKG@?$AAe?$AAn?$AA?9?$AAg?$AAb?$AA?$AA@ 100b3460     libucrt:lcidtoname_downlevel.obj
 0002:0000446c       ??_C@_1M@LKIFDIGP@?$AAe?$AAn?$AA?9?$AAi?$AAe?$AA?$AA@ 100b346c     libucrt:lcidtoname_downlevel.obj
 0002:00004478       ??_C@_1M@PJKFGCCO@?$AAe?$AAn?$AA?9?$AAj?$AAm?$AA?$AA@ 100b3478     libucrt:lcidtoname_downlevel.obj
 0002:00004484       ??_C@_1M@KPPKEPBO@?$AAe?$AAn?$AA?9?$AAn?$AAz?$AA?$AA@ 100b3484     libucrt:lcidtoname_downlevel.obj
 0002:00004490       ??_C@_1M@GMDGLDOB@?$AAe?$AAn?$AA?9?$AAp?$AAh?$AA?$AA@ 100b3490     libucrt:lcidtoname_downlevel.obj
 0002:0000449c       ??_C@_1M@ONGIBJNA@?$AAe?$AAn?$AA?9?$AAt?$AAt?$AA?$AA@ 100b349c     libucrt:lcidtoname_downlevel.obj
 0002:000044a8       ??_C@_1M@LLODPCMM@?$AAe?$AAn?$AA?9?$AAu?$AAs?$AA?$AA@ 100b34a8     libucrt:lcidtoname_downlevel.obj
 0002:000044b4       ??_C@_1M@LAKFNPAN@?$AAe?$AAn?$AA?9?$AAz?$AAa?$AA?$AA@ 100b34b4     libucrt:lcidtoname_downlevel.obj
 0002:000044c0       ??_C@_1M@MFNHNHEO@?$AAe?$AAn?$AA?9?$AAz?$AAw?$AA?$AA@ 100b34c0     libucrt:lcidtoname_downlevel.obj
 0002:000044cc       ??_C@_1M@EJEINPHM@?$AAe?$AAs?$AA?9?$AAa?$AAr?$AA?$AA@ 100b34cc     libucrt:lcidtoname_downlevel.obj
 0002:000044d8       ??_C@_1M@GNKPCCJA@?$AAe?$AAs?$AA?9?$AAb?$AAo?$AA?$AA@ 100b34d8     libucrt:lcidtoname_downlevel.obj
 0002:000044e4       ??_C@_1M@LEEGFONL@?$AAe?$AAs?$AA?9?$AAc?$AAl?$AA?$AA@ 100b34e4     libucrt:lcidtoname_downlevel.obj
 0002:000044f0       ??_C@_1M@KGPDPBDF@?$AAe?$AAs?$AA?9?$AAc?$AAo?$AA?$AA@ 100b34f0     libucrt:lcidtoname_downlevel.obj
 0002:000044fc       ??_C@_1M@EIAHOHH@?$AAe?$AAs?$AA?9?$AAc?$AAr?$AA?$AA@ 100b34fc     libucrt:lcidtoname_downlevel.obj
 0002:00004508       ??_C@_1M@LLPGMBIN@?$AAe?$AAs?$AA?9?$AAd?$AAo?$AA?$AA@ 100b3508     libucrt:lcidtoname_downlevel.obj
 0002:00004514       ??_C@_1M@DKHMKNJA@?$AAe?$AAs?$AA?9?$AAe?$AAc?$AA?$AA@ 100b3514     libucrt:lcidtoname_downlevel.obj
 0002:00004520       ??_C@_1M@GKGFPKAP@?$AAe?$AAs?$AA?9?$AAe?$AAs?$AA?$AA@ 100b3520     libucrt:lcidtoname_downlevel.obj
 0002:0000452c       ??_C@_1M@LKHKGDLN@?$AAe?$AAs?$AA?9?$AAg?$AAt?$AA?$AA@ 100b352c     libucrt:lcidtoname_downlevel.obj
 0002:00004538       ??_C@_1M@HEIIGGJD@?$AAe?$AAs?$AA?9?$AAh?$AAn?$AA?$AA@ 100b3538     libucrt:lcidtoname_downlevel.obj
 0002:00004544       ??_C@_1M@FBDHPPGD@?$AAe?$AAs?$AA?9?$AAm?$AAx?$AA?$AA@ 100b3544     libucrt:lcidtoname_downlevel.obj
 0002:00004550       ??_C@_1M@DPAGLNDH@?$AAe?$AAs?$AA?9?$AAn?$AAi?$AA?$AA@ 100b3550     libucrt:lcidtoname_downlevel.obj
 0002:0000455c       ??_C@_1M@MDGOPGDD@?$AAe?$AAs?$AA?9?$AAp?$AAa?$AA?$AA@ 100b355c     libucrt:lcidtoname_downlevel.obj
 0002:00004568       ??_C@_1M@EMAMGBGE@?$AAe?$AAs?$AA?9?$AAp?$AAe?$AA?$AA@ 100b3568     libucrt:lcidtoname_downlevel.obj
 0002:00004574       ??_C@_1M@IBMCAOEC@?$AAe?$AAs?$AA?9?$AAp?$AAr?$AA?$AA@ 100b3574     libucrt:lcidtoname_downlevel.obj
 0002:00004580       ??_C@_1M@FGMDIJED@?$AAe?$AAs?$AA?9?$AAp?$AAy?$AA?$AA@ 100b3580     libucrt:lcidtoname_downlevel.obj
 0002:0000458c       ??_C@_1M@IIDEOLLL@?$AAe?$AAs?$AA?9?$AAs?$AAv?$AA?$AA@ 100b358c     libucrt:lcidtoname_downlevel.obj
 0002:00004598       ??_C@_1M@GAOBIPA@?$AAe?$AAs?$AA?9?$AAu?$AAy?$AA?$AA@ 100b3598     libucrt:lcidtoname_downlevel.obj
 0002:000045a4       ??_C@_1M@JKFFICHJ@?$AAe?$AAs?$AA?9?$AAv?$AAe?$AA?$AA@ 100b35a4     libucrt:lcidtoname_downlevel.obj
 0002:000045b0       ??_C@_1M@PNMLOJDF@?$AAe?$AAt?$AA?9?$AAe?$AAe?$AA?$AA@ 100b35b0     libucrt:lcidtoname_downlevel.obj
 0002:000045bc       ??_C@_1M@GHHLIKEI@?$AAe?$AAu?$AA?9?$AAe?$AAs?$AA?$AA@ 100b35bc     libucrt:lcidtoname_downlevel.obj
 0002:000045c8       ??_C@_1M@PBNONODE@?$AAf?$AAa?$AA?9?$AAi?$AAr?$AA?$AA@ 100b35c8     libucrt:lcidtoname_downlevel.obj
 0002:000045d4       ??_C@_1M@JEEHPMIL@?$AAf?$AAi?$AA?9?$AAf?$AAi?$AA?$AA@ 100b35d4     libucrt:lcidtoname_downlevel.obj
 0002:000045e0       ??_C@_1M@LMDCNDBA@?$AAf?$AAo?$AA?9?$AAf?$AAo?$AA?$AA@ 100b35e0     libucrt:lcidtoname_downlevel.obj
 0002:000045ec       ??_C@_1M@JKEOHLDK@?$AAf?$AAr?$AA?9?$AAb?$AAe?$AA?$AA@ 100b35ec     libucrt:lcidtoname_downlevel.obj
 0002:000045f8       ??_C@_1M@NOHADPMI@?$AAf?$AAr?$AA?9?$AAc?$AAa?$AA?$AA@ 100b35f8     libucrt:lcidtoname_downlevel.obj
 0002:00004604       ??_C@_1M@KDHIHAEC@?$AAf?$AAr?$AA?9?$AAc?$AAh?$AA?$AA@ 100b3604     libucrt:lcidtoname_downlevel.obj
 0002:00004610       ??_C@_1M@MMBBFGAK@?$AAf?$AAr?$AA?9?$AAf?$AAr?$AA?$AA@ 100b3610     libucrt:lcidtoname_downlevel.obj
 0002:0000461c       ??_C@_1M@PAFNENNF@?$AAf?$AAr?$AA?9?$AAl?$AAu?$AA?$AA@ 100b361c     libucrt:lcidtoname_downlevel.obj
 0002:00004628       ??_C@_1M@EOHDJGDD@?$AAf?$AAr?$AA?9?$AAm?$AAc?$AA?$AA@ 100b3628     libucrt:lcidtoname_downlevel.obj
 0002:00004634       ??_C@_1M@FAPLLOPF@?$AAg?$AAl?$AA?9?$AAe?$AAs?$AA?$AA@ 100b3634     libucrt:lcidtoname_downlevel.obj
 0002:00004640       ??_C@_1M@FOPBFLOO@?$AAg?$AAu?$AA?9?$AAi?$AAn?$AA?$AA@ 100b3640     libucrt:lcidtoname_downlevel.obj
 0002:0000464c       ??_C@_1M@KBMCINPM@?$AAh?$AAe?$AA?9?$AAi?$AAl?$AA?$AA@ 100b364c     libucrt:lcidtoname_downlevel.obj
 0002:00004658       ??_C@_1M@BBPHKFPJ@?$AAh?$AAi?$AA?9?$AAi?$AAn?$AA?$AA@ 100b3658     libucrt:lcidtoname_downlevel.obj
 0002:00004664       ??_C@_1M@PMBNDPHD@?$AAh?$AAr?$AA?9?$AAb?$AAa?$AA?$AA@ 100b3664     libucrt:lcidtoname_downlevel.obj
 0002:00004670       ??_C@_1M@BPCKOEGE@?$AAh?$AAr?$AA?9?$AAh?$AAr?$AA?$AA@ 100b3670     libucrt:lcidtoname_downlevel.obj
 0002:0000467c       ??_C@_1M@GACBMHKE@?$AAh?$AAu?$AA?9?$AAh?$AAu?$AA?$AA@ 100b367c     libucrt:lcidtoname_downlevel.obj
 0002:00004688       ??_C@_1M@MILPAJJC@?$AAh?$AAy?$AA?9?$AAa?$AAm?$AA?$AA@ 100b3688     libucrt:lcidtoname_downlevel.obj
 0002:00004694       ??_C@_1M@BABBICEC@?$AAi?$AAd?$AA?9?$AAi?$AAd?$AA?$AA@ 100b3694     libucrt:lcidtoname_downlevel.obj
 0002:000046a0       ??_C@_1M@BIKNHHPF@?$AAi?$AAs?$AA?9?$AAi?$AAs?$AA?$AA@ 100b36a0     libucrt:lcidtoname_downlevel.obj
 0002:000046ac       ??_C@_1M@NMPCJPHE@?$AAi?$AAt?$AA?9?$AAc?$AAh?$AA?$AA@ 100b36ac     libucrt:lcidtoname_downlevel.obj
 0002:000046b8       ??_C@_1M@GHKGFEDF@?$AAi?$AAt?$AA?9?$AAi?$AAt?$AA?$AA@ 100b36b8     libucrt:lcidtoname_downlevel.obj
 0002:000046c4       ??_C@_1M@NIEJCJJA@?$AAj?$AAa?$AA?9?$AAj?$AAp?$AA?$AA@ 100b36c4     libucrt:lcidtoname_downlevel.obj
 0002:000046d0       ??_C@_1M@JILFNBIM@?$AAk?$AAa?$AA?9?$AAg?$AAe?$AA?$AA@ 100b36d0     libucrt:lcidtoname_downlevel.obj
 0002:000046dc       ??_C@_1M@PACPMGPH@?$AAk?$AAk?$AA?9?$AAk?$AAz?$AA?$AA@ 100b36dc     libucrt:lcidtoname_downlevel.obj
 0002:000046e8       ??_C@_1M@IELFGMHA@?$AAk?$AAn?$AA?9?$AAi?$AAn?$AA?$AA@ 100b36e8     libucrt:lcidtoname_downlevel.obj
 0002:000046f4       ??_C@_1O@IBBJHCH@?$AAk?$AAo?$AAk?$AA?9?$AAi?$AAn?$AA?$AA@ 100b36f4     libucrt:lcidtoname_downlevel.obj
 0002:00004704       ??_C@_1M@DMHAEOGC@?$AAk?$AAo?$AA?9?$AAk?$AAr?$AA?$AA@ 100b3704     libucrt:lcidtoname_downlevel.obj
 0002:00004710       ??_C@_1M@HBAHBIGA@?$AAk?$AAy?$AA?9?$AAk?$AAg?$AA?$AA@ 100b3710     libucrt:lcidtoname_downlevel.obj
 0002:0000471c       ??_C@_1M@KPMILCJG@?$AAl?$AAt?$AA?9?$AAl?$AAt?$AA?$AA@ 100b371c     libucrt:lcidtoname_downlevel.obj
 0002:00004728       ??_C@_1M@BDEKKCA@?$AAl?$AAv?$AA?9?$AAl?$AAv?$AA?$AA@ 100b3728     libucrt:lcidtoname_downlevel.obj
 0002:00004734       ??_C@_1M@ELCKCCJJ@?$AAm?$AAi?$AA?9?$AAn?$AAz?$AA?$AA@ 100b3734     libucrt:lcidtoname_downlevel.obj
 0002:00004740       ??_C@_1M@CBOOLAPA@?$AAm?$AAk?$AA?9?$AAm?$AAk?$AA?$AA@ 100b3740     libucrt:lcidtoname_downlevel.obj
 0002:0000474c       ??_C@_1M@GPHNBJKN@?$AAm?$AAl?$AA?9?$AAi?$AAn?$AA?$AA@ 100b374c     libucrt:lcidtoname_downlevel.obj
 0002:00004758       ??_C@_1M@PABJILIG@?$AAm?$AAn?$AA?9?$AAm?$AAn?$AA?$AA@ 100b3758     libucrt:lcidtoname_downlevel.obj
 0002:00004764       ??_C@_1M@FGBKKIPG@?$AAm?$AAr?$AA?9?$AAi?$AAn?$AA?$AA@ 100b3764     libucrt:lcidtoname_downlevel.obj
 0002:00004770       ??_C@_1M@NDBPDDAL@?$AAm?$AAs?$AA?9?$AAb?$AAn?$AA?$AA@ 100b3770     libucrt:lcidtoname_downlevel.obj
 0002:0000477c       ??_C@_1M@OPIHOOPI@?$AAm?$AAs?$AA?9?$AAm?$AAy?$AA?$AA@ 100b377c     libucrt:lcidtoname_downlevel.obj
 0002:00004788       ??_C@_1M@PPDBCNFM@?$AAm?$AAt?$AA?9?$AAm?$AAt?$AA?$AA@ 100b3788     libucrt:lcidtoname_downlevel.obj
 0002:00004794       ??_C@_1M@KDJDKMDD@?$AAn?$AAb?$AA?9?$AAn?$AAo?$AA?$AA@ 100b3794     libucrt:lcidtoname_downlevel.obj
 0002:000047a0       ??_C@_1M@KFCFLMJP@?$AAn?$AAl?$AA?9?$AAb?$AAe?$AA?$AA@ 100b37a0     libucrt:lcidtoname_downlevel.obj
 0002:000047ac       ??_C@_1M@KPOPDDGO@?$AAn?$AAl?$AA?9?$AAn?$AAl?$AA?$AA@ 100b37ac     libucrt:lcidtoname_downlevel.obj
 0002:000047b8       ??_C@_1M@LJKPEMLN@?$AAn?$AAn?$AA?9?$AAn?$AAo?$AA?$AA@ 100b37b8     libucrt:lcidtoname_downlevel.obj
 0002:000047c4       ??_C@_1M@BDGHHBFL@?$AAn?$AAs?$AA?9?$AAz?$AAa?$AA?$AA@ 100b37c4     libucrt:lcidtoname_downlevel.obj
 0002:000047d0       ??_C@_1M@IDEHOAP@?$AAp?$AAa?$AA?9?$AAi?$AAn?$AA?$AA@ 100b37d0     libucrt:lcidtoname_downlevel.obj
 0002:000047dc       ??_C@_1M@HDBKGOGH@?$AAp?$AAl?$AA?9?$AAp?$AAl?$AA?$AA@ 100b37dc     libucrt:lcidtoname_downlevel.obj
 0002:000047e8       ??_C@_1M@LJLLCMEH@?$AAp?$AAt?$AA?9?$AAb?$AAr?$AA?$AA@ 100b37e8     libucrt:lcidtoname_downlevel.obj
 0002:000047f4       ??_C@_1M@NCMONAAL@?$AAp?$AAt?$AA?9?$AAp?$AAt?$AA?$AA@ 100b37f4     libucrt:lcidtoname_downlevel.obj
 0002:00004800       ??_C@_1O@EAKMAJDN@?$AAq?$AAu?$AAz?$AA?9?$AAb?$AAo?$AA?$AA@ 100b3800     libucrt:lcidtoname_downlevel.obj
 0002:00004810       ??_C@_1O@BHHPIGDN@?$AAq?$AAu?$AAz?$AA?9?$AAe?$AAc?$AA?$AA@ 100b3810     libucrt:lcidtoname_downlevel.obj
 0002:00004820       ??_C@_1O@GBAPEKMJ@?$AAq?$AAu?$AAz?$AA?9?$AAp?$AAe?$AA?$AA@ 100b3820     libucrt:lcidtoname_downlevel.obj
 0002:00004830       ??_C@_1M@CLGLEFBO@?$AAr?$AAo?$AA?9?$AAr?$AAo?$AA?$AA@ 100b3830     libucrt:lcidtoname_downlevel.obj
 0002:0000483c       ??_C@_1M@CEEDODME@?$AAr?$AAu?$AA?9?$AAr?$AAu?$AA?$AA@ 100b383c     libucrt:lcidtoname_downlevel.obj
 0002:00004848       ??_C@_1M@HPKKKMPP@?$AAs?$AAa?$AA?9?$AAi?$AAn?$AA?$AA@ 100b3848     libucrt:lcidtoname_downlevel.obj
 0002:00004854       ??_C@_1M@BKMAIGOJ@?$AAs?$AAe?$AA?9?$AAf?$AAi?$AA?$AA@ 100b3854     libucrt:lcidtoname_downlevel.obj
 0002:00004860       ??_C@_1M@NDPIFLFI@?$AAs?$AAe?$AA?9?$AAn?$AAo?$AA?$AA@ 100b3860     libucrt:lcidtoname_downlevel.obj
 0002:0000486c       ??_C@_1M@DANKKHJ@?$AAs?$AAe?$AA?9?$AAs?$AAe?$AA?$AA@ 100b386c     libucrt:lcidtoname_downlevel.obj
 0002:00004878       ??_C@_1M@PNBLONPJ@?$AAs?$AAk?$AA?9?$AAs?$AAk?$AA?$AA@ 100b3878     libucrt:lcidtoname_downlevel.obj
 0002:00004884       ??_C@_1M@LFMODOAL@?$AAs?$AAl?$AA?9?$AAs?$AAi?$AA?$AA@ 100b3884     libucrt:lcidtoname_downlevel.obj
 0002:00004890       ??_C@_1O@DFKOMPG@?$AAs?$AAm?$AAa?$AA?9?$AAn?$AAo?$AA?$AA@ 100b3890     libucrt:lcidtoname_downlevel.obj
 0002:000048a0       ??_C@_1O@NDKPBNNH@?$AAs?$AAm?$AAa?$AA?9?$AAs?$AAe?$AA?$AA@ 100b38a0     libucrt:lcidtoname_downlevel.obj
 0002:000048b0       ??_C@_1O@PLLKBHAB@?$AAs?$AAm?$AAj?$AA?9?$AAn?$AAo?$AA?$AA@ 100b38b0     libucrt:lcidtoname_downlevel.obj
 0002:000048c0       ??_C@_1O@CLEPOGCA@?$AAs?$AAm?$AAj?$AA?9?$AAs?$AAe?$AA?$AA@ 100b38c0     libucrt:lcidtoname_downlevel.obj
 0002:000048d0       ??_C@_1O@DLGJGKMK@?$AAs?$AAm?$AAn?$AA?9?$AAf?$AAi?$AA?$AA@ 100b38d0     libucrt:lcidtoname_downlevel.obj
 0002:000048e0       ??_C@_1O@OJDJGAJC@?$AAs?$AAm?$AAs?$AA?9?$AAf?$AAi?$AA?$AA@ 100b38e0     libucrt:lcidtoname_downlevel.obj
 0002:000048f0       ??_C@_1M@BOFOGHPB@?$AAs?$AAq?$AA?9?$AAa?$AAl?$AA?$AA@ 100b38f0     libucrt:lcidtoname_downlevel.obj
 0002:000048fc       ??_C@_1BG@LJBBIPGB@?$AAs?$AAr?$AA?9?$AAb?$AAa?$AA?9?$AAc?$AAy?$AAr?$AAl?$AA?$AA@ 100b38fc     libucrt:lcidtoname_downlevel.obj
 0002:00004914       ??_C@_1BG@JLBENFOE@?$AAs?$AAr?$AA?9?$AAb?$AAa?$AA?9?$AAl?$AAa?$AAt?$AAn?$AA?$AA@ 100b3914     libucrt:lcidtoname_downlevel.obj
 0002:0000492c       ??_C@_1BG@KODPNHE@?$AAs?$AAr?$AA?9?$AAs?$AAp?$AA?9?$AAc?$AAy?$AAr?$AAl?$AA?$AA@ 100b392c     libucrt:lcidtoname_downlevel.obj
 0002:00004944       ??_C@_1BG@CIOGKHPB@?$AAs?$AAr?$AA?9?$AAs?$AAp?$AA?9?$AAl?$AAa?$AAt?$AAn?$AA?$AA@ 100b3944     libucrt:lcidtoname_downlevel.obj
 0002:0000495c       ??_C@_1M@NGFJLMAC@?$AAs?$AAv?$AA?9?$AAf?$AAi?$AA?$AA@ 100b395c     libucrt:lcidtoname_downlevel.obj
 0002:00004968       ??_C@_1M@MPJEJAJC@?$AAs?$AAv?$AA?9?$AAs?$AAe?$AA?$AA@ 100b3968     libucrt:lcidtoname_downlevel.obj
 0002:00004974       ??_C@_1M@MPNDHLFK@?$AAs?$AAw?$AA?9?$AAk?$AAe?$AA?$AA@ 100b3974     libucrt:lcidtoname_downlevel.obj
 0002:00004980       ??_C@_1O@KOHBJJI@?$AAs?$AAy?$AAr?$AA?9?$AAs?$AAy?$AA?$AA@ 100b3980     libucrt:lcidtoname_downlevel.obj
 0002:00004990       ??_C@_1M@LDCEFHA@?$AAt?$AAa?$AA?9?$AAi?$AAn?$AA?$AA@ 100b3990     libucrt:lcidtoname_downlevel.obj
 0002:0000499c       ??_C@_1M@CNJOFAK@?$AAt?$AAe?$AA?9?$AAi?$AAn?$AA?$AA@ 100b399c     libucrt:lcidtoname_downlevel.obj
 0002:000049a8       ??_C@_1M@GNAECACD@?$AAt?$AAh?$AA?9?$AAt?$AAh?$AA?$AA@ 100b39a8     libucrt:lcidtoname_downlevel.obj
 0002:000049b4       ??_C@_1M@CHBIHOJO@?$AAt?$AAn?$AA?9?$AAz?$AAa?$AA?$AA@ 100b39b4     libucrt:lcidtoname_downlevel.obj
 0002:000049c0       ??_C@_1M@GCCMIGPJ@?$AAt?$AAr?$AA?9?$AAt?$AAr?$AA?$AA@ 100b39c0     libucrt:lcidtoname_downlevel.obj
 0002:000049cc       ??_C@_1M@CELMCNBK@?$AAt?$AAt?$AA?9?$AAr?$AAu?$AA?$AA@ 100b39cc     libucrt:lcidtoname_downlevel.obj
 0002:000049d8       ??_C@_1M@KLMCELGA@?$AAu?$AAk?$AA?9?$AAu?$AAa?$AA?$AA@ 100b39d8     libucrt:lcidtoname_downlevel.obj
 0002:000049e4       ??_C@_1M@EPAJJAJF@?$AAu?$AAr?$AA?9?$AAp?$AAk?$AA?$AA@ 100b39e4     libucrt:lcidtoname_downlevel.obj
 0002:000049f0       ??_C@_1BG@GEGPMCDJ@?$AAu?$AAz?$AA?9?$AAu?$AAz?$AA?9?$AAc?$AAy?$AAr?$AAl?$AA?$AA@ 100b39f0     libucrt:lcidtoname_downlevel.obj
 0002:00004a08       ??_C@_1BG@EGGKJILM@?$AAu?$AAz?$AA?9?$AAu?$AAz?$AA?9?$AAl?$AAa?$AAt?$AAn?$AA?$AA@ 100b3a08     libucrt:lcidtoname_downlevel.obj
 0002:00004a20       ??_C@_1M@GFOCLFF@?$AAv?$AAi?$AA?9?$AAv?$AAn?$AA?$AA@ 100b3a20     libucrt:lcidtoname_downlevel.obj
 0002:00004a2c       ??_C@_1M@CPAMEDFI@?$AAx?$AAh?$AA?9?$AAz?$AAa?$AA?$AA@ 100b3a2c     libucrt:lcidtoname_downlevel.obj
 0002:00004a38       ??_C@_1O@EBKIFIGN@?$AAz?$AAh?$AA?9?$AAc?$AAh?$AAs?$AA?$AA@ 100b3a38     libucrt:lcidtoname_downlevel.obj
 0002:00004a48       ??_C@_1O@NMHPGANE@?$AAz?$AAh?$AA?9?$AAc?$AAh?$AAt?$AA?$AA@ 100b3a48     libucrt:lcidtoname_downlevel.obj
 0002:00004a58       ??_C@_1M@LPINJOMC@?$AAz?$AAh?$AA?9?$AAc?$AAn?$AA?$AA@ 100b3a58     libucrt:lcidtoname_downlevel.obj
 0002:00004a64       ??_C@_1M@OCJEJODD@?$AAz?$AAh?$AA?9?$AAh?$AAk?$AA?$AA@ 100b3a64     libucrt:lcidtoname_downlevel.obj
 0002:00004a70       ??_C@_1M@DNDLJINH@?$AAz?$AAh?$AA?9?$AAm?$AAo?$AA?$AA@ 100b3a70     libucrt:lcidtoname_downlevel.obj
 0002:00004a7c       ??_C@_1M@MBFDNDND@?$AAz?$AAh?$AA?9?$AAs?$AAg?$AA?$AA@ 100b3a7c     libucrt:lcidtoname_downlevel.obj
 0002:00004a88       ??_C@_1M@IMEPLEPE@?$AAz?$AAh?$AA?9?$AAt?$AAw?$AA?$AA@ 100b3a88     libucrt:lcidtoname_downlevel.obj
 0002:00004a94       ??_C@_1M@BBGHNHJP@?$AAz?$AAu?$AA?9?$AAz?$AAa?$AA?$AA@ 100b3a94     libucrt:lcidtoname_downlevel.obj
 0002:00004aa0       ?large_power_data@?1??multiply_by_power_of_ten@__crt_strtox@@YA_NAAUbig_integer@2@I@Z@4QBIB 100b3aa0     libucrt:cfout.obj
 0002:000053a8       ?large_power_indices@?1??multiply_by_power_of_ten@__crt_strtox@@YA_NAAUbig_integer@2@I@Z@4QBUunpack_index@?1??12@YA_N0I@Z@B 100b43a8     libucrt:cfout.obj
 0002:00005440       ?small_powers_of_ten@?6??multiply_by_power_of_ten@__crt_strtox@@YA_NAAUbig_integer@2@I@Z@4QBIB 100b4440     libucrt:cfout.obj
 0002:00005464       ??_C@_01GBGANLPD@0?$AA@    100b4464     libucrt:cfout.obj
 0002:00005468       ??_C@_05DNEBIAHO@1?$CDINF?$AA@ 100b4468     libucrt:cfout.obj
 0002:00005470       ??_C@_06IMKFLFPG@1?$CDQNAN?$AA@ 100b4470     libucrt:cfout.obj
 0002:00005478       ??_C@_06PGGFOGJG@1?$CDSNAN?$AA@ 100b4478     libucrt:cfout.obj
 0002:00005480       ??_C@_05PHHOCPM@1?$CDIND?$AA@ 100b4480     libucrt:cfout.obj
 0002:00005488       ??_C@_1BA@BALFACEM@?$AAC?$AAO?$AAN?$AAO?$AAU?$AAT?$AA$?$AA?$AA@ 100b4488     libucrt:initcon.obj
 0002:00005600       __infinity                 100b4600     libucrt:87tran.obj
 0002:0000560a       __minfinity                100b460a     libucrt:87tran.obj
 0002:00005614       __logemax                  100b4614     libucrt:87tran.obj
 0002:0000563a       __OP_EXPjmptab             100b463a     libucrt:87tran.obj
 0002:00005660       __indefinite               100b4660     libucrt:87disp.obj
 0002:0000566a       __piby2                    100b466a     libucrt:87disp.obj
 0002:00005674       __piby4                    100b4674     libucrt:87disp.obj
 0002:000056a8       __DEFAULT_CW_in_mem        100b46a8     libucrt:common.obj
 0002:000056aa       __pi_by_2_to_61            100b46aa     libucrt:common.obj
 0002:000056e4       ??_C@_03MGHMBJCF@log?$AA@  100b46e4     libucrt:libm_error.obj
 0002:000056e8       ??_C@_05HGHHAHAP@log10?$AA@ 100b46e8     libucrt:libm_error.obj
 0002:000056f0       ??_C@_03KHJOGHMM@exp?$AA@  100b46f0     libucrt:libm_error.obj
 0002:000056f4       ??_C@_03JGHBODFD@pow?$AA@  100b46f4     libucrt:libm_error.obj
 0002:000056f8       ??_C@_04FIHNOPOL@asin?$AA@ 100b46f8     libucrt:libm_error.obj
 0002:00005700       ??_C@_04PDIFKINK@acos?$AA@ 100b4700     libucrt:libm_error.obj
 0002:00005708       ??_C@_04EIAKFFMI@sqrt?$AA@ 100b4708     libucrt:libm_error.obj
 0002:00005710       __real@3ff0000000000000    100b4710     libucrt:libm_error.obj
 0002:00005730       ___acrt_log10_table_t      100b4730     libucrt:log10_tables.obj
 0002:00005b40       ___acrt_log10_table_cb     100b4b40     libucrt:log10_tables.obj
 0002:00005f50       ??_C@_04FJHINJAO@tanh?$AA@ 100b4f50     libucrt:fpexcept.obj
 0002:00005f58       ??_C@_04MLLJIGOK@atan?$AA@ 100b4f58     libucrt:fpexcept.obj
 0002:00005f60       ??_C@_05KNGEOGJB@atan2?$AA@ 100b4f60     libucrt:fpexcept.obj
 0002:00005f68       ??_C@_03BLEJJJBH@sin?$AA@  100b4f68     libucrt:fpexcept.obj
 0002:00005f6c       ??_C@_03LALBNOCG@cos?$AA@  100b4f6c     libucrt:fpexcept.obj
 0002:00005f70       ??_C@_03IIINPABG@tan?$AA@  100b4f70     libucrt:fpexcept.obj
 0002:00005f74       ??_C@_04GFPJNGEK@ceil?$AA@ 100b4f74     libucrt:fpexcept.obj
 0002:00005f7c       ??_C@_05PBJFFIGL@floor?$AA@ 100b4f7c     libucrt:fpexcept.obj
 0002:00005f84       ??_C@_04ODHECPBC@fabs?$AA@ 100b4f84     libucrt:fpexcept.obj
 0002:00005f8c       ??_C@_04EHEDPDJG@modf?$AA@ 100b4f8c     libucrt:fpexcept.obj
 0002:00005f94       ??_C@_05CEJMAHNP@ldexp?$AA@ 100b4f94     libucrt:fpexcept.obj
 0002:00005f9c       ??_C@_05KBKMEMPO@_cabs?$AA@ 100b4f9c     libucrt:fpexcept.obj
 0002:00005fa4       ??_C@_06MEIMCGCF@_hypot?$AA@ 100b4fa4     libucrt:fpexcept.obj
 0002:00005fac       ??_C@_04KEPJIHGP@fmod?$AA@ 100b4fac     libucrt:fpexcept.obj
 0002:00005fb4       ??_C@_05GKKHEGJL@frexp?$AA@ 100b4fb4     libucrt:fpexcept.obj
 0002:00005fbc       ??_C@_03MJLDFKDL@_y0?$AA@  100b4fbc     libucrt:fpexcept.obj
 0002:00005fc0       ??_C@_03NAKIGLHK@_y1?$AA@  100b4fc0     libucrt:fpexcept.obj
 0002:00005fc4       ??_C@_03ONILCKOB@_yn?$AA@  100b4fc4     libucrt:fpexcept.obj
 0002:00005fc8       ??_C@_05JGDBENOH@_logb?$AA@ 100b4fc8     libucrt:fpexcept.obj
 0002:00005fd0       ??_C@_0L@KDOEJCKC@_nextafter?$AA@ 100b4fd0     libucrt:fpexcept.obj
 0002:000060c8       ??_C@_04COOMCNPB@sinh?$AA@ 100b50c8     libucrt:fpexcept.obj
 0002:000060d0       ??_C@_04HPJJNFIM@cosh?$AA@ 100b50d0     libucrt:fpexcept.obj
 0002:000060d8       __d_inf                    100b50d8     libucrt:util.obj
 0002:000060e0       __d_max                    100b50e0     libucrt:util.obj
 0002:000060e8       __d_mzero                  100b50e8     libucrt:util.obj
 0002:000060f0       _IID_IInternetSecurityManager 100b50f0     uuid:i_urlmon.obj
 0002:00006100       _CLSID_InternetSecurityManager 100b5100     uuid:ieguids.obj
 0002:00006110       ??_C@_1DG@OKCGPKIB@?$AAp?$AAe?$AAr?$AAs?$AAi?$AAs?$AAt?$AAe?$AAn?$AAt?$AA?$CI?$AA?$CJ?$AA?4?$AAI?$AAs?$AAN?$AAe?$AAa?$AAr?$AAD?$AAe?$AAa?$AAt?$AAh?$AA?$CI?$AA?$CJ?$AA?$AA@ 100b5110     repository.obj
 0002:00006148       ??_C@_1CO@EGNPJLKI@?$AAp?$AAe?$AAr?$AAs?$AAi?$AAs?$AAt?$AAe?$AAn?$AAt?$AA?$CI?$AA?$CJ?$AA?4?$AAI?$AAs?$AAE?$AAm?$AAp?$AAt?$AAy?$AA?$CI?$AA?$CJ?$AA?$AA@ 100b5148     repository.obj
 0002:00006178       ??_C@_1DA@FBGAEOIO@?$AA?$CB?$AAp?$AAe?$AAr?$AAs?$AAi?$AAs?$AAt?$AAe?$AAn?$AAt?$AA?$CI?$AA?$CJ?$AA?4?$AAI?$AAs?$AAE?$AAm?$AAp?$AAt?$AAy?$AA?$CI?$AA?$CJ?$AA?$AA@ 100b5178     repository.obj
 0002:000061a8       ??_C@_1CO@JCKLEFMA@?$AA?$CB?$AAp?$AAe?$AAr?$AAs?$AAi?$AAs?$AAt?$AAe?$AAn?$AAt?$AA?$CI?$AA?$CJ?$AA?4?$AAI?$AAs?$AAW?$AAe?$AAa?$AAk?$AA?$CI?$AA?$CJ?$AA?$AA@ 100b51a8     repository.obj
 0002:000061d8       ??_C@_1BE@GMLLOIPJ@?$AAr?$AAe?$AAf?$AAs?$AA_?$AA?5?$AA?$DO?$AA?5?$AA0?$AA?$AA@ 100b51d8     repository.obj
 0002:000061ec       ??_C@_1CC@GBFLAAPF@?$AAw?$AAr?$AAa?$AAp?$AA?9?$AA?$DO?$AAr?$AAe?$AAf?$AAs?$AA_?$AA?5?$AA?$DN?$AA?$DN?$AA?5?$AA0?$AA?$AA@ 100b51ec     repository.obj
 0002:00006210       ??_C@_1DI@ELDBKNAK@?$AAw?$AAr?$AAa?$AAp?$AA?9?$AA?$DO?$AAh?$AAa?$AAn?$AAd?$AAl?$AAe?$AA_?$AA?4?$AAI?$AAs?$AAN?$AAe?$AAa?$AAr?$AAD?$AAe?$AAa?$AAt?$AAh?$AA?$CI?$AA?$CJ?$AA?$AA@ 100b5210     repository.obj
 0002:00006248       ??_C@_0BA@JFNIOLAK@string?5too?5long?$AA@ 100b5248     repository.obj
 0002:00006258       ??_C@_1LE@JNNCCGNA@?$AAc?$AA?3?$AA?2?$AAp?$AAr?$AAo?$AAj?$AAe?$AAc?$AAt?$AAs?$AA?2?$AAa?$AAt?$AAo?$AAm?$AA?2?$AAa?$AAp?$AAm?$AA?2?$AAn?$AAo?$AAd?$AAe?$AA_?$AAm?$AAo?$AAd?$AAu?$AAl?$AAe@ 100b5258     repository.obj
 0002:00006310       ??_C@_1EC@MGGLMBLC@?$AAo?$AAb?$AAj?$AAe?$AAc?$AAt?$AA?9?$AA?$DO?$AAI?$AAn?$AAt?$AAe?$AAr?$AAn?$AAa?$AAl?$AAF?$AAi?$AAe?$AAl?$AAd?$AAC?$AAo?$AAu?$AAn?$AAt?$AA?$CI?$AA?$CJ?$AA?5?$AA?$DO?$AA?5?$AA0@ 100b5310     repository.obj
 0002:00006354       ??_C@_0L@EOOINPPP@Repository?$AA@ 100b5354     repository.obj
 0002:00006360       ??_C@_07EMJLNLCP@getPath?$AA@ 100b5360     repository.obj
 0002:00006368       ??_C@_0BF@INADHGDJ@_getWorkingDirectory?$AA@ 100b5368     repository.obj
 0002:00006380       ??_C@_06OGCODMJI@exists?$AA@ 100b5380     repository.obj
 0002:00006388       ??_C@_0BC@MKOOKALO@getSubmodulePaths?$AA@ 100b5388     repository.obj
 0002:0000639c       ??_C@_07CFDBLOKM@getHead?$AA@ 100b539c     repository.obj
 0002:000063a4       ??_C@_0N@EPJGDKIH@refreshIndex?$AA@ 100b53a4     repository.obj
 0002:000063b4       ??_C@_09CHENKNEH@isIgnored?$AA@ 100b53b4     repository.obj
 0002:000063c0       ??_C@_0M@FGBPPLMD@isSubmodule?$AA@ 100b53c0     repository.obj
 0002:000063cc       ??_C@_0P@CDNGILKK@getConfigValue?$AA@ 100b53cc     repository.obj
 0002:000063dc       ??_C@_0P@ONMIHBIG@setConfigValue?$AA@ 100b53dc     repository.obj
 0002:000063ec       ??_C@_09IFAJIGEE@getStatus?$AA@ 100b53ec     repository.obj
 0002:000063f8       ??_C@_0BC@MJPLKFAB@getStatusForPaths?$AA@ 100b53f8     repository.obj
 0002:0000640c       ??_C@_0N@KDFOJGCK@checkoutHead?$AA@ 100b540c     repository.obj
 0002:0000641c       ??_C@_0BD@KGOMAGEK@getReferenceTarget?$AA@ 100b541c     repository.obj
 0002:00006430       ??_C@_0N@LGEKFJFN@getDiffStats?$AA@ 100b5430     repository.obj
 0002:00006440       ??_C@_0N@KGNCKNEL@getIndexBlob?$AA@ 100b5440     repository.obj
 0002:00006450       ??_C@_0M@CKHGAPI@getHeadBlob?$AA@ 100b5450     repository.obj
 0002:0000645c       ??_C@_0P@JOBCHCPK@getCommitCount?$AA@ 100b545c     repository.obj
 0002:0000646c       ??_C@_0N@BHHILPCC@getMergeBase?$AA@ 100b546c     repository.obj
 0002:0000647c       ??_C@_08GAKFHOMI@_release?$AA@ 100b547c     repository.obj
 0002:00006488       ??_C@_0N@EDEGDGDG@getLineDiffs?$AA@ 100b5488     repository.obj
 0002:00006498       ??_C@_0BD@FBHHBFBK@getLineDiffDetails?$AA@ 100b5498     repository.obj
 0002:000064ac       ??_C@_0O@DFPLGAOD@getReferences?$AA@ 100b54ac     repository.obj
 0002:000064bc       ??_C@_0M@NIKMNKBP@checkoutRef?$AA@ 100b54bc     repository.obj
 0002:000064c8       ??_C@_03BDGOHNNK@add?$AA@  100b54c8     repository.obj
 0002:000064cc       ??_C@_0BF@LOJNEAMB@?4?4?2src?2repository?4cc?$AA@ 100b54cc     repository.obj
 0002:000064e4       ??_C@_03HEBPKDAE@git?$AA@  100b54e4     repository.obj
 0002:000064e8       ??_C@_08ELHIJABD@useIndex?$AA@ 100b54e8     repository.obj
 0002:000064f4       ??_C@_05BKOOJEBC@added?$AA@ 100b54f4     repository.obj
 0002:000064fc       ??_C@_07JCMGEKCK@deleted?$AA@ 100b54fc     repository.obj
 0002:00006504       ??_C@_0BE@JCBLKOCL@ignoreEolWhitespace?$AA@ 100b5504     repository.obj
 0002:00006518       ??_C@_08HLGFNENK@oldStart?$AA@ 100b5518     repository.obj
 0002:00006524       ??_C@_08BPNOAEMD@oldLines?$AA@ 100b5524     repository.obj
 0002:00006530       ??_C@_08CFGHFNOB@newStart?$AA@ 100b5530     repository.obj
 0002:0000653c       ??_C@_08EBNMINPI@newLines?$AA@ 100b553c     repository.obj
 0002:00006548       ??_C@_0O@FKFJNFND@oldLineNumber?$AA@ 100b5548     repository.obj
 0002:00006558       ??_C@_0O@DLEFABEB@newLineNumber?$AA@ 100b5558     repository.obj
 0002:00006568       ??_C@_04HJPCFDOP@line?$AA@ 100b5568     repository.obj
 0002:00006570       ??_C@_0M@OMIEKLPK@refs?1heads?1?$AA@ 100b5570     repository.obj
 0002:0000657c       ??_C@_0O@DJPMEHKG@refs?1remotes?1?$AA@ 100b557c     repository.obj
 0002:0000658c       ??_C@_0L@OHBAHNMJ@refs?1tags?1?$AA@ 100b558c     repository.obj
 0002:00006598       ??_C@_05DDBOPCPJ@heads?$AA@ 100b5598     repository.obj
 0002:000065a0       ??_C@_07KMHNDNBE@remotes?$AA@ 100b55a0     repository.obj
 0002:000065a8       ??_C@_04PPJPCJBL@tags?$AA@ 100b55a8     repository.obj
 0002:000065b0       ??_C@_0BM@FAOLANMO@Unknown?5error?5opening?5index?$AA@ 100b55b0     repository.obj
 0002:000065cc       ??_C@_0CD@IOCFPIGI@Unknown?5error?5adding?5path?5to?5ind@ 100b55cc     repository.obj
 0002:000065f0       ??_C@_0BD@OLBABOEK@vector?$DMT?$DO?5too?5long?$AA@ 100b55f0     repository.obj
 0002:00006604       ??_C@_0BI@CFPLBAOH@invalid?5string?5position?$AA@ 100b5604     repository.obj
 0002:0000661c       ??_C@_1CE@LNAGEONJ@?$AA?$CB?$AAo?$AAb?$AAj?$AAe?$AAc?$AAt?$AA?4?$AAI?$AAs?$AAE?$AAm?$AAp?$AAt?$AAy?$AA?$CI?$AA?$CJ?$AA?$AA@ 100b561c     repository.obj
 0002:00006640       ??_C@_0BE@JONHPENG@map?1set?$DMT?$DO?5too?5long?$AA@ 100b5640     repository.obj
 0002:00006654       ??_7Repository@@6B@        100b5654     repository.obj
 0002:00006660       ??_7ObjectWrap@Nan@@6B@    100b5660     repository.obj
 0002:0000666c       ??_C@_0BI@LBNBPEON@?$CFs?5callback?5returned?5?$CFd?$AA@ 100b566c     libgit2:checkout.obj
 0002:00006684       ??_C@_0BJ@EMJOAMFC@Invalid?5version?5?$CFd?5on?5?$CFs?$AA@ 100b5684     libgit2:checkout.obj
 0002:000066a0       ??_C@_0EE@IJHEKAEE@Cannot?5?$CFs?4?5This?5operation?5is?5not@ 100b56a0     libgit2:checkout.obj
 0002:000066e4       ??_C@_0BK@OBNNHLBK@git_checkout?5notification?$AA@ 100b56e4     libgit2:checkout.obj
 0002:00006700       ??_C@_04ONIIBKGA@?4git?$AA@ 100b5700     libgit2:checkout.obj
 0002:00006708       ??_C@_0CI@LKPJAKHA@A?5NAME?5entry?5exists?5without?5an?5a@ 100b5708     libgit2:checkout.obj
 0002:00006730       ??_C@_0CO@PAPNCACL@A?5NAME?5entry?5exists?5without?5an?5o@ 100b5730     libgit2:checkout.obj
 0002:00006760       ??_C@_0FD@EGJKCNJD@A?5NAME?5entry?5referenced?5ancestor@ 100b5760     libgit2:checkout.obj
 0002:000067b8       ??_C@_0EO@HKPCINLM@A?5NAME?5entry?5referenced?5our?5entr@ 100b57b8     libgit2:checkout.obj
 0002:00006808       ??_C@_0FA@EGBEMHND@A?5NAME?5entry?5referenced?5their?5en@ 100b5808     libgit2:checkout.obj
 0002:00006858       ??_C@_0EF@IGBGPOFM@Index?5inconsistency?0?5could?5not?5f@ 100b5858     libgit2:checkout.obj
 0002:000068a0       ??_C@_0EK@CJNPEILD@Index?5inconsistency?0?5truncated?5i@ 100b58a0     libgit2:checkout.obj
 0002:000068ec       ??_C@_1DO@MCEFEIJI@?$AA?4?$AA?4?$AA?2?$AAd?$AAe?$AAp?$AAs?$AA?2?$AAl?$AAi?$AAb?$AAg?$AAi?$AAt?$AA2?$AA?2?$AAs?$AAr?$AAc?$AA?2?$AAc?$AAh?$AAe?$AAc?$AAk?$AAo?$AAu?$AAt?$AA?4?$AAc?$AA?$AA@ 100b58ec     libgit2:checkout.obj
 0002:0000692c       ??_C@_1DG@OHJFJGII@?$AAa?$AAn?$AAc?$AAe?$AAs?$AAt?$AAo?$AAr?$AA?5?$AA?$HM?$AA?$HM?$AA?5?$AAo?$AAu?$AAr?$AAs?$AA?5?$AA?$HM?$AA?$HM?$AA?5?$AAt?$AAh?$AAe?$AAi?$AAr?$AAs?$AA?$AA@ 100b592c     libgit2:checkout.obj
 0002:00006964       ??_C@_0CA@OANOJBII@Cannot?5remove?5invalid?5path?5?8?$CFs?8?$AA@ 100b5964     libgit2:checkout.obj
 0002:00006984       ??_C@_0CF@MLPNEHGH@Cannot?5checkout?5to?5invalid?5path?5@ 100b5984     libgit2:checkout.obj
 0002:000069ac       ??_C@_0BC@OPAPLDJP@conflict?5prevents?$AA@ 100b59ac     libgit2:checkout.obj
 0002:000069c0       ??_C@_0BC@ENBMAJI@conflicts?5prevent?$AA@ 100b59c0     libgit2:checkout.obj
 0002:000069d4       ??_C@_0BA@BCNGNMFN@?$CFIu?5?$CFs?5checkout?$AA@ 100b59d4     libgit2:checkout.obj
 0002:000069e4       ??_C@_0BJ@OGLHODBN@Failed?5to?5stat?5file?5?8?$CFs?8?$AA@ 100b59e4     libgit2:checkout.obj
 0002:00006a00       ??_C@_0BI@JCCFHEA@Could?5not?5write?5to?5?8?$CFs?8?$AA@ 100b5a00     libgit2:checkout.obj
 0002:00006a18       ??_C@_1CO@OHHEGKKJ@?$AAs?$AAt?$AAr?$AAe?$AAa?$AAm?$AA?5?$AA?$CG?$AA?$CG?$AA?5?$AAs?$AAt?$AAr?$AAe?$AAa?$AAm?$AA?9?$AA?$DO?$AAo?$AAp?$AAe?$AAn?$AA?$AA@ 100b5a18     libgit2:checkout.obj
 0002:00006a48       ??_C@_0CA@COLKBDEN@Could?5not?5open?5?8?$CFs?8?5for?5writing?$AA@ 100b5a48     libgit2:checkout.obj
 0002:00006a68       ??_C@_1CC@CBCAJGNG@?$AAw?$AAr?$AAi?$AAt?$AAe?$AAr?$AA?4?$AAo?$AAp?$AAe?$AAn?$AA?5?$AA?$DN?$AA?$DN?$AA?5?$AA0?$AA?$AA@ 100b5a68     libgit2:checkout.obj
 0002:00006a8c       ??_C@_0BE@LBHEBOGP@Error?5statting?5?8?$CFs?8?$AA@ 100b5a8c     libgit2:checkout.obj
 0002:00006aa0       ??_C@_0BM@LOBJANOG@Could?5not?5create?5symlink?5?$CFs?$AA@ 100b5aa0     libgit2:checkout.obj
 0002:00006abc       ??_C@_0BK@KKDKLFCN@Could?5not?5stat?5symlink?5?$CFs?$AA@ 100b5abc     libgit2:checkout.obj
 0002:00006ad8       ??_C@_0BN@HPHOLHCJ@Could?5not?5stat?5submodule?5?$CFs?6?$AA@ 100b5ad8     libgit2:checkout.obj
 0002:00006af8       ??_C@_0M@CDMBMPHO@?4gitmodules?$AA@ 100b5af8     libgit2:checkout.obj
 0002:00006b04       ??_C@_1M@HLGKFCJM@?$AAf?$AAa?$AAl?$AAs?$AAe?$AA?$AA@ 100b5b04     libgit2:checkout.obj
 0002:00006b10       ??_C@_02DPKJAMEF@?$CFd?$AA@ 100b5b10     libgit2:checkout.obj
 0002:00006b14       ??_C@_0DE@CPBFKJGL@Could?5not?5write?5?8?$CFs?8?3?5working?5di@ 100b5b14     libgit2:checkout.obj
 0002:00006b48       ??_C@_1GG@DHHNKILF@?$AAs?$AAi?$AAd?$AAe?$AA?5?$AA?$DN?$AA?$DN?$AA?5?$AAc?$AAo?$AAn?$AAf?$AAl?$AAi?$AAc?$AAt?$AA?9?$AA?$DO?$AAo?$AAu?$AAr?$AAs?$AA?5?$AA?$HM?$AA?$HM?$AA?5?$AAs?$AAi?$AAd?$AAe?$AA?5?$AA?$DN@ 100b5b48     libgit2:checkout.obj
 0002:00006bb0       ??_C@_04CNDJCONL@ours?$AA@ 100b5bb0     libgit2:checkout.obj
 0002:00006bb8       ??_C@_06NKIIIPDB@theirs?$AA@ 100b5bb8     libgit2:checkout.obj
 0002:00006bc0       ??_C@_08HBEFDOBD@ancestor?$AA@ 100b5bc0     libgit2:checkout.obj
 0002:00006bcc       ??_C@_0CB@HBJKNGFB@Could?5not?5merge?5contents?5of?5file@ 100b5bcc     libgit2:checkout.obj
 0002:00006bf0       ??_C@_0BI@BNBJHKEK@Cannot?5checkout?5nothing?$AA@ 100b5bf0     libgit2:checkout.obj
 0002:00006c08       ??_C@_08LMDGEEMI@checkout?$AA@ 100b5c08     libgit2:checkout.obj
 0002:00006c14       ??_C@_0BF@NBLOHCBN@git_checkout_options?$AA@ 100b5c14     libgit2:checkout.obj
 0002:00006c2c       ??_C@_0CI@EHPBHPMB@unresolved?5conflicts?5exist?5in?5th@ 100b5c2c     libgit2:checkout.obj
 0002:00006c54       ??_C@_0BE@JGONJKPF@merge?4conflictstyle?$AA@ 100b5c54     libgit2:checkout.obj
 0002:00006c68       ??_C@_05DPKBJALF@merge?$AA@ 100b5c68     libgit2:checkout.obj
 0002:00006c70       ??_C@_05OPAGHMFB@diff3?$AA@ 100b5c70     libgit2:checkout.obj
 0002:00006c78       ??_C@_0DD@OHKAGGMP@unknown?5style?5?8?$CFs?8?5given?5for?5?8me@ 100b5c78     libgit2:checkout.obj
 0002:00006cb0       ??_C@_1JA@DDLBCLO@?$AAg?$AAi?$AAt?$AA_?$AAi?$AAt?$AAe?$AAr?$AAa?$AAt?$AAo?$AAr?$AA_?$AAi?$AAg?$AAn?$AAo?$AAr?$AAe?$AA_?$AAc?$AAa?$AAs?$AAe?$AA?$CI?$AAw?$AAo?$AAr?$AAk?$AAd?$AAi?$AAr@ 100b5cb0     libgit2:checkout.obj
 0002:00006d40       ??_C@_1FC@CGCKMHBE@?$AAd?$AAa?$AAt?$AAa?$AA?4?$AAc?$AAo?$AAm?$AAp?$AAl?$AAe?$AAt?$AAe?$AAd?$AA_?$AAs?$AAt?$AAe?$AAp?$AAs?$AA?5?$AA?$DN?$AA?$DN?$AA?5?$AAd?$AAa?$AAt?$AAa?$AA?4?$AAt?$AAo?$AAt@ 100b5d40     libgit2:checkout.obj
 0002:00006d94       ??_C@_0DE@JCFKEMFA@Must?5provide?5either?5repository?5o@ 100b5d94     libgit2:checkout.obj
 0002:00006dc8       ??_C@_0CM@EAELAFAF@Index?5to?5checkout?5does?5not?5match@ 100b5dc8     libgit2:checkout.obj
 0002:00006df4       ??_C@_0DD@BGGKICMN@Must?5provide?5either?5repository?5o@ 100b5df4     libgit2:checkout.obj
 0002:00006e28       ??_C@_0CN@ECDEJNFC@Object?5to?5checkout?5does?5not?5matc@ 100b5e28     libgit2:checkout.obj
 0002:00006e58       ??_C@_0CL@JCJGPJPO@Provided?5object?5cannot?5be?5peeled@ 100b5e58     libgit2:checkout.obj
 0002:00006e84       ??_C@_0DI@IPAAMBLN@HEAD?5could?5not?5be?5peeled?5to?5a?5tr@ 100b5e84     libgit2:checkout.obj
 0002:00006ebc       ??_C@_19BOKFIGGH@?$AAr?$AAe?$AAp?$AAo?$AA?$AA@ 100b5ebc     libgit2:checkout.obj
 0002:00006ec8       ??_C@_1DK@IHEOAIAB@?$AA?4?$AA?4?$AA?2?$AAd?$AAe?$AAp?$AAs?$AA?2?$AAl?$AAi?$AAb?$AAg?$AAi?$AAt?$AA2?$AA?2?$AAs?$AAr?$AAc?$AA?2?$AAc?$AAo?$AAm?$AAm?$AAi?$AAt?$AA?4?$AAc?$AA?$AA@ 100b5ec8     libgit2:commit.obj
 0002:00006f08       ??_C@_1EA@PDKHLHOD@?$AAi?$AAd?$AA?5?$AA?$CG?$AA?$CG?$AA?5?$AAr?$AAe?$AAp?$AAo?$AA?5?$AA?$CG?$AA?$CG?$AA?5?$AAt?$AAr?$AAe?$AAe?$AA?5?$AA?$CG?$AA?$CG?$AA?5?$AAp?$AAa?$AAr?$AAe?$AAn?$AAt?$AA_?$AAc?$AAb?$AA?$AA@ 100b5f08     libgit2:commit.obj
 0002:00006f48       ??_C@_05IKPMIIHM@tree?5?$AA@ 100b5f48     libgit2:commit.obj
 0002:00006f50       ??_C@_07BBPBMGLO@parent?5?$AA@ 100b5f50     libgit2:commit.obj
 0002:00006f58       ??_C@_0DN@DEOFDKOH@failed?5to?5create?5commit?3?5current@ 100b5f58     libgit2:commit.obj
 0002:00006f98       ??_C@_07KAIJHDKN@author?5?$AA@ 100b5f98     libgit2:commit.obj
 0002:00006fa0       ??_C@_0L@NHKGKNAN@committer?5?$AA@ 100b5fa0     libgit2:commit.obj
 0002:00006fac       ??_C@_0N@DBMIONAL@encoding?5?$CFs?6?$AA@ 100b5fac     libgit2:commit.obj
 0002:00006fbc       ??_C@_06IFNEBLAJ@commit?$AA@ 100b5fbc     libgit2:commit.obj
 0002:00006fc8       ??_C@_1EK@MBHIPFAC@?$AAt?$AAr?$AAe?$AAe?$AA?5?$AA?$CG?$AA?$CG?$AA?5?$AAg?$AAi?$AAt?$AA_?$AAt?$AAr?$AAe?$AAe?$AA_?$AAo?$AAw?$AAn?$AAe?$AAr?$AA?$CI?$AAt?$AAr?$AAe?$AAe?$AA?$CJ?$AA?5?$AA?$DN?$AA?$DN?$AA?5@ 100b5fc8     libgit2:commit.obj
 0002:00007014       ??_C@_1CM@HKFPMCMJ@?$AAi?$AAd?$AA?5?$AA?$CG?$AA?$CG?$AA?5?$AAc?$AAo?$AAm?$AAm?$AAi?$AAt?$AA_?$AAt?$AAo?$AA_?$AAa?$AAm?$AAe?$AAn?$AAd?$AA?$AA@ 100b6014     libgit2:commit.obj
 0002:00007040       ??_C@_1DK@FHNIGJFF@?$AAg?$AAi?$AAt?$AA_?$AAt?$AAr?$AAe?$AAe?$AA_?$AAo?$AAw?$AAn?$AAe?$AAr?$AA?$CI?$AAt?$AAr?$AAe?$AAe?$AA?$CJ?$AA?5?$AA?$DN?$AA?$DN?$AA?5?$AAr?$AAe?$AAp?$AAo?$AA?$AA@ 100b6040     libgit2:commit.obj
 0002:0000707c       ??_C@_0DD@CDFOELMI@commit?5to?5amend?5is?5not?5the?5tip?5o@ 100b607c     libgit2:commit.obj
 0002:000070b0       ??_C@_09JICCLIJI@encoding?5?$AA@ 100b60b0     libgit2:commit.obj
 0002:000070ba       ??_C@_00CNPNBAHC@?$AA@     100b60ba     libgit2:commit.obj
 0002:000070bc       ??_C@_0CC@FACLMBGA@Failed?5to?5parse?5bad?5commit?5objec@ 100b60bc     libgit2:commit.obj
 0002:000070e0       ??_C@_1O@CAGPIMEA@?$AAc?$AAo?$AAm?$AAm?$AAi?$AAt?$AA?$AA@ 100b60e0     libgit2:commit.obj
 0002:000070f0       ??_C@_0BJ@NCPPJNGL@Parent?5?$CFu?5does?5not?5exist?$AA@ 100b60f0     libgit2:commit.obj
 0002:0000710c       ??_C@_1CG@GCMOCKLG@?$AAa?$AAn?$AAc?$AAe?$AAs?$AAt?$AAo?$AAr?$AA?5?$AA?$CG?$AA?$CG?$AA?5?$AAc?$AAo?$AAm?$AAm?$AAi?$AAt?$AA?$AA@ 100b610c     libgit2:commit.obj
 0002:00007134       ??_C@_0BD@IOBAFIGH@no?5such?5field?5?8?$CFs?8?$AA@ 100b6134     libgit2:commit.obj
 0002:00007148       ??_C@_0BB@KFFAMIFI@malformed?5header?$AA@ 100b6148     libgit2:commit.obj
 0002:0000715c       ??_C@_06BIICPGML@gpgsig?$AA@ 100b615c     libgit2:commit.obj
 0002:00007164       ??_C@_0DC@MIKADEED@the?5requested?5type?5does?5not?5matc@ 100b6164     libgit2:commit.obj
 0002:00007198       ??_C@_0BK@FLJDLMAM@this?5commit?5is?5not?5signed?$AA@ 100b6198     libgit2:commit.obj
 0002:000071b4       ??_C@_06GPAIICMK@rebase?$AA@ 100b61b4     libgit2:submodule.obj
 0002:000071bc       ??_C@_04CGFJFPFD@none?$AA@ 100b61bc     libgit2:submodule.obj
 0002:000071c4       ??_C@_09HFMJNLAD@untracked?$AA@ 100b61c4     libgit2:submodule.obj
 0002:000071d0       ??_C@_05CFEJGMAI@dirty?$AA@ 100b61d0     libgit2:submodule.obj
 0002:000071d8       ??_C@_03NFKEKGGK@all?$AA@  100b61d8     libgit2:submodule.obj
 0002:000071dc       ??_C@_09EMGLHIMJ@on?9demand?$AA@ 100b61dc     libgit2:submodule.obj
 0002:000071e8       ??_C@_0BI@IECCMHLF@No?5submodule?5named?5?8?$CFs?8?$AA@ 100b61e8     libgit2:submodule.obj
 0002:00007200       ??_C@_0CG@HLILBABO@Submodule?5?8?$CFs?8?5has?5not?5been?5adde@ 100b6200     libgit2:submodule.obj
 0002:00007228       ??_C@_0BE@DMCOILEL@submodule?2?4?4?$CK?2?4path?$AA@ 100b6228     libgit2:submodule.obj
 0002:0000723c       ??_C@_0CJ@GIANAJHE@could?5not?5find?5a?5submodule?5name?5@ 100b623c     libgit2:submodule.obj
 0002:00007268       ??_C@_1EA@FMHCHCMB@?$AA?4?$AA?4?$AA?2?$AAd?$AAe?$AAp?$AAs?$AA?2?$AAl?$AAi?$AAb?$AAg?$AAi?$AAt?$AA2?$AA?2?$AAs?$AAr?$AAc?$AA?2?$AAs?$AAu?$AAb?$AAm?$AAo?$AAd?$AAu?$AAl?$AAe?$AA?4?$AAc?$AA?$AA@ 100b6268     libgit2:submodule.obj
 0002:000072a8       ??_C@_1BK@HDBCMPOK@?$AAr?$AAe?$AAp?$AAo?$AA?5?$AA?$CG?$AA?$CG?$AA?5?$AAn?$AAa?$AAm?$AAe?$AA?$AA@ 100b62a8     libgit2:submodule.obj
 0002:000072c4       ??_C@_1BG@HKHFEPNM@?$AAe?$AAr?$AAr?$AAo?$AAr?$AA?5?$AA?$CB?$AA?$DN?$AA?5?$AA0?$AA?$AA@ 100b62c4     libgit2:submodule.obj
 0002:000072dc       ??_C@_1BI@IMPLAPDE@?$AAr?$AAe?$AAp?$AAo?$AA?5?$AA?$CG?$AA?$CG?$AA?5?$AAm?$AAa?$AAp?$AA?$AA@ 100b62dc     libgit2:submodule.obj
 0002:000072f4       ??_C@_0BG@PGGMNLCB@git_submodule_foreach?$AA@ 100b62f4     libgit2:submodule.obj
 0002:0000730c       ??_C@_07DFGEOAEG@modules?$AA@ 100b630c     libgit2:submodule.obj
 0002:00007314       ??_C@_1CI@NDBKPEKK@?$AAr?$AAe?$AAp?$AAo?$AA?5?$AA?$CG?$AA?$CG?$AA?5?$AAu?$AAr?$AAl?$AA?5?$AA?$CG?$AA?$CG?$AA?5?$AAp?$AAa?$AAt?$AAh?$AA?$AA@ 100b6314     libgit2:submodule.obj
 0002:0000733c       ??_C@_0DC@DAFFHNOP@Attempt?5to?5add?5submodule?5?8?$CFs?8?5th@ 100b633c     libgit2:submodule.obj
 0002:00007370       ??_C@_0CH@DKJCDDJB@Submodule?5path?5must?5be?5a?5relativ@ 100b6370     libgit2:submodule.obj
 0002:00007398       ??_C@_0DI@HNAGGFHE@Adding?5submodules?5to?5a?5bare?5repo@ 100b6398     libgit2:submodule.obj
 0002:000073d0       ??_C@_0BC@HBDMLICN@submodule?4?$CFs?4path?$AA@ 100b63d0     libgit2:submodule.obj
 0002:000073e4       ??_C@_03BMGHOINI@url?$AA@  100b63e4     libgit2:submodule.obj
 0002:000073e8       ??_C@_1BE@EANDKJMP@?$AAo?$AAu?$AAt?$AA?5?$AA?$CG?$AA?$CG?$AA?5?$AAs?$AAm?$AA?$AA@ 100b63e8     libgit2:submodule.obj
 0002:000073fc       ??_C@_0BB@GFPBDIGM@submodule?4?$CFs?4url?$AA@ 100b63fc     libgit2:submodule.obj
 0002:00007410       ??_C@_15KMHAOON@?$AAs?$AAm?$AA?$AA@ 100b6410     libgit2:submodule.obj
 0002:00007418       ??_C@_0CP@JDDNCIFC@Cannot?5add?5submodule?5without?5wor@ 100b6418     libgit2:submodule.obj
 0002:00007448       ??_C@_0CL@MAGLIPBM@Cannot?5add?5submodule?5without?5HEA@ 100b6448     libgit2:submodule.obj
 0002:00007474       ??_C@_1BE@CNKBNACO@?$AAs?$AAu?$AAb?$AAm?$AAo?$AAd?$AAu?$AAl?$AAe?$AA?$AA@ 100b6474     libgit2:submodule.obj
 0002:00007488       ??_C@_1CG@MPOFJPCA@?$AAo?$AAu?$AAt?$AA?5?$AA?$CG?$AA?$CG?$AA?5?$AAr?$AAe?$AAp?$AAo?$AA?5?$AA?$CG?$AA?$CG?$AA?5?$AAu?$AAr?$AAl?$AA?$AA@ 100b6488     libgit2:submodule.obj
 0002:000074b0       ??_C@_0CB@HGIIIGPB@Invalid?5format?5for?5submodule?5URL@ 100b64b0     libgit2:submodule.obj
 0002:000074d4       ??_C@_0BA@HAECJINK@submodule?4?$CFs?4?$CFs?$AA@ 100b64d4     libgit2:submodule.obj
 0002:000074e4       ??_C@_0BF@LPNGEKFK@invalid?5value?5for?5?$CFs?$AA@ 100b64e4     libgit2:submodule.obj
 0002:000074fc       ??_C@_04LOAJBDKD@true?$AA@ 100b64fc     libgit2:submodule.obj
 0002:00007504       ??_C@_06KAEOJLJM@branch?$AA@ 100b6504     libgit2:submodule.obj
 0002:0000750c       ??_C@_1CI@CJIPNCBG@?$AAr?$AAe?$AAp?$AAo?$AA?5?$AA?$CG?$AA?$CG?$AA?5?$AAn?$AAa?$AAm?$AAe?$AA?5?$AA?$CG?$AA?$CG?$AA?5?$AAu?$AAr?$AAl?$AA?$AA@ 100b650c     libgit2:submodule.obj
 0002:00007534       ??_C@_06GDPEBLPA@ignore?$AA@ 100b6534     libgit2:submodule.obj
 0002:0000753c       ??_C@_06HDLLMMEJ@update?$AA@ 100b653c     libgit2:submodule.obj
 0002:00007544       ??_C@_0BH@BFGLPPCH@fetchRecurseSubmodules?$AA@ 100b6544     libgit2:submodule.obj
 0002:0000755c       ??_C@_0BN@MAOCJEGP@git_submodule_update_options?$AA@ 100b655c     libgit2:submodule.obj
 0002:0000757c       ??_C@_0BO@NHDDONBO@Submodule?5is?5not?5initialized?4?$AA@ 100b657c     libgit2:submodule.obj
 0002:0000759c       ??_C@_0CF@MCKPHNGC@No?5URL?5configured?5for?5submodule?5@ 100b659c     libgit2:submodule.obj
 0002:000075c4       ??_C@_0BE@CJLIGJJC@submodule?4?$CFs?4update?$AA@ 100b65c4     libgit2:submodule.obj
 0002:000075d8       ??_C@_0BC@GPDCPHOK@remote?4origin?4url?$AA@ 100b65d8     libgit2:submodule.obj
 0002:000075ec       ??_C@_06IMIHEKN@remote?$AA@ 100b65ec     libgit2:submodule.obj
 0002:000075f4       ??_C@_1BM@HHJLAKAL@?$AAs?$AAm?$AA?5?$AA?$CG?$AA?$CG?$AA?5?$AAs?$AAu?$AAb?$AAr?$AAe?$AAp?$AAo?$AA?$AA@ 100b65f4     libgit2:submodule.obj
 0002:00007610       ??_C@_0BK@LHMOOAAP@open?5submodule?5repository?$AA@ 100b6610     libgit2:submodule.obj
 0002:0000762c       ??_C@_04BINJNOJD@HEAD?$AA@ 100b662c     libgit2:submodule.obj
 0002:00007634       ??_C@_1CO@KOAFKHLI@?$AAs?$AAt?$AAa?$AAt?$AAu?$AAs?$AA?5?$AA?$CG?$AA?$CG?$AA?5?$AAr?$AAe?$AAp?$AAo?$AA?5?$AA?$CG?$AA?$CG?$AA?5?$AAn?$AAa?$AAm?$AAe?$AA?$AA@ 100b6634     libgit2:submodule.obj
 0002:00007664       ??_C@_1BO@NAOJFMPH@?$AAl?$AAo?$AAc?$AAa?$AAt?$AAi?$AAo?$AAn?$AA?5?$AA?$CG?$AA?$CG?$AA?5?$AAs?$AAm?$AA?$AA@ 100b6664     libgit2:submodule.obj
 0002:00007684       ??_C@_0BH@CJCACBME@Invalid?5submodule?5name?$AA@ 100b6684     libgit2:submodule.obj
 0002:0000769c       ??_C@_0DA@NKFJPAOG@Invalid?5value?5for?5submodule?5?8?$CFs?8@ 100b669c     libgit2:submodule.obj
 0002:000076cc       ??_C@_07JNHPOGIO@recurse?$AA@ 100b66cc     libgit2:submodule.obj
 0002:000076d4       ??_C@_04LNEJFJGI@path?$AA@ 100b66d4     libgit2:submodule.obj
 0002:000076dc       ??_C@_0L@DBOBHONG@submodule?4?$AA@ 100b66dc     libgit2:submodule.obj
 0002:000076e8       ??_C@_0CB@GDIAEFLC@HEAD?5does?5not?5refer?5to?5a?5branch?4@ 100b66e8     libgit2:submodule.obj
 0002:0000770c       ??_C@_06NHCMNMEH@origin?$AA@ 100b670c     libgit2:submodule.obj
 0002:00007718       ??_C@_0GG@MIEOBIKP@Cannot?5get?5default?5remote?5for?5su@ 100b6718     libgit2:submodule.obj
 0002:00007798       _git_repository__reserved_names_win32_len 100b6798     libgit2:repository.obj
 0002:00007bb8       ___re_error_msgid_idx      100b6bb8     libgit2:regex.obj
 0002:00007ed8       ___re_error_msgid          100b6ed8     libgit2:regex.obj
 0002:000080e4       _git_attr__true            100b70e4     libgit2:attr.obj
 0002:00008908       _git_attr__unset           100b7908     libgit2:attr.obj
 0002:00008924       _git_attr__false           100b7924     libgit2:attr.obj
 0002:00009478       _z_errmsg                  100b8478     zlib:zutil.obj
 0002:000098a0       __length_code              100b88a0     zlib:trees.obj
 0002:000099a0       __dist_code                100b89a0     zlib:trees.obj
 0002:0000a428       ??_C@_0BJ@PDBEPANK@tree?5entry?5path?5too?5long?$AA@ 100b9428     libgit2:tree.obj
 0002:0000a444       ??_C@_1DG@ECFAMELG@?$AA?4?$AA?4?$AA?2?$AAd?$AAe?$AAp?$AAs?$AA?2?$AAl?$AAi?$AAb?$AAg?$AAi?$AAt?$AA2?$AA?2?$AAs?$AAr?$AAc?$AA?2?$AAt?$AAr?$AAe?$AAe?$AA?4?$AAc?$AA?$AA@ 100b9444     libgit2:tree.obj
 0002:0000a47c       ??_C@_1O@JOABEBCL@?$AAs?$AAo?$AAu?$AAr?$AAc?$AAe?$AA?$AA@ 100b947c     libgit2:tree.obj
 0002:0000a48c       ??_C@_1M@IDDCMKPN@?$AAe?$AAn?$AAt?$AAr?$AAy?$AA?$AA@ 100b948c     libgit2:tree.obj
 0002:0000a498       ??_C@_1CI@GDOOIGBI@?$AAe?$AAn?$AAt?$AAr?$AAy?$AA?5?$AA?$CG?$AA?$CG?$AA?5?$AAo?$AAb?$AAj?$AAe?$AAc?$AAt?$AA_?$AAo?$AAu?$AAt?$AA?$AA@ 100b9498     libgit2:tree.obj
 0002:0000a4c0       ??_C@_1CC@IHJDGLBC@?$AAt?$AAr?$AAe?$AAe?$AA?5?$AA?$CG?$AA?$CG?$AA?5?$AAf?$AAi?$AAl?$AAe?$AAn?$AAa?$AAm?$AAe?$AA?$AA@ 100b94c0     libgit2:tree.obj
 0002:0000a4e4       ??_C@_19FJGDLNFO@?$AAt?$AAr?$AAe?$AAe?$AA?$AA@ 100b94e4     libgit2:tree.obj
 0002:0000a4f0       ??_C@_17MDGBCICF@?$AAb?$AAl?$AAd?$AA?$AA@ 100b94f0     libgit2:tree.obj
 0002:0000a4f8       ??_C@_07FCJAGJJB@?$CFs?5?9?5?$CFs?$AA@ 100b94f8     libgit2:tree.obj
 0002:0000a500       ??_C@_02DKCKIIND@?$CFs?$AA@ 100b9500     libgit2:tree.obj
 0002:0000a504       ??_C@_0CL@KPHHGPCI@Failed?5to?5parse?5tree?4?5Can?8t?5pars@ 100b9504     libgit2:tree.obj
 0002:0000a530       ??_C@_0CK@JHJGFNBP@Failed?5to?5parse?5tree?4?5Object?5is?5@ 100b9530     libgit2:tree.obj
 0002:0000a55c       ??_C@_0CL@HNJFJEE@Failed?5to?5parse?5tree?4?5Can?8t?5pars@ 100b955c     libgit2:tree.obj
 0002:0000a588       ??_C@_0CG@NBGPCMKF@Failed?5to?5parse?5tree?4?5Can?8t?5pars@ 100b9588     libgit2:tree.obj
 0002:0000a5b0       ??_C@_0DG@NEAFMHMH@Failed?5to?5insert?5entry?4?5Invalid?5@ 100b95b0     libgit2:tree.obj
 0002:0000a5e8       ??_C@_0CO@BBNBDNMN@failed?5to?5append?5entry?5?$CFs?5to?5the@ 100b95e8     libgit2:tree.obj
 0002:0000a618       ??_C@_1CK@MKINLMGA@?$AAo?$AAi?$AAd?$AA?5?$AA?$CG?$AA?$CG?$AA?5?$AAi?$AAn?$AAd?$AAe?$AAx?$AA?5?$AA?$CG?$AA?$CG?$AA?5?$AAr?$AAe?$AAp?$AAo?$AA?$AA@ 100b9618     libgit2:tree.obj
 0002:0000a644       ??_C@_0DE@JCGENPEA@Cannot?5create?5a?5tree?5from?5a?5not?5@ 100b9644     libgit2:tree.obj
 0002:0000a678       ??_C@_1CE@IODEIOLE@?$AAb?$AAu?$AAi?$AAl?$AAd?$AAe?$AAr?$AA_?$AAp?$AA?5?$AA?$CG?$AA?$CG?$AA?5?$AAr?$AAe?$AAp?$AAo?$AA?$AA@ 100b9678     libgit2:tree.obj
 0002:0000a69c       ??_C@_1CM@NBIJJFGA@?$AAb?$AAl?$AAd?$AA?5?$AA?$CG?$AA?$CG?$AA?5?$AAi?$AAd?$AA?5?$AA?$CG?$AA?$CG?$AA?5?$AAf?$AAi?$AAl?$AAe?$AAn?$AAa?$AAm?$AAe?$AA?$AA@ 100b969c     libgit2:tree.obj
 0002:0000a6c8       ??_C@_0DC@JIBNIOPA@Failed?5to?5insert?5entry?4?5Invalid?5@ 100b96c8     libgit2:tree.obj
 0002:0000a6fc       ??_C@_0DB@NNEEPJGA@Failed?5to?5insert?5entry?$DL?5invalid?5@ 100b96fc     libgit2:tree.obj
 0002:0000a730       ??_C@_0BE@GMGDPFDB@failed?5to?5insert?5?$CFs?$AA@ 100b9730     libgit2:tree.obj
 0002:0000a744       ??_C@_1CA@KNBJDENJ@?$AAb?$AAl?$AAd?$AA?5?$AA?$CG?$AA?$CG?$AA?5?$AAf?$AAi?$AAl?$AAe?$AAn?$AAa?$AAm?$AAe?$AA?$AA@ 100b9744     libgit2:tree.obj
 0002:0000a764       ??_C@_0CP@FDJBLLKF@Failed?5to?5remove?5entry?4?5File?5isn@ 100b9764     libgit2:tree.obj
 0002:0000a794       ??_C@_03JPFINHFA@?$CFo?5?$AA@ 100b9794     libgit2:tree.obj
 0002:0000a798       ??_C@_1BM@ELPFFPBF@?$AAb?$AAl?$AAd?$AA?5?$AA?$CG?$AA?$CG?$AA?5?$AAf?$AAi?$AAl?$AAt?$AAe?$AAr?$AA?$AA@ 100b9798     libgit2:tree.obj
 0002:0000a7b4       ??_C@_0BI@FAIPGPBG@Invalid?5tree?5path?5given?$AA@ 100b97b4     libgit2:tree.obj
 0002:0000a7cc       ??_C@_0DB@OEKKGDIC@the?5path?5?8?$CF?4?$CKs?8?5does?5not?5exist?5i@ 100b97cc     libgit2:tree.obj
 0002:0000a800       ??_C@_0CJ@BLFPIODK@the?5path?5?8?$CF?4?$CKs?8?5exists?5but?5is?5no@ 100b9800     libgit2:tree.obj
 0002:0000a82c       ??_C@_0O@BADOHFJB@git_tree_walk?$AA@ 100b982c     libgit2:tree.obj
 0002:0000a83c       ??_C@_0CD@LGCEFPMB@Invalid?5walking?5mode?5for?5tree?5wa@ 100b983c     libgit2:tree.obj
 0002:0000a860       ??_C@_1DM@EBMAKCDB@?$AA?4?$AA?4?$AA?2?$AAd?$AAe?$AAp?$AAs?$AA?2?$AAl?$AAi?$AAb?$AAg?$AAi?$AAt?$AA2?$AA?2?$AAs?$AAr?$AAc?$AA?2?$AAr?$AAe?$AAv?$AAw?$AAa?$AAl?$AAk?$AA?4?$AAc?$AA?$AA@ 100b9860     libgit2:revwalk.obj
 0002:0000a89c       ??_C@_1BC@LFGCKLJL@?$AAr?$AAe?$AAt?$AA?5?$AA?$CB?$AA?$DN?$AA?5?$AA0?$AA?$AA@ 100b989c     libgit2:revwalk.obj
 0002:0000a8b0       ??_C@_0BL@LBIANPBD@Object?5is?5not?5a?5committish?$AA@ 100b98b0     libgit2:revwalk.obj
 0002:0000a8cc       ??_C@_1BI@HBCMGDFM@?$AAw?$AAa?$AAl?$AAk?$AA?5?$AA?$CG?$AA?$CG?$AA?5?$AAo?$AAi?$AAd?$AA?$AA@ 100b98cc     libgit2:revwalk.obj
 0002:0000a8e4       ??_C@_1BK@GCGKNCEN@?$AAw?$AAa?$AAl?$AAk?$AA?5?$AA?$CG?$AA?$CG?$AA?5?$AAg?$AAl?$AAo?$AAb?$AA?$AA@ 100b98e4     libgit2:revwalk.obj
 0002:0000a900       ??_C@_05DODEMBA@refs?1?$AA@ 100b9900     libgit2:revwalk.obj
 0002:0000a908       ??_C@_03BKGGIPLN@?$DP?$CK?$FL?$AA@ 100b9908     libgit2:revwalk.obj
 0002:0000a90c       ??_C@_02FMMEOLBI@?1?$CK?$AA@ 100b990c     libgit2:revwalk.obj
 0002:0000a910       ??_C@_19IHLABGGO@?$AAw?$AAa?$AAl?$AAk?$AA?$AA@ 100b9910     libgit2:revwalk.obj
 0002:0000a91c       ??_C@_1CA@EOFFEAOF@?$AAw?$AAa?$AAl?$AAk?$AA?5?$AA?$CG?$AA?$CG?$AA?5?$AAr?$AAe?$AAf?$AAn?$AAa?$AAm?$AAe?$AA?$AA@ 100b991c     libgit2:revwalk.obj
 0002:0000a93c       ??_C@_0DB@FCPOCMGC@Symmetric?5differences?5not?5implem@ 100b993c     libgit2:revwalk.obj
 0002:0000a970       ??_C@_0EG@EHMCDMDE@There?5is?5already?5a?5callback?5adde@ 100b9970     libgit2:revwalk.obj
 0002:0000a9b8       ??_C@_08FOMOOAAB@git_diff?$AA@ 100b99b8     libgit2:diff.obj
 0002:0000a9c4       ??_C@_1DG@DMNAANMI@?$AA?4?$AA?4?$AA?2?$AAd?$AAe?$AAp?$AAs?$AA?2?$AAl?$AAi?$AAb?$AAg?$AAi?$AAt?$AA2?$AA?2?$AAs?$AAr?$AAc?$AA?2?$AAd?$AAi?$AAf?$AAf?$AA?4?$AAc?$AA?$AA@ 100b99c4     libgit2:diff.obj
 0002:0000aa00       ??_C@_1EE@EILNCBPH@?$AA?$CI?$AAo?$AAi?$AAt?$AAe?$AAm?$AA?5?$AA?$CB?$AA?$DN?$AA?5?$AAN?$AAU?$AAL?$AAL?$AA?$CJ?$AA?5?$AA?$FO?$AA?5?$AA?$CI?$AAn?$AAi?$AAt?$AAe?$AAm?$AA?5?$AA?$CB?$AA?$DN?$AA?5?$AAN?$AAU?$AAL?$AAL@ 100b9a00     libgit2:diff.obj
 0002:0000aa44       ??_C@_1DK@GOHOGICH@?$AAs?$AAt?$AAa?$AAt?$AAu?$AAs?$AA?5?$AA?$CB?$AA?$DN?$AA?5?$AAG?$AAI?$AAT?$AA_?$AAD?$AAE?$AAL?$AAT?$AAA?$AA_?$AAM?$AAO?$AAD?$AAI?$AAF?$AAI?$AAE?$AAD?$AA?$AA@ 100b9a44     libgit2:diff.obj
 0002:0000aa80       ??_C@_01KMDKNFGN@?1?$AA@   100b9a80     libgit2:diff.obj
 0002:0000aa84       ??_C@_01PAPGNFGE@c?$AA@    100b9a84     libgit2:diff.obj
 0002:0000aa88       ??_C@_01KBJDNOO@i?$AA@     100b9a88     libgit2:diff.obj
 0002:0000aa8c       ??_C@_01NOFIACDB@w?$AA@    100b9a8c     libgit2:diff.obj
 0002:0000aa90       ??_C@_01HIHLOKLC@1?$AA@    100b9a90     libgit2:diff.obj
 0002:0000aa94       ??_C@_01FDFGLJHB@2?$AA@    100b9a94     libgit2:diff.obj
 0002:0000aa98       ??_C@_1DK@MPJCMNOG@?$AAr?$AAe?$AAp?$AAo?$AA?5?$AA?$CG?$AA?$CG?$AA?5?$AAo?$AAl?$AAd?$AA_?$AAi?$AAt?$AAe?$AAr?$AA?5?$AA?$CG?$AA?$CG?$AA?5?$AAn?$AAe?$AAw?$AA_?$AAi?$AAt?$AAe?$AAr?$AA?$AA@ 100b9a98     libgit2:diff.obj
 0002:0000aad4       ??_C@_0N@KFOOBPAL@diff?4context?$AA@ 100b9ad4     libgit2:diff.obj
 0002:0000aae4       ??_C@_0BG@OKIBNJOH@diff?4ignoresubmodules?$AA@ 100b9ae4     libgit2:diff.obj
 0002:0000aafc       ??_C@_02FLLHLPJH@a?1?$AA@  100b9afc     libgit2:diff.obj
 0002:0000ab00       ??_C@_02FJPBABMO@b?1?$AA@  100b9b00     libgit2:diff.obj
 0002:0000ab04       ??_C@_0O@MEFODHDP@diff?4noprefix?$AA@ 100b9b04     libgit2:diff.obj
 0002:0000ab14       ??_C@_0BE@JFNLGBPH@diff?4mnemonicprefix?$AA@ 100b9b14     libgit2:diff.obj
 0002:0000ab28       ??_C@_04GBLELIND@stat?$AA@ 100b9b28     libgit2:diff.obj
 0002:0000ab30       ??_C@_0CJ@IKCFPEIE@File?5size?5overflow?5?$CIfor?532?9bits?$CJ@ 100b9b30     libgit2:diff.obj
 0002:0000ab5c       ??_C@_1BK@BHACIIEK@?$AAd?$AAi?$AAf?$AAf?$AA?5?$AA?$CG?$AA?$CG?$AA?5?$AAr?$AAe?$AAp?$AAo?$AA?$AA@ 100b9b5c     libgit2:diff.obj
 0002:0000ab78       ??_C@_0BB@KAMDFNN@git_diff_options?$AA@ 100b9b78     libgit2:diff.obj
 0002:0000ab8c       ??_C@_1DO@JAMKEBC@?$AAd?$AAi?$AAf?$AAf?$AA?5?$AA?$CG?$AA?$CG?$AA?5?$AAo?$AAl?$AAd?$AA_?$AAi?$AAn?$AAd?$AAe?$AAx?$AA?5?$AA?$CG?$AA?$CG?$AA?5?$AAn?$AAe?$AAw?$AA_?$AAi?$AAn?$AAd?$AAe?$AAx?$AA?$AA@ 100b9b8c     libgit2:diff.obj
 0002:0000abcc       ??_C@_19MLDNMMIL@?$AAd?$AAi?$AAf?$AAf?$AA?$AA@ 100b9bcc     libgit2:diff.obj
 0002:0000abd8       ??_C@_17CMKEDJDI@?$AAo?$AAu?$AAt?$AA?$AA@ 100b9bd8     libgit2:diff.obj
 0002:0000abe0       ??_C@_0BC@HLNGPKHI@git_diff_perfdata?$AA@ 100b9be0     libgit2:diff.obj
 0002:0000abf4       ??_C@_0BJ@IIFKJMBH@git_diff__paired_foreach?$AA@ 100b9bf4     libgit2:diff.obj
 0002:0000ac10       ??_C@_0BM@IAPMNMOJ@Commit?5?$CFs?5is?5a?5merge?5commit?$AA@ 100b9c10     libgit2:diff.obj
 0002:0000ac30       ??_C@_0EC@BJFAMKD@From?5?$CFs?5Mon?5Sep?517?500?300?300?52001@ 100b9c30     libgit2:diff.obj
 0002:0000ac74       ??_C@_08HJKHDIBK@?$FLPATCH?$FN?5?$AA@ 100b9c74     libgit2:diff.obj
 0002:0000ac80       ??_C@_0BB@FFEELFAB@?$FLPATCH?5?$CFIu?1?$CFIu?$FN?5?$AA@ 100b9c80     libgit2:diff.obj
 0002:0000ac94       ??_C@_04LOAOMKLI@?$CFs?6?6?$AA@ 100b9c94     libgit2:diff.obj
 0002:0000ac9c       ??_C@_1CI@BMKPCFFH@?$AAo?$AAu?$AAt?$AA?5?$AA?$CG?$AA?$CG?$AA?5?$AAd?$AAi?$AAf?$AAf?$AA?5?$AA?$CG?$AA?$CG?$AA?5?$AAo?$AAp?$AAt?$AAs?$AA?$AA@ 100b9c9c     libgit2:diff.obj
 0002:0000acc8       ??_C@_1FE@ODNGLGNM@?$AAo?$AAp?$AAt?$AAs?$AA?9?$AA?$DO?$AAs?$AAu?$AAm?$AAm?$AAa?$AAr?$AAy?$AA?5?$AA?$CG?$AA?$CG?$AA?5?$AAo?$AAp?$AAt?$AAs?$AA?9?$AA?$DO?$AAi?$AAd?$AA?5?$AA?$CG?$AA?$CG?$AA?5?$AAo?$AAp?$AAt@ 100b9cc8     libgit2:diff.obj
 0002:0000ad1c       ??_C@_0BJ@GBCAGFLD@git_format_email_options?$AA@ 100b9d1c     libgit2:diff.obj
 0002:0000ad38       ??_C@_0CA@EJOCFJGI@patch?5?$CFIu?5out?5of?5range?4?5max?5?$CFIu?$AA@ 100b9d38     libgit2:diff.obj
 0002:0000ad58       ??_C@_0CD@PJNJEFNC@invalid?5patch?5no?5?$CFIu?4?5should?5be?5@ 100b9d58     libgit2:diff.obj
 0002:0000ad7c       ??_C@_02PCIJFNDE@?$AN?6?$AA@ 100b9d7c     libgit2:diff.obj
 0002:0000ad80       ??_C@_0BB@BCDDFJJL@summary?5is?5empty?$AA@ 100b9d80     libgit2:diff.obj
 0002:0000ad94       ??_C@_04JIKOKJIN@?9?9?9?6?$AA@ 100b9d94     libgit2:diff.obj
 0002:0000ad9c       ??_C@_0BE@MGHOANNN@?9?9?6libgit2?50?424?43?6?6?$AA@ 100b9d9c     libgit2:diff.obj
 0002:0000adb0       ??_C@_1CM@EMOFPJEF@?$AAo?$AAu?$AAt?$AA?5?$AA?$CG?$AA?$CG?$AA?5?$AAr?$AAe?$AAp?$AAo?$AA?5?$AA?$CG?$AA?$CG?$AA?5?$AAc?$AAo?$AAm?$AAm?$AAi?$AAt?$AA?$AA@ 100b9db0     libgit2:diff.obj
 0002:0000addc       ??_C@_0BG@BIBKMDJP@git_diff_find_options?$AA@ 100b9ddc     libgit2:diff.obj
 0002:0000adf4       ??_C@_0BO@CKCIPNNP@git_diff_format_email_options?$AA@ 100b9df4     libgit2:diff.obj
 0002:0000ae14       ??_C@_0O@NALGGDJF@Out?5of?5memory?$AA@ 100b9e14     libgit2:errors.obj
 0002:0000ae24       ??_C@_02LMMGGCAJ@?3?5?$AA@ 100b9e24     libgit2:errors.obj
 0002:0000ae28       ??_C@_1DK@GPMJKNEA@?$AA?4?$AA?4?$AA?2?$AAd?$AAe?$AAp?$AAs?$AA?2?$AAl?$AAi?$AAb?$AAg?$AAi?$AAt?$AA2?$AA?2?$AAs?$AAr?$AAc?$AA?2?$AAe?$AAr?$AAr?$AAo?$AAr?$AAs?$AA?4?$AAc?$AA?$AA@ 100b9e28     libgit2:errors.obj
 0002:0000ae64       ??_C@_1O@DGBBOFII@?$AAs?$AAt?$AAr?$AAi?$AAn?$AAg?$AA?$AA@ 100b9e64     libgit2:errors.obj
 0002:0000ae74       ??_C@_1BG@MJPNMFJF@?$AAe?$AAr?$AAr?$AAo?$AAr?$AA_?$AAc?$AAo?$AAd?$AAe?$AA?$AA@ 100b9e74     libgit2:errors.obj
 0002:0000ae8c       ??_C@_05NFNOIEKN@GIT?$HO1?$AA@ 100b9e8c     libgit2:repository.obj
 0002:0000ae98       ??_C@_1EC@GILAPDFG@?$AA?4?$AA?4?$AA?2?$AAd?$AAe?$AAp?$AAs?$AA?2?$AAl?$AAi?$AAb?$AAg?$AAi?$AAt?$AA2?$AA?2?$AAs?$AAr?$AAc?$AA?2?$AAr?$AAe?$AAp?$AAo?$AAs?$AAi?$AAt?$AAo?$AAr?$AAy?$AA?4?$AAc@ 100b9e98     libgit2:repository.obj
 0002:0000aedc       ??_C@_08BHJFLJC@objects?1?$AA@ 100b9edc     libgit2:repository.obj
 0002:0000aee8       ??_C@_09IALFGAPB@core?4bare?$AA@ 100b9ee8     libgit2:repository.obj
 0002:0000aef4       ??_C@_0O@FACCKPHC@core?4worktree?$AA@ 100b9ef4     libgit2:repository.obj
 0002:0000af04       ??_C@_19JIFMCCAP@?$AAp?$AAa?$AAt?$AAh?$AA?$AA@ 100b9f04     libgit2:repository.obj
 0002:0000af10       ??_C@_1CM@FJIPOKHD@?$AAp?$AAa?$AAt?$AAh?$AA_?$AAo?$AAu?$AAt?$AA?5?$AA?$CG?$AA?$CG?$AA?5?$AAf?$AAi?$AAl?$AAe?$AA_?$AAp?$AAa?$AAt?$AAh?$AA?$AA@ 100b9f10     libgit2:repository.obj
 0002:0000af3c       ??_C@_07JGCOMEJG@gitdir?3?$AA@ 100b9f3c     libgit2:repository.obj
 0002:0000af44       ??_C@_0CF@PPMAEKMP@The?5?$GA?4git?$GA?5file?5at?5?8?$CFs?8?5is?5malfo@ 100b9f44     libgit2:repository.obj
 0002:0000af6c       ??_C@_0CE@MLBBBPLH@Could?5not?5find?5repository?5from?5?8@ 100b9f6c     libgit2:repository.obj
 0002:0000af90       ??_C@_0BN@OAPJGJLI@Path?5is?5not?5a?5repository?3?5?$CFs?$AA@ 100b9f90     libgit2:repository.obj
 0002:0000afb0       ??_C@_1BG@GNPNAMBF@?$AAs?$AAt?$AAa?$AAr?$AAt?$AA_?$AAp?$AAa?$AAt?$AAh?$AA?$AA@ 100b9fb0     libgit2:repository.obj
 0002:0000afc8       ??_C@_1BI@NJPLNPJD@?$AAr?$AAe?$AAp?$AAo?$AA?5?$AA?$CG?$AA?$CG?$AA?5?$AAo?$AAu?$AAt?$AA?$AA@ 100b9fc8     libgit2:repository.obj
 0002:0000afe0       ??_C@_06HEJKKHEK@config?$AA@ 100b9fe0     libgit2:repository.obj
 0002:0000afe8       ??_C@_1BO@CALAKOPJ@?$AAr?$AAe?$AAp?$AAo?$AA?5?$AA?$CG?$AA?$CG?$AA?5?$AAc?$AAo?$AAn?$AAf?$AAi?$AAg?$AA?$AA@ 100b9fe8     libgit2:repository.obj
 0002:0000b008       ??_C@_1BI@GEADAGOO@?$AAr?$AAe?$AAp?$AAo?$AA?5?$AA?$CG?$AA?$CG?$AA?5?$AAo?$AAd?$AAb?$AA?$AA@ 100ba008     libgit2:repository.obj
 0002:0000b020       ??_C@_1BI@HAAONFOM@?$AAo?$AAu?$AAt?$AA?5?$AA?$CG?$AA?$CG?$AA?5?$AAr?$AAe?$AAp?$AAo?$AA?$AA@ 100ba020     libgit2:repository.obj
 0002:0000b038       ??_C@_1BM@KIKKEHCJ@?$AAr?$AAe?$AAp?$AAo?$AA?5?$AA?$CG?$AA?$CG?$AA?5?$AAr?$AAe?$AAf?$AAd?$AAb?$AA?$AA@ 100ba038     libgit2:repository.obj
 0002:0000b054       ??_C@_05FKHKFDID@index?$AA@ 100ba054     libgit2:repository.obj
 0002:0000b05c       ??_C@_0BN@MLFEGPGJ@core?4repositoryformatversion?$AA@ 100ba05c     libgit2:repository.obj
 0002:0000b080       ??_C@_0EJ@JMHNMNFO@Unsupported?5repository?5version?5?$CF@ 100ba080     libgit2:repository.obj
 0002:0000b0cc       ??_C@_06ECGAGODA@master?$AA@ 100ba0cc     libgit2:repository.obj
 0002:0000b0d4       ??_C@_08OIFKLNEC@ref?3?5?$CFs?6?$AA@ 100ba0d4     libgit2:repository.obj
 0002:0000b0e0       ??_C@_0BE@FJJLGMFA@ref?3?5refs?1heads?1?$CFs?6?$AA@ 100ba0e0     libgit2:repository.obj
 0002:0000b0f4       ??_C@_06ECKLPHDC@CoNfIg?$AA@ 100ba0f4     libgit2:repository.obj
 0002:0000b0fc       ??_C@_07MEHGEGBN@testing?$AA@ 100ba0fc     libgit2:repository.obj
 0002:0000b104       ??_C@_0BK@FJMEHJOO@Error?5while?5creating?5?8?$CFs?8?$AA@ 100ba104     libgit2:repository.obj
 0002:0000b120       ??_C@_0BJ@IINDHGFF@Error?5while?5closing?5?8?$CFs?8?$AA@ 100ba120     libgit2:repository.obj
 0002:0000b13c       ??_C@_0O@OOFMGGKC@core?4filemode?$AA@ 100ba13c     libgit2:repository.obj
 0002:0000b14c       ??_C@_0O@KPDADJIE@core?4symlinks?$AA@ 100ba14c     libgit2:repository.obj
 0002:0000b15c       ??_C@_0BA@EJJFMJIM@core?4ignorecase?$AA@ 100ba15c     libgit2:repository.obj
 0002:0000b16c       ??_C@_0BG@BIMNACMM@core?4logallrefupdates?$AA@ 100ba16c     libgit2:repository.obj
 0002:0000b184       ??_C@_0BG@POBOGLAK@core?4sharedrepository?$AA@ 100ba184     libgit2:repository.obj
 0002:0000b19c       ??_C@_0BM@CPELFKCK@receive?4denyNonFastforwards?$AA@ 100ba19c     libgit2:repository.obj
 0002:0000b1b8       ??_C@_0DD@CMIKJEK@Failed?5to?5initialize?5repository?5@ 100ba1b8     libgit2:repository.obj
 0002:0000b1ec       ??_C@_06EKBIOGIH@?1?4git?1?$AA@ 100ba1ec     libgit2:repository.obj
 0002:0000b1f4       ??_C@_0CN@NAAIMGEE@Cannot?5overwrite?5gitlink?5file?5in@ 100ba1f4     libgit2:repository.obj
 0002:0000b224       ??_C@_0O@LDNCBFFM@objects?1info?1?$AA@ 100ba224     libgit2:repository.obj
 0002:0000b234       ??_C@_0O@CFIMIJDA@objects?1pack?1?$AA@ 100ba234     libgit2:repository.obj
 0002:0000b244       ??_C@_06JAIGOBHG@hooks?1?$AA@ 100ba244     libgit2:repository.obj
 0002:0000b24c       ??_C@_05IBONFEN@info?1?$AA@ 100ba24c     libgit2:repository.obj
 0002:0000b254       ??_C@_0M@PPJNHBMP@description?$AA@ 100ba254     libgit2:repository.obj
 0002:0000b260       ??_C@_0EK@JFFPLCPG@Unnamed?5repository?$DL?5edit?5this?5fi@ 100ba260     libgit2:repository.obj
 0002:0000b2ac       ??_C@_0BE@GCABDFCC@hooks?1README?4sample?$AA@ 100ba2ac     libgit2:repository.obj
 0002:0000b2c0       ??_C@_0LC@MOEONGIB@?$CD?$CB?1bin?1sh?6?$CD?6?$CD?5Place?5appropriatel@ 100ba2c0     libgit2:repository.obj
 0002:0000b374       ??_C@_0N@ODNAODLC@info?1exclude?$AA@ 100ba374     libgit2:repository.obj
 0002:0000b388       ??_C@_0HC@IFFHFPDB@?$CD?5File?5patterns?5to?5ignore?$DL?5see?5?$GA@ 100ba388     libgit2:repository.obj
 0002:0000b3fc       ??_C@_0CP@LPNFDAHB@Failed?5to?5mark?5Git?5repository?5fo@ 100ba3fc     libgit2:repository.obj
 0002:0000b42c       ??_C@_0BB@OEENINAO@init?4templatedir?$AA@ 100ba42c     libgit2:repository.obj
 0002:0000b440       ??_C@_05GMJCPLDN@?1?4git?$AA@ 100ba440     libgit2:repository.obj
 0002:0000b448       ??_C@_05FPEDNBCP@?4git?1?$AA@ 100ba448     libgit2:repository.obj
 0002:0000b450       ??_C@_0FE@KEGCBCKM@Cannot?5pick?5working?5directory?5fo@ 100ba450     libgit2:repository.obj
 0002:0000b4a4       ??_C@_1DE@OPPNEJPG@?$AAo?$AAu?$AAt?$AA?5?$AA?$CG?$AA?$CG?$AA?5?$AAg?$AAi?$AAv?$AAe?$AAn?$AA_?$AAr?$AAe?$AAp?$AAo?$AA?5?$AA?$CG?$AA?$CG?$AA?5?$AAo?$AAp?$AAt?$AAs?$AA?$AA@ 100ba4a4     libgit2:repository.obj
 0002:0000b4d8       ??_C@_0BM@HAGHPOKM@git_repository_init_options?$AA@ 100ba4d8     libgit2:repository.obj
 0002:0000b4f4       ??_C@_0BN@NDHHBKKI@Attempt?5to?5reinitialize?5?8?$CFs?8?$AA@ 100ba4f4     libgit2:repository.obj
 0002:0000b514       ??_C@_0BC@FBMONCOB@refs?1heads?1master?$AA@ 100ba514     libgit2:repository.obj
 0002:0000b528       ??_C@_1CA@FKNDLBMJ@?$AAr?$AAe?$AAp?$AAo?$AA?5?$AA?$CG?$AA?$CG?$AA?5?$AAw?$AAo?$AAr?$AAk?$AAd?$AAi?$AAr?$AA?$AA@ 100ba528     libgit2:repository.obj
 0002:0000b548       ??_C@_09EEMCFMDG@ORIG_HEAD?$AA@ 100ba548     libgit2:repository.obj
 0002:0000b554       ??_C@_05EHKCKGF@?$CF?4?$CKs?6?$AA@ 100ba554     libgit2:repository.obj
 0002:0000b55c       ??_C@_09CIPBOIJD@MERGE_MSG?$AA@ 100ba55c     libgit2:repository.obj
 0002:0000b568       ??_C@_0BO@HOCALGIH@Could?5not?5access?5message?5file?$AA@ 100ba568     libgit2:repository.obj
 0002:0000b588       ??_C@_1CI@LHGOIDMP@?$AAo?$AAu?$AAt?$AA?5?$AA?$CG?$AA?$CG?$AA?5?$AAp?$AAa?$AAt?$AAh?$AA?5?$AA?$CG?$AA?$CG?$AA?5?$AAr?$AAe?$AAp?$AAo?$AA?$AA@ 100ba588     libgit2:repository.obj
 0002:0000b5b0       ??_C@_0CG@PDFHNODB@File?5size?5overflow?5for?532?9bit?5sy@ 100ba5b0     libgit2:repository.obj
 0002:0000b5d8       ??_C@_0BH@GNBNGJA@checkout?3?5moving?5from?5?$AA@ 100ba5d8     libgit2:repository.obj
 0002:0000b5f0       ??_C@_04MKEOLIJC@?5to?5?$AA@ 100ba5f0     libgit2:repository.obj
 0002:0000b5f8       ??_C@_1CA@FDFIINH@?$AAr?$AAe?$AAp?$AAo?$AA?5?$AA?$CG?$AA?$CG?$AA?5?$AAr?$AAe?$AAf?$AAn?$AAa?$AAm?$AAe?$AA?$AA@ 100ba5f8     libgit2:repository.obj
 0002:0000b618       ??_C@_1BG@PCAPALOK@?$AAr?$AAe?$AAp?$AAo?$AA?5?$AA?$CG?$AA?$CG?$AA?5?$AAi?$AAd?$AA?$AA@ 100ba618     libgit2:repository.obj
 0002:0000b630       ??_C@_1CE@MOFMMPLL@?$AAr?$AAe?$AAp?$AAo?$AA?5?$AA?$CG?$AA?$CG?$AA?5?$AAc?$AAo?$AAm?$AAm?$AAi?$AAt?$AAi?$AAs?$AAh?$AA?$AA@ 100ba630     libgit2:repository.obj
 0002:0000b654       ??_C@_0BJ@IDCKDLAF@rebase?9merge?1interactive?$AA@ 100ba654     libgit2:repository.obj
 0002:0000b670       ??_C@_0O@MBOIFAHK@rebase?9merge?1?$AA@ 100ba670     libgit2:repository.obj
 0002:0000b680       ??_C@_0BG@CLJHHNKE@rebase?9apply?1rebasing?$AA@ 100ba680     libgit2:repository.obj
 0002:0000b698       ??_C@_0BG@IMOOLKMH@rebase?9apply?1applying?$AA@ 100ba698     libgit2:repository.obj
 0002:0000b6b0       ??_C@_0O@ONKOCHFD@rebase?9apply?1?$AA@ 100ba6b0     libgit2:repository.obj
 0002:0000b6c0       ??_C@_0L@EECEECJG@MERGE_HEAD?$AA@ 100ba6c0     libgit2:repository.obj
 0002:0000b6cc       ??_C@_0M@MPDPKNKF@REVERT_HEAD?$AA@ 100ba6cc     libgit2:repository.obj
 0002:0000b6d8       ??_C@_0P@LABBCAEE@sequencer?1todo?$AA@ 100ba6d8     libgit2:repository.obj
 0002:0000b6e8       ??_C@_0BB@IPBNODMO@CHERRY_PICK_HEAD?$AA@ 100ba6e8     libgit2:repository.obj
 0002:0000b6fc       ??_C@_0L@BPNCPKMI@BISECT_LOG?$AA@ 100ba6fc     libgit2:repository.obj
 0002:0000b708       ??_C@_0L@PMKJNOCI@MERGE_MODE?$AA@ 100ba708     libgit2:repository.obj
 0002:0000b714       ??_C@_0L@LLGNHOCA@sequencer?1?$AA@ 100ba714     libgit2:repository.obj
 0002:0000b720       ??_C@_07MNDENJED@shallow?$AA@ 100ba720     libgit2:repository.obj
 0002:0000b728       ??_C@_1DG@JDPBAINM@?$AA?4?$AA?4?$AA?2?$AAd?$AAe?$AAp?$AAs?$AA?2?$AAl?$AAi?$AAb?$AAg?$AAi?$AAt?$AA2?$AA?2?$AAs?$AAr?$AAc?$AA?2?$AAr?$AAe?$AAf?$AAs?$AA?4?$AAc?$AA?$AA@ 100ba728     libgit2:refs.obj
 0002:0000b760       ??_C@_1BO@IIKCFONC@?$AAn?$AAa?$AAm?$AAe?$AA?5?$AA?$CG?$AA?$CG?$AA?5?$AAt?$AAa?$AAr?$AAg?$AAe?$AAt?$AA?$AA@ 100ba760     libgit2:refs.obj
 0002:0000b780       ??_C@_1BI@CBCFGMDH@?$AAn?$AAa?$AAm?$AAe?$AA?5?$AA?$CG?$AA?$CG?$AA?5?$AAo?$AAi?$AAd?$AA?$AA@ 100ba780     libgit2:refs.obj
 0002:0000b798       ??_C@_1DA@JLOBAOMK@?$AAr?$AAe?$AAf?$AA_?$AAo?$AAu?$AAt?$AA?5?$AA?$CG?$AA?$CG?$AA?5?$AAr?$AAe?$AAp?$AAo?$AA?5?$AA?$CG?$AA?$CG?$AA?5?$AAn?$AAa?$AAm?$AAe?$AA?$AA@ 100ba798     libgit2:refs.obj
 0002:0000b7c8       ??_C@_0CL@BONMKJJN@Cannot?5resolve?5reference?5?$CI?$DO?$CFu?5le@ 100ba7c8     libgit2:refs.obj
 0002:0000b7f4       ??_C@_07PDMLCDH@refs?1?$CFs?$AA@ 100ba7f4     libgit2:refs.obj
 0002:0000b7fc       ??_C@_0N@OBICIKI@refs?1tags?1?$CFs?$AA@ 100ba7fc     libgit2:refs.obj
 0002:0000b80c       ??_C@_0O@JFMDDBON@refs?1heads?1?$CFs?$AA@ 100ba80c     libgit2:refs.obj
 0002:0000b81c       ??_C@_0BA@CKHBFIJO@refs?1remotes?1?$CFs?$AA@ 100ba81c     libgit2:refs.obj
 0002:0000b82c       ??_C@_0BF@INCJBBOB@refs?1remotes?1?$CFs?1HEAD?$AA@ 100ba82c     libgit2:refs.obj
 0002:0000b844       ??_C@_0CL@KOKPBKFB@Could?5not?5use?5?8?$CFs?8?5as?5valid?5refe@ 100ba844     libgit2:refs.obj
 0002:0000b870       ??_C@_0CG@FFBIDJIH@no?5reference?5found?5for?5shorthand@ 100ba870     libgit2:refs.obj
 0002:0000b898       ??_C@_17DCNMIAEN@?$AAr?$AAe?$AAf?$AA?$AA@ 100ba898     libgit2:refs.obj
 0002:0000b8a0       ??_C@_1CM@DOECGLKB@?$AAs?$AAy?$AAm?$AAb?$AAo?$AAl?$AAi?$AAc?$AA?5?$AA?$HM?$AA?$HM?$AA?5?$AAs?$AAi?$AAg?$AAn?$AAa?$AAt?$AAu?$AAr?$AAe?$AA?$AA@ 100ba8a0     libgit2:refs.obj
 0002:0000b8cc       ??_C@_1CC@GDHKCKLC@?$AAs?$AAy?$AAm?$AAb?$AAo?$AAl?$AAi?$AAc?$AA?5?$AA?$DN?$AA?$DN?$AA?5?$AAN?$AAU?$AAL?$AAL?$AA?$AA@ 100ba8cc     libgit2:refs.obj
 0002:0000b8f0       ??_C@_0DN@FAFIIDDN@Target?5OID?5for?5the?5reference?5doe@ 100ba8f0     libgit2:refs.obj
 0002:0000b930       ??_C@_07CIFAGBMG@unknown?$AA@ 100ba930     libgit2:refs.obj
 0002:0000b938       ??_C@_15NFICGAJK@?$AAi?$AAd?$AA?$AA@ 100ba938     libgit2:refs.obj
 0002:0000b940       ??_C@_1O@PKIGMPCE@?$AAt?$AAa?$AAr?$AAg?$AAe?$AAt?$AA?$AA@ 100ba940     libgit2:refs.obj
 0002:0000b950       ??_C@_0CF@FJFBHAKJ@Cannot?5set?5OID?5on?5symbolic?5refer@ 100ba950     libgit2:refs.obj
 0002:0000b978       ??_C@_1CC@PPLBGOPC@?$AAo?$AAu?$AAt?$AA?5?$AA?$CG?$AA?$CG?$AA?5?$AAr?$AAe?$AAf?$AA?5?$AA?$CG?$AA?$CG?$AA?5?$AAi?$AAd?$AA?$AA@ 100ba978     libgit2:refs.obj
 0002:0000b99c       ??_C@_0DB@PGIDBP@Cannot?5set?5symbolic?5target?5on?5a?5@ 100ba99c     libgit2:refs.obj
 0002:0000b9d0       ??_C@_1CK@KACIENNB@?$AAo?$AAu?$AAt?$AA?5?$AA?$CG?$AA?$CG?$AA?5?$AAr?$AAe?$AAf?$AA?5?$AA?$CG?$AA?$CG?$AA?5?$AAt?$AAa?$AAr?$AAg?$AAe?$AAt?$AA?$AA@ 100ba9d0     libgit2:refs.obj
 0002:0000b9fc       ??_C@_1DK@EEECBIJA@?$AAr?$AAe?$AAf?$AA?5?$AA?$CG?$AA?$CG?$AA?5?$AAn?$AAe?$AAw?$AA_?$AAn?$AAa?$AAm?$AAe?$AA?5?$AA?$CG?$AA?$CG?$AA?5?$AAs?$AAi?$AAg?$AAn?$AAa?$AAt?$AAu?$AAr?$AAe?$AA?$AA@ 100ba9fc     libgit2:refs.obj
 0002:0000ba38       ??_C@_0CP@LOLCJJMK@Failed?5to?5update?5HEAD?5after?5rena@ 100baa38     libgit2:refs.obj
 0002:0000ba68       ??_C@_0BC@KIIHMACP@Invalid?5reference?$AA@ 100baa68     libgit2:refs.obj
 0002:0000ba7c       ??_C@_0BG@PHHLFMDL@git_reference_foreach?$AA@ 100baa7c     libgit2:refs.obj
 0002:0000ba94       ??_C@_0BL@FELGONLP@git_reference_foreach_name?$AA@ 100baa94     libgit2:refs.obj
 0002:0000bab0       ??_C@_0BL@OHAJBFLK@git_reference_foreach_glob?$AA@ 100baab0     libgit2:refs.obj
 0002:0000bacc       ??_C@_1BM@PLJPNBEK@?$AAa?$AAr?$AAr?$AAa?$AAy?$AA?5?$AA?$CG?$AA?$CG?$AA?5?$AAr?$AAe?$AAp?$AAo?$AA?$AA@ 100baacc     libgit2:refs.obj
 0002:0000bae8       ??_C@_06PEFEDBNB@?4lock?$AA?$AA@ 100baae8     libgit2:refs.obj
 0002:0000baf0       ??_C@_1CA@KJEJJMHC@?$AAn?$AAa?$AAm?$AAe?$AA?5?$AA?$CG?$AA?$CG?$AA?5?$AAl?$AAe?$AAn?$AA?5?$AA?$DO?$AA?5?$AA0?$AA?$AA@ 100baaf0     libgit2:refs.obj
 0002:0000bb10       ??_C@_19HHIIBINK@?$AAn?$AAa?$AAm?$AAe?$AA?$AA@ 100bab10     libgit2:refs.obj
 0002:0000bb1c       ??_C@_01NBENCBCI@?$CK?$AA@ 100bab1c     libgit2:refs.obj
 0002:0000bb20       ??_C@_0CL@OIBJAJOJ@The?5given?5reference?5name?5?8?$CFs?8?5is@ 100bab20     libgit2:refs.obj
 0002:0000bb50       ??_C@_0ED@PDOPBLAF@The?5provided?5buffer?5is?5too?5short@ 100bab50     libgit2:refs.obj
 0002:0000bb94       ??_C@_1BK@OBBHDHDL@?$AAr?$AAe?$AAf?$AA1?$AA?5?$AA?$CG?$AA?$CG?$AA?5?$AAr?$AAe?$AAf?$AA2?$AA?$AA@ 100bab94     libgit2:refs.obj
 0002:0000bbb0       ??_C@_0BO@HPDCJPEI@Reference?5chain?5too?5deep?5?$CI?$CFd?$CJ?$AA@ 100babb0     libgit2:refs.obj
 0002:0000bbd0       ??_C@_1FI@BDOLPCK@?$AAg?$AAi?$AAt?$AA_?$AAr?$AAe?$AAf?$AAe?$AAr?$AAe?$AAn?$AAc?$AAe?$AA_?$AAt?$AAy?$AAp?$AAe?$AA?$CI?$AAr?$AAe?$AAf?$AA?$CJ?$AA?5?$AA?$DN?$AA?$DN?$AA?5?$AAG?$AAI?$AAT?$AA_?$AAR@ 100babd0     libgit2:refs.obj
 0002:0000bc28       ??_C@_1EO@HGBLDMME@?$AAg?$AAi?$AAt?$AA_?$AAr?$AAe?$AAf?$AAe?$AAr?$AAe?$AAn?$AAc?$AAe?$AA_?$AAt?$AAy?$AAp?$AAe?$AA?$CI?$AAr?$AAe?$AAf?$AA?$CJ?$AA?5?$AA?$DN?$AA?$DN?$AA?5?$AAG?$AAI?$AAT?$AA_?$AAR@ 100bac28     libgit2:refs.obj
 0002:0000bc78       ??_C@_0L@OHGBGJIC@?5?$CIinitial?$CJ?$AA@ 100bac78     libgit2:refs.obj
 0002:0000bc84       ??_C@_08JCELHCLN@?$CFs?$CFs?3?5?$CFs?$AA@ 100bac84     libgit2:refs.obj
 0002:0000bc90       ??_C@_0M@DOHDMCDB@refs?1notes?1?$AA@ 100bac90     libgit2:refs.obj
 0002:0000bc9c       ??_C@_0CJ@EEHFBNCF@The?5reference?5?8?$CFs?8?5cannot?5be?5pee@ 100bac9c     libgit2:refs.obj
 0002:0000bcc8       ??_C@_0BJ@LOFEPMBC@Cannot?5resolve?5reference?$AA@ 100bacc8     libgit2:refs.obj
 0002:0000bce4       ??_C@_0CB@LOPEFHPH@Cannot?5retrieve?5reference?5target@ 100bace4     libgit2:refs.obj
 0002:0000bd08       ??_C@_1DG@DFBBHLIF@?$AA?4?$AA?4?$AA?2?$AAd?$AAe?$AAp?$AAs?$AA?2?$AAl?$AAi?$AAb?$AAg?$AAi?$AAt?$AA2?$AA?2?$AAs?$AAr?$AAc?$AA?2?$AAu?$AAt?$AAi?$AAl?$AA?4?$AAc?$AA?$AA@ 100bad08     libgit2:util.obj
 0002:0000bd40       ??_C@_1BG@DLLPGEBF@?$AAt?$AAg?$AAt?$AA?5?$AA?$CG?$AA?$CG?$AA?5?$AAs?$AAr?$AAc?$AA?$AA@ 100bad40     libgit2:util.obj
 0002:0000bd58       ??_C@_0CP@LNNMFLEK@Failed?5to?5convert?5string?5to?5long@ 100bad58     libgit2:util.obj
 0002:0000bd88       ??_C@_0DB@HCJJCIEO@Failed?5to?5convert?5string?5to?5long@ 100bad88     libgit2:util.obj
 0002:0000bdbc       ??_C@_0CF@DPODFCK@Failed?5to?5convert?4?5?8?$CFs?8?5is?5too?5l@ 100badbc     libgit2:util.obj
 0002:0000bde4       ??_C@_01EEMJAFIK@?6?$AA@   100bade4     libgit2:util.obj
 0002:0000bde8       ??_C@_01GPOEFGEJ@?7?$AA@   100bade8     libgit2:util.obj
 0002:0000bdec       ??_C@_03ICICOMAL@yes?$AA@  100badec     libgit2:util.obj
 0002:0000bdf0       ??_C@_02LIELOMNJ@on?$AA@   100badf0     libgit2:util.obj
 0002:0000bdf4       ??_C@_05LAPONLG@false?$AA@ 100badf4     libgit2:util.obj
 0002:0000bdfc       ??_C@_02KAJCLHKP@no?$AA@   100badfc     libgit2:util.obj
 0002:0000be00       ??_C@_03MCADLMAF@off?$AA@  100bae00     libgit2:util.obj
 0002:0000be04       ??_C@_0CJ@HCKGMAPP@could?5not?5read?5environment?5varia@ 100bae04     libgit2:util.obj
 0002:0000be30       ??_C@_0BD@KBIFNJHD@git_status_options?$AA@ 100bae30     libgit2:status.obj
 0002:0000be44       ??_C@_0BN@LPMOPHEG@Unknown?5status?5?8show?8?5option?$AA@ 100bae44     libgit2:status.obj
 0002:0000be68       ??_C@_0EJ@FJPFOCLK@Updating?5index?5from?5status?5is?5no@ 100bae68     libgit2:status.obj
 0002:0000beb4       ??_C@_06DJIHEMFI@status?$AA@ 100baeb4     libgit2:status.obj
 0002:0000bebc       ??_C@_1DK@JJACGPAF@?$AA?4?$AA?4?$AA?2?$AAd?$AAe?$AAp?$AAs?$AA?2?$AAl?$AAi?$AAb?$AAg?$AAi?$AAt?$AA2?$AA?2?$AAs?$AAr?$AAc?$AA?2?$AAs?$AAt?$AAa?$AAt?$AAu?$AAs?$AA?4?$AAc?$AA?$AA@ 100baebc     libgit2:status.obj
 0002:0000bef8       ??_C@_1O@KLFMMJAJ@?$AAs?$AAt?$AAa?$AAt?$AAu?$AAs?$AA?$AA@ 100baef8     libgit2:status.obj
 0002:0000bf08       ??_C@_0BH@ONDMCMOJ@git_status_foreach_ext?$AA@ 100baf08     libgit2:status.obj
 0002:0000bf20       ??_C@_1DK@FFKAPLPE@?$AAs?$AAt?$AAa?$AAt?$AAu?$AAs?$AA_?$AAf?$AAl?$AAa?$AAg?$AAs?$AA?5?$AA?$CG?$AA?$CG?$AA?5?$AAr?$AAe?$AAp?$AAo?$AA?5?$AA?$CG?$AA?$CG?$AA?5?$AAp?$AAa?$AAt?$AAh?$AA?$AA@ 100baf20     libgit2:status.obj
 0002:0000bf5c       ??_C@_0CN@MCBHGAOB@Ambiguous?5path?5?8?$CFs?8?5given?5to?5git@ 100baf5c     libgit2:status.obj
 0002:0000bf8c       ??_C@_0CP@CJELMGON@Attempt?5to?5get?5status?5of?5nonexis@ 100baf8c     libgit2:status.obj
 0002:0000bfbc       ??_C@_1DI@BPAFGLDA@?$AA?4?$AA?4?$AA?2?$AAd?$AAe?$AAp?$AAs?$AA?2?$AAl?$AAi?$AAb?$AAg?$AAi?$AAt?$AA2?$AA?2?$AAs?$AAr?$AAc?$AA?2?$AAi?$AAn?$AAd?$AAe?$AAx?$AA?4?$AAc?$AA?$AA@ 100bafbc     libgit2:index.obj
 0002:0000bff4       ??_C@_1BE@OAFKLAGH@?$AAi?$AAn?$AAd?$AAe?$AAx?$AA_?$AAo?$AAu?$AAt?$AA?$AA@ 100baff4     libgit2:index.obj
 0002:0000c008       ??_C@_1EC@EMEBGIHN@?$AA?$CB?$AAg?$AAi?$AAt?$AA_?$AAa?$AAt?$AAo?$AAm?$AAi?$AAc?$AA_?$AAg?$AAe?$AAt?$AA?$CI?$AA?$CG?$AAi?$AAn?$AAd?$AAe?$AAx?$AA?9?$AA?$DO?$AAr?$AAe?$AAa?$AAd?$AAe?$AAr?$AAs?$AA?$CJ@ 100bb008     libgit2:index.obj
 0002:0000c04c       ??_C@_1M@FMOMODBB@?$AAi?$AAn?$AAd?$AAe?$AAx?$AA?$AA@ 100bb04c     libgit2:index.obj
 0002:0000c058       ??_C@_0CL@CNBMBKLC@Cannot?5access?5repository?5to?5set?5@ 100bb058     libgit2:index.obj
 0002:0000c084       ??_C@_0BO@CEGGPBIC@failed?5to?5seek?5to?5end?5of?5file?$AA@ 100bb084     libgit2:index.obj
 0002:0000c0a4       ??_C@_0DC@BPFFDJMJ@Failed?5to?5read?5index?3?5The?5index?5@ 100bb0a4     libgit2:index.obj
 0002:0000c0d8       ??_C@_0CM@JILCJDDP@Failed?5to?5read?5index?3?5?8?$CFs?8?5no?5lo@ 100bb0d8     libgit2:index.obj
 0002:0000c104       ??_C@_1BK@BLGOFLOJ@?$AAo?$AAi?$AAd?$AA?5?$AA?$CG?$AA?$CG?$AA?5?$AAi?$AAn?$AAd?$AAe?$AAx?$AA?$AA@ 100bb104     libgit2:index.obj
 0002:0000c120       ??_C@_0FA@NBKFGBAH@Failed?5to?5write?5tree?4?5The?5index?5@ 100bb120     libgit2:index.obj
 0002:0000c170       ??_C@_0BK@BENCPLEM@Index?5does?5not?5contain?5?$CFs?$AA@ 100bb170     libgit2:index.obj
 0002:0000c18c       ??_C@_0BD@MEMKFKKP@invalid?5path?3?5?8?$CFs?8?$AA@ 100bb18c     libgit2:index.obj
 0002:0000c1a0       ??_C@_0FE@GIJCFIDF@Could?5not?5initialize?5index?5entry@ 100bb1a0     libgit2:index.obj
 0002:0000c1f4       ??_C@_1CC@JEKMBEBM@?$AAr?$AAe?$AAu?$AAc?$AA_?$AAo?$AAu?$AAt?$AA?5?$AA?$CG?$AA?$CG?$AA?5?$AAp?$AAa?$AAt?$AAh?$AA?$AA@ 100bb1f4     libgit2:index.obj
 0002:0000c218       ??_C@_1BK@NJPGKFLL@?$AAa?$AAn?$AAc?$AAe?$AAs?$AAt?$AAo?$AAr?$AA_?$AAo?$AAi?$AAd?$AA?$AA@ 100bb218     libgit2:index.obj
 0002:0000c234       ??_C@_1BA@NIDJMNEA@?$AAo?$AAu?$AAr?$AA_?$AAo?$AAi?$AAd?$AA?$AA@ 100bb234     libgit2:index.obj
 0002:0000c244       ??_C@_1BE@PCBGNMMI@?$AAt?$AAh?$AAe?$AAi?$AAr?$AA_?$AAo?$AAi?$AAd?$AA?$AA@ 100bb244     libgit2:index.obj
 0002:0000c258       ??_C@_0CM@CJLIHNJM@?8?$CFs?8?5appears?5as?5both?5a?5file?5and?5@ 100bb258     libgit2:index.obj
 0002:0000c284       ??_C@_0CI@FAGIINCI@?8?$CFs?8?5appears?5multiple?5times?5at?5s@ 100bb284     libgit2:index.obj
 0002:0000c2ac       ??_C@_1CG@ECLJNDLD@?$AAi?$AAn?$AAd?$AAe?$AAx?$AA?5?$AA?$CG?$AA?$CG?$AA?5?$AAe?$AAn?$AAt?$AAr?$AAy?$AA_?$AAp?$AAt?$AAr?$AA?$AA@ 100bb2ac     libgit2:index.obj
 0002:0000c2d4       ??_C@_1DI@PGEAIELI@?$AAi?$AAn?$AAd?$AAe?$AAx?$AA?5?$AA?$CG?$AA?$CG?$AA?5?$AAs?$AAo?$AAu?$AAr?$AAc?$AAe?$AA_?$AAe?$AAn?$AAt?$AAr?$AAy?$AA?9?$AA?$DO?$AAp?$AAa?$AAt?$AAh?$AA?$AA@ 100bb2d4     libgit2:index.obj
 0002:0000c30c       ??_C@_0BB@CHFHEGJL@invalid?5filemode?$AA@ 100bb30c     libgit2:index.obj
 0002:0000c320       ??_C@_0BO@IGOCGKK@failed?5to?5stat?5repository?5dir?$AA@ 100bb320     libgit2:index.obj
 0002:0000c340       ??_C@_1BM@FDLGPIPL@?$AAi?$AAn?$AAd?$AAe?$AAx?$AA?5?$AA?$CG?$AA?$CG?$AA?5?$AAp?$AAa?$AAt?$AAh?$AA?$AA@ 100bb340     libgit2:index.obj
 0002:0000c360       ??_C@_1FI@GDELMBCP@?$AAi?$AAn?$AAd?$AAe?$AAx?$AA?5?$AA?$CG?$AA?$CG?$AA?5?$AAs?$AAo?$AAu?$AAr?$AAc?$AAe?$AA_?$AAe?$AAn?$AAt?$AAr?$AAy?$AA?5?$AA?$CG?$AA?$CG?$AA?5?$AAs?$AAo?$AAu?$AAr?$AAc?$AAe?$AA_@ 100bb360     libgit2:index.obj
 0002:0000c3b8       ??_C@_0CG@CDJPHKAB@Index?5does?5not?5contain?5?$CFs?5at?5sta@ 100bb3b8     libgit2:index.obj
 0002:0000c3e0       ??_C@_0CE@CILOECEP@invalid?5filemode?5for?5stage?5?$CFd?5en@ 100bb3e0     libgit2:index.obj
 0002:0000c408       ??_C@_1FM@LJMLFOI@?$AAa?$AAn?$AAc?$AAe?$AAs?$AAt?$AAo?$AAr?$AA_?$AAo?$AAu?$AAt?$AA?5?$AA?$CG?$AA?$CG?$AA?5?$AAo?$AAu?$AAr?$AA_?$AAo?$AAu?$AAt?$AA?5?$AA?$CG?$AA?$CG?$AA?5?$AAt?$AAh?$AAe?$AAi?$AAr@ 100bb408     libgit2:index.obj
 0002:0000c468       ??_C@_1GM@DPKDBKGE@?$AAa?$AAn?$AAc?$AAe?$AAs?$AAt?$AAo?$AAr?$AA_?$AAo?$AAu?$AAt?$AA?5?$AA?$CG?$AA?$CG?$AA?5?$AAo?$AAu?$AAr?$AA_?$AAo?$AAu?$AAt?$AA?5?$AA?$CG?$AA?$CG?$AA?5?$AAt?$AAh?$AAe?$AAi?$AAr@ 100bb468     libgit2:index.obj
 0002:0000c4d4       ??_C@_1CM@LMDOBGCG@?$AAi?$AAt?$AAe?$AAr?$AAa?$AAt?$AAo?$AAr?$AA_?$AAo?$AAu?$AAt?$AA?5?$AA?$CG?$AA?$CG?$AA?5?$AAi?$AAn?$AAd?$AAe?$AAx?$AA?$AA@ 100bb4d4     libgit2:index.obj
 0002:0000c500       ??_C@_1GC@OFNNCOBB@?$AAa?$AAn?$AAc?$AAe?$AAs?$AAt?$AAo?$AAr?$AA_?$AAo?$AAu?$AAt?$AA?5?$AA?$CG?$AA?$CG?$AA?5?$AAo?$AAu?$AAr?$AA_?$AAo?$AAu?$AAt?$AA?5?$AA?$CG?$AA?$CG?$AA?5?$AAt?$AAh?$AAe?$AAi?$AAr@ 100bb500     libgit2:index.obj
 0002:0000c568       ??_C@_1HO@KJBBNHDF@?$AA?$CI?$AAa?$AAn?$AAc?$AAe?$AAs?$AAt?$AAo?$AAr?$AA?5?$AA?$CG?$AA?$CG?$AA?5?$AAo?$AAu?$AAr?$AAs?$AA?$CJ?$AA?5?$AA?$HM?$AA?$HM?$AA?5?$AA?$CI?$AAa?$AAn?$AAc?$AAe?$AAs?$AAt?$AAo?$AAr?$AA?5@ 100bb568     libgit2:index.obj
 0002:0000c5e8       ??_C@_1EI@MMHCJGOD@?$AAi?$AAn?$AAd?$AAe?$AAx?$AA?5?$AA?$CG?$AA?$CG?$AA?5?$AAr?$AAe?$AAu?$AAc?$AA?5?$AA?$CG?$AA?$CG?$AA?5?$AAr?$AAe?$AAu?$AAc?$AA?9?$AA?$DO?$AAp?$AAa?$AAt?$AAh?$AA?5?$AA?$CB?$AA?$DN?$AA?5?$AAN@ 100bb5e8     libgit2:index.obj
 0002:0000c630       ??_C@_1EG@CLGNFLNH@?$AAg?$AAi?$AAt?$AA_?$AAv?$AAe?$AAc?$AAt?$AAo?$AAr?$AA_?$AAi?$AAs?$AA_?$AAs?$AAo?$AAr?$AAt?$AAe?$AAd?$AA?$CI?$AA?$CG?$AAi?$AAn?$AAd?$AAe?$AAx?$AA?9?$AA?$DO?$AAr?$AAe?$AAu@ 100bb630     libgit2:index.obj
 0002:0000c678       ??_C@_0BL@GBABOHKK@Invalid?5data?5in?5index?5?9?5?$CFs?$AA@ 100bb678     libgit2:index.obj
 0002:0000c694       ??_C@_0BF@DILEBBPM@reading?5reuc?5entries?$AA@ 100bb694     libgit2:index.obj
 0002:0000c6ac       ??_C@_0BJ@MJKNEMKB@reading?5reuc?5entry?5stage?$AA@ 100bb6ac     libgit2:index.obj
 0002:0000c6c8       ??_C@_0BH@BNCENFHO@reading?5reuc?5entry?5oid?$AA@ 100bb6c8     libgit2:index.obj
 0002:0000c6e0       ??_C@_0BO@PIJNDJGC@reading?5conflict?5name?5entries?$AA@ 100bb6e0     libgit2:index.obj
 0002:0000c700       ??_C@_0BL@CKKHLDBF@incorrect?5header?5signature?$AA@ 100bb700     libgit2:index.obj
 0002:0000c71c       ??_C@_0BJ@MJABGAKI@incorrect?5header?5version?$AA@ 100bb71c     libgit2:index.obj
 0002:0000c738       ??_C@_0BK@NJKDFCFA@insufficient?5buffer?5space?$AA@ 100bb738     libgit2:index.obj
 0002:0000c754       ??_C@_0BO@GAOCKAKJ@ran?5out?5of?5data?5while?5parsing?$AA@ 100bb754     libgit2:index.obj
 0002:0000c774       ??_C@_1CO@CLOCDIJK@?$AA?$CB?$AAi?$AAn?$AAd?$AAe?$AAx?$AA?9?$AA?$DO?$AAe?$AAn?$AAt?$AAr?$AAi?$AAe?$AAs?$AA?4?$AAl?$AAe?$AAn?$AAg?$AAt?$AAh?$AA?$AA@ 100bb774     libgit2:index.obj
 0002:0000c7a4       ??_C@_0O@DBBOBHAA@invalid?5entry?$AA@ 100bb7a4     libgit2:index.obj
 0002:0000c7b4       ??_C@_0CF@EOEAHBCO@header?5entries?5changed?5while?5par@ 100bb7b4     libgit2:index.obj
 0002:0000c7dc       ??_C@_0BH@KFEMAGPP@extension?5is?5truncated?$AA@ 100bb7dc     libgit2:index.obj
 0002:0000c7f4       ??_C@_0CN@CJMGEKCK@buffer?5size?5does?5not?5match?5index@ 100bb7f4     libgit2:index.obj
 0002:0000c824       ??_C@_0CM@OBGBOAJA@calculated?5checksum?5does?5not?5mat@ 100bb824     libgit2:index.obj
 0002:0000c850       ??_C@_01LOCGONAA@?$AA?$AA@ 100bb850     libgit2:index.obj
 0002:0000c854       ??_C@_02NMFNNFIO@?$CFo?$AA@ 100bb854     libgit2:index.obj
 0002:0000c858       ??_C@_1BM@LHAMEKMK@?$AAi?$AAn?$AAd?$AAe?$AAx?$AA?5?$AA?$CG?$AA?$CG?$AA?5?$AAf?$AAi?$AAl?$AAe?$AA?$AA@ 100bb858     libgit2:index.obj
 0002:0000c874       ??_C@_0CA@COKBDJOJ@failed?5to?5insert?5entry?5into?5map?$AA@ 100bb874     libgit2:index.obj
 0002:0000c894       ??_C@_0O@KPGBCGGP@index?5add?5all?$AA@ 100bb894     libgit2:index.obj
 0002:0000c8a4       ??_C@_0BC@IIKJCCCJ@git_index_add_all?$AA@ 100bb8a4     libgit2:index.obj
 0002:0000c8b8       ??_C@_1HO@NJCFNDMB@?$AAa?$AAc?$AAt?$AAi?$AAo?$AAn?$AA?5?$AA?$DN?$AA?$DN?$AA?5?$AAI?$AAN?$AAD?$AAE?$AAX?$AA_?$AAA?$AAC?$AAT?$AAI?$AAO?$AAN?$AA_?$AAU?$AAP?$AAD?$AAA?$AAT?$AAE?$AA?5?$AA?$HM?$AA?$HM@ 100bb8b8     libgit2:index.obj
 0002:0000c938       ??_C@_0DP@DOFJPNFA@cannot?5run?5update?$DL?5the?5index?5is?5@ 100bb938     libgit2:index.obj
 0002:0000c978       ??_C@_0BH@LEEPCCHK@index_apply_to_wd_diff?$AA@ 100bb978     libgit2:index.obj
 0002:0000c990       ??_C@_0BF@KGHELLAO@git_index_remove_all?$AA@ 100bb990     libgit2:index.obj
 0002:0000c9a8       ??_C@_0BF@GAHOFBGB@git_index_update_all?$AA@ 100bb9a8     libgit2:index.obj
 0002:0000c9c0       ??_C@_0DD@BGKDPDKA@Failed?5to?5write?5index?3?5The?5index@ 100bb9c0     libgit2:index.obj
 0002:0000c9f8       ??_C@_0EK@IBPOGPPA@The?5index?5is?5locked?4?5This?5might?5@ 100bb9f8     libgit2:index.obj
 0002:0000ca44       ??_C@_0BP@JKCKMLPO@Could?5not?5read?5index?5timestamp?$AA@ 100bba44     libgit2:index.obj
 0002:0000ca64       ??_C@_09IOJBEJGK@git_patch?$AA@ 100bba64     libgit2:diff_patch.obj
 0002:0000ca70       ??_C@_0BO@BEPAAPNJ@Must?5provide?5valid?5diff?5to?5?$CFs?$AA@ 100bba70     libgit2:diff_patch.obj
 0002:0000ca90       ??_C@_0BB@NGENODDH@git_diff_foreach?$AA@ 100bba90     libgit2:diff_patch.obj
 0002:0000caa4       ??_C@_04DAMGJPCA@file?$AA@ 100bbaa4     libgit2:diff_patch.obj
 0002:0000cab0       ??_C@_1EC@PIIIBLKB@?$AA?4?$AA?4?$AA?2?$AAd?$AAe?$AAp?$AAs?$AA?2?$AAl?$AAi?$AAb?$AAg?$AAi?$AAt?$AA2?$AA?2?$AAs?$AAr?$AAc?$AA?2?$AAd?$AAi?$AAf?$AAf?$AA_?$AAp?$AAa?$AAt?$AAc?$AAh?$AA?4?$AAc@ 100bbab0     libgit2:diff_patch.obj
 0002:0000caf4       ??_C@_0BE@CNAOIFAE@git_patch_from_diff?$AA@ 100bbaf4     libgit2:diff_patch.obj
 0002:0000cb08       ??_C@_0CF@KHBIGHKJ@Index?5out?5of?5range?5for?5delta?5in?5@ 100bbb08     libgit2:diff_patch.obj
 0002:0000cb30       ??_C@_1M@MGKNOKFI@?$AAp?$AAa?$AAt?$AAc?$AAh?$AA?$AA@ 100bbb30     libgit2:diff_patch.obj
 0002:0000cb3c       ??_C@_0CB@LDFFKIGE@Diff?5patch?5?$CFs?5index?5out?5of?5range@ 100bbb3c     libgit2:diff_patch.obj
 0002:0000cb60       ??_C@_04IDODAIG@hunk?$AA@  100bbb60     libgit2:diff_patch.obj
 0002:0000cb68       ??_C@_19OECMFCNB@?$AAh?$AAu?$AAn?$AAk?$AA?$AA@ 100bbb68     libgit2:diff_patch.obj
 0002:0000cb74       ??_C@_0BH@HPIJPDNE@error?5matching?5pattern?$AA@ 100bbb74     libgit2:ignore.obj
 0002:0000cb8c       ??_C@_0M@NAODFFCF@?1?4gitignore?$AA@ 100bbb8c     libgit2:ignore.obj
 0002:0000cb98       ??_C@_0L@KKBEGGCP@?4gitignore?$AA@ 100bbb98     libgit2:ignore.obj
 0002:0000cba4       ??_C@_0BC@CCBPJPLF@?$FLinternal?$FNexclude?$AA@ 100bbba4     libgit2:ignore.obj
 0002:0000cbb8       ??_C@_0L@KMICFDIE@?4?6?4?4?6?4git?6?$AA@ 100bbbb8     libgit2:ignore.obj
 0002:0000cbc4       ??_C@_1DK@BJNNKCCP@?$AA?4?$AA?4?$AA?2?$AAd?$AAe?$AAp?$AAs?$AA?2?$AAl?$AAi?$AAb?$AAg?$AAi?$AAt?$AA2?$AA?2?$AAs?$AAr?$AAc?$AA?2?$AAi?$AAg?$AAn?$AAo?$AAr?$AAe?$AA?4?$AAc?$AA?$AA@ 100bbbc4     libgit2:ignore.obj
 0002:0000cc00       ??_C@_1CA@MFNOEJJD@?$AAi?$AAg?$AAn?$AAo?$AAr?$AAe?$AAs?$AA?5?$AA?$CG?$AA?$CG?$AA?5?$AAp?$AAa?$AAt?$AAh?$AA?$AA@ 100bbc00     libgit2:ignore.obj
 0002:0000cc20       ??_C@_1CI@NPGDEJM@?$AAi?$AAg?$AAn?$AAo?$AAr?$AAe?$AAd?$AA?5?$AA?$CG?$AA?$CG?$AA?5?$AAp?$AAa?$AAt?$AAh?$AAn?$AAa?$AAm?$AAe?$AA?$AA@ 100bbc20     libgit2:ignore.obj
 0002:0000cc48       ??_C@_0BC@MLPJBJOK@validate?5pathspec?$AA@ 100bbc48     libgit2:ignore.obj
 0002:0000cc5c       ??_C@_0CE@KLNBMGFG@pathspec?5contains?5ignored?5file?5?8@ 100bbc5c     libgit2:ignore.obj
 0002:0000cc80       ??_C@_01KICIPPFI@?2?$AA@   100bbc80     libgit2:config.obj
 0002:0000cc84       ??_C@_0P@GNACIDNH@?$FO?4?$FL?$FN$?$CI?$CJ?$HM?$CK?$CL?$DP?$HL?$HN?2?$AA@ 100bbc84     libgit2:config.obj
 0002:0000cc94       ??_C@_1DK@HIIJLPBM@?$AA?4?$AA?4?$AA?2?$AAd?$AAe?$AAp?$AAs?$AA?2?$AAl?$AAi?$AAb?$AAg?$AAi?$AAt?$AA2?$AA?2?$AAs?$AAr?$AAc?$AA?2?$AAc?$AAo?$AAn?$AAf?$AAi?$AAg?$AA?4?$AAc?$AA?$AA@ 100bbc94     libgit2:config.obj
 0002:0000ccd0       ??_C@_1BI@JCBMNCIL@?$AAc?$AAf?$AAg?$AA?5?$AA?$CG?$AA?$CG?$AA?5?$AAp?$AAa?$AAt?$AAh?$AA?$AA@ 100bbcd0     libgit2:config.obj
 0002:0000cce8       ??_C@_0CA@ICHDFOLN@Error?5stat?8ing?5config?5file?5?8?$CFs?8?$AA@ 100bbce8     libgit2:config.obj
 0002:0000cd08       ??_C@_0CP@MEIFNHCC@No?5config?5file?5exists?5for?5the?5gi@ 100bbd08     libgit2:config.obj
 0002:0000cd38       ??_C@_0EF@OAEJHNEM@A?5file?5with?5the?5same?5level?5?$CI?$CFi?$CJ?5@ 100bbd38     libgit2:config.obj
 0002:0000cd80       ??_C@_1BI@HGKGGALK@?$AAc?$AAf?$AAg?$AA?5?$AA?$CG?$AA?$CG?$AA?5?$AAf?$AAi?$AAl?$AAe?$AA?$AA@ 100bbd80     libgit2:config.obj
 0002:0000cd98       ??_C@_0BD@NFBGBHGP@git_config_backend?$AA@ 100bbd98     libgit2:config.obj
 0002:0000cdac       ??_C@_0CB@HOOHEPOJ@git_config_backend_foreach_match@ 100bbdac     libgit2:config.obj
 0002:0000cdd0       ??_C@_0BJ@JKJFCKOD@git_config_foreach_match?$AA@ 100bbdd0     libgit2:config.obj
 0002:0000cdec       ??_C@_0DF@JCJNBDNO@Cannot?5set?5value?5for?5?8?$CFs?8?5when?5n@ 100bbdec     libgit2:config.obj
 0002:0000ce24       ??_C@_04BFAHMMK@?$CFlld?$AA@ 100bbe24     libgit2:config.obj
 0002:0000ce2c       ??_C@_0CA@LNAOBCFE@The?5value?5to?5set?5cannot?5be?5NULL?$AA@ 100bbe2c     libgit2:config.obj
 0002:0000ce4c       ??_C@_0CA@CKGMIKPD@Config?5value?5?8?$CFs?8?5was?5not?5found?$AA@ 100bbe4c     libgit2:config.obj
 0002:0000ce6c       ??_C@_0CK@LGEIPMGF@get_string?5called?5on?5a?5live?5conf@ 100bbe6c     libgit2:config.obj
 0002:0000ce98       ??_C@_0CA@LOFAKHMF@git_config_get_multivar_foreach?$AA@ 100bbe98     libgit2:config.obj
 0002:0000ceb8       ??_C@_0L@LNHKNKJF@?4gitconfig?$AA@ 100bbeb8     libgit2:config.obj
 0002:0000cec4       ??_C@_09OBJNKHNO@gitconfig?$AA@ 100bbec4     libgit2:config.obj
 0002:0000ced0       ??_C@_0CO@GOGIEDI@cannot?5lock?$DL?5the?5config?5has?5no?5b@ 100bbed0     libgit2:config.obj
 0002:0000cf00       ??_C@_0BD@LPNHJCDD@Failed?5to?5map?5?8?$CFs?8?$AA@ 100bbf00     libgit2:config.obj
 0002:0000cf14       ??_C@_0BD@FLOPLAIN@invalid?5enum?5value?$AA@ 100bbf14     libgit2:config.obj
 0002:0000cf28       ??_C@_0CI@DAJGOHGB@Failed?5to?5parse?5?8?$CFs?8?5as?5a?5boolea@ 100bbf28     libgit2:config.obj
 0002:0000cf50       ??_C@_06OJHGLDPL@?$CInull?$CJ?$AA@ 100bbf50     libgit2:config.obj
 0002:0000cf58       ??_C@_0CD@IIJMHMMG@Failed?5to?5parse?5?8?$CFs?8?5as?5an?5integ@ 100bbf58     libgit2:config.obj
 0002:0000cf7c       ??_C@_0CJ@KPMKMKGD@Failed?5to?5parse?5?8?$CFs?8?5as?5a?532?9bit@ 100bbf7c     libgit2:config.obj
 0002:0000cfa8       ??_C@_1BK@ILDOHDBI@?$AAo?$AAu?$AAt?$AA?5?$AA?$CG?$AA?$CG?$AA?5?$AAv?$AAa?$AAl?$AAu?$AAe?$AA?$AA@ 100bbfa8     libgit2:config.obj
 0002:0000cfc4       ??_C@_0CO@BDIBNLAL@retrieving?5a?5homedir?5by?5name?5is?5@ 100bbfc4     libgit2:config.obj
 0002:0000cff4       ??_C@_1BE@PFMFIPDH@?$AAi?$AAn?$AA?5?$AA?$CG?$AA?$CG?$AA?5?$AAo?$AAu?$AAt?$AA?$AA@ 100bbff4     libgit2:config.obj
 0002:0000d008       ??_C@_0BO@BOPDACDK@Invalid?5config?5item?5name?5?8?$CFs?8?$AA@ 100bc008     libgit2:config.obj
 0002:0000d028       ??_C@_04MAHAGEKG@?2?4?4?$CL?$AA@ 100bc028     libgit2:config.obj
 0002:0000d030       ??_C@_0BM@MGMODOJA@Invalid?5config?5section?5?8?$CFs?8?$AA@ 100bc030     libgit2:config.obj
 0002:0000d050       ??_C@_0FC@KKPFDDDG@At?5least?5two?5commits?5are?5require@ 100bc050     libgit2:merge.obj
 0002:0000d0a4       ??_C@_0BE@LFOIFPDF@No?5merge?5base?5found?$AA@ 100bc0a4     libgit2:merge.obj
 0002:0000d0b8       ??_C@_1DI@IEGCKAIB@?$AA?4?$AA?4?$AA?2?$AAd?$AAe?$AAp?$AAs?$AA?2?$AAl?$AAi?$AAb?$AAg?$AAi?$AAt?$AA2?$AA?2?$AAs?$AAr?$AAc?$AA?2?$AAm?$AAe?$AAr?$AAg?$AAe?$AA?4?$AAc?$AA?$AA@ 100bc0b8     libgit2:merge.obj
 0002:0000d0f0       ??_C@_1DG@GOLGKJPE@?$AAo?$AAu?$AAt?$AA?5?$AA?$CG?$AA?$CG?$AA?5?$AAr?$AAe?$AAp?$AAo?$AA?5?$AA?$CG?$AA?$CG?$AA?5?$AAi?$AAn?$AAp?$AAu?$AAt?$AA_?$AAa?$AAr?$AAr?$AAa?$AAy?$AA?$AA@ 100bc0f0     libgit2:merge.obj
 0002:0000d128       ??_C@_1BG@HGPPHHFA@?$AAr?$AAe?$AAp?$AAo?$AA?5?$AA?$CG?$AA?$CG?$AA?5?$AAc?$AAb?$AA?$AA@ 100bc128     libgit2:merge.obj
 0002:0000d140       ??_C@_0CF@JPALJMOO@Unable?5to?5parse?5OID?5?9?5invalid?5le@ 100bc140     libgit2:merge.obj
 0002:0000d168       ??_C@_0CB@HCMDAIGB@git_repository_mergehead_foreach@ 100bc168     libgit2:merge.obj
 0002:0000d18c       ??_C@_0BC@MBCBHJFO@No?5EOL?5at?5line?5?$CFd?$AA@ 100bc18c     libgit2:merge.obj
 0002:0000d1a0       ??_C@_1EE@DLCLPGKC@?$AAr?$AAe?$AAs?$AAo?$AAl?$AAv?$AAe?$AAd?$AA?5?$AA?$CG?$AA?$CG?$AA?5?$AAd?$AAi?$AAf?$AAf?$AA_?$AAl?$AAi?$AAs?$AAt?$AA?5?$AA?$CG?$AA?$CG?$AA?5?$AAc?$AAo?$AAn?$AAf?$AAl?$AAi?$AAc@ 100bc1a0     libgit2:merge.obj
 0002:0000d1e4       ??_C@_1CE@DFAGPKJB@?$AAd?$AAi?$AAf?$AAf?$AA_?$AAl?$AAi?$AAs?$AAt?$AA?5?$AA?$CG?$AA?$CG?$AA?5?$AAo?$AAp?$AAt?$AAs?$AA?$AA@ 100bc1e4     libgit2:merge.obj
 0002:0000d208       ??_C@_1BK@HNGKMOHB@?$AAr?$AAe?$AAp?$AAo?$AA?5?$AA?$CG?$AA?$CG?$AA?5?$AAo?$AAp?$AAt?$AAs?$AA?$AA@ 100bc208     libgit2:merge.obj
 0002:0000d224       ??_C@_0BC@BKHJBNIK@merge?4renamelimit?$AA@ 100bc224     libgit2:merge.obj
 0002:0000d238       ??_C@_0BB@FOCNAEJC@diff?4renamelimit?$AA@ 100bc238     libgit2:merge.obj
 0002:0000d24c       ??_C@_0BC@JKHIKBIF@git_merge_options?$AA@ 100bc24c     libgit2:merge.obj
 0002:0000d260       ??_C@_0BI@NGJJNDDN@merged?5common?5ancestors?$AA@ 100bc260     libgit2:merge.obj
 0002:0000d278       ??_C@_0BJ@CODCGDG@Temporary?5merge?5branch?51?$AA@ 100bc278     libgit2:merge.obj
 0002:0000d294       ??_C@_0BJ@CJMOHFPF@Temporary?5merge?5branch?52?$AA@ 100bc294     libgit2:merge.obj
 0002:0000d2b0       ??_C@_0BG@FJOJOKJM@merge?5conflicts?5exist?$AA@ 100bc2b0     libgit2:merge.obj
 0002:0000d2c8       ??_C@_1BM@KMOFHLFH@?$AAr?$AAe?$AAp?$AAo?$AA?5?$AA?$CG?$AA?$CG?$AA?5?$AAh?$AAe?$AAa?$AAd?$AAs?$AA?$AA@ 100bc2c8     libgit2:merge.obj
 0002:0000d2e4       ??_C@_03OFAPEBGM@?$CFs?6?$AA@ 100bc2e4     libgit2:merge.obj
 0002:0000d2e8       ??_C@_05EKAENMLK@no?9ff?$AA@ 100bc2e8     libgit2:merge.obj
 0002:0000d2f0       ??_C@_03JGECCODE@?$CFc?5?$AA@ 100bc2f0     libgit2:merge.obj
 0002:0000d2f4       ??_C@_03IKGEINEE@?$CFs?5?$AA@ 100bc2f4     libgit2:merge.obj
 0002:0000d2f8       ??_C@_05OMGAMCPJ@?5and?5?$AA@ 100bc2f8     libgit2:merge.obj
 0002:0000d300       ??_C@_02KEGNLNML@?0?5?$AA@ 100bc300     libgit2:merge.obj
 0002:0000d304       ??_C@_04FBKCMAJG@?8?$CFs?8?$AA@ 100bc304     libgit2:merge.obj
 0002:0000d30c       ??_C@_06NIFICHHP@?5of?5?$CFs?$AA@ 100bc30c     libgit2:merge.obj
 0002:0000d314       ??_C@_08PACHAMGK@branches?$AA@ 100bc314     libgit2:merge.obj
 0002:0000d320       ??_C@_0BJ@CKCNEEEJ@remote?9tracking?5branches?$AA@ 100bc320     libgit2:merge.obj
 0002:0000d33c       ??_C@_0BH@OAJNACIN@remote?9tracking?5branch?$AA@ 100bc33c     libgit2:merge.obj
 0002:0000d354       ??_C@_03FJEPELFP@tag?$AA@  100bc354     libgit2:merge.obj
 0002:0000d358       ??_C@_06OBANPLKN@Merge?5?$AA@ 100bc358     libgit2:merge.obj
 0002:0000d360       ??_C@_02LNAEAIDO@?$DL?5?$AA@ 100bc360     libgit2:merge.obj
 0002:0000d364       ??_C@_0O@MNDIDHBI@?$CFscommit?5?8?$CFs?8?$AA@ 100bc364     libgit2:merge.obj
 0002:0000d374       ??_C@_0O@NEFBAFEL@?$DL?5commit?5?8?$CFs?8?$AA@ 100bc374     libgit2:merge.obj
 0002:0000d384       ??_C@_1DE@HGANFJDA@?$AAr?$AAe?$AAp?$AAo?$AA?5?$AA?$CG?$AA?$CG?$AA?5?$AAo?$AAu?$AAr?$AA_?$AAh?$AAe?$AAa?$AAd?$AA?5?$AA?$CG?$AA?$CG?$AA?5?$AAh?$AAe?$AAa?$AAd?$AAs?$AA?$AA@ 100bc384     libgit2:merge.obj
 0002:0000d3b8       ??_C@_1EA@NKLIBFMH@?$AAr?$AAe?$AAp?$AAo?$AA?5?$AA?$CG?$AA?$CG?$AA?5?$AAo?$AAu?$AAr?$AA_?$AAh?$AAe?$AAa?$AAd?$AA?5?$AA?$CG?$AA?$CG?$AA?5?$AAt?$AAh?$AAe?$AAi?$AAr?$AA_?$AAh?$AAe?$AAa?$AAd?$AAs?$AA?$AA@ 100bc3b8     libgit2:merge.obj
 0002:0000d3f8       ??_C@_0L@BJFCMKHI@empty?5base?$AA@ 100bc3f8     libgit2:merge.obj
 0002:0000d404       ??_C@_01LKDEMHDF@s?$AA@    100bc404     libgit2:merge.obj
 0002:0000d408       ??_C@_0DH@LFHNBCKK@?$CFIu?5uncommitted?5change?$CFs?5would?5b@ 100bc408     libgit2:merge.obj
 0002:0000d440       ??_C@_0N@BPJDBEMP@?6Conflicts?3?6?$AA@ 100bc440     libgit2:merge.obj
 0002:0000d450       ??_C@_04PHJALBM@?7?$CFs?6?$AA@ 100bc450     libgit2:merge.obj
 0002:0000d458       ??_C@_08CMBFIGBO@merge?4ff?$AA@ 100bc458     libgit2:merge.obj
 0002:0000d464       ??_C@_04EGHGJILF@only?$AA@ 100bc464     libgit2:merge.obj
 0002:0000d470       ??_C@_1GM@ODJPOKEI@?$AAa?$AAn?$AAa?$AAl?$AAy?$AAs?$AAi?$AAs?$AA_?$AAo?$AAu?$AAt?$AA?5?$AA?$CG?$AA?$CG?$AA?5?$AAp?$AAr?$AAe?$AAf?$AAe?$AAr?$AAe?$AAn?$AAc?$AAe?$AA_?$AAo?$AAu?$AAt?$AA?5?$AA?$CG@ 100bc470     libgit2:merge.obj
 0002:0000d4dc       ??_C@_0BP@OKKBEKBP@Can?5only?5merge?5a?5single?5branch?$AA@ 100bc4dc     libgit2:merge.obj
 0002:0000d4fc       ??_C@_1CI@PNJOCAHE@?$AAr?$AAe?$AAp?$AAo?$AA?5?$AA?$CG?$AA?$CG?$AA?5?$AAt?$AAh?$AAe?$AAi?$AAr?$AA_?$AAh?$AAe?$AAa?$AAd?$AAs?$AA?$AA@ 100bc4fc     libgit2:merge.obj
 0002:0000d524       ??_C@_0BF@LBDNLMNK@git_merge_file_input?$AA@ 100bc524     libgit2:merge.obj
 0002:0000d53c       ??_C@_0BH@LHEMKJAP@git_merge_file_options?$AA@ 100bc53c     libgit2:merge.obj
 0002:0000d554       ??_C@_1DG@CEOOBEFO@?$AA?4?$AA?4?$AA?2?$AAd?$AAe?$AAp?$AAs?$AA?2?$AAl?$AAi?$AAb?$AAg?$AAi?$AAt?$AA2?$AA?2?$AAs?$AAr?$AAc?$AA?2?$AAb?$AAl?$AAo?$AAb?$AA?4?$AAc?$AA?$AA@ 100bc554     libgit2:blob.obj
 0002:0000d58c       ??_C@_19CGKOHEDH@?$AAb?$AAl?$AAo?$AAb?$AA?$AA@ 100bc58c     libgit2:blob.obj
 0002:0000d598       ??_C@_1BG@OMCKPFEO@?$AAi?$AAd?$AA?5?$AA?$CG?$AA?$CG?$AA?5?$AAr?$AAe?$AAp?$AAo?$AA?$AA@ 100bc598     libgit2:blob.obj
 0002:0000d5b0       ??_C@_0CA@BODKDHAN@Failed?5to?5read?5file?5into?5stream?$AA@ 100bc5b0     libgit2:blob.obj
 0002:0000d5d0       ??_C@_0DA@CFPJGELI@Failed?5to?5create?5blob?4?5?5Can?8t?5re@ 100bc5d0     libgit2:blob.obj
 0002:0000d600       ??_C@_1DO@MAJJIJFP@?$AAh?$AAi?$AAn?$AAt?$AA_?$AAp?$AAa?$AAt?$AAh?$AA?5?$AA?$HM?$AA?$HM?$AA?5?$AA?$CB?$AAt?$AAr?$AAy?$AA_?$AAl?$AAo?$AAa?$AAd?$AA_?$AAf?$AAi?$AAl?$AAt?$AAe?$AAr?$AAs?$AA?$AA@ 100bc600     libgit2:blob.obj
 0002:0000d640       ??_C@_0BG@MCHFJKML@create?5blob?5from?5file?$AA@ 100bc640     libgit2:blob.obj
 0002:0000d658       ??_C@_0DA@CKGMHBHO@cannot?5create?5blob?5from?5?8?$CFs?8?$DL?5it@ 100bc658     libgit2:blob.obj
 0002:0000d688       ??_C@_1DA@JDPBAECL@?$AAi?$AAd?$AA?5?$AA?$CG?$AA?$CG?$AA?5?$AAr?$AAe?$AAp?$AAo?$AA?5?$AA?$CG?$AA?$CG?$AA?5?$AAs?$AAo?$AAu?$AAr?$AAc?$AAe?$AA_?$AAc?$AAb?$AA?$AA@ 100bc688     libgit2:blob.obj
 0002:0000d6b8       ??_C@_0BB@LNFDJCKC@objects?1streamed?$AA@ 100bc6b8     libgit2:blob.obj
 0002:0000d6cc       ??_C@_0CH@MLONJBNA@Invalid?5chunk?5size?5while?5creatin@ 100bc6cc     libgit2:blob.obj
 0002:0000d6f4       ??_C@_0BL@IFCAEDIF@git_blob_create_fromchunks?$AA@ 100bc6f4     libgit2:blob.obj
 0002:0000d710       ??_C@_1CI@PAGBEGFK@?$AAb?$AAl?$AAo?$AAb?$AA?5?$AA?$CG?$AA?$CG?$AA?5?$AAp?$AAa?$AAt?$AAh?$AA?5?$AA?$CG?$AA?$CG?$AA?5?$AAo?$AAu?$AAt?$AA?$AA@ 100bc710     libgit2:blob.obj
 0002:0000d738       ??_C@_1DK@IKFNFKED@?$AA?4?$AA?4?$AA?2?$AAd?$AAe?$AAp?$AAs?$AA?2?$AAl?$AAi?$AAb?$AAg?$AAi?$AAt?$AA2?$AA?2?$AAs?$AAr?$AAc?$AA?2?$AAg?$AAl?$AAo?$AAb?$AAa?$AAl?$AA?4?$AAc?$AA?$AA@ 100bc738     libgit2:global.obj
 0002:0000d778       ??_C@_1EM@JOCAHHOI@?$AAc?$AAo?$AAu?$AAn?$AAt?$AA?5?$AA?$DM?$AA?$DN?$AA?5?$AAM?$AAA?$AAX?$AA_?$AAS?$AAH?$AAU?$AAT?$AAD?$AAO?$AAW?$AAN?$AA_?$AAC?$AAB?$AA?5?$AA?$CG?$AA?$CG?$AA?5?$AAc?$AAo?$AAu?$AAn@ 100bc778     libgit2:global.obj
 0002:0000d7c8       ??_C@_1EE@DKOAGECP@?$AAg?$AAi?$AAt?$AA_?$AAa?$AAt?$AAo?$AAm?$AAi?$AAc?$AA_?$AAg?$AAe?$AAt?$AA?$CI?$AA?$CG?$AAg?$AAi?$AAt?$AA_?$AA_?$AAn?$AA_?$AAi?$AAn?$AAi?$AAt?$AAs?$AA?$CJ?$AA?5?$AA?$DO?$AA?5@ 100bc7c8     libgit2:global.obj
 0002:0000d80c       ??_C@_04KCCPLAND@tree?$AA@ 100bc80c     libgit2:object.obj
 0002:0000d814       ??_C@_04LPJPOBEM@blob?$AA@ 100bc814     libgit2:object.obj
 0002:0000d81c       ??_C@_09IHLHFMLM@OFS_DELTA?$AA@ 100bc81c     libgit2:object.obj
 0002:0000d828       ??_C@_09FIDBFFGO@REF_DELTA?$AA@ 100bc828     libgit2:object.obj
 0002:0000d834       ??_C@_1DK@OGBOHPKF@?$AA?4?$AA?4?$AA?2?$AAd?$AAe?$AAp?$AAs?$AA?2?$AAl?$AAi?$AAb?$AAg?$AAi?$AAt?$AA2?$AA?2?$AAs?$AAr?$AAc?$AA?2?$AAo?$AAb?$AAj?$AAe?$AAc?$AAt?$AA?4?$AAc?$AA?$AA@ 100bc834     libgit2:object.obj
 0002:0000d870       ??_C@_1BG@LDJHOIJG@?$AAo?$AAb?$AAj?$AAe?$AAc?$AAt?$AA_?$AAo?$AAu?$AAt?$AA?$AA@ 100bc870     libgit2:object.obj
 0002:0000d888       ??_C@_0DG@NILHDMIN@The?5requested?5type?5does?5not?5matc@ 100bc888     libgit2:object.obj
 0002:0000d8c0       ??_C@_0BO@KKGLOMCA@The?5requested?5type?5is?5invalid?$AA@ 100bc8c0     libgit2:object.obj
 0002:0000d8e0       ??_C@_1DA@BBFBOFHC@?$AAd?$AAe?$AAf?$AA?9?$AA?$DO?$AAf?$AAr?$AAe?$AAe?$AA?5?$AA?$CG?$AA?$CG?$AA?5?$AAd?$AAe?$AAf?$AA?9?$AA?$DO?$AAp?$AAa?$AAr?$AAs?$AAe?$AA?$AA@ 100bc8e0     libgit2:object.obj
 0002:0000d910       ??_C@_1DC@MNLAHHFB@?$AAr?$AAe?$AAp?$AAo?$AA?5?$AA?$CG?$AA?$CG?$AA?5?$AAo?$AAb?$AAj?$AAe?$AAc?$AAt?$AA_?$AAo?$AAu?$AAt?$AA?5?$AA?$CG?$AA?$CG?$AA?5?$AAi?$AAd?$AA?$AA@ 100bc910     libgit2:object.obj
 0002:0000d944       ??_C@_0CL@KOFENGDO@Ambiguous?5lookup?5?9?5OID?5prefix?5is@ 100bc944     libgit2:object.obj
 0002:0000d970       ??_C@_0DC@JEPJFAPJ@The?5requested?5type?5does?5not?5matc@ 100bc970     libgit2:object.obj
 0002:0000d9a8       ??_C@_1GC@MILABIGF@?$AA?$CB?$AA?$CC?$AAW?$AAr?$AAo?$AAn?$AAg?$AA?5?$AAc?$AAa?$AAc?$AAh?$AAi?$AAn?$AAg?$AA?5?$AAt?$AAy?$AAp?$AAe?$AA?5?$AAi?$AAn?$AA?5?$AAt?$AAh?$AAe?$AA?5?$AAg?$AAl?$AAo?$AAb@ 100bc9a8     libgit2:object.obj
 0002:0000da0c       ??_C@_17ICLBCLLH@?$AAo?$AAb?$AAj?$AA?$AA@ 100bca0c     libgit2:object.obj
 0002:0000da18       ??_C@_0FD@GDICMJCO@The?5git_object?5of?5id?5?8?$CFs?8?5can?5no@ 100bca18     libgit2:object.obj
 0002:0000da6c       ??_C@_1CC@NCNLPNOI@?$AAo?$AAb?$AAj?$AAe?$AAc?$AAt?$AA?5?$AA?$CG?$AA?$CG?$AA?5?$AAp?$AAe?$AAe?$AAl?$AAe?$AAd?$AA?$AA@ 100bca6c     libgit2:object.obj
 0002:0000da90       ??_C@_1BDA@FHABKJCO@?$AAt?$AAa?$AAr?$AAg?$AAe?$AAt?$AA_?$AAt?$AAy?$AAp?$AAe?$AA?5?$AA?$DN?$AA?$DN?$AA?5?$AAG?$AAI?$AAT?$AA_?$AAO?$AAB?$AAJ?$AA_?$AAT?$AAA?$AAG?$AA?5?$AA?$HM?$AA?$HM?$AA?5?$AAt?$AAa@ 100bca90     libgit2:object.obj
 0002:0000dbc0       ??_C@_1CO@CFHAMCL@?$AAo?$AAu?$AAt?$AA?5?$AA?$CG?$AA?$CG?$AA?5?$AAt?$AAr?$AAe?$AAe?$AAi?$AAs?$AAh?$AA?5?$AA?$CG?$AA?$CG?$AA?5?$AAp?$AAa?$AAt?$AAh?$AA?$AA@ 100bcbc0     libgit2:object.obj
 0002:0000dbf0       ??_C@_0DE@KDHOCBFK@object?5at?5path?5?8?$CFs?8?5is?5not?5of?5th@ 100bcbf0     libgit2:object.obj
 0002:0000dc24       ??_C@_1BG@GNLBBBMI@?$AAo?$AAu?$AAt?$AA?5?$AA?$CG?$AA?$CG?$AA?5?$AAo?$AAb?$AAj?$AA?$AA@ 100bcc24     libgit2:object.obj
 0002:0000dc3c       ??_C@_0DG@OMACAKEN@the?5requested?5type?5does?5not?5matc@ 100bcc3c     libgit2:object.obj
 0002:0000dc74       ??_C@_0BJ@CEKBKJLK@Unable?5to?5parse?5OID?5?9?5?$CFs?$AA@ 100bcc74     libgit2:oid.obj
 0002:0000dc90       ??_C@_1DE@MIPPEMJB@?$AA?4?$AA?4?$AA?2?$AAd?$AAe?$AAp?$AAs?$AA?2?$AAl?$AAi?$AAb?$AAg?$AAi?$AAt?$AA2?$AA?2?$AAs?$AAr?$AAc?$AA?2?$AAo?$AAi?$AAd?$AA?4?$AAc?$AA?$AA@ 100bcc90     libgit2:oid.obj
 0002:0000dcc4       ??_C@_1BG@GIHKLFK@?$AAo?$AAu?$AAt?$AA?5?$AA?$CG?$AA?$CG?$AA?5?$AAs?$AAt?$AAr?$AA?$AA@ 100bccc4     libgit2:oid.obj
 0002:0000dcdc       ??_C@_09PNOMNDOP@too?5short?$AA@ 100bccdc     libgit2:oid.obj
 0002:0000dce8       ??_C@_08JAFCJEPG@too?5long?$AA@ 100bcce8     libgit2:oid.obj
 0002:0000dcf4       ??_C@_0BM@BGOHDEHK@contains?5invalid?5characters?$AA@ 100bccf4     libgit2:oid.obj
 0002:0000dd10       ??_C@_0CF@ECGBFHHH@Unable?5to?5shorten?5OID?5?9?5OID?5set?5@ 100bcd10     libgit2:oid.obj
 0002:0000dd38       ??_C@_0CK@ODHPEOAF@Unable?5to?5shorten?5OID?5?9?5invalid?5@ 100bcd38     libgit2:oid.obj
 0002:0000dd64       ??_C@_0BA@LEFBPKDO@remote?9tracking?$AA@ 100bcd64     libgit2:branch.obj
 0002:0000dd74       ??_C@_05IDKHKMLA@local?$AA@ 100bcd74     libgit2:branch.obj
 0002:0000dd7c       ??_C@_0BN@CANDKKMH@Cannot?5locate?5?$CFs?5branch?5?8?$CFs?8?$AA@ 100bcd7c     libgit2:branch.obj
 0002:0000dd9c       ??_C@_0CG@LAKBJJGC@Reference?5?8?$CFs?8?5is?5not?5a?5local?5br@ 100bcd9c     libgit2:branch.obj
 0002:0000ddc4       ??_C@_1DK@OGCMDFFH@?$AA?4?$AA?4?$AA?2?$AAd?$AAe?$AAp?$AAs?$AA?2?$AAl?$AAi?$AAb?$AAg?$AAi?$AAt?$AA2?$AA?2?$AAs?$AAr?$AAc?$AA?2?$AAb?$AAr?$AAa?$AAn?$AAc?$AAh?$AA?4?$AAc?$AA?$AA@ 100bcdc4     libgit2:branch.obj
 0002:0000de00       ??_C@_1EC@IIMJBPBL@?$AAb?$AAr?$AAa?$AAn?$AAc?$AAh?$AA_?$AAn?$AAa?$AAm?$AAe?$AA?5?$AA?$CG?$AA?$CG?$AA?5?$AAc?$AAo?$AAm?$AAm?$AAi?$AAt?$AA?5?$AA?$CG?$AA?$CG?$AA?5?$AAr?$AAe?$AAf?$AA_?$AAo?$AAu?$AAt@ 100bce00     libgit2:branch.obj
 0002:0000de48       ??_C@_1HG@OMKKBIII@?$AAg?$AAi?$AAt?$AA_?$AAo?$AAb?$AAj?$AAe?$AAc?$AAt?$AA_?$AAo?$AAw?$AAn?$AAe?$AAr?$AA?$CI?$AA?$CI?$AAc?$AAo?$AAn?$AAs?$AAt?$AA?5?$AAg?$AAi?$AAt?$AA_?$AAo?$AAb?$AAj?$AAe@ 100bce48     libgit2:branch.obj
 0002:0000dec0       ??_C@_0EN@LOHLBPJM@Cannot?5force?5update?5branch?5?8?$CFs?8?5@ 100bcec0     libgit2:branch.obj
 0002:0000df10       ??_C@_0BI@LPAICPMD@branch?3?5Created?5from?5?$CFs?$AA@ 100bcf10     libgit2:branch.obj
 0002:0000df28       ??_C@_1O@DAKNAI@?$AAb?$AAr?$AAa?$AAn?$AAc?$AAh?$AA?$AA@ 100bcf28     libgit2:branch.obj
 0002:0000df38       ??_C@_0CG@CFECENOF@Reference?5?8?$CFs?8?5is?5not?5a?5valid?5br@ 100bcf38     libgit2:branch.obj
 0002:0000df60       ??_C@_0EH@IGOHPMNO@Cannot?5delete?5branch?5?8?$CFs?8?5as?5it?5@ 100bcf60     libgit2:branch.obj
 0002:0000dfa8       ??_C@_1DE@BANFAAEP@?$AAb?$AAr?$AAa?$AAn?$AAc?$AAh?$AA?5?$AA?$CG?$AA?$CG?$AA?5?$AAn?$AAe?$AAw?$AA_?$AAb?$AAr?$AAa?$AAn?$AAc?$AAh?$AA_?$AAn?$AAa?$AAm?$AAe?$AA?$AA@ 100bcfa8     libgit2:branch.obj
 0002:0000dfdc       ??_C@_0BJ@HGEPBJME@branch?3?5renamed?5?$CFs?5to?5?$CFs?$AA@ 100bcfdc     libgit2:branch.obj
 0002:0000dff8       ??_C@_1DO@EMGHBOIO@?$AAr?$AAe?$AAf?$AA_?$AAo?$AAu?$AAt?$AA?5?$AA?$CG?$AA?$CG?$AA?5?$AAr?$AAe?$AAp?$AAo?$AA?5?$AA?$CG?$AA?$CG?$AA?5?$AAb?$AAr?$AAa?$AAn?$AAc?$AAh?$AA_?$AAn?$AAa?$AAm?$AAe?$AA?$AA@ 100bcff8     libgit2:branch.obj
 0002:0000e038       ??_C@_1BG@NNNMLKDC@?$AAo?$AAu?$AAt?$AA?5?$AA?$CG?$AA?$CG?$AA?5?$AAr?$AAe?$AAf?$AA?$AA@ 100bd038     libgit2:branch.obj
 0002:0000e050       ??_C@_0DH@OENJOCOM@Reference?5?8?$CFs?8?5is?5neither?5a?5loca@ 100bd050     libgit2:branch.obj
 0002:0000e088       ??_C@_1BO@DMIJKMAB@?$AAo?$AAu?$AAt?$AA?5?$AA?$CG?$AA?$CG?$AA?5?$AAr?$AAe?$AAf?$AAn?$AAa?$AAm?$AAe?$AA?$AA@ 100bd088     libgit2:branch.obj
 0002:0000e0a8       ??_C@_0BB@NKPMAACI@branch?4?$CFs?4remote?$AA@ 100bd0a8     libgit2:branch.obj
 0002:0000e0bc       ??_C@_0BA@GFAOIJD@branch?4?$CFs?4merge?$AA@ 100bd0bc     libgit2:branch.obj
 0002:0000e0cc       ??_C@_0CG@FBLOBKGL@branch?5?8?$CFs?8?5does?5not?5have?5an?5ups@ 100bd0cc     libgit2:branch.obj
 0002:0000e0f4       ??_C@_01LFCBOECM@?4?$AA@   100bd0f4     libgit2:branch.obj
 0002:0000e0f8       ??_C@_0CN@GEJHNBCK@branch?5?8?$CFs?8?5does?5not?5have?5an?5ups@ 100bd0f8     libgit2:branch.obj
 0002:0000e128       ??_C@_1CO@CLHCNNCE@?$AAb?$AAu?$AAf?$AA?5?$AA?$CG?$AA?$CG?$AA?5?$AAr?$AAe?$AAp?$AAo?$AA?5?$AA?$CG?$AA?$CG?$AA?5?$AAr?$AAe?$AAf?$AAn?$AAa?$AAm?$AAe?$AA?$AA@ 100bd128     libgit2:branch.obj
 0002:0000e158       ??_C@_0CH@NMGFFPEK@Reference?5?8?$CFs?8?5is?5not?5a?5remote?5b@ 100bd158     libgit2:branch.obj
 0002:0000e180       ??_C@_0BM@HHKBEKIF@Reference?5?8?$CFs?8?5is?5ambiguous?$AA@ 100bd180     libgit2:branch.obj
 0002:0000e19c       ??_C@_0CE@GKFEMIIO@Could?5not?5determine?5remote?5for?5?8@ 100bd19c     libgit2:branch.obj
 0002:0000e1c0       ??_C@_0CE@BDOFIOCK@Cannot?5set?5upstream?5for?5branch?5?8@ 100bd1c0     libgit2:branch.obj
 0002:0000e1e4       ??_C@_1DO@HHLHBFBG@?$AA?4?$AA?4?$AA?2?$AAd?$AAe?$AAp?$AAs?$AA?2?$AAl?$AAi?$AAb?$AAg?$AAi?$AAt?$AA2?$AA?2?$AAs?$AAr?$AAc?$AA?2?$AAi?$AAt?$AAe?$AAr?$AAa?$AAt?$AAo?$AAr?$AA?4?$AAc?$AA?$AA@ 100bd1e4     libgit2:iterator.obj
 0002:0000e224       ??_C@_1BI@HNPDNBOK@?$AAp?$AA?$FL?$AAp?$AAa?$AAt?$AAh?$AA_?$AAl?$AAe?$AAn?$AA?$FN?$AA?$AA@ 100bd224     libgit2:iterator.obj
 0002:0000e23c       ??_C@_15MAMDLJFE@?$AAt?$AAf?$AA?$AA@ 100bd23c     libgit2:iterator.obj
 0002:0000e244       ??_C@_1BC@BEEPELMM@?$AAt?$AAi?$AA?9?$AA?$DO?$AAh?$AAe?$AAa?$AAd?$AA?$AA@ 100bd244     libgit2:iterator.obj
 0002:0000e258       ??_C@_1DA@LKDMNIFG@?$AAp?$AAa?$AAt?$AAh?$AA_?$AAl?$AAe?$AAn?$AA?5?$AA?$DO?$AA?5?$AAf?$AAi?$AA?9?$AA?$DO?$AAr?$AAo?$AAo?$AAt?$AA_?$AAl?$AAe?$AAn?$AA?$AA@ 100bd258     libgit2:iterator.obj
 0002:0000e288       ??_C@_0CD@HDPMIIEC@Directory?5nesting?5is?5too?5deep?5?$CI?$CF@ 100bd288     libgit2:iterator.obj
 0002:0000e2ac       ??_C@_0BH@GIOIKMMN@scan?5working?5directory?$AA@ 100bd2ac     libgit2:iterator.obj
 0002:0000e2c4       ??_C@_0DI@NFDJILMM@Cannot?5currently?5set?5ignore?5case@ 100bd2c4     libgit2:iterator.obj
 0002:0000e2fc       ??_C@_04FEBDJDAN@crlf?$AA@ 100bd2fc     libgit2:filter.obj
 0002:0000e304       ??_C@_05IJGIMKK@ident?$AA@ 100bd304     libgit2:filter.obj
 0002:0000e30c       ??_C@_1DK@OAMINPBA@?$AA?4?$AA?4?$AA?2?$AAd?$AAe?$AAp?$AAs?$AA?2?$AAl?$AAi?$AAb?$AAg?$AAi?$AAt?$AA2?$AA?2?$AAs?$AAr?$AAc?$AA?2?$AAf?$AAi?$AAl?$AAt?$AAe?$AAr?$AA?4?$AAc?$AA?$AA@ 100bd30c     libgit2:filter.obj
 0002:0000e348       ??_C@_1BO@OHEKAIKC@?$AAn?$AAa?$AAm?$AAe?$AA?5?$AA?$CG?$AA?$CG?$AA?5?$AAf?$AAi?$AAl?$AAt?$AAe?$AAr?$AA?$AA@ 100bd348     libgit2:filter.obj
 0002:0000e368       ??_C@_0CL@MMIDLBPD@attempt?5to?5reregister?5existing?5f@ 100bd368     libgit2:filter.obj
 0002:0000e394       ??_C@_0BO@NCALMNHD@Cannot?5unregister?5filter?5?8?$CFs?8?$AA@ 100bd394     libgit2:filter.obj
 0002:0000e3b4       ??_C@_0CG@PJFPEGOD@Cannot?5find?5filter?5?8?$CFs?8?5to?5unreg@ 100bd3b4     libgit2:filter.obj
 0002:0000e3dc       ??_C@_1BK@KOKMNCHJ@?$AAf?$AAl?$AA?5?$AA?$CG?$AA?$CG?$AA?5?$AAf?$AAi?$AAl?$AAt?$AAe?$AAr?$AA?$AA@ 100bd3dc     libgit2:filter.obj
 0002:0000e3f8       ??_C@_0CC@IJPCMHAG@Cannot?5use?5an?5unregistered?5filte@ 100bd3f8     libgit2:filter.obj
 0002:0000e41c       ??_C@_1BG@KBAKECHJ@?$AAb?$AAu?$AAf?$AA_?$AAs?$AAt?$AAr?$AAe?$AAa?$AAm?$AA?$AA@ 100bd41c     libgit2:filter.obj
 0002:0000e434       ??_C@_1DE@JMGDOJ@?$AAb?$AAu?$AAf?$AA_?$AAs?$AAt?$AAr?$AAe?$AAa?$AAm?$AA?9?$AA?$DO?$AAc?$AAo?$AAm?$AAp?$AAl?$AAe?$AAt?$AAe?$AA?5?$AA?$DN?$AA?$DN?$AA?5?$AA0?$AA?$AA@ 100bd434     libgit2:filter.obj
 0002:0000e468       ??_C@_1CA@PNICHKPG@?$AAw?$AAr?$AAi?$AAt?$AAe?$AAr?$AA?4?$AAc?$AAo?$AAm?$AAp?$AAl?$AAe?$AAt?$AAe?$AA?$AA@ 100bd468     libgit2:filter.obj
 0002:0000e488       ??_C@_0BM@MCEPLKBB@Blob?5is?5too?5large?5to?5filter?$AA@ 100bd488     libgit2:filter.obj
 0002:0000e4a4       ??_C@_1BK@KFIPFJKB@?$AAp?$AAr?$AAo?$AAx?$AAy?$AA_?$AAs?$AAt?$AAr?$AAe?$AAa?$AAm?$AA?$AA@ 100bd4a4     libgit2:filter.obj
 0002:0000e4c0       ??_C@_1FA@GDJHNJFK@?$AAf?$AAe?$AA?9?$AA?$DO?$AAf?$AAi?$AAl?$AAt?$AAe?$AAr?$AA?9?$AA?$DO?$AAs?$AAt?$AAr?$AAe?$AAa?$AAm?$AA?5?$AA?$HM?$AA?$HM?$AA?5?$AAf?$AAe?$AA?9?$AA?$DO?$AAf?$AAi?$AAl?$AAt?$AAe?$AAr@ 100bd4c0     libgit2:filter.obj
 0002:0000e510       ??_C@_1DK@CIPPHEPP@?$AA?4?$AA?4?$AA?2?$AAd?$AAe?$AAp?$AAs?$AA?2?$AAl?$AAi?$AAb?$AAg?$AAi?$AAt?$AA2?$AA?2?$AAs?$AAr?$AAc?$AA?2?$AAv?$AAe?$AAc?$AAt?$AAo?$AAr?$AA?4?$AAc?$AA?$AA@ 100bd510     libgit2:vector.obj
 0002:0000e54c       ??_C@_1BC@IIJOEPPA@?$AAv?$AA?5?$AA?$CG?$AA?$CG?$AA?5?$AAs?$AAr?$AAc?$AA?$AA@ 100bd54c     libgit2:vector.obj
 0002:0000e560       ??_C@_13JAOPNPKD@?$AAv?$AA?$AA@ 100bd560     libgit2:vector.obj
 0002:0000e564       ??_C@_1BK@ILOOKCKA@?$AAv?$AA?5?$AA?$CG?$AA?$CG?$AA?5?$AAv?$AA?9?$AA?$DO?$AA_?$AAc?$AAm?$AAp?$AA?$AA@ 100bd564     libgit2:vector.obj
 0002:0000e580       ??_C@_1CO@PKGNCGIK@?$AAv?$AA?5?$AA?$CG?$AA?$CG?$AA?5?$AAk?$AAe?$AAy?$AA?5?$AA?$CG?$AA?$CG?$AA?5?$AAk?$AAe?$AAy?$AA_?$AAl?$AAo?$AAo?$AAk?$AAu?$AAp?$AA?$AA@ 100bd580     libgit2:vector.obj
 0002:0000e5b0       ??_C@_1O@MMHOBBGH@?$AAa?$AA?5?$AA?$CG?$AA?$CG?$AA?5?$AAb?$AA?$AA@ 100bd5b0     libgit2:vector.obj
 0002:0000e5c0       ??_C@_1DG@MBCGCMFN@?$AA?4?$AA?4?$AA?2?$AAd?$AAe?$AAp?$AAs?$AA?2?$AAl?$AAi?$AAb?$AAg?$AAi?$AAt?$AA2?$AA?2?$AAs?$AAr?$AAc?$AA?2?$AAp?$AAo?$AAo?$AAl?$AA?4?$AAc?$AA?$AA@ 100bd5c0     libgit2:pool.obj
 0002:0000e5f8       ??_C@_19GLKFFFDC@?$AAp?$AAo?$AAo?$AAl?$AA?$AA@ 100bd5f8     libgit2:pool.obj
 0002:0000e608       ??_C@_1FO@PLBFDOEH@?$AAp?$AAo?$AAo?$AAl?$AA?5?$AA?$CG?$AA?$CG?$AA?5?$AAs?$AAt?$AAr?$AA?5?$AA?$CG?$AA?$CG?$AA?5?$AAp?$AAo?$AAo?$AAl?$AA?9?$AA?$DO?$AAi?$AAt?$AAe?$AAm?$AA_?$AAs?$AAi?$AAz?$AAe?$AA?5?$AA?$DN@ 100bd608     libgit2:pool.obj
 0002:0000e668       ??_C@_1FA@MGKDHEFP@?$AAp?$AAo?$AAo?$AAl?$AA?5?$AA?$CG?$AA?$CG?$AA?5?$AAp?$AAo?$AAo?$AAl?$AA?9?$AA?$DO?$AAi?$AAt?$AAe?$AAm?$AA_?$AAs?$AAi?$AAz?$AAe?$AA?5?$AA?$DN?$AA?$DN?$AA?5?$AAs?$AAi?$AAz?$AAe?$AAo@ 100bd668     libgit2:pool.obj
 0002:0000e6b8       ??_C@_0BO@LANDBNKM@cannot?5grow?5a?5borrowed?5buffer?$AA@ 100bd6b8     libgit2:buffer.obj
 0002:0000e6d8       ??_C@_1DK@JIHBEMLI@?$AA?4?$AA?4?$AA?2?$AAd?$AAe?$AAp?$AAs?$AA?2?$AAl?$AAi?$AAb?$AAg?$AAi?$AAt?$AA2?$AA?2?$AAs?$AAr?$AAc?$AA?2?$AAb?$AAu?$AAf?$AAf?$AAe?$AAr?$AA?4?$AAc?$AA?$AA@ 100bd6d8     libgit2:buffer.obj
 0002:0000e718       ??_C@_1EE@LKKOPCKF@?$AAb?$AAu?$AAf?$AA?9?$AA?$DO?$AAs?$AAi?$AAz?$AAe?$AA?5?$AA?$DN?$AA?$DN?$AA?5?$AA0?$AA?5?$AA?$CG?$AA?$CG?$AA?5?$AAb?$AAu?$AAf?$AA?9?$AA?$DO?$AAa?$AAs?$AAi?$AAz?$AAe?$AA?5?$AA?$DN?$AA?$DN?$AA?5@ 100bd718     libgit2:buffer.obj
 0002:0000e75c       ??_C@_19MLBBEMBH@?$AAd?$AAa?$AAt?$AAa?$AA?$AA@ 100bd75c     libgit2:buffer.obj
 0002:0000e768       ??_C@_1DA@NHDMAEPK@?$AAd?$AAa?$AAt?$AAa?$AA?5?$AA?$CG?$AA?$CG?$AA?5?$AAd?$AAa?$AAt?$AAa?$AAs?$AAi?$AAz?$AAe?$AA?5?$AA?$CG?$AA?$CG?$AA?5?$AAb?$AAu?$AAf?$AA?$AA@ 100bd768     libgit2:buffer.obj
 0002:0000e798       ??_C@_1GE@LIEEILBJ@?$AAs?$AAt?$AAr?$AA_?$AAb?$AA?5?$AA?$DM?$AA?5?$AAb?$AAu?$AAf?$AA?9?$AA?$DO?$AAp?$AAt?$AAr?$AA?5?$AA?$HM?$AA?$HM?$AA?5?$AAs?$AAt?$AAr?$AA_?$AAb?$AA?5?$AA?$DO?$AA?$DN?$AA?5?$AAb?$AAu?$AAf@ 100bd798     libgit2:buffer.obj
 0002:0000e7fc       ??_C@_1BC@KGKKOHDM@?$AAb?$AAu?$AAf?$AA?9?$AA?$DO?$AAp?$AAt?$AAr?$AA?$AA@ 100bd7fc     libgit2:buffer.obj
 0002:0000e810       ??_C@_1GE@DCDPOKFN@?$AAs?$AAt?$AAr?$AA_?$AAa?$AA?5?$AA?$DM?$AA?5?$AAb?$AAu?$AAf?$AA?9?$AA?$DO?$AAp?$AAt?$AAr?$AA?5?$AA?$HM?$AA?$HM?$AA?5?$AAs?$AAt?$AAr?$AA_?$AAa?$AA?5?$AA?$DO?$AA?$DN?$AA?5?$AAb?$AAu?$AAf@ 100bd810     libgit2:buffer.obj
 0002:0000e878       ??_C@_1GE@MBJCFECF@?$AAs?$AAt?$AAr?$AA_?$AAc?$AA?5?$AA?$DM?$AA?5?$AAb?$AAu?$AAf?$AA?9?$AA?$DO?$AAp?$AAt?$AAr?$AA?5?$AA?$HM?$AA?$HM?$AA?5?$AAs?$AAt?$AAr?$AA_?$AAc?$AA?5?$AA?$DO?$AA?$DN?$AA?5?$AAb?$AAu?$AAf@ 100bd878     libgit2:buffer.obj
 0002:0000e8dc       ??_C@_0BJ@EKJCEHKJ@Failed?5to?5write?5out?5file?$AA@ 100bd8dc     libgit2:filebuf.obj
 0002:0000e8f8       ??_C@_0CI@PBAIJOJH@Buffer?5error?5when?5writing?5out?5ZL@ 100bd8f8     libgit2:filebuf.obj
 0002:0000e920       ??_C@_0CF@FBBBGGGJ@Failed?5to?5lock?5file?5?8?$CFs?8?5for?5wri@ 100bd920     libgit2:filebuf.obj
 0002:0000e948       ??_C@_0CF@CAOPGIFN@Failed?5to?5open?5file?5?8?$CFs?8?5for?5rea@ 100bd948     libgit2:filebuf.obj
 0002:0000e970       ??_C@_0BJ@KIOJAIBD@Failed?5to?5read?5file?5?8?$CFs?8?$AA@ 100bd970     libgit2:filebuf.obj
 0002:0000e98c       ??_C@_0BK@LKHMBGKN@Failed?5to?5write?5file?5?8?$CFs?8?$AA@ 100bd98c     libgit2:filebuf.obj
 0002:0000e9a8       ??_C@_1DM@FBHKIKDH@?$AA?4?$AA?4?$AA?2?$AAd?$AAe?$AAp?$AAs?$AA?2?$AAl?$AAi?$AAb?$AAg?$AAi?$AAt?$AA2?$AA?2?$AAs?$AAr?$AAc?$AA?2?$AAf?$AAi?$AAl?$AAe?$AAb?$AAu?$AAf?$AA?4?$AAc?$AA?$AA@ 100bd9a8     libgit2:filebuf.obj
 0002:0000e9e4       ??_C@_1CE@FDFBIAON@?$AAz?$AAs?$AA?9?$AA?$DO?$AAa?$AAv?$AAa?$AAi?$AAl?$AA_?$AAi?$AAn?$AA?5?$AA?$DN?$AA?$DN?$AA?5?$AA0?$AA?$AA@ 100bd9e4     libgit2:filebuf.obj
 0002:0000ea08       ??_C@_0BE@CFPLKLFE@failed?5to?5stat?5?8?$CFs?8?$AA@ 100bda08     libgit2:filebuf.obj
 0002:0000ea1c       ??_C@_0BM@GACIEBEN@failed?5to?5read?5symlink?5?8?$CFs?8?$AA@ 100bda1c     libgit2:filebuf.obj
 0002:0000ea38       ??_C@_0BI@HGPJEMNB@symlink?5target?5too?5long?$AA@ 100bda38     libgit2:filebuf.obj
 0002:0000ea50       ??_C@_0BO@FCOHGLKE@maximum?5symlink?5depth?5reached?$AA@ 100bda50     libgit2:filebuf.obj
 0002:0000ea70       ??_C@_1EK@MACLOPMI@?$AAf?$AAi?$AAl?$AAe?$AA?5?$AA?$CG?$AA?$CG?$AA?5?$AAp?$AAa?$AAt?$AAh?$AA?5?$AA?$CG?$AA?$CG?$AA?5?$AAf?$AAi?$AAl?$AAe?$AA?9?$AA?$DO?$AAb?$AAu?$AAf?$AAf?$AAe?$AAr?$AA?5?$AA?$DN?$AA?$DN?$AA?5@ 100bda70     libgit2:filebuf.obj
 0002:0000eabc       ??_C@_0BK@HIFEEKND@Failed?5to?5initialize?5zlib?$AA@ 100bdabc     libgit2:filebuf.obj
 0002:0000ead8       ??_C@_0BJ@NMJJHHIK@path?5?8?$CFs?8?5is?5a?5directory?$AA@ 100bdad8     libgit2:filebuf.obj
 0002:0000eaf8       ??_C@_1EI@LLNBEPHO@?$AAo?$AAi?$AAd?$AA?5?$AA?$CG?$AA?$CG?$AA?5?$AAf?$AAi?$AAl?$AAe?$AA?5?$AA?$CG?$AA?$CG?$AA?5?$AAf?$AAi?$AAl?$AAe?$AA?9?$AA?$DO?$AAc?$AAo?$AAm?$AAp?$AAu?$AAt?$AAe?$AA_?$AAd?$AAi?$AAg@ 100bdaf8     libgit2:filebuf.obj
 0002:0000eb40       ??_C@_1DI@GAKANCFB@?$AAf?$AAi?$AAl?$AAe?$AA?5?$AA?$CG?$AA?$CG?$AA?5?$AAf?$AAi?$AAl?$AAe?$AA?9?$AA?$DO?$AAp?$AAa?$AAt?$AAh?$AA_?$AAo?$AAr?$AAi?$AAg?$AAi?$AAn?$AAa?$AAl?$AA?$AA@ 100bdb40     libgit2:filebuf.obj
 0002:0000eb78       ??_C@_0BN@PIDGBJBN@Failed?5to?5close?5file?5at?5?8?$CFs?8?$AA@ 100bdb78     libgit2:filebuf.obj
 0002:0000eb98       ??_C@_0CC@MOGHEKKI@Failed?5to?5rename?5lockfile?5to?5?8?$CFs@ 100bdb98     libgit2:filebuf.obj
 0002:0000ebbc       ??_C@_0CO@EEFPLDGK@Could?5not?5convert?5reparse?5point?5@ 100bdbbc     libgit2:path.obj
 0002:0000ebec       ??_C@_1DG@HDBDILKG@?$AA?4?$AA?4?$AA?2?$AAd?$AAe?$AAp?$AAs?$AA?2?$AAl?$AAi?$AAb?$AAg?$AAi?$AAt?$AA2?$AA?2?$AAs?$AAr?$AAc?$AA?2?$AAp?$AAa?$AAt?$AAh?$AA?4?$AAc?$AA?$AA@ 100bdbec     libgit2:path.obj
 0002:0000ec24       ??_C@_1BK@KBLFOGBC@?$AAc?$AAe?$AAi?$AAl?$AAi?$AAn?$AAg?$AA?5?$AA?$DO?$AA?$DN?$AA?5?$AA0?$AA?$AA@ 100bdc24     libgit2:path.obj
 0002:0000ec40       ??_C@_1CC@IKIOGAEJ@?$AAp?$AAa?$AAt?$AAh?$AA?5?$AA?$CG?$AA?$CG?$AA?5?$AAp?$AAa?$AAt?$AAh?$AA_?$AAo?$AAu?$AAt?$AA?$AA@ 100bdc40     libgit2:path.obj
 0002:0000ec64       ??_C@_0BM@NBJAIKLE@Failed?5to?5resolve?5path?5?8?$CFs?8?$AA@ 100bdc64     libgit2:path.obj
 0002:0000ec80       ??_C@_1CK@JAMJHAGK@?$AAd?$AAe?$AAc?$AAo?$AAd?$AAe?$AAd?$AA_?$AAo?$AAu?$AAt?$AA?5?$AA?$CG?$AA?$CG?$AA?5?$AAi?$AAn?$AAp?$AAu?$AAt?$AA?$AA@ 100bdc80     libgit2:path.obj
 0002:0000ecac       ??_C@_0CD@NNJKEHPP@?8?$CFs?8?5is?5not?5a?5valid?5local?5file?5U@ 100bdcac     libgit2:path.obj
 0002:0000ecd0       ??_C@_07CAIJGPF@file?3?1?1?$AA@ 100bdcd0     libgit2:path.obj
 0002:0000ecd8       ??_C@_0L@BMEILEPM@localhost?1?$AA@ 100bdcd8     libgit2:path.obj
 0002:0000ece4       ??_C@_1DG@PIACCAEA@?$AAl?$AAo?$AAc?$AAa?$AAl?$AA_?$AAp?$AAa?$AAt?$AAh?$AA_?$AAo?$AAu?$AAt?$AA?5?$AA?$CG?$AA?$CG?$AA?5?$AAf?$AAi?$AAl?$AAe?$AA_?$AAu?$AAr?$AAl?$AA?$AA@ 100bdce4     libgit2:path.obj
 0002:0000ed1c       ??_C@_1BG@OABDHKPK@?$AAp?$AAa?$AAt?$AAh?$AA?5?$AA?$CG?$AA?$CG?$AA?5?$AAc?$AAb?$AA?$AA@ 100bdd1c     libgit2:path.obj
 0002:0000ed34       ??_C@_0BB@KACKELFH@git_path_walk_up?$AA@ 100bdd34     libgit2:path.obj
 0002:0000ed48       ??_C@_0BK@JBFPJBGF@Could?5not?5find?5?8?$CFs?8?5to?5?$CFs?$AA@ 100bdd48     libgit2:path.obj
 0002:0000ed64       ??_C@_0CB@IBOCNEID@Invalid?5path?5for?5filesystem?5?8?$CFs?8@ 100bdd64     libgit2:path.obj
 0002:0000ed88       ??_C@_0CA@KMFMBOFJ@Failed?5?$CFs?5?9?5?8?$CFs?8?5already?5exists?$AA@ 100bdd88     libgit2:path.obj
 0002:0000eda8       ??_C@_0BC@IFKKCBML@Could?5not?5?$CFs?5?8?$CFs?8?$AA@ 100bdda8     libgit2:path.obj
 0002:0000edbc       ??_C@_0CE@GGFDGAFF@Cannot?5strip?5root?5component?5off?5@ 100bddbc     libgit2:path.obj
 0002:0000ede0       ??_C@_0BJ@OGLDMODF@?$CFs?5is?5not?5a?5parent?5of?5?$CFs?$AA@ 100bdde0     libgit2:path.obj
 0002:0000edfc       ??_C@_03LOJJKLGJ@?4?4?1?$AA@ 100bddfc     libgit2:path.obj
 0002:0000ee00       ??_C@_0BO@DIEOF@Failed?5to?5open?5directory?5?8?$CFs?8?$AA@ 100bde00     libgit2:path.obj
 0002:0000ee20       ??_C@_0BB@GNFJCGHL@git_path_direach?$AA@ 100bde20     libgit2:path.obj
 0002:0000ee34       ??_C@_1CA@ONANEPJN@?$AAd?$AAi?$AAr?$AAi?$AAt?$AAe?$AAr?$AA?5?$AA?$CG?$AA?$CG?$AA?5?$AAp?$AAa?$AAt?$AAh?$AA?$AA@ 100bde34     libgit2:path.obj
 0002:0000ee54       ??_C@_0BO@FPPJONCC@Could?5not?5open?5directory?5?8?$CFs?8?$AA@ 100bde54     libgit2:path.obj
 0002:0000ee74       ??_C@_0CI@HGFIBLII@Could?5not?5parse?5the?5directory?5pa@ 100bde74     libgit2:path.obj
 0002:0000ee9c       ??_C@_0CJ@PAIOKKPL@invalid?5path?5?8?$CF?4?$CKls?2?$CFls?8?5?$CIpath?5t@ 100bde9c     libgit2:path.obj
 0002:0000eec8       ??_C@_03ECCGHPEG@CON?$AA@  100bdec8     libgit2:path.obj
 0002:0000eecc       ??_C@_03BEHELHBE@PRN?$AA@  100bdecc     libgit2:path.obj
 0002:0000eed0       ??_C@_03OFAGCELM@AUX?$AA@  100bded0     libgit2:path.obj
 0002:0000eed4       ??_C@_03JDMLODLP@NUL?$AA@  100bded4     libgit2:path.obj
 0002:0000eed8       ??_C@_03GJALCMIF@COM?$AA@  100bded8     libgit2:path.obj
 0002:0000eedc       ??_C@_03LNBCHBIG@LPT?$AA@  100bdedc     libgit2:path.obj
 0002:0000eee0       ??_C@_1DO@ELOLGKCE@?$AA?4?$AA?4?$AA?2?$AAd?$AAe?$AAp?$AAs?$AA?2?$AAl?$AAi?$AAb?$AAg?$AAi?$AAt?$AA2?$AA?2?$AAs?$AAr?$AAc?$AA?2?$AAp?$AAa?$AAt?$AAh?$AAs?$AAp?$AAe?$AAc?$AA?4?$AAc?$AA?$AA@ 100bdee0     libgit2:pathspec.obj
 0002:0000ef20       ??_C@_1BG@GMMNFEBB@?$AAp?$AAs?$AA?5?$AA?$CG?$AA?$CG?$AA?5?$AAp?$AAa?$AAt?$AAh?$AA?$AA@ 100bdf20     libgit2:pathspec.obj
 0002:0000ef38       ??_C@_0BN@GKKKNMEO@No?5matching?5files?5were?5found?$AA@ 100bdf38     libgit2:pathspec.obj
 0002:0000ef58       ??_C@_0BO@LMIKPACK@No?5matching?5deltas?5were?5found?$AA@ 100bdf58     libgit2:pathspec.obj
 0002:0000ef78       ??_C@_0N@DMLBHMIG@_git2_XXXXXX?$AA@ 100bdf78     libgit2:fileops.obj
 0002:0000ef88       ??_C@_0CF@LGIGBJP@Failed?5to?5create?5temporary?5file?5@ 100bdf88     libgit2:fileops.obj
 0002:0000efb0       ??_C@_0CH@FNBPOIAD@Failed?5to?5set?5permissions?5on?5fil@ 100bdfb0     libgit2:fileops.obj
 0002:0000efd8       ??_C@_0BL@BOPPNCJP@Failed?5to?5create?5file?5?8?$CFs?8?$AA@ 100bdfd8     libgit2:fileops.obj
 0002:0000eff4       ??_C@_0CC@LCLMBOEG@Failed?5to?5create?5locked?5file?5?8?$CFs@ 100bdff4     libgit2:fileops.obj
 0002:0000f018       ??_C@_04PMOCAHAA@open?$AA@ 100be018     libgit2:fileops.obj
 0002:0000f020       ??_C@_0BP@JGDABNNP@Failed?5to?5stat?5file?5descriptor?$AA@ 100be020     libgit2:fileops.obj
 0002:0000f040       ??_C@_0BK@PMOMFJDC@Failed?5to?5read?5descriptor?$AA@ 100be040     libgit2:fileops.obj
 0002:0000f05c       ??_C@_1DM@BNKHHPNC@?$AA?4?$AA?4?$AA?2?$AAd?$AAe?$AAp?$AAs?$AA?2?$AAl?$AAi?$AAb?$AAg?$AAi?$AAt?$AA2?$AA?2?$AAs?$AAr?$AAc?$AA?2?$AAf?$AAi?$AAl?$AAe?$AAo?$AAp?$AAs?$AA?4?$AAc?$AA?$AA@ 100be05c     libgit2:fileops.obj
 0002:0000f098       ??_C@_1CK@OELBNECK@?$AAo?$AAu?$AAt?$AA?5?$AA?$CG?$AA?$CG?$AA?5?$AAp?$AAa?$AAt?$AAh?$AA?5?$AA?$CG?$AA?$CG?$AA?5?$AA?$CK?$AAp?$AAa?$AAt?$AAh?$AA?$AA@ 100be098     libgit2:fileops.obj
 0002:0000f0c4       ??_C@_0BO@KJLPCCEM@requested?5file?5is?5a?5directory?$AA@ 100be0c4     libgit2:fileops.obj
 0002:0000f0e4       ??_C@_0CD@EDKOJGCF@Invalid?5regular?5file?5stat?5for?5?8?$CF@ 100be0e4     libgit2:fileops.obj
 0002:0000f108       ??_C@_0DA@EEIENPDA@Failed?5to?5make?5directory?5?8?$CFs?8?3?5d@ 100be108     libgit2:fileops.obj
 0002:0000f138       ??_C@_07KLDEEJBK@symlink?$AA@ 100be138     libgit2:fileops.obj
 0002:0000f140       ??_C@_0BJ@HIBAHMOM@Failed?5to?5remove?5?$CFs?5?8?$CFs?8?$AA@ 100be140     libgit2:fileops.obj
 0002:0000f15c       ??_C@_0BO@KCMKEPKI@Failed?5to?5make?5directory?5?8?$CFs?8?$AA@ 100be15c     libgit2:fileops.obj
 0002:0000f17c       ??_C@_0CC@GOBFJMNE@failed?5to?5set?5permissions?5on?5?8?$CFs@ 100be17c     libgit2:fileops.obj
 0002:0000f1a0       ??_C@_0BN@BDHLDGJA@attempt?5to?5create?5empty?5path?$AA@ 100be1a0     libgit2:fileops.obj
 0002:0000f1c0       ??_C@_17JOFJILLL@?$AAl?$AAe?$AAn?$AA?$AA@ 100be1c0     libgit2:fileops.obj
 0002:0000f1c8       ??_C@_0CF@PFFAIGHD@Cannot?5access?5component?5in?5path?5@ 100be1c8     libgit2:fileops.obj
 0002:0000f1f0       ??_C@_0BN@KDLMLMFB@Path?5is?5not?5a?5directory?5?8?$CFs?8?$AA@ 100be1f0     libgit2:fileops.obj
 0002:0000f210       ??_C@_0CJ@DKHPPMOG@Could?5not?5remove?5directory?4?5File@ 100be210     libgit2:fileops.obj
 0002:0000f23c       ??_C@_0CA@PFGIJDAN@Could?5not?5remove?5directory?5?8?$CFs?8?$AA@ 100be23c     libgit2:fileops.obj
 0002:0000f25c       ??_C@_0BF@LKEEIAA@cannot?5remove?5parent?$AA@ 100be25c     libgit2:fileops.obj
 0002:0000f274       ??_C@_0BL@LDGLGFCK@directory?5nesting?5too?5deep?$AA@ 100be274     libgit2:fileops.obj
 0002:0000f290       ??_C@_0BI@ECIGANEL@parent?5is?5not?5directory?$AA@ 100be290     libgit2:fileops.obj
 0002:0000f2a8       ??_C@_05IHDOMKOF@rmdir?$AA@ 100be2a8     libgit2:fileops.obj
 0002:0000f2b0       ??_C@_06LEMKAMD@remove?$AA@ 100be2b0     libgit2:fileops.obj
 0002:0000f2b8       ??_C@_0O@FABGDLAC@still?5present?$AA@ 100be2b8     libgit2:fileops.obj
 0002:0000f2c8       ??_C@_0BO@MDJPIPLF@Read?5error?5while?5copying?5file?$AA@ 100be2c8     libgit2:fileops.obj
 0002:0000f2e8       ??_C@_0BP@OBEDCLL@write?5error?5while?5copying?5file?$AA@ 100be2e8     libgit2:fileops.obj
 0002:0000f308       ??_C@_0BB@HNIOCNHB@open?5for?5writing?$AA@ 100be308     libgit2:fileops.obj
 0002:0000f31c       ??_C@_0CF@INHGLBGF@Failed?5to?5read?5symlink?5data?5for?5@ 100be31c     libgit2:fileops.obj
 0002:0000f344       ??_C@_0BP@IEHEAKLC@Could?5not?5symlink?5?8?$CFs?8?5as?5?8?$CFs?8?$AA@ 100be344     libgit2:fileops.obj
 0002:0000f364       ??_C@_0CE@FGKGCKFJ@Cannot?5overwrite?5existing?5file?5?8@ 100be364     libgit2:fileops.obj
 0002:0000f388       ??_C@_0BE@OGGHCKJM@failed?5to?5link?5?8?$CFs?8?$AA@ 100be388     libgit2:fileops.obj
 0002:0000f39c       ??_C@_1BC@GDMECMAK@?$AAk?$AAe?$AAr?$AAn?$AAe?$AAl?$AA3?$AA2?$AA?$AA@ 100be39c     libgit2:posix_w32.obj
 0002:0000f3b0       ??_C@_0BK@PDKDDAF@GetFinalPathNameByHandleW?$AA@ 100be3b0     libgit2:posix_w32.obj
 0002:0000f3d0       ??_C@_1EM@BPGIFKJI@?$AA?4?$AA?4?$AA?2?$AAd?$AAe?$AAp?$AAs?$AA?2?$AAl?$AAi?$AAb?$AAg?$AAi?$AAt?$AA2?$AA?2?$AAs?$AAr?$AAc?$AA?2?$AAw?$AAi?$AAn?$AA3?$AA2?$AA?2?$AAp?$AAo?$AAs?$AAi?$AAx?$AA_@ 100be3d0     libgit2:posix_w32.obj
 0002:0000f41c       ??_C@_1BC@BNBKBLIF@?$AAt?$AAo?$AAR?$AAe?$AAt?$AAu?$AAr?$AAn?$AA?$AA@ 100be41c     libgit2:posix_w32.obj
 0002:0000f430       ??_C@_0BJ@IHGCJNGF@failed?5to?5get?5attributes?$AA@ 100be430     libgit2:posix_w32.obj
 0002:0000f44c       ??_C@_0BJ@EJHMGHEJ@failed?5to?5set?5attributes?$AA@ 100be44c     libgit2:posix_w32.obj
 0002:0000f468       ??_C@_02HCNENIII@lf?$AA@   100be468     libgit2:config_cache.obj
 0002:0000f46c       ??_C@_06HIDILOEA@native?$AA@ 100be46c     libgit2:config_cache.obj
 0002:0000f474       ??_C@_05DFJCHPDH@input?$AA@ 100be474     libgit2:config_cache.obj
 0002:0000f47c       ??_C@_04FNLOFOEM@warn?$AA@ 100be47c     libgit2:config_cache.obj
 0002:0000f484       ??_C@_0O@GMPOONJI@core?4autocrlf?$AA@ 100be484     libgit2:config_cache.obj
 0002:0000f494       ??_C@_08KONHIFCO@core?4eol?$AA@ 100be494     libgit2:config_cache.obj
 0002:0000f4a0       ??_C@_0BA@CMJKNKN@core?4ignorestat?$AA@ 100be4a0     libgit2:config_cache.obj
 0002:0000f4b0       ??_C@_0BA@FMLEMJAE@core?4trustctime?$AA@ 100be4b0     libgit2:config_cache.obj
 0002:0000f4c0       ??_C@_0M@GNDOHGDN@core?4abbrev?$AA@ 100be4c0     libgit2:config_cache.obj
 0002:0000f4cc       ??_C@_0BH@PECAKICI@core?4precomposeunicode?$AA@ 100be4cc     libgit2:config_cache.obj
 0002:0000f4e4       ??_C@_0O@EHODBGDP@core?4safecrlf?$AA@ 100be4e4     libgit2:config_cache.obj
 0002:0000f4f4       ??_C@_0BA@LGJONBFJ@core?4protecthfs?$AA@ 100be4f4     libgit2:config_cache.obj
 0002:0000f504       ??_C@_0BB@HJKOFGJL@core?4protectntfs?$AA@ 100be504     libgit2:config_cache.obj
 0002:0000f518       ??_C@_0BH@BECGOEKM@Unknown?5file?5source?5?$CFd?$AA@ 100be518     libgit2:attr_file.obj
 0002:0000f530       ??_C@_0BF@EMIHBGFH@Invalid?5file?5type?5?$CFd?$AA@ 100be530     libgit2:attr_file.obj
 0002:0000f548       ??_C@_0BA@EBKMHFBB@?1?4gitattributes?$AA@ 100be548     libgit2:attr_file.obj
 0002:0000f558       ??_C@_1EA@EIFHEKIA@?$AA?4?$AA?4?$AA?2?$AAd?$AAe?$AAp?$AAs?$AA?2?$AAl?$AAi?$AAb?$AAg?$AAi?$AAt?$AA2?$AA?2?$AAs?$AAr?$AAc?$AA?2?$AAa?$AAt?$AAt?$AAr?$AA_?$AAf?$AAi?$AAl?$AAe?$AA?4?$AAc?$AA?$AA@ 100be558     libgit2:attr_file.obj
 0002:0000f598       ??_C@_1CM@HGFOMIIC@?$AAs?$AAp?$AAe?$AAc?$AA?5?$AA?$CG?$AA?$CG?$AA?5?$AAb?$AAa?$AAs?$AAe?$AA?5?$AA?$CG?$AA?$CG?$AA?5?$AA?$CK?$AAb?$AAa?$AAs?$AAe?$AA?$AA@ 100be598     libgit2:attr_file.obj
 0002:0000f5c4       ??_C@_06DAIGKPNA@?$FLattr?$FN?$AA@ 100be5c4     libgit2:attr_file.obj
 0002:0000f5cc       ??_C@_1DI@HCDKHBHN@?$AAa?$AAs?$AAs?$AAi?$AAg?$AAn?$AAs?$AA?5?$AA?$CG?$AA?$CG?$AA?5?$AA?$CB?$AAa?$AAs?$AAs?$AAi?$AAg?$AAn?$AAs?$AA?9?$AA?$DO?$AAl?$AAe?$AAn?$AAg?$AAt?$AAh?$AA?$AA@ 100be5cc     libgit2:attr_file.obj
 0002:0000f608       ??_C@_1EC@EEHOFAC@?$AA?4?$AA?4?$AA?2?$AAd?$AAe?$AAp?$AAs?$AA?2?$AAl?$AAi?$AAb?$AAg?$AAi?$AAt?$AA2?$AA?2?$AAs?$AAr?$AAc?$AA?2?$AAm?$AAe?$AAr?$AAg?$AAe?$AA_?$AAf?$AAi?$AAl?$AAe?$AA?4?$AAc@ 100be608     libgit2:merge_file.obj
 0002:0000f650       ??_C@_1FI@KIKFALLI@?$AAi?$AAn?$AAp?$AAu?$AAt?$AA_?$AAo?$AAu?$AAt?$AA?5?$AA?$CG?$AA?$CG?$AA?5?$AAo?$AAd?$AAb?$AA_?$AAo?$AAb?$AAj?$AAe?$AAc?$AAt?$AA_?$AAo?$AAu?$AAt?$AA?5?$AA?$CG?$AA?$CG?$AA?5?$AAo@ 100be650     libgit2:merge_file.obj
 0002:0000f6a8       ??_C@_0BH@BLBIOHLL@Failed?5to?5merge?5files?4?$AA@ 100be6a8     libgit2:merge_file.obj
 0002:0000f6c0       ??_C@_08GGBJDDCD@file?4txt?$AA@ 100be6c0     libgit2:merge_file.obj
 0002:0000f6cc       ??_C@_1CM@BHFFAIMB@?$AAo?$AAu?$AAt?$AA?5?$AA?$CG?$AA?$CG?$AA?5?$AAo?$AAu?$AAr?$AAs?$AA?5?$AA?$CG?$AA?$CG?$AA?5?$AAt?$AAh?$AAe?$AAi?$AAr?$AAs?$AA?$AA@ 100be6cc     libgit2:merge_file.obj
 0002:0000f6f8       ??_C@_1DM@FHOOPLE@?$AAo?$AAu?$AAt?$AA?5?$AA?$CG?$AA?$CG?$AA?5?$AAr?$AAe?$AAp?$AAo?$AA?5?$AA?$CG?$AA?$CG?$AA?5?$AAo?$AAu?$AAr?$AAs?$AA?5?$AA?$CG?$AA?$CG?$AA?5?$AAt?$AAh?$AAe?$AAi?$AAr?$AAs?$AA?$AA@ 100be6f8     libgit2:merge_file.obj
 0002:0000f734       ??_C@_0BP@KNHLEFKB@Failed?5to?5parse?5signature?5?9?5?$CFs?$AA@ 100be734     libgit2:signature.obj
 0002:0000f758       ??_C@_1EA@KODMPLGB@?$AA?4?$AA?4?$AA?2?$AAd?$AAe?$AAp?$AAs?$AA?2?$AAl?$AAi?$AAb?$AAg?$AAi?$AAt?$AA2?$AA?2?$AAs?$AAr?$AAc?$AA?2?$AAs?$AAi?$AAg?$AAn?$AAa?$AAt?$AAu?$AAr?$AAe?$AA?4?$AAc?$AA?$AA@ 100be758     libgit2:signature.obj
 0002:0000f798       ??_C@_1BM@HNJMGCLD@?$AAn?$AAa?$AAm?$AAe?$AA?5?$AA?$CG?$AA?$CG?$AA?5?$AAe?$AAm?$AAa?$AAi?$AAl?$AA?$AA@ 100be798     libgit2:signature.obj
 0002:0000f7b8       ??_C@_0EA@IDMFADDL@Neither?5?$GAname?$GA?5nor?5?$GAemail?$GA?5shoul@ 100be7b8     libgit2:signature.obj
 0002:0000f7f8       ??_C@_0CN@CEGCHNCK@Signature?5cannot?5have?5an?5empty?5n@ 100be7f8     libgit2:signature.obj
 0002:0000f828       ??_C@_09OGHMLDAF@user?4name?$AA@ 100be828     libgit2:signature.obj
 0002:0000f834       ??_C@_0L@FFDPPHIJ@user?4email?$AA@ 100be834     libgit2:signature.obj
 0002:0000f840       ??_C@_0BB@PBDJNCCK@no?5newline?5given?$AA@ 100be840     libgit2:signature.obj
 0002:0000f854       ??_C@_0CF@HEFKHDAD@expected?5prefix?5doesn?8t?5match?5ac@ 100be854     libgit2:signature.obj
 0002:0000f87c       ??_C@_0BB@IPJPKBB@malformed?5e?9mail?$AA@ 100be87c     libgit2:signature.obj
 0002:0000f890       ??_C@_0BH@KILNCLKK@invalid?5Unix?5timestamp?$AA@ 100be890     libgit2:signature.obj
 0002:0000f8a8       ??_C@_1BG@HLFPLOJ@?$AAb?$AAu?$AAf?$AA?5?$AA?$CG?$AA?$CG?$AA?5?$AAs?$AAi?$AAg?$AA?$AA@ 100be8a8     libgit2:signature.obj
 0002:0000f8c0       ??_C@_0BJ@KPFNDGFK@?$CFs?$CFs?5?$DM?$CFs?$DO?5?$CFu?5?$CFc?$CF02d?$CF02d?6?$AA@ 100be8c0     libgit2:signature.obj
 0002:0000f8dc       ??_C@_07MJOKPHAM@?$CFs?5?$CFlld?$AA@ 100be8dc     libgit2:odb.obj
 0002:0000f8e4       ??_C@_1DE@PLGOMOKG@?$AA?4?$AA?4?$AA?2?$AAd?$AAe?$AAp?$AAs?$AA?2?$AAl?$AAi?$AAb?$AAg?$AAi?$AAt?$AA2?$AA?2?$AAs?$AAr?$AAc?$AA?2?$AAo?$AAd?$AAb?$AA?4?$AAc?$AA?$AA@ 100be8e4     libgit2:odb.obj
 0002:0000f918       ??_C@_1DC@JFCEALKP@?$AAl?$AAe?$AAn?$AA?5?$AA?$DO?$AA?5?$AA0?$AA?5?$AA?$CG?$AA?$CG?$AA?5?$AAl?$AAe?$AAn?$AA?5?$AA?$DM?$AA?$DN?$AA?5?$AA?$CI?$AAi?$AAn?$AAt?$AA?$CJ?$AAn?$AA?$AA@ 100be918     libgit2:odb.obj
 0002:0000f94c       ??_C@_1BE@EJFFFIDH@?$AAi?$AAd?$AA?5?$AA?$CG?$AA?$CG?$AA?5?$AAo?$AAb?$AAj?$AA?$AA@ 100be94c     libgit2:odb.obj
 0002:0000f960       ??_C@_0BN@OHDLHEOP@Invalid?5object?5type?5for?5hash?$AA@ 100be960     libgit2:odb.obj
 0002:0000f980       ??_C@_0BP@MDBBCFLH@Error?5reading?5file?5for?5hashing?$AA@ 100be980     libgit2:odb.obj
 0002:0000f9a0       ??_C@_1BO@IIIMBAOF@?$AAo?$AAd?$AAb?$AA?5?$AA?$CG?$AA?$CG?$AA?5?$AAb?$AAa?$AAc?$AAk?$AAe?$AAn?$AAd?$AA?$AA@ 100be9a0     libgit2:odb.obj
 0002:0000f9c0       ??_C@_0BA@GMBGJFGA@git_odb_backend?$AA@ 100be9c0     libgit2:odb.obj
 0002:0000f9d0       ??_C@_1EK@BDELNEAL@?$AA?$CB?$AAb?$AAa?$AAc?$AAk?$AAe?$AAn?$AAd?$AA?9?$AA?$DO?$AAo?$AAd?$AAb?$AA?5?$AA?$HM?$AA?$HM?$AA?5?$AAb?$AAa?$AAc?$AAk?$AAe?$AAn?$AAd?$AA?9?$AA?$DO?$AAo?$AAd?$AAb?$AA?5?$AA?$DN?$AA?$DN@ 100be9d0     libgit2:odb.obj
 0002:0000fa1c       ??_C@_17JBFMOAEF@?$AAo?$AAd?$AAb?$AA?$AA@ 100bea1c     libgit2:odb.obj
 0002:0000fa24       ??_C@_0DD@BBHBLAAD@Cannot?5?$CFs?5?9?5unsupported?5in?5the?5l@ 100bea24     libgit2:odb.obj
 0002:0000fa58       ??_C@_1BG@HOFMNKDK@?$AAo?$AAu?$AAt?$AA?5?$AA?$CG?$AA?$CG?$AA?5?$AAo?$AAd?$AAb?$AA?$AA@ 100bea58     libgit2:odb.obj
 0002:0000fa70       ??_C@_0CD@JNNBEBED@No?5ODB?5backend?5loaded?5at?5index?5?$CF@ 100bea70     libgit2:odb.obj
 0002:0000fa94       ??_C@_0BA@EDMHJBPI@info?1alternates?$AA@ 100bea94     libgit2:odb.obj
 0002:0000faa4       ??_C@_1CG@EBKAIKHP@?$AAo?$AAu?$AAt?$AA?5?$AA?$CG?$AA?$CG?$AA?5?$AAo?$AAb?$AAj?$AAe?$AAc?$AAt?$AAs?$AA_?$AAd?$AAi?$AAr?$AA?$AA@ 100beaa4     libgit2:odb.obj
 0002:0000facc       ??_C@_1BC@NAIEKOMH@?$AAd?$AAb?$AA?5?$AA?$CG?$AA?$CG?$AA?5?$AAi?$AAd?$AA?$AA@ 100beacc     libgit2:odb.obj
 0002:0000fae0       ??_C@_0BM@BAEOKIFA@multiple?5matches?5for?5prefix?$AA@ 100beae0     libgit2:odb.obj
 0002:0000fafc       ??_C@_1BO@BNPJNMDG@?$AAd?$AAb?$AA?5?$AA?$CG?$AA?$CG?$AA?5?$AAs?$AAh?$AAo?$AAr?$AAt?$AA_?$AAi?$AAd?$AA?$AA@ 100beafc     libgit2:odb.obj
 0002:0000fb1c       ??_C@_0BI@KHOHOMIF@prefix?5length?5too?5short?$AA@ 100beb1c     libgit2:odb.obj
 0002:0000fb34       ??_C@_0BH@OIBEBFML@no?5match?5for?5id?5prefix?$AA@ 100beb34     libgit2:odb.obj
 0002:0000fb50       ??_C@_1EG@FOOGCKNN@?$AAd?$AAb?$AA?5?$AA?$CG?$AA?$CG?$AA?5?$AAi?$AAd?$AA?5?$AA?$CG?$AA?$CG?$AA?5?$AAo?$AAu?$AAt?$AA?5?$AA?$CG?$AA?$CG?$AA?5?$AAl?$AAe?$AAn?$AA_?$AAp?$AA?5?$AA?$CG?$AA?$CG?$AA?5?$AAt?$AAy?$AAp?$AAe@ 100beb50     libgit2:odb.obj
 0002:0000fb98       ??_C@_1CA@JJDBOMGA@?$AAo?$AAu?$AAt?$AA?5?$AA?$CG?$AA?$CG?$AA?5?$AAd?$AAb?$AA?5?$AA?$CG?$AA?$CG?$AA?5?$AAi?$AAd?$AA?$AA@ 100beb98     libgit2:odb.obj
 0002:0000fbb8       ??_C@_0BA@DFOIPCEC@no?5match?5for?5id?$AA@ 100bebb8     libgit2:odb.obj
 0002:0000fbc8       ??_C@_1BE@GGDILLK@?$AAo?$AAu?$AAt?$AA?5?$AA?$CG?$AA?$CG?$AA?5?$AAd?$AAb?$AA?$AA@ 100bebc8     libgit2:odb.obj
 0002:0000fbdc       ??_C@_0BE@IPPPOBOH@no?5match?5for?5prefix?$AA@ 100bebdc     libgit2:odb.obj
 0002:0000fbf0       ??_C@_1BE@NCBOJADG@?$AAo?$AAi?$AAd?$AA?5?$AA?$CG?$AA?$CG?$AA?5?$AAd?$AAb?$AA?$AA@ 100bebf0     libgit2:odb.obj
 0002:0000fc04       ??_C@_1BK@PHADADBP@?$AAs?$AAt?$AAr?$AAe?$AAa?$AAm?$AA?5?$AA?$CG?$AA?$CG?$AA?5?$AAd?$AAb?$AA?$AA@ 100bec04     libgit2:odb.obj
 0002:0000fc20       ??_C@_0N@CCLOMECD@write?5object?$AA@ 100bec20     libgit2:odb.obj
 0002:0000fc30       ??_C@_0GE@MBNCMHML@Cannot?5?$CFs?5?9?5Invalid?5length?4?5?$CFIu?5@ 100bec30     libgit2:odb.obj
 0002:0000fc94       ??_C@_0P@DOBECEEP@stream_write?$CI?$CJ?$AA@ 100bec94     libgit2:odb.obj
 0002:0000fca4       ??_C@_0BI@FDOMKBCJ@stream_finalize_write?$CI?$CJ?$AA@ 100beca4     libgit2:odb.obj
 0002:0000fcbc       ??_C@_0BF@KGPEABLF@read?5object?5streamed?$AA@ 100becbc     libgit2:odb.obj
 0002:0000fcd4       ??_C@_0L@BPFCFJL@write?5pack?$AA@ 100becd4     libgit2:odb.obj
 0002:0000fce0       ??_C@_15EMHHCMJI@?$AAd?$AAb?$AA?$AA@ 100bece0     libgit2:odb.obj
 0002:0000fce8       ??_C@_0BN@BDPKFGPC@Object?5not?5found?5?9?5?$CFs?5?$CI?$CF?4?$CKs?$CJ?$AA@ 100bece8     libgit2:odb.obj
 0002:0000fd08       ??_C@_0BG@MNDEMHNJ@Object?5not?5found?5?9?5?$CFs?$AA@ 100bed08     libgit2:odb.obj
 0002:0000fd20       ??_C@_0BL@OKFNBMME@Ambiguous?5SHA1?5prefix?5?9?5?$CFs?$AA@ 100bed20     libgit2:odb.obj
 0002:0000fd3c       ??_C@_0BB@LPHDFCAB@remote?4?$CFs?4tagopt?$AA@ 100bed3c     libgit2:remote.obj
 0002:0000fd50       ??_C@_09BAIHMDIJ@?9?9no?9tags?$AA@ 100bed50     libgit2:remote.obj
 0002:0000fd5c       ??_C@_06LBIJEPMM@?9?9tags?$AA@ 100bed5c     libgit2:remote.obj
 0002:0000fd64       ??_C@_0CB@EPOGNBHH@?8?$CFs?8?5is?5not?5a?5valid?5remote?5name?4@ 100bed64     libgit2:remote.obj
 0002:0000fd88       ??_C@_0BA@IGGIDOAK@remote?4?$CFs?4fetch?$AA@ 100bed88     libgit2:remote.obj
 0002:0000fd98       ??_C@_0P@KBIHMNEJ@remote?4?$CFs?4push?$AA@ 100bed98     libgit2:remote.obj
 0002:0000fda8       ??_C@_02BLMCLIAL@$?$FO?$AA@ 100beda8     libgit2:remote.obj
 0002:0000fdac       ??_C@_0BF@PDBBJIOH@cannot?5set?5empty?5URL?$AA@ 100bedac     libgit2:remote.obj
 0002:0000fdc4       ??_C@_1DK@DMHGPNKG@?$AA?4?$AA?4?$AA?2?$AAd?$AAe?$AAp?$AAs?$AA?2?$AAl?$AAi?$AAb?$AAg?$AAi?$AAt?$AA2?$AA?2?$AAs?$AAr?$AAc?$AA?2?$AAr?$AAe?$AAm?$AAo?$AAt?$AAe?$AA?4?$AAc?$AA?$AA@ 100bedc4     libgit2:remote.obj
 0002:0000fe00       ??_C@_0O@OKPMDGOC@remote?4?$CFs?4url?$AA@ 100bee00     libgit2:remote.obj
 0002:0000fe10       ??_C@_0BM@EBMGKPBG@Remote?5?8?$CFs?8?5already?5exists?4?$AA@ 100bee10     libgit2:remote.obj
 0002:0000fe2c       ??_C@_0CA@LBEGAHEO@?$CLrefs?1heads?1?$CK?3refs?1remotes?1?$CFs?1?$CK?$AA@ 100bee2c     libgit2:remote.obj
 0002:0000fe4c       ??_C@_1CI@BPOKPNNB@?$AAo?$AAu?$AAt?$AA?5?$AA?$CG?$AA?$CG?$AA?5?$AAr?$AAe?$AAp?$AAo?$AA?5?$AA?$CG?$AA?$CG?$AA?5?$AAn?$AAa?$AAm?$AAe?$AA?$AA@ 100bee4c     libgit2:remote.obj
 0002:0000fe74       ??_C@_0BC@LABPMBFF@remote?4?$CFs?4pushurl?$AA@ 100bee74     libgit2:remote.obj
 0002:0000fe88       ??_C@_0BM@GMCOPELK@Remote?5?8?$CFs?8?5does?5not?5exist?4?$AA@ 100bee88     libgit2:remote.obj
 0002:0000fea4       ??_C@_0BA@IEONBOGF@remote?4?$CFs?4prune?$AA@ 100beea4     libgit2:remote.obj
 0002:0000feb4       ??_C@_0M@OKBEDMEG@fetch?4prune?$AA@ 100beeb4     libgit2:remote.obj
 0002:0000fec0       ??_C@_1O@CECNJPPJ@?$AAr?$AAe?$AAm?$AAo?$AAt?$AAe?$AA?$AA@ 100beec0     libgit2:remote.obj
 0002:0000fed0       ??_C@_1BO@NAADOCGE@?$AAr?$AAe?$AAp?$AAo?$AA?5?$AA?$CG?$AA?$CG?$AA?5?$AAr?$AAe?$AAm?$AAo?$AAt?$AAe?$AA?$AA@ 100beed0     libgit2:remote.obj
 0002:0000fef0       ??_C@_1II@KBACKMLN@?$AAd?$AAi?$AAr?$AAe?$AAc?$AAt?$AAi?$AAo?$AAn?$AA?5?$AA?$DN?$AA?$DN?$AA?5?$AAG?$AAI?$AAT?$AA_?$AAD?$AAI?$AAR?$AAE?$AAC?$AAT?$AAI?$AAO?$AAN?$AA_?$AAF?$AAE?$AAT?$AAC?$AAH@ 100beef0     libgit2:remote.obj
 0002:0000ff78       ??_C@_0BF@BEJONEJB@git_remote_callbacks?$AA@ 100bef78     libgit2:remote.obj
 0002:0000ff90       ??_C@_0CE@JIKAFKAM@Malformed?5remote?5?8?$CFs?8?5?9?5missing?5@ 100bef90     libgit2:remote.obj
 0002:0000ffb4       ??_C@_0CA@JNOIDKNJ@this?5remote?5has?5never?5connected?$AA@ 100befb4     libgit2:remote.obj
 0002:0000ffd4       ??_C@_0BA@EFJFCLAB@remote?4?$CFs?4proxy?$AA@ 100befd4     libgit2:remote.obj
 0002:0000ffe4       ??_C@_0L@FADKPPGI@http?4proxy?$AA@ 100befe4     libgit2:remote.obj
 0002:0000fff0       ??_C@_0M@DCEHBJCF@HTTPS_PROXY?$AA@ 100beff0     libgit2:remote.obj
 0002:0000fffc       ??_C@_0L@GDPFKPEL@HTTP_PROXY?$AA@ 100beffc     libgit2:remote.obj
 0002:00010008       ??_C@_08LCHAJOA@fetch?5?$CFs?$AA@ 100bf008     libgit2:remote.obj
 0002:00010014       ??_C@_1DM@GEIEKDMI@?$AAu?$AAp?$AAd?$AAa?$AAt?$AAe?$AA_?$AAh?$AAe?$AAa?$AAd?$AAs?$AA?5?$AA?$CG?$AA?$CG?$AA?5?$AAf?$AAe?$AAt?$AAc?$AAh?$AAs?$AAp?$AAe?$AAc?$AA_?$AAs?$AAr?$AAc?$AA?$AA@ 100bf014     libgit2:remote.obj
 0002:00010050       ??_C@_1CG@KAJOOI@?$AAo?$AAu?$AAt?$AA?5?$AA?$CG?$AA?$CG?$AA?5?$AAs?$AAp?$AAe?$AAc?$AA?5?$AA?$CG?$AA?$CG?$AA?5?$AAr?$AAe?$AAf?$AA?$AA@ 100bf050     libgit2:remote.obj
 0002:00010078       ??_C@_0N@DCOPFDIB@refs?1heads?1?$CK?$AA@ 100bf078     libgit2:remote.obj
 0002:00010088       ??_C@_0BI@HADEFKBG@refs?1tags?1?$CK?3refs?1tags?1?$CK?$AA@ 100bf088     libgit2:remote.obj
 0002:000100a0       ??_C@_04IFPAFBLM@?4url?$AA@ 100bf0a0     libgit2:remote.obj
 0002:000100a8       ??_C@_0BJ@LFLINPDP@?$FOremote?2?4?4?$CK?2?4?$CIpush?$CJ?$DPurl$?$AA@ 100bf0a8     libgit2:remote.obj
 0002:000100c4       ??_C@_0CF@DNLJFDBJ@Invalid?5value?5for?5the?5tagopt?5set@ 100bf0c4     libgit2:remote.obj
 0002:000100ec       ??_C@_09HFDFEOHI@remote?4?$CFs?$AA@ 100bf0ec     libgit2:remote.obj
 0002:000100f8       ??_C@_0BD@OEJCEAMC@branch?2?4?4?$CL?2?4remote?$AA@ 100bf0f8     libgit2:remote.obj
 0002:0001010c       ??_C@_0BB@FIBPHHG@refs?1remotes?1?$CFs?1?$AA@ 100bf10c     libgit2:remote.obj
 0002:00010120       ??_C@_0BI@IDFNOOAG@renamed?5remote?5?$CFs?5to?5?$CFs?$AA@ 100bf120     libgit2:remote.obj
 0002:00010138       ??_C@_0BC@NGAIJJNG@refs?1remotes?1?$CFs?1?$CK?$AA@ 100bf138     libgit2:remote.obj
 0002:00010150       ??_C@_1EA@KIEIGDJJ@?$AAo?$AAu?$AAt?$AA?5?$AA?$CG?$AA?$CG?$AA?5?$AAr?$AAe?$AAp?$AAo?$AA?5?$AA?$CG?$AA?$CG?$AA?5?$AAn?$AAa?$AAm?$AAe?$AA?5?$AA?$CG?$AA?$CG?$AA?5?$AAn?$AAe?$AAw?$AA_?$AAn?$AAa?$AAm?$AAe?$AA?$AA@ 100bf150     libgit2:remote.obj
 0002:00010190       ??_C@_0CF@EGFICKMG@refs?1heads?1test?3refs?1remotes?1?$CFs?1@ 100bf190     libgit2:remote.obj
 0002:000101b8       ??_C@_17NDIDAEJD@?$AAd?$AAo?$AAt?$AA?$AA@ 100bf1b8     libgit2:remote.obj
 0002:000101c0       ??_C@_0BC@NKBKCFOC@branch?4?$CF?4?$CKs?4merge?$AA@ 100bf1c0     libgit2:remote.obj
 0002:000101d4       ??_C@_0BD@PNCCALEP@branch?4?$CF?4?$CKs?4remote?$AA@ 100bf1d4     libgit2:remote.obj
 0002:000101e8       ??_C@_1CG@CKBJDPBG@?$AAr?$AAe?$AAm?$AAo?$AAt?$AAe?$AA?5?$AA?$CG?$AA?$CG?$AA?5?$AAr?$AAe?$AAf?$AAs?$AAp?$AAe?$AAc?$AAs?$AA?$AA@ 100bf1e8     libgit2:remote.obj
 0002:00010210       ??_C@_1O@NEJONDGE@?$AAc?$AAo?$AAn?$AAf?$AAi?$AAg?$AA?$AA@ 100bf210     libgit2:remote.obj
 0002:00010220       ??_C@_17EJHHFLBD@?$AAu?$AAr?$AAl?$AA?$AA@ 100bf220     libgit2:remote.obj
 0002:00010228       ??_C@_0BD@JKNCKDKD@url?2?4?4?$CK?2?4insteadof?$AA@ 100bf228     libgit2:remote.obj
 0002:0001023c       ??_C@_0BH@CIHONHCO@url?2?4?4?$CK?2?4pushinsteadof?$AA@ 100bf23c     libgit2:remote.obj
 0002:00010254       ??_C@_04HDOCAJNK@?$CFs?$CFs?$AA@ 100bf254     libgit2:remote.obj
 0002:0001025c       ??_C@_1DI@GEBEGOLC@?$AA?4?$AA?4?$AA?2?$AAd?$AAe?$AAp?$AAs?$AA?2?$AAl?$AAi?$AAb?$AAg?$AAi?$AAt?$AA2?$AA?2?$AAs?$AAr?$AAc?$AA?2?$AAc?$AAl?$AAo?$AAn?$AAe?$AA?4?$AAc?$AA?$AA@ 100bf25c     libgit2:clone.obj
 0002:00010294       ??_C@_1BI@MDMMNDDJ@?$AAr?$AAe?$AAm?$AAo?$AAt?$AAe?$AA_?$AAh?$AAe?$AAa?$AAd?$AA?$AA@ 100bf294     libgit2:clone.obj
 0002:000102b0       ??_C@_0ED@CPOBBPJC@the?5remote?8s?5default?5branch?5does@ 100bf2b0     libgit2:clone.obj
 0002:000102f4       ??_C@_1CM@NEPIOOJG@?$AAr?$AAe?$AAm?$AAo?$AAt?$AAe?$AA_?$AAn?$AAa?$AAm?$AAe?$AA?5?$AA?$CG?$AA?$CG?$AA?5?$AAb?$AAr?$AAa?$AAn?$AAc?$AAh?$AA?$AA@ 100bf2f4     libgit2:clone.obj
 0002:00010320       ??_C@_0BD@GACIBCHA@refs?1remotes?1?$CFs?1?$CFs?$AA@ 100bf320     libgit2:clone.obj
 0002:00010334       ??_C@_1CA@LFMFAPMN@?$AAr?$AAe?$AAp?$AAo?$AA?5?$AA?$CG?$AA?$CG?$AA?5?$AA_?$AAr?$AAe?$AAm?$AAo?$AAt?$AAe?$AA?$AA@ 100bf334     libgit2:clone.obj
 0002:00010354       ??_C@_0BM@LKLEHEEI@the?5repository?5is?5not?5empty?$AA@ 100bf354     libgit2:clone.obj
 0002:00010370       ??_C@_0P@IGNBLAJO@clone?3?5from?5?$CFs?$AA@ 100bf370     libgit2:clone.obj
 0002:00010380       ??_C@_1DC@PBBLFPPE@?$AAo?$AAu?$AAt?$AA?5?$AA?$CG?$AA?$CG?$AA?5?$AAu?$AAr?$AAl?$AA?5?$AA?$CG?$AA?$CG?$AA?5?$AAl?$AAo?$AAc?$AAa?$AAl?$AA_?$AAp?$AAa?$AAt?$AAh?$AA?$AA@ 100bf380     libgit2:clone.obj
 0002:000103b4       ??_C@_0BC@DPIMCMHK@git_clone_options?$AA@ 100bf3b4     libgit2:clone.obj
 0002:000103c8       ??_C@_0CK@CCEIEKHH@?8?$CFs?8?5exists?5and?5is?5not?5an?5empty?5@ 100bf3c8     libgit2:clone.obj
 0002:000103f4       ??_C@_0DG@ENBIKKKF@Failed?5to?5parse?5config?5file?3?5?$CFs?5@ 100bf3f4     libgit2:config_file.obj
 0002:0001042c       ??_C@_0BK@FEHGDGDC@this?5backend?5is?5read?9only?$AA@ 100bf42c     libgit2:config_file.obj
 0002:00010448       ??_C@_0CG@HNKOHLOO@Multivar?5incompatible?5with?5simpl@ 100bf448     libgit2:config_file.obj
 0002:00010470       ??_C@_1EE@DOAPACGB@?$AA?4?$AA?4?$AA?2?$AAd?$AAe?$AAp?$AAs?$AA?2?$AAl?$AAi?$AAb?$AAg?$AAi?$AAt?$AA2?$AA?2?$AAs?$AAr?$AAc?$AA?2?$AAc?$AAo?$AAn?$AAf?$AAi?$AAg?$AA_?$AAf?$AAi?$AAl?$AAe?$AA?4@ 100bf470     libgit2:config_file.obj
 0002:000104b4       ??_C@_1O@LCMKHECO@?$AAr?$AAe?$AAg?$AAe?$AAx?$AAp?$AA?$AA@ 100bf4b4     libgit2:config_file.obj
 0002:000104c4       ??_C@_0CC@LGBMLAJN@Could?5not?5find?5key?5?8?$CFs?8?5to?5delet@ 100bf4c4     libgit2:config_file.obj
 0002:000104e8       ??_C@_0CM@NCOPILC@Cannot?5delete?5multivar?5with?5a?5si@ 100bf4e8     libgit2:config_file.obj
 0002:00010514       ??_C@_1CC@DJMCCHHM@?$AAr?$AAe?$AAa?$AAd?$AAe?$AAr?$AA?9?$AA?$DO?$AAr?$AAe?$AAa?$AAd?$AA_?$AAp?$AAt?$AAr?$AA?$AA@ 100bf514     libgit2:config_file.obj
 0002:00010538       ??_C@_0CK@GBNAAJGH@Missing?5quotation?5marks?5in?5secti@ 100bf538     libgit2:config_file.obj
 0002:00010564       ??_C@_0DB@KPGPKIAE@Missing?5closing?5quotation?5mark?5i@ 100bf564     libgit2:config_file.obj
 0002:00010598       ??_C@_03BEOHKAMK@?$CFs?4?$AA@ 100bf598     libgit2:config_file.obj
 0002:0001059c       ??_C@_0CJ@JPAFBGBF@Unexpected?5end?9of?9line?5in?5sectio@ 100bf59c     libgit2:config_file.obj
 0002:000105c8       ??_C@_0CF@BMOBONBJ@Unexpected?5text?5after?5closing?5qu@ 100bf5c8     libgit2:config_file.obj
 0002:000105f0       ??_C@_0BO@MDKCKDGN@Missing?5?8?$FN?8?5in?5section?5header?$AA@ 100bf5f0     libgit2:config_file.obj
 0002:00010610       ??_C@_1BC@PDHOFKNE@?$AAc?$AA?5?$AA?$DN?$AA?$DN?$AA?5?$AA?8?$AA?$FL?$AA?8?$AA?$AA@ 100bf610     libgit2:config_file.obj
 0002:00010624       ??_C@_0BP@CDALBGPD@Unexpected?5character?5in?5header?$AA@ 100bf624     libgit2:config_file.obj
 0002:00010644       ??_C@_0BH@CHGNDCAL@Unexpected?5end?5of?5file?$AA@ 100bf644     libgit2:config_file.obj
 0002:0001065c       ??_C@_05MMHJMJCH@ntb?$CC?2?$AA@ 100bf65c     libgit2:config_file.obj
 0002:00010664       ??_C@_05KMFLHHC@?6?7?$AI?$CC?2?$AA@ 100bf664     libgit2:config_file.obj
 0002:0001066c       ??_C@_17GHAIJGMG@?$AAp?$AAt?$AAr?$AA?$AA@ 100bf66c     libgit2:config_file.obj
 0002:00010674       ??_C@_0BF@GJPGBMIF@Invalid?5escape?5at?5?$CFs?$AA@ 100bf674     libgit2:config_file.obj
 0002:0001068c       ??_C@_0BK@NMDJHAIE@Invalid?5configuration?5key?$AA@ 100bf68c     libgit2:config_file.obj
 0002:000106a8       ??_C@_05NNFHCGPF@?$CFs?4?$CFs?$AA@ 100bf6a8     libgit2:config_file.obj
 0002:000106b0       ??_C@_0N@DEEKLMEP@include?4path?$AA@ 100bf6b0     libgit2:config_file.obj
 0002:000106c0       ??_C@_0CF@BAHGFGBI@Maximum?5config?5include?5depth?5rea@ 100bf6c0     libgit2:config_file.obj
 0002:000106e8       ??_C@_05JEHJOICL@?5?$CC?$CFs?$CC?$AA@ 100bf6e8     libgit2:config_file.obj
 0002:000106f0       ??_C@_02JODFHDIE@?$FN?6?$AA@ 100bf6f0     libgit2:config_file.obj
 0002:000106f4       ??_C@_01BJJEKLCA@?$CC?$AA@ 100bf6f4     libgit2:config_file.obj
 0002:000106f8       ??_C@_0O@FKEGBPPH@?7?$CFs?5?$DN?5?$CFs?$CFs?$CFs?6?$AA@ 100bf6f8     libgit2:config_file.obj
 0002:00010708       ??_C@_0CC@MIOAFAAP@Corrupted?5TREE?5extension?5in?5inde@ 100bf708     libgit2:tree-cache.obj
 0002:0001072c       ??_C@_0DN@LGMMCACN@Corrupted?5TREE?5extension?5in?5inde@ 100bf72c     libgit2:tree-cache.obj
 0002:0001076c       ??_C@_0N@BBMAIGB@?$CFs?$CFc?$CFId?5?$CFIu?6?$AA@ 100bf76c     libgit2:tree-cache.obj
 0002:0001077c       ??_C@_0BP@IFPBJDNJ@Failed?5to?5parse?5commit?5?$CFs?5?9?5?$CFs?$AA@ 100bf77c     libgit2:commit_list.obj
 0002:0001079c       ??_C@_0BE@OGAKHGCO@object?5is?5corrupted?$AA@ 100bf79c     libgit2:commit_list.obj
 0002:000107b0       ??_C@_0BJ@IEJGPJEL@cannot?5parse?5commit?5time?$AA@ 100bf7b0     libgit2:commit_list.obj
 0002:000107cc       ??_C@_0BL@OIAMPCFL@Object?5is?5no?5commit?5object?$AA@ 100bf7cc     libgit2:commit_list.obj
 0002:000107e8       ??_C@_0O@PNBOALMP@Empty?5pattern?$AA@ 100bf7e8     libgit2:revparse.obj
 0002:000107f8       ??_C@_02BKJHAODO@?9g?$AA@  100bf7f8     libgit2:revparse.obj
 0002:000107fc       ??_C@_0BI@HEIPPIPP@?4?$CL?9?$FL0?99?$FN?$CL?9g?$FL0?99a?9fA?9F?$FN?$CL?$AA@ 100bf7fc     libgit2:revparse.obj
 0002:00010814       ??_C@_0BI@OLILEALH@Revspec?5?8?$CFs?8?5not?5found?4?$AA@ 100bf814     libgit2:revparse.obj
 0002:0001082c       ??_C@_0CB@CKBKEBHI@checkout?3?5moving?5from?5?$CI?4?$CK?$CJ?5to?5?4?$CK@ 100bf82c     libgit2:revparse.obj
 0002:00010850       ??_C@_0DE@LMJKCAGI@Reflog?5for?5?8?$CFs?8?5has?5only?5?$CFIu?5ent@ 100bf850     libgit2:revparse.obj
 0002:00010884       ??_C@_1DO@DMIOBMNJ@?$AA?4?$AA?4?$AA?2?$AAd?$AAe?$AAp?$AAs?$AA?2?$AAl?$AAi?$AAb?$AAg?$AAi?$AAt?$AA2?$AA?2?$AAs?$AAr?$AAc?$AA?2?$AAr?$AAe?$AAv?$AAp?$AAa?$AAr?$AAs?$AAe?$AA?4?$AAc?$AA?$AA@ 100bf884     libgit2:revparse.obj
 0002:000108c4       ??_C@_1BK@BANOJDPD@?$AA?$CK?$AAo?$AAu?$AAt?$AA?5?$AA?$DN?$AA?$DN?$AA?5?$AAN?$AAU?$AAL?$AAL?$AA?$AA@ 100bf8c4     libgit2:revparse.obj
 0002:000108e0       ??_C@_01OMGOGALD@u?$AA@    100bf8e0     libgit2:revparse.obj
 0002:000108e4       ??_C@_08FEANHJFJ@upstream?$AA@ 100bf8e4     libgit2:revparse.obj
 0002:000108f0       ??_C@_06HCNPDPAA@refs?1?$CK?$AA@ 100bf8f0     libgit2:revparse.obj
 0002:000108f8       ??_C@_1EO@GFHFOPDH@?$AAs?$AAp?$AAe?$AAc?$AA?$FL?$AA?$CK?$AAp?$AAo?$AAs?$AA?$FN?$AA?5?$AA?$DN?$AA?$DN?$AA?5?$AA?8?$AA?$FO?$AA?8?$AA?5?$AA?$HM?$AA?$HM?$AA?5?$AAs?$AAp?$AAe?$AAc?$AA?$FL?$AA?$CK?$AAp?$AAo?$AAs?$AA?$FN?$AA?5@ 100bf8f8     libgit2:revparse.obj
 0002:00010948       ??_C@_1CE@JNJNKGAI@?$AAs?$AAp?$AAe?$AAc?$AA?$FL?$AA?$CK?$AAp?$AAo?$AAs?$AA?$FN?$AA?5?$AA?$DN?$AA?$DN?$AA?5?$AA?8?$AA?3?$AA?8?$AA?$AA@ 100bf948     libgit2:revparse.obj
 0002:00010970       ??_C@_1EO@FLAFIJOK@?$AAs?$AAp?$AAe?$AAc?$AA?$FL?$AA?$CK?$AAp?$AAo?$AAs?$AA?$FN?$AA?5?$AA?$DN?$AA?$DN?$AA?5?$AA?8?$AA?$FO?$AA?8?$AA?5?$AA?$HM?$AA?$HM?$AA?5?$AAs?$AAp?$AAe?$AAc?$AA?$FL?$AA?$CK?$AAp?$AAo?$AAs?$AA?$FN?$AA?5@ 100bf970     libgit2:revparse.obj
 0002:000109c0       ??_C@_1FI@NHKPMPEC@?$AAo?$AAb?$AAj?$AAe?$AAc?$AAt?$AA_?$AAo?$AAu?$AAt?$AA?5?$AA?$CG?$AA?$CG?$AA?5?$AAr?$AAe?$AAf?$AAe?$AAr?$AAe?$AAn?$AAc?$AAe?$AA_?$AAo?$AAu?$AAt?$AA?5?$AA?$CG?$AA?$CG?$AA?5?$AAr@ 100bf9c0     libgit2:revparse.obj
 0002:00010a18       ??_C@_0O@LMNNMLDE@Unimplemented?$AA@ 100bfa18     libgit2:revparse.obj
 0002:00010a28       ??_C@_0DK@CAHFODAL@Failed?5to?5parse?5revision?5specifi@ 100bfa28     libgit2:revparse.obj
 0002:00010a64       ??_C@_1DA@EFOAFIGL@?$AAr?$AAe?$AAv?$AAs?$AAp?$AAe?$AAc?$AA?5?$AA?$CG?$AA?$CG?$AA?5?$AAr?$AAe?$AAp?$AAo?$AA?5?$AA?$CG?$AA?$CG?$AA?5?$AAs?$AAp?$AAe?$AAc?$AA?$AA@ 100bfa64     libgit2:revparse.obj
 0002:00010a94       ??_C@_02DJGKEECL@?4?4?$AA@ 100bfa94     libgit2:revparse.obj
 0002:00010a98       ??_C@_1EC@LEHCFAKG@?$AA?4?$AA?4?$AA?2?$AAd?$AAe?$AAp?$AAs?$AA?2?$AAl?$AAi?$AAb?$AAg?$AAi?$AAt?$AA2?$AA?2?$AAs?$AAr?$AAc?$AA?2?$AAd?$AAi?$AAf?$AAf?$AA_?$AAt?$AAf?$AAo?$AAr?$AAm?$AA?4?$AAc@ 100bfa98     libgit2:diff_tform.obj
 0002:00010ae0       ??_C@_1EE@MCNCMGKI@?$AAb?$AA?9?$AA?$DO?$AAs?$AAt?$AAa?$AAt?$AAu?$AAs?$AA?5?$AA?$CB?$AA?$DN?$AA?5?$AAG?$AAI?$AAT?$AA_?$AAD?$AAE?$AAL?$AAT?$AAA?$AA_?$AAU?$AAN?$AAM?$AAO?$AAD?$AAI?$AAF?$AAI?$AAE@ 100bfae0     libgit2:diff_tform.obj
 0002:00010b24       ??_C@_1BK@POMNHACJ@?$AAo?$AAn?$AAt?$AAo?$AA?5?$AA?$CG?$AA?$CG?$AA?5?$AAf?$AAr?$AAo?$AAm?$AA?$AA@ 100bfb24     libgit2:diff_tform.obj
 0002:00010b40       ??_C@_0DI@EINMJJLP@Attempt?5to?5merge?5diffs?5created?5w@ 100bfb40     libgit2:diff_tform.obj
 0002:00010b78       ??_C@_0N@IHIEOHAJ@diff?4renames?$AA@ 100bfb78     libgit2:diff_tform.obj
 0002:00010b88       ??_C@_06NEJNLAMO@copies?$AA@ 100bfb88     libgit2:diff_tform.obj
 0002:00010b90       ??_C@_04COAGEIMF@copy?$AA@ 100bfb90     libgit2:diff_tform.obj
 0002:00010b98       ??_C@_1CI@GGKBIPLN@?$AAd?$AAe?$AAl?$AAt?$AAa?$AA_?$AAi?$AAs?$AA_?$AAs?$AAp?$AAl?$AAi?$AAt?$AA?$CI?$AAt?$AAg?$AAt?$AA?$CJ?$AA?$AA@ 100bfb98     libgit2:diff_tform.obj
 0002:00010bc0       ??_C@_1EC@ODNKHKJG@?$AAs?$AAr?$AAc?$AA?9?$AA?$DO?$AAs?$AAt?$AAa?$AAt?$AAu?$AAs?$AA?5?$AA?$DN?$AA?$DN?$AA?5?$AAG?$AAI?$AAT?$AA_?$AAD?$AAE?$AAL?$AAT?$AAA?$AA_?$AAD?$AAE?$AAL?$AAE?$AAT?$AAE?$AAD@ 100bfbc0     libgit2:diff_tform.obj
 0002:00010c04       ??_C@_1CI@KOPFJJKI@?$AAd?$AAe?$AAl?$AAt?$AAa?$AA_?$AAi?$AAs?$AA_?$AAs?$AAp?$AAl?$AAi?$AAt?$AA?$CI?$AAs?$AAr?$AAc?$AA?$CJ?$AA?$AA@ 100bfc04     libgit2:diff_tform.obj
 0002:00010c2c       ??_C@_07CGJPFGJA@January?$AA@ 100bfc2c     libgit2:date.obj
 0002:00010c34       ??_C@_08GNJGEPFN@February?$AA@ 100bfc34     libgit2:date.obj
 0002:00010c40       ??_C@_05HPCKOFNC@March?$AA@ 100bfc40     libgit2:date.obj
 0002:00010c48       ??_C@_05DMJDNLEJ@April?$AA@ 100bfc48     libgit2:date.obj
 0002:00010c50       ??_C@_03CNMDKL@May?$AA@    100bfc50     libgit2:date.obj
 0002:00010c54       ??_C@_04CNLMGBGM@June?$AA@ 100bfc54     libgit2:date.obj
 0002:00010c5c       ??_C@_04MIEPOIFP@July?$AA@ 100bfc5c     libgit2:date.obj
 0002:00010c64       ??_C@_06LBBHFDDG@August?$AA@ 100bfc64     libgit2:date.obj
 0002:00010c6c       ??_C@_09BHHEALKD@September?$AA@ 100bfc6c     libgit2:date.obj
 0002:00010c78       ??_C@_07JJNFCEND@October?$AA@ 100bfc78     libgit2:date.obj
 0002:00010c80       ??_C@_08HCHEGEOA@November?$AA@ 100bfc80     libgit2:date.obj
 0002:00010c8c       ??_C@_08EDHMEBNP@December?$AA@ 100bfc8c     libgit2:date.obj
 0002:00010c98       ??_C@_07HNMAHNBE@Sundays?$AA@ 100bfc98     libgit2:date.obj
 0002:00010ca0       ??_C@_07NHFPJNIN@Mondays?$AA@ 100bfca0     libgit2:date.obj
 0002:00010ca8       ??_C@_08DGNKEAPD@Tuesdays?$AA@ 100bfca8     libgit2:date.obj
 0002:00010cb4       ??_C@_0L@NCPPAPIN@Wednesdays?$AA@ 100bfcb4     libgit2:date.obj
 0002:00010cc0       ??_C@_09OJNKILJP@Thursdays?$AA@ 100bfcc0     libgit2:date.obj
 0002:00010ccc       ??_C@_07JBDJEMGN@Fridays?$AA@ 100bfccc     libgit2:date.obj
 0002:00010cd4       ??_C@_09GFPEMLAI@Saturdays?$AA@ 100bfcd4     libgit2:date.obj
 0002:00010ce0       ??_C@_04PEDCECIH@IDLW?$AA@ 100bfce0     libgit2:date.obj
 0002:00010ce8       ??_C@_02KEGNBOHH@NT?$AA@   100bfce8     libgit2:date.obj
 0002:00010cec       ??_C@_03PIJFKIJH@CAT?$AA@  100bfcec     libgit2:date.obj
 0002:00010cf0       ??_C@_03DADGFIII@HST?$AA@  100bfcf0     libgit2:date.obj
 0002:00010cf4       ??_C@_03CJFPONHN@HDT?$AA@  100bfcf4     libgit2:date.obj
 0002:00010cf8       ??_C@_03NIJDGIHC@YST?$AA@  100bfcf8     libgit2:date.obj
 0002:00010cfc       ??_C@_03MBPKNNIH@YDT?$AA@  100bfcfc     libgit2:date.obj
 0002:00010d00       ??_C@_03KFJLCHPI@PST?$AA@  100bfd00     libgit2:date.obj
 0002:00010d04       ??_C@_03LMPCJCAN@PDT?$AA@  100bfd04     libgit2:date.obj
 0002:00010d08       ??_C@_03HOIKILK@MST?$AA@   100bfd08     libgit2:date.obj
 0002:00010d0c       ??_C@_03BOIBBNEP@MDT?$AA@  100bfd0c     libgit2:date.obj
 0002:00010d10       ??_C@_03OHDHNPIJ@CST?$AA@  100bfd10     libgit2:date.obj
 0002:00010d14       ??_C@_03POFOGKHM@CDT?$AA@  100bfd14     libgit2:date.obj
 0002:00010d18       ??_C@_03MCFMIAFF@EST?$AA@  100bfd18     libgit2:date.obj
 0002:00010d1c       ??_C@_03NLDFDFKA@EDT?$AA@  100bfd1c     libgit2:date.obj
 0002:00010d20       ??_C@_03ENDOBHAC@AST?$AA@  100bfd20     libgit2:date.obj
 0002:00010d24       ??_C@_03FEFHKCPH@ADT?$AA@  100bfd24     libgit2:date.obj
 0002:00010d28       ??_C@_03CHOOGIFP@WAT?$AA@  100bfd28     libgit2:date.obj
 0002:00010d2c       ??_C@_03HOONMGKE@GMT?$AA@  100bfd2c     libgit2:date.obj
 0002:00010d30       ??_C@_03JCIJEFNJ@UTC?$AA@  100bfd30     libgit2:date.obj
 0002:00010d34       ??_C@_01POHCFINO@Z?$AA@    100bfd34     libgit2:date.obj
 0002:00010d38       ??_C@_03CAOHMAID@WET?$AA@  100bfd38     libgit2:date.obj
 0002:00010d3c       ??_C@_03FPILLIOM@BST?$AA@  100bfd3c     libgit2:date.obj
 0002:00010d40       ??_C@_03PPJMAAEL@CET?$AA@  100bfd40     libgit2:date.obj
 0002:00010d44       ??_C@_03BPEDHHHI@MET?$AA@  100bfd44     libgit2:date.obj
 0002:00010d48       ??_C@_04ICFAJMHA@MEWT?$AA@ 100bfd48     libgit2:date.obj
 0002:00010d50       ??_C@_04IFFJDEKM@MEST?$AA@ 100bfd50     libgit2:date.obj
 0002:00010d58       ??_C@_04DKGJIKMN@CEST?$AA@ 100bfd58     libgit2:date.obj
 0002:00010d60       ??_C@_04BLNKBJCC@MESZ?$AA@ 100bfd60     libgit2:date.obj
 0002:00010d68       ??_C@_03NHOAIHGH@FWT?$AA@  100bfd68     libgit2:date.obj
 0002:00010d6c       ??_C@_03NAOJCPLL@FST?$AA@  100bfd6c     libgit2:date.obj
 0002:00010d70       ??_C@_03NKPHFPJH@EET?$AA@  100bfd70     libgit2:date.obj
 0002:00010d74       ??_C@_04LFCJHPGN@EEST?$AA@ 100bfd74     libgit2:date.obj
 0002:00010d7c       ??_C@_04CAGLCMNI@WAST?$AA@ 100bfd7c     libgit2:date.obj
 0002:00010d84       ??_C@_04DJACJJCN@WADT?$AA@ 100bfd84     libgit2:date.obj
 0002:00010d8c       ??_C@_03PLBBHMPJ@CCT?$AA@  100bfd8c     libgit2:date.obj
 0002:00010d90       ??_C@_03JKDPJAAD@JST?$AA@  100bfd90     libgit2:date.obj
 0002:00010d94       ??_C@_04DKELOIDK@EAST?$AA@ 100bfd94     libgit2:date.obj
 0002:00010d9c       ??_C@_04CDCCFNMP@EADT?$AA@ 100bfd9c     libgit2:date.obj
 0002:00010da4       ??_C@_03GIFFEINO@GST?$AA@  100bfda4     libgit2:date.obj
 0002:00010da8       ??_C@_03BKIMDMNL@NZT?$AA@  100bfda8     libgit2:date.obj
 0002:00010dac       ??_C@_04MKIDAJLF@NZST?$AA@ 100bfdac     libgit2:date.obj
 0002:00010db4       ??_C@_04NDOKLMEA@NZDT?$AA@ 100bfdb4     libgit2:date.obj
 0002:00010dbc       ??_C@_04IMMGDCFE@IDLE?$AA@ 100bfdbc     libgit2:date.obj
 0002:00010dc4       ??_C@_02CJNFDJBF@PM?$AA@   100bfdc4     libgit2:date.obj
 0002:00010dc8       ??_C@_02DEDBPAFC@AM?$AA@   100bfdc8     libgit2:date.obj
 0002:00010dcc       ??_C@_09OCKCLBMB@yesterday?$AA@ 100bfdcc     libgit2:date.obj
 0002:00010dd8       ??_C@_04MEGPOMKP@noon?$AA@ 100bfdd8     libgit2:date.obj
 0002:00010de0       ??_C@_08JDNMMAC@midnight?$AA@ 100bfde0     libgit2:date.obj
 0002:00010dec       ??_C@_03IBMEEAF@tea?$AA@   100bfdec     libgit2:date.obj
 0002:00010df0       ??_C@_05DAFACFLE@never?$AA@ 100bfdf0     libgit2:date.obj
 0002:00010df8       ??_C@_03CGLHMDPP@now?$AA@  100bfdf8     libgit2:date.obj
 0002:00010dfc       ??_C@_04DDFHDMOL@zero?$AA@ 100bfdfc     libgit2:date.obj
 0002:00010e04       ??_C@_03OHDNLOHO@one?$AA@  100bfe04     libgit2:date.obj
 0002:00010e08       ??_C@_03IJDNBOJF@two?$AA@  100bfe08     libgit2:date.obj
 0002:00010e0c       ??_C@_05OAGMNDDJ@three?$AA@ 100bfe0c     libgit2:date.obj
 0002:00010e14       ??_C@_04DNJNMJF@four?$AA@  100bfe14     libgit2:date.obj
 0002:00010e1c       ??_C@_04CBHHLJIG@five?$AA@ 100bfe1c     libgit2:date.obj
 0002:00010e24       ??_C@_03HNBCMMA@six?$AA@   100bfe24     libgit2:date.obj
 0002:00010e28       ??_C@_05GJGPGJKM@seven?$AA@ 100bfe28     libgit2:date.obj
 0002:00010e30       ??_C@_05CJEADMFJ@eight?$AA@ 100bfe30     libgit2:date.obj
 0002:00010e38       ??_C@_04DDCAAIP@nine?$AA@  100bfe38     libgit2:date.obj
 0002:00010e40       ??_C@_03IPIEFIMK@ten?$AA@  100bfe40     libgit2:date.obj
 0002:00010e44       ??_C@_07GELLIBDG@seconds?$AA@ 100bfe44     libgit2:date.obj
 0002:00010e4c       ??_C@_07GCICIJGK@minutes?$AA@ 100bfe4c     libgit2:date.obj
 0002:00010e54       ??_C@_05LOHOPFFC@hours?$AA@ 100bfe54     libgit2:date.obj
 0002:00010e5c       ??_C@_04IJMHDAOD@days?$AA@ 100bfe5c     libgit2:date.obj
 0002:00010e64       ??_C@_05EFKAJCNN@weeks?$AA@ 100bfe64     libgit2:date.obj
 0002:00010e6c       ??_C@_04PLGBGIDD@last?$AA@ 100bfe6c     libgit2:date.obj
 0002:00010e74       ??_C@_06PBNJPOGB@months?$AA@ 100bfe74     libgit2:date.obj
 0002:00010e7c       ??_C@_05ODDPPMAF@years?$AA@ 100bfe7c     libgit2:date.obj
 0002:00010e84       ??_C@_1DG@JHAICNAA@?$AA?4?$AA?4?$AA?2?$AAd?$AAe?$AAp?$AAs?$AA?2?$AAl?$AAi?$AAb?$AAg?$AAi?$AAt?$AA2?$AA?2?$AAs?$AAr?$AAc?$AA?2?$AAd?$AAa?$AAt?$AAe?$AA?4?$AAc?$AA?$AA@ 100bfe84     libgit2:date.obj
 0002:00010ebc       ??_C@_1BI@CKNIIIML@?$AAo?$AAu?$AAt?$AA?5?$AA?$CG?$AA?$CG?$AA?5?$AAd?$AAa?$AAt?$AAe?$AA?$AA@ 100bfebc     libgit2:date.obj
 0002:00010ed4       ??_C@_0CM@ICICOGAI@?$CF?43s?0?5?$CFu?5?$CF?43s?5?$CF?44u?5?$CF02u?3?$CF02u?3?$CF02@ 100bfed4     libgit2:date.obj
 0002:00010f00       ??_C@_1EC@KOAGEBNA@?$AA?4?$AA?4?$AA?2?$AAd?$AAe?$AAp?$AAs?$AA?2?$AAl?$AAi?$AAb?$AAg?$AAi?$AAt?$AA2?$AA?2?$AAs?$AAr?$AAc?$AA?2?$AAd?$AAi?$AAf?$AAf?$AA_?$AAp?$AAr?$AAi?$AAn?$AAt?$AA?4?$AAc@ 100bff00     libgit2:diff_print.obj
 0002:00010f44       ??_C@_0O@DEJIJEMP@?$CFc?7?$CFs?$CFc?5?$CFs?$CFc?6?$AA@ 100bff44     libgit2:diff_print.obj
 0002:00010f54       ??_C@_08NEONACFD@?$CFc?7?$CFs?$CFc?6?$AA@ 100bff54     libgit2:diff_print.obj
 0002:00010f60       ??_C@_06EHNCEILA@?$CFc?7?$CFs?6?$AA@ 100bff60     libgit2:diff_print.obj
 0002:00010f68       ??_C@_0BK@IOJGCMIP@?3?$CF06o?5?$CF06o?5?$CFs?4?4?4?5?$CFs?4?4?4?5?$CFc?$AA@ 100bff68     libgit2:diff_print.obj
 0002:00010f84       ??_C@_0BE@LCOOJENA@?3?$CF06o?5?$CF06o?5?$CFs?5?$CFs?5?$CFc?$AA@ 100bff84     libgit2:diff_print.obj
 0002:00010f98       ??_C@_04LELCIGEN@?$CF03u?$AA@ 100bff98     libgit2:diff_print.obj
 0002:00010fa0       ??_C@_07GPNEBMGC@?7?$CFs?5?$CFs?6?$AA@ 100bffa0     libgit2:diff_print.obj
 0002:00010fa8       ??_C@_0BB@LGHKFKPI@index?5?$CFs?4?4?$CFs?5?$CFo?6?$AA@ 100bffa8     libgit2:diff_print.obj
 0002:00010fbc       ??_C@_0BC@JJICBOHF@new?5file?5mode?5?$CFo?6?$AA@ 100bffbc     libgit2:diff_print.obj
 0002:00010fd0       ??_C@_0BG@PMDHGEFL@deleted?5file?5mode?5?$CFo?6?$AA@ 100bffd0     libgit2:diff_print.obj
 0002:00010fe8       ??_C@_0N@DHGOEHJB@old?5mode?5?$CFo?6?$AA@ 100bffe8     libgit2:diff_print.obj
 0002:00010ff8       ??_C@_0N@EAEFAGEP@new?5mode?5?$CFo?6?$AA@ 100bfff8     libgit2:diff_print.obj
 0002:00011008       ??_C@_0O@IBJHDIFF@index?5?$CFs?4?4?$CFs?6?$AA@ 100c0008     libgit2:diff_print.obj
 0002:00011018       ??_C@_09LAIDGMDM@?1dev?1null?$AA@ 100c0018     libgit2:diff_print.obj
 0002:00011024       ??_C@_0BG@DGCAIPKD@diff?5?9?9git?5?$CFs?$CFs?5?$CFs?$CFs?6?$AA@ 100c0024     libgit2:diff_print.obj
 0002:0001103c       ??_C@_0BD@INOOGEMI@?9?9?9?5?$CFs?$CFs?6?$CL?$CL?$CL?5?$CFs?$CFs?6?$AA@ 100c003c     libgit2:diff_print.obj
 0002:00011050       ??_C@_05NCGEDJPM@delta?$AA@ 100c0050     libgit2:diff_print.obj
 0002:00011058       ??_C@_07IDLNMGBF@literal?$AA@ 100c0058     libgit2:diff_print.obj
 0002:00011060       ??_C@_07LGIPHGNG@?$CFs?5?$CFIu?6?$AA@ 100c0060     libgit2:diff_print.obj
 0002:00011068       ??_C@_1BC@OFHIJBDI@?$AAp?$AAi?$AA?9?$AA?$DO?$AAd?$AAi?$AAf?$AAf?$AA?$AA@ 100c0068     libgit2:diff_print.obj
 0002:0001107c       ??_C@_0BC@DOBGFOGH@GIT?5binary?5patch?6?$AA@ 100c007c     libgit2:diff_print.obj
 0002:00011090       ??_C@_0CD@CEFCEBCN@Binary?5files?5?$CFs?$CFs?5and?5?$CFs?$CFs?5diffe@ 100c0090     libgit2:diff_print.obj
 0002:000110b4       ??_C@_0CA@DNLDKLO@Unknown?5diff?5output?5format?5?$CI?$CFd?$CJ?$AA@ 100c00b4     libgit2:diff_print.obj
 0002:000110d4       ??_C@_0P@BKBELJE@git_diff_print?$AA@ 100c00d4     libgit2:diff_print.obj
 0002:000110e4       ??_C@_1CE@FAPIBGAD@?$AAp?$AAa?$AAt?$AAc?$AAh?$AA?5?$AA?$CG?$AA?$CG?$AA?5?$AAp?$AAr?$AAi?$AAn?$AAt?$AA_?$AAc?$AAb?$AA?$AA@ 100c00e4     libgit2:diff_print.obj
 0002:00011108       ??_C@_0BA@ECGDCO@git_patch_print?$AA@ 100c0108     libgit2:diff_print.obj
 0002:00011118       ??_C@_0CA@INABPLEN@Buffer?5pointer?5must?5be?5provided?$AA@ 100c0118     libgit2:diff_print.obj
 0002:00011138       ??_C@_1BK@OMLIMFDN@?$AAo?$AAu?$AAt?$AA?5?$AA?$CG?$AA?$CG?$AA?5?$AAp?$AAa?$AAt?$AAc?$AAh?$AA?$AA@ 100c0138     libgit2:diff_print.obj
 0002:00011154       ??_C@_03EEBNCBOD@?5?$CFs?$AA@ 100c0154     libgit2:diff_stats.obj
 0002:00011158       ??_C@_06JBHNAKIJ@?5?$DN?$DO?5?$CFs?$AA@ 100c0158     libgit2:diff_stats.obj
 0002:00011160       ??_C@_03LGOGDKEL@?5?$HM?5?$AA@ 100c0160     libgit2:diff_stats.obj
 0002:00011164       ??_C@_0BF@GKFFMHBK@Bin?5?$CFIu?5?9?$DO?5?$CFIu?5bytes?$AA@ 100c0164     libgit2:diff_stats.obj
 0002:0001117c       ??_C@_04NCHANMDA@?$CF?$CKIu?$AA@ 100c017c     libgit2:diff_stats.obj
 0002:00011184       ??_C@_0M@EFIJPFLJ@?$CF?98c?$CF?98c?$CFs?6?$AA@ 100c0184     libgit2:diff_stats.obj
 0002:00011190       ??_C@_0O@CPNJJMIA@?$CF?98Iu?$CF?98Iu?$CFs?6?$AA@ 100c0190     libgit2:diff_stats.obj
 0002:000111a0       ??_C@_0BG@JBGNJMBP@?5create?5mode?5?$CF06o?5?$CFs?6?$AA@ 100c01a0     libgit2:diff_stats.obj
 0002:000111b8       ??_C@_0BG@CMODFNCK@?5delete?5mode?5?$CF06o?5?$CFs?6?$AA@ 100c01b8     libgit2:diff_stats.obj
 0002:000111d0       ??_C@_0BO@NOIKLGO@?5mode?5change?5?$CF06o?5?$DN?$DO?5?$CF06o?5?$CFs?6?$AA@ 100c01d0     libgit2:diff_stats.obj
 0002:000111f0       ??_C@_1EC@EDEJNAFC@?$AA?4?$AA?4?$AA?2?$AAd?$AAe?$AAp?$AAs?$AA?2?$AAl?$AAi?$AAb?$AAg?$AAi?$AAt?$AA2?$AA?2?$AAs?$AAr?$AAc?$AA?2?$AAd?$AAi?$AAf?$AAf?$AA_?$AAs?$AAt?$AAa?$AAt?$AAs?$AA?4?$AAc@ 100c01f0     libgit2:diff_stats.obj
 0002:00011234       ??_C@_1BI@KFJGJPAA@?$AAo?$AAu?$AAt?$AA?5?$AA?$CG?$AA?$CG?$AA?5?$AAd?$AAi?$AAf?$AAf?$AA?$AA@ 100c0234     libgit2:diff_stats.obj
 0002:0001124c       ??_C@_1M@NNCEKPPG@?$AAs?$AAt?$AAa?$AAt?$AAs?$AA?$AA@ 100c024c     libgit2:diff_stats.obj
 0002:00011258       ??_C@_1BK@PHDBIAJD@?$AAo?$AAu?$AAt?$AA?5?$AA?$CG?$AA?$CG?$AA?5?$AAs?$AAt?$AAa?$AAt?$AAs?$AA?$AA@ 100c0258     libgit2:diff_stats.obj
 0002:00011274       ??_C@_0DM@DMCJBPLD@?5?$CFIu?5file?$CFs?5changed?0?5?$CFIu?5inserti@ 100c0274     libgit2:diff_stats.obj
 0002:000112b0       ??_C@_1BA@MDJFAEBM@?$AAw?$AAi?$AAn?$AAh?$AAt?$AAt?$AAp?$AA?$AA@ 100c02b0     libgit2:error.obj
 0002:000112c0       ??_C@_1OA@LLBHOJII@?$AAc?$AA?3?$AA?2?$AAp?$AAr?$AAo?$AAj?$AAe?$AAc?$AAt?$AAs?$AA?2?$AAa?$AAt?$AAo?$AAm?$AA?2?$AAa?$AAp?$AAm?$AA?2?$AAn?$AAo?$AAd?$AAe?$AA_?$AAm?$AAo?$AAd?$AAu?$AAl?$AAe@ 100c02c0     libgit2:regex.obj
 0002:000113a0       ??_C@_1CG@KAAEJLBJ@?$AAn?$AAo?$AAd?$AAe?$AA?9?$AA?$DO?$AAn?$AAe?$AAx?$AAt?$AA?5?$AA?$DN?$AA?$DN?$AA?5?$AAN?$AAU?$AAL?$AAL?$AA?$AA@ 100c03a0     libgit2:regex.obj
 0002:000113c8       ??_C@_1BE@PCOCFKAH@?$AAl?$AAe?$AAf?$AAt?$AA?5?$AA?$DO?$AA?5?$AA?9?$AA1?$AA?$AA@ 100c03c8     libgit2:regex.obj
 0002:000113dc       ??_C@_1BG@JOLEAPJI@?$AAr?$AAi?$AAg?$AAh?$AAt?$AA?5?$AA?$DO?$AA?5?$AA?9?$AA1?$AA?$AA@ 100c03dc     libgit2:regex.obj
 0002:000113f8       ??_C@_1EI@DCKLNCNJ@?$AA?$CB?$AAI?$AAS?$AA_?$AAE?$AAP?$AAS?$AAI?$AAL?$AAO?$AAN?$AA_?$AAN?$AAO?$AAD?$AAE?$AA?5?$AA?$CI?$AAn?$AAo?$AAd?$AAe?$AA?9?$AA?$DO?$AAt?$AAo?$AAk?$AAe?$AAn?$AA?4?$AAt?$AAy@ 100c03f8     libgit2:regex.obj
 0002:00011440       ??_C@_01IDAFKMJL@_?$AA@    100c0440     libgit2:regex.obj
 0002:00011444       ??_C@_05IIMHCHIO@alnum?$AA@ 100c0444     libgit2:regex.obj
 0002:0001144c       ??_C@_05OLNILLAB@space?$AA@ 100c044c     libgit2:regex.obj
 0002:00011454       ??_C@_13COJANIEC@?$AA0?$AA?$AA@ 100c0454     libgit2:regex.obj
 0002:00011458       ??_C@_05NECKJAMC@upper?$AA@ 100c0458     libgit2:regex.obj
 0002:00011460       ??_C@_05IPJEPLHL@lower?$AA@ 100c0460     libgit2:regex.obj
 0002:00011468       ??_C@_05IAEKHIAN@alpha?$AA@ 100c0468     libgit2:regex.obj
 0002:00011470       ??_C@_05JMDPEFNK@cntrl?$AA@ 100c0470     libgit2:regex.obj
 0002:00011478       ??_C@_05ODNOIFML@digit?$AA@ 100c0478     libgit2:regex.obj
 0002:00011480       ??_C@_05IJDJACGD@print?$AA@ 100c0480     libgit2:regex.obj
 0002:00011488       ??_C@_05BABJKOGB@blank?$AA@ 100c0488     libgit2:regex.obj
 0002:00011490       ??_C@_05KCJBMLII@graph?$AA@ 100c0490     libgit2:regex.obj
 0002:00011498       ??_C@_05KOBGHFJJ@punct?$AA@ 100c0498     libgit2:regex.obj
 0002:000114a0       ??_C@_06BAPHGFFK@xdigit?$AA@ 100c04a0     libgit2:regex.obj
 0002:000114a8       ??_C@_1OA@NKLGNAHB@?$AAc?$AA?3?$AA?2?$AAp?$AAr?$AAo?$AAj?$AAe?$AAc?$AAt?$AAs?$AA?2?$AAa?$AAt?$AAo?$AAm?$AA?2?$AAa?$AAp?$AAm?$AA?2?$AAn?$AAo?$AAd?$AAe?$AA_?$AAm?$AAo?$AAd?$AAu?$AAl?$AAe@ 100c04a8     libgit2:regex.obj
 0002:00011588       ??_C@_1DO@DJNFHFHH@?$AAm?$AAc?$AAt?$AAx?$AA?4?$AAi?$AAn?$AAp?$AAu?$AAt?$AA?4?$AAo?$AAf?$AAf?$AAs?$AAe?$AAt?$AAs?$AA_?$AAn?$AAe?$AAe?$AAd?$AAe?$AAd?$AA?5?$AA?$DN?$AA?$DN?$AA?5?$AA0?$AA?$AA@ 100c0588     libgit2:regex.obj
 0002:000115c8       ??_C@_1CE@PFGFAONM@?$AAe?$AAr?$AAr?$AA?5?$AA?$DN?$AA?$DN?$AA?5?$AAR?$AAE?$AAG?$AA_?$AAE?$AAS?$AAP?$AAA?$AAC?$AAE?$AA?$AA@ 100c05c8     libgit2:regex.obj
 0002:000115ec       ??_C@_1BC@HPFOKJFO@?$AAn?$AAu?$AAm?$AA?5?$AA?$DO?$AA?$DN?$AA?5?$AA0?$AA?$AA@ 100c05ec     libgit2:regex.obj
 0002:00011600       ??_C@_03GOBJIJJP@ada?$AA@  100c0600     libgit2:diff_driver.obj
 0002:00011608       ??_C@_0JL@IDMEOKPL@?$CB?$FO?$CI?4?$CK?$FL?5?7?$FN?$CJ?$DP?$CIis?$FL?5?7?$FN?$CLnew?$HMrenames?$HMi@ 100c0608     libgit2:diff_driver.obj
 0002:000116a8       ??_C@_0IE@DOKEFAKG@?$FLa?9zA?9Z?$FN?$FLa?9zA?9Z0?99_?$FN?$CK?$HM?$FL?9?$CL?$FN?$DP?$FL0?99?$FN@ 100c06a8     libgit2:diff_driver.obj
 0002:0001172c       ??_C@_07MIECNAEK@fortran?$AA@ 100c072c     libgit2:diff_driver.obj
 0002:00011738       ??_C@_0JG@EIALPCGD@?$CB?$FO?$CI?$FLC?$CK?$FN?$HM?$FL?5?7?$FN?$CK?$CB?$CJ?6?$CB?$FO?$FL?5?7?$FN?$CKMODULE?$FL?5?7@ 100c0738     libgit2:diff_driver.obj
 0002:000117d0       ??_C@_0BBK@DMJILCA@?$FLa?9zA?9Z?$FN?$FLa?9zA?9Z0?99_?$FN?$CK?$HM?2?4?$CI?$FLEe?$FN?$FLQq@ 100c07d0     libgit2:diff_driver.obj
 0002:000118ec       ??_C@_04PNIFHPHN@html?$AA@ 100c08ec     libgit2:diff_driver.obj
 0002:000118f4       ??_C@_0BN@BBBCMBBH@?$FO?$FL?5?7?$FN?$CK?$CI?$DM?$FLHh?$FN?$FL1?96?$FN?$FL?5?7?$FN?4?$CK?$DO?4?$CK?$CJ$?$AA@ 100c08f4     libgit2:diff_driver.obj
 0002:00011914       ??_C@_0CD@EAIDHLAE@?$FL?$FO?$DM?$DO?$DN?5?7?$FN?$CL?$HM?$FL?$FO?$FL?3space?3?$FN?$FN?$HM?$FL?$MA?9?$PP?$FN?$FL?$IA?9?$LP@ 100c0914     libgit2:diff_driver.obj
 0002:00011938       ??_C@_04EFFPLJGM@java?$AA@ 100c0938     libgit2:diff_driver.obj
 0002:00011940       ??_C@_0IM@JFAKKNFA@?$CB?$FO?$FL?5?7?$FN?$CK?$CIcatch?$HMdo?$HMfor?$HMif?$HMinstance@ 100c0940     libgit2:diff_driver.obj
 0002:000119d0       ??_C@_0II@DMJNKBLL@?$FLa?9zA?9Z_?$FN?$FLa?9zA?9Z0?99_?$FN?$CK?$HM?$FL?9?$CL0?99?4e?$FN@ 100c09d0     libgit2:diff_driver.obj
 0002:00011a58       ??_C@_06CICGHHNN@matlab?$AA@ 100c0a58     libgit2:diff_driver.obj
 0002:00011a60       ??_C@_0ED@HCKNKOAN@?$FO?$FL?$FL?3space?3?$FN?$FN?$CK?$CI?$CIclassdef?$HMfunction@ 100c0a60     libgit2:diff_driver.obj
 0002:00011aa8       ??_C@_0FF@JAGEKCGG@?$FLa?9zA?9Z_?$FN?$FLa?9zA?9Z0?99_?$FN?$CK?$HM?$FL?9?$CL0?99?4e?$FN@ 100c0aa8     libgit2:diff_driver.obj
 0002:00011b00       ??_C@_04LIAAKBGE@objc?$AA@ 100c0b00     libgit2:diff_driver.obj
 0002:00011b08       ??_C@_0OK@DBAKDCEG@?$CB?$FO?$FL?5?7?$FN?$CK?$CIdo?$HMfor?$HMif?$HMelse?$HMreturn?$HMsw@ 100c0b08     libgit2:diff_driver.obj
 0002:00011bf8       ??_C@_0IM@KNCBPEP@?$FLa?9zA?9Z_?$FN?$FLa?9zA?9Z0?99_?$FN?$CK?$HM?$FL?9?$CL0?99?4e?$FN@ 100c0bf8     libgit2:diff_driver.obj
 0002:00011c84       ??_C@_06FKOPGLBL@pascal?$AA@ 100c0c84     libgit2:diff_driver.obj
 0002:00011c90       ??_C@_0JI@BONHDDJH@?$FO?$CI?$CI?$CIclass?$FL?5?7?$FN?$CL?$CJ?$DP?$CIprocedure?$HMfunct@ 100c0c90     libgit2:diff_driver.obj
 0002:00011d28       ??_C@_0GB@BNDGODMD@?$FLa?9zA?9Z_?$FN?$FLa?9zA?9Z0?99_?$FN?$CK?$HM?$FL?9?$CL0?99?4e?$FN@ 100c0d28     libgit2:diff_driver.obj
 0002:00011d8c       ??_C@_04FCMKHHIJ@perl?$AA@ 100c0d8c     libgit2:diff_driver.obj
 0002:00011d98       ??_C@_0KK@EJMKKPBO@?$FOpackage?5?4?$CK?6?$FOsub?5?$FL?$FL?3alnum?3?$FN_?8?3?$FN?$CL@ 100c0d98     libgit2:diff_driver.obj
 0002:00011e48       ??_C@_0PN@BCLMDJDG@?$FL?$FL?3alpha?3?$FN_?8?$FN?$FL?$FL?3alnum?3?$FN_?8?$FN?$CK?$HM0?$FLxb@ 100c0e48     libgit2:diff_driver.obj
 0002:00011f48       ??_C@_06OIODPPHE@python?$AA@ 100c0f48     libgit2:diff_driver.obj
 0002:00011f50       ??_C@_0BL@DABJFHMG@?$FO?$FL?5?7?$FN?$CK?$CI?$CIclass?$HMdef?$CJ?$FL?5?7?$FN?4?$CK?$CJ$?$AA@ 100c0f50     libgit2:diff_driver.obj
 0002:00011f70       ??_C@_0IA@JCNPBMG@?$FLa?9zA?9Z_?$FN?$FLa?9zA?9Z0?99_?$FN?$CK?$HM?$FL?9?$CL0?99?4e?$FN@ 100c0f70     libgit2:diff_driver.obj
 0002:00011ff0       ??_C@_04FDIADGBC@ruby?$AA@ 100c0ff0     libgit2:diff_driver.obj
 0002:00011ff8       ??_C@_0CC@HOBPDOHA@?$FO?$FL?5?7?$FN?$CK?$CI?$CIclass?$HMmodule?$HMdef?$CJ?$FL?5?7?$FN?4?$CK?$CJ@ 100c0ff8     libgit2:diff_driver.obj
 0002:00012020       ??_C@_0KA@LOICLOCL@?$CI?$EA?$HM?$EA?$EA?$HM?2$?$CJ?$DP?$FLa?9zA?9Z_?$FN?$FLa?9zA?9Z0?99_?$FN?$CK@ 100c1020     libgit2:diff_driver.obj
 0002:000120c0       ??_C@_06PPBEMKAM@bibtex?$AA@ 100c10c0     libgit2:diff_driver.obj
 0002:000120c8       ??_C@_0DE@BKIAIJAC@?$CI?$EA?$FLa?9zA?9Z?$FN?$HL1?0?$HN?$FL?5?7?$FN?$CK?2?$HL?$HL0?01?$HN?$FL?5?7?$FN?$CK?$FL@ 100c10c8     libgit2:diff_driver.obj
 0002:000120fc       ??_C@_0CL@LOBNEPBL@?$FL?$DN?$HL?$HN?$CC?$FN?$HM?$FL?$FO?$DN?$HL?$HN?$CC?5?7?$FN?$CL?$HM?$FL?$FO?$FL?3space?3?$FN?$FN?$HM?$FL@ 100c10fc     libgit2:diff_driver.obj
 0002:00012128       ??_C@_03JDBMONBN@tex?$AA@  100c1128     libgit2:diff_driver.obj
 0002:0001212c       ??_C@_0CO@CHHCOOGE@?$FO?$CI?2?2?$CI?$CIsub?$CJ?$CKsection?$HMchapter?$HMpart?$CJ@ 100c112c     libgit2:diff_driver.obj
 0002:0001215c       ??_C@_0DK@KHIGGHEJ@?2?2?$FLa?9zA?9Z?$EA?$FN?$CL?$HM?2?2?4?$HM?$FLa?9zA?9Z0?99?$IA?9?$PP?$FN?$CL@ 100c115c     libgit2:diff_driver.obj
 0002:00012198       ??_C@_03IMOGGJKI@cpp?$AA@  100c1198     libgit2:diff_driver.obj
 0002:000121a0       ??_C@_0FF@IJIMJHOC@?$CB?$FO?$FL?5?7?$FN?$CK?$FLA?9Za?9z_?$FN?$FLA?9Za?9z_0?99?$FN?$CK?3?$FL?$FL@ 100c11a0     libgit2:diff_driver.obj
 0002:000121f8       ??_C@_0JG@DHNIJNEN@?$FLa?9zA?9Z_?$FN?$FLa?9zA?9Z0?99_?$FN?$CK?$HM?$FL?9?$CL0?99?4e?$FN@ 100c11f8     libgit2:diff_driver.obj
 0002:00012290       ??_C@_06HOJGALE@csharp?$AA@ 100c1290     libgit2:diff_driver.obj
 0002:00012298       ??_C@_0CBE@MALBGOHP@?$CB?$FO?$FL?5?7?$FN?$CK?$CIdo?$HMwhile?$HMfor?$HMif?$HMelse?$HMins@ 100c1298     libgit2:diff_driver.obj
 0002:000124ac       ??_C@_03NMHPGDBB@php?$AA@  100c14ac     libgit2:diff_driver.obj
 0002:000124b0       ??_C@_0FB@GCCJBKEN@?$FO?$FL?5?7?$FN?$CK?$CI?$CI?$CIpublic?$HMprivate?$HMprotecte@ 100c14b0     libgit2:diff_driver.obj
 0002:00012508       ??_C@_0IK@OLLIAOIK@?$FLa?9zA?9Z_?$FN?$FLa?9zA?9Z0?99_?$FN?$CK?$HM?$FL?9?$CL0?99?4e?$FN@ 100c1508     libgit2:diff_driver.obj
 0002:00012594       ??_C@_0L@OKAJNFN@javascript?$AA@ 100c1594     libgit2:diff_driver.obj
 0002:000125a0       ??_C@_0PI@OJPCBIGA@?$CI?$FLa?9zA?9Z_$?$FN?$FLa?9zA?9Z0?99_$?$FN?$CK?$CI?2?4?$FLa?9z@ 100c15a0     libgit2:diff_driver.obj
 0002:00012698       ??_C@_0CG@DGILEJOB@Unable?5to?5create?5diff?5driver?5reg@ 100c1698     libgit2:diff_driver.obj
 0002:000126c0       ??_C@_0P@MMBCKHDO@diff?4?$CFs?4binary?$AA@ 100c16c0     libgit2:diff_driver.obj
 0002:000126d0       ??_C@_09JKNGOBKI@xfuncname?$AA@ 100c16d0     libgit2:diff_driver.obj
 0002:000126dc       ??_C@_08HKMLFIBM@funcname?$AA@ 100c16dc     libgit2:diff_driver.obj
 0002:000126e8       ??_C@_09CIFNIHO@wordregex?$AA@ 100c16e8     libgit2:diff_driver.obj
 0002:000126f8       ??_C@_1EE@PPEMEHAD@?$AA?4?$AA?4?$AA?2?$AAd?$AAe?$AAp?$AAs?$AA?2?$AAl?$AAi?$AAb?$AAg?$AAi?$AAt?$AA2?$AA?2?$AAs?$AAr?$AAc?$AA?2?$AAd?$AAi?$AAf?$AAf?$AA_?$AAd?$AAr?$AAi?$AAv?$AAe?$AAr?$AA?4@ 100c16f8     libgit2:diff_driver.obj
 0002:0001273c       ??_C@_04GMLMBKFF@diff?$AA@ 100c173c     libgit2:diff_driver.obj
 0002:00012748       ??_C@_1EO@MDIJABOK@?$AA?4?$AA?4?$AA?2?$AAd?$AAe?$AAp?$AAs?$AA?2?$AAl?$AAi?$AAb?$AAg?$AAi?$AAt?$AA2?$AA?2?$AAs?$AAr?$AAc?$AA?2?$AAa?$AAn?$AAn?$AAo?$AAt?$AAa?$AAt?$AAe?$AAd?$AA_?$AAc?$AAo@ 100c1748     libgit2:annotated_commit.obj
 0002:00012798       ??_C@_1BE@JPJGMHLI@?$AAo?$AAu?$AAt?$AA?5?$AA?$CG?$AA?$CG?$AA?5?$AAi?$AAd?$AA?$AA@ 100c1798     libgit2:annotated_commit.obj
 0002:000127ac       ??_C@_1CG@LEEOEEHO@?$AAo?$AAu?$AAt?$AA?5?$AA?$CG?$AA?$CG?$AA?5?$AAr?$AAe?$AAp?$AAo?$AA?5?$AA?$CG?$AA?$CG?$AA?5?$AAr?$AAe?$AAf?$AA?$AA@ 100c17ac     libgit2:annotated_commit.obj
 0002:000127d4       ??_C@_1BM@JDDEAEOO@?$AAo?$AAu?$AAt?$AA?5?$AA?$CG?$AA?$CG?$AA?5?$AAc?$AAo?$AAm?$AAm?$AAi?$AAt?$AA?$AA@ 100c17d4     libgit2:annotated_commit.obj
 0002:000127f0       ??_C@_1CE@MHBPNADB@?$AAo?$AAu?$AAt?$AA?5?$AA?$CG?$AA?$CG?$AA?5?$AAr?$AAe?$AAp?$AAo?$AA?5?$AA?$CG?$AA?$CG?$AA?5?$AAi?$AAd?$AA?$AA@ 100c17f0     libgit2:annotated_commit.obj
 0002:00012818       ??_C@_1FA@HMDOKIPJ@?$AAr?$AAe?$AAp?$AAo?$AA?5?$AA?$CG?$AA?$CG?$AA?5?$AAi?$AAd?$AA?5?$AA?$CG?$AA?$CG?$AA?5?$AAb?$AAr?$AAa?$AAn?$AAc?$AAh?$AA_?$AAn?$AAa?$AAm?$AAe?$AA?5?$AA?$CG?$AA?$CG?$AA?5?$AAr?$AAe?$AAm@ 100c1818     libgit2:annotated_commit.obj
 0002:00012868       ??_C@_1CO@BFBHJDPD@?$AAo?$AAu?$AAt?$AA?5?$AA?$CG?$AA?$CG?$AA?5?$AAr?$AAe?$AAp?$AAo?$AA?5?$AA?$CG?$AA?$CG?$AA?5?$AAr?$AAe?$AAv?$AAs?$AAp?$AAe?$AAc?$AA?$AA@ 100c1868     libgit2:annotated_commit.obj
 0002:00012898       ??_C@_1CC@DNGLHOPI@?$AAa?$AAn?$AAn?$AAo?$AAt?$AAa?$AAt?$AAe?$AAd?$AA_?$AAc?$AAo?$AAm?$AAm?$AAi?$AAt?$AA?$AA@ 100c1898     libgit2:annotated_commit.obj
 0002:000128bc       ??_C@_03KCHOJKKI@set?$AA@  100c18bc     libgit2:w32_util.obj
 0002:000128c0       ??_C@_0CB@EKNJIDCL@Failed?5to?5?$CFs?5hidden?5bit?5for?5?8?$CFs?8@ 100c18c0     libgit2:w32_util.obj
 0002:000128e4       ??_C@_1DI@CEDJNLM@?$AA?4?$AA?4?$AA?2?$AAd?$AAe?$AAp?$AAs?$AA?2?$AAl?$AAi?$AAb?$AAg?$AAi?$AAt?$AA2?$AA?2?$AAs?$AAr?$AAc?$AA?2?$AAr?$AAe?$AAf?$AAd?$AAb?$AA?4?$AAc?$AA?$AA@ 100c18e4     libgit2:refdb.obj
 0002:00012920       ??_C@_1EK@PJMOBEGK@?$AAd?$AAb?$AA?5?$AA?$CG?$AA?$CG?$AA?5?$AAd?$AAb?$AA?9?$AA?$DO?$AAb?$AAa?$AAc?$AAk?$AAe?$AAn?$AAd?$AA?5?$AA?$CG?$AA?$CG?$AA?5?$AAo?$AAu?$AAt?$AA?5?$AA?$CG?$AA?$CG?$AA?5?$AAr?$AAe?$AAf?$AA_@ 100c1920     libgit2:refdb.obj
 0002:0001296c       ??_C@_0CH@NAONHHJN@This?5backend?5doesn?8t?5support?5ite@ 100c196c     libgit2:refdb.obj
 0002:00012994       ??_C@_1CE@CBOCDCNP@?$AAd?$AAb?$AA?5?$AA?$CG?$AA?$CG?$AA?5?$AAd?$AAb?$AA?9?$AA?$DO?$AAb?$AAa?$AAc?$AAk?$AAe?$AAn?$AAd?$AA?$AA@ 100c1994     libgit2:refdb.obj
 0002:000129b8       ??_C@_1BM@EHNGHGCN@?$AAd?$AAb?$AA?5?$AA?$CG?$AA?$CG?$AA?5?$AAr?$AAe?$AAf?$AAn?$AAa?$AAm?$AAe?$AA?$AA@ 100c19b8     libgit2:refdb.obj
 0002:000129d4       ??_C@_0BC@IKPPAFPO@git_refdb_backend?$AA@ 100c19d4     libgit2:refdb.obj
 0002:000129e8       ??_C@_1DC@DPHBCJB@?$AAp?$AAa?$AAy?$AAl?$AAo?$AAa?$AAd?$AA?5?$AA?$CG?$AA?$CG?$AA?5?$AAd?$AAb?$AA?5?$AA?$CG?$AA?$CG?$AA?5?$AAr?$AAe?$AAf?$AAn?$AAa?$AAm?$AAe?$AA?$AA@ 100c19e8     libgit2:refdb.obj
 0002:00012a1c       ??_C@_0CB@GIOIIF@backend?5does?5not?5support?5locking@ 100c1a1c     libgit2:refdb.obj
 0002:00012a40       ??_C@_0L@HNMJPKNA@attributes?$AA@ 100c1a40     libgit2:attrcache.obj
 0002:00012a4c       ??_C@_0BE@KPGCFJAL@core?4attributesfile?$AA@ 100c1a4c     libgit2:attrcache.obj
 0002:00012a60       ??_C@_0BC@IPIPCIKF@core?4excludesfile?$AA@ 100c1a60     libgit2:attrcache.obj
 0002:00012a74       ??_C@_0BC@BCIOFNM@?9diff?5?9crlf?5?9text?$AA@ 100c1a74     libgit2:attrcache.obj
 0002:00012a88       ??_C@_06FNFBAEBE@binary?$AA@ 100c1a88     libgit2:attrcache.obj
 0002:00012a90       ??_C@_0BC@JOOBDMEA@type?5out?5of?5range?$AA@ 100c1a90     libgit2:cache.obj
 0002:00012aa4       ??_C@_19MJCDBCKE@?$AA?2?$AA?2?$AA?$DP?$AA?2?$AA?$AA@ 100c1aa4     libgit2:path_w32.obj
 0002:00012ab0       ??_C@_19HHEIMCIC@?$AAU?$AAN?$AAC?$AA?2?$AA?$AA@ 100c1ab0     libgit2:path_w32.obj
 0002:00012abc       ??_C@_15LEKKCGMK@?$AA?2?$AA?2?$AA?$AA@ 100c1abc     libgit2:path_w32.obj
 0002:00012ac4       ??_C@_1BI@JOFCPFBN@?$AA?2?$AA?$DP?$AA?$DP?$AA?2?$AAV?$AAo?$AAl?$AAu?$AAm?$AAe?$AA?$HL?$AA?$AA@ 100c1ac4     libgit2:path_w32.obj
 0002:00012adc       ??_C@_19MBKAKDJ@?$AAe?$AAt?$AAc?$AA?2?$AA?$AA@ 100c1adc     libgit2:sysdir.obj
 0002:00012af0       ??_C@_1DC@BBOEGBBI@?$AAs?$AAh?$AAa?$AAr?$AAe?$AA?2?$AAg?$AAi?$AAt?$AA?9?$AAc?$AAo?$AAr?$AAe?$AA?2?$AAt?$AAe?$AAm?$AAp?$AAl?$AAa?$AAt?$AAe?$AAs?$AA?$AA@ 100c1af0     libgit2:sysdir.obj
 0002:00012b24       ??_C@_0CH@NPMIFMNK@config?5directory?5selector?5out?5of@ 100c1b24     libgit2:sysdir.obj
 0002:00012b4c       ??_C@_1DK@OKLEFJJJ@?$AA?4?$AA?4?$AA?2?$AAd?$AAe?$AAp?$AAs?$AA?2?$AAl?$AAi?$AAb?$AAg?$AAi?$AAt?$AA2?$AA?2?$AAs?$AAr?$AAc?$AA?2?$AAs?$AAy?$AAs?$AAd?$AAi?$AAr?$AA?4?$AAc?$AA?$AA@ 100c1b4c     libgit2:sysdir.obj
 0002:00012b88       ??_C@_05JKKOKKIO@$PATH?$AA@ 100c1b88     libgit2:sysdir.obj
 0002:00012b90       ??_C@_0BP@HHFAABGK@The?5?$CFs?5file?5?8?$CFs?8?5doesn?8t?5exist?$AA@ 100c1b90     libgit2:sysdir.obj
 0002:00012bb0       ??_C@_06FHFOAHML@system?$AA@ 100c1bb0     libgit2:sysdir.obj
 0002:00012bb8       ??_C@_06FJKEMHGD@global?$AA@ 100c1bb8     libgit2:sysdir.obj
 0002:00012bc0       ??_C@_0L@ONNHOGKP@global?1xdg?$AA@ 100c1bc0     libgit2:sysdir.obj
 0002:00012bcc       ??_C@_0M@HANIACID@ProgramData?$AA@ 100c1bcc     libgit2:sysdir.obj
 0002:00012bd8       ??_C@_08FJNLKCPH@template?$AA@ 100c1bd8     libgit2:sysdir.obj
 0002:00012be8       ??_C@_1EO@OIPNEIAE@?$AA?4?$AA?4?$AA?2?$AAd?$AAe?$AAp?$AAs?$AA?2?$AAl?$AAi?$AAb?$AAg?$AAi?$AAt?$AA2?$AA?2?$AAs?$AAr?$AAc?$AA?2?$AAw?$AAi?$AAn?$AA3?$AA2?$AA?2?$AAw?$AA3?$AA2?$AA_?$AAb?$AAu@ 100c1be8     libgit2:w32_buffer.obj
 0002:00012c38       ??_C@_1BC@BAJHBIBB@?$AAs?$AAt?$AAr?$AAi?$AAn?$AAg?$AA_?$AAw?$AA?$AA@ 100c1c38     libgit2:w32_buffer.obj
 0002:00012c4c       ??_C@_1BK@PINDOJNO@?$AAu?$AAt?$AAf?$AA8?$AA_?$AAl?$AAe?$AAn?$AA?5?$AA?$DO?$AA?5?$AA0?$AA?$AA@ 100c1c4c     libgit2:w32_buffer.obj
 0002:00012c68       ??_C@_1DG@JACIABIH@?$AAu?$AAt?$AAf?$AA8?$AA_?$AAw?$AAr?$AAi?$AAt?$AAe?$AA_?$AAl?$AAe?$AAn?$AA?5?$AA?$DN?$AA?$DN?$AA?5?$AAu?$AAt?$AAf?$AA8?$AA_?$AAl?$AAe?$AAn?$AA?$AA@ 100c1c68     libgit2:w32_buffer.obj
 0002:00012ca0       ??_C@_0CB@IKDCGIEJ@Malformed?5hunk?5header?5from?5xdiff@ 100c1ca0     libgit2:diff_xdiff.obj
 0002:00012cc4       ??_C@_0BO@LHMAGF@Unknown?5diff?5line?5origin?5?$CF02x?$AA@ 100c1cc4     libgit2:diff_xdiff.obj
 0002:00012ce4       ??_C@_0BJ@GJBALIBL@files?5too?5large?5for?5diff?$AA@ 100c1ce4     libgit2:diff_xdiff.obj
 0002:00012d00       ??_C@_0BD@HOCGIDOO@Overly?5large?5delta?$AA@ 100c1d00     libgit2:delta.obj
 0002:00012d14       ??_C@_06KHINEKIJ@?9dirty?$AA@ 100c1d14     libgit2:diff_file.obj
 0002:00012d1c       ??_C@_0BI@BJBIEFOO@Subproject?5commit?5?$CFs?$CFs?6?$AA@ 100c1d1c     libgit2:diff_file.obj
 0002:00012d34       ??_C@_0BM@FGJHOCON@Failed?5to?5read?5symlink?5?8?$CFs?8?$AA@ 100c1d34     libgit2:diff_file.obj
 0002:00012d50       ??_C@_0BK@IKECGPNL@Unknown?5compression?5error?$AA@ 100c1d50     libgit2:zstream.obj
 0002:00012d6c       ??_C@_1DM@MPFAGGFI@?$AA?4?$AA?4?$AA?2?$AAd?$AAe?$AAp?$AAs?$AA?2?$AAl?$AAi?$AAb?$AAg?$AAi?$AAt?$AA2?$AA?2?$AAs?$AAr?$AAc?$AA?2?$AAz?$AAs?$AAt?$AAr?$AAe?$AAa?$AAm?$AA?4?$AAc?$AA?$AA@ 100c1d6c     libgit2:zstream.obj
 0002:00012da8       ??_C@_1FE@MABDNPFJ@?$AAz?$AAs?$AAt?$AAr?$AAe?$AAa?$AAm?$AA?9?$AA?$DO?$AAi?$AAn?$AA_?$AAl?$AAe?$AAn?$AA?5?$AA?$DO?$AA?5?$AA0?$AA?5?$AA?$HM?$AA?$HM?$AA?5?$AAz?$AAf?$AAl?$AAu?$AAs?$AAh?$AA?5?$AA?$DN?$AA?$DN@ 100c1da8     libgit2:zstream.obj
 0002:00012dfc       ??_C@_0BC@MMLHEBPB@InitializeSRWLock?$AA@ 100c1dfc     libgit2:thread.obj
 0002:00012e10       ??_C@_0BF@FOACMGPF@AcquireSRWLockShared?$AA@ 100c1e10     libgit2:thread.obj
 0002:00012e28       ??_C@_0BF@KIGJOCAN@ReleaseSRWLockShared?$AA@ 100c1e28     libgit2:thread.obj
 0002:00012e40       ??_C@_0BI@OMNLIJDB@AcquireSRWLockExclusive?$AA@ 100c1e40     libgit2:thread.obj
 0002:00012e58       ??_C@_0BI@HMIEPCNJ@ReleaseSRWLockExclusive?$AA@ 100c1e58     libgit2:thread.obj
 0002:00012e70       ??_C@_1EG@JDLGHICM@?$AA?4?$AA?4?$AA?2?$AAd?$AAe?$AAp?$AAs?$AA?2?$AAl?$AAi?$AAb?$AAg?$AAi?$AAt?$AA2?$AA?2?$AAs?$AAr?$AAc?$AA?2?$AAw?$AAi?$AAn?$AA3?$AA2?$AA?2?$AAt?$AAh?$AAr?$AAe?$AAa?$AAd@ 100c1e70     libgit2:thread.obj
 0002:00012eb8       ??_C@_1M@MDINAJBD@?$AA?$CK?$AAc?$AAo?$AAn?$AAd?$AA?$AA@ 100c1eb8     libgit2:thread.obj
 0002:00012ec4       ??_C@_1O@BNOODKHA@?$AAc?$AAl?$AAo?$AAs?$AAe?$AAd?$AA?$AA@ 100c1ec4     libgit2:thread.obj
 0002:00012ed4       ??_C@_1DK@PGFDHFIH@?$AAW?$AAA?$AAI?$AAT?$AA_?$AAO?$AAB?$AAJ?$AAE?$AAC?$AAT?$AA_?$AA0?$AA?5?$AA?$DN?$AA?$DN?$AA?5?$AAw?$AAa?$AAi?$AAt?$AA_?$AAr?$AAe?$AAs?$AAu?$AAl?$AAt?$AA?$AA@ 100c1ed4     libgit2:thread.obj
 0002:00012f10       ??_C@_1BC@CCFPEEDJ@?$AAs?$AAi?$AAg?$AAn?$AAa?$AAl?$AAe?$AAd?$AA?$AA@ 100c1f10     libgit2:thread.obj
 0002:00012f28       ??_C@_1EE@JHOJDFIH@?$AA?4?$AA?4?$AA?2?$AAd?$AAe?$AAp?$AAs?$AA?2?$AAl?$AAi?$AAb?$AAg?$AAi?$AAt?$AA2?$AA?2?$AAs?$AAr?$AAc?$AA?2?$AAt?$AAr?$AAa?$AAn?$AAs?$AAa?$AAc?$AAt?$AAi?$AAo?$AAn?$AA?4@ 100c1f28     libgit2:transaction.obj
 0002:00012f6c       ??_C@_1BG@FDOFJOEM@?$AAo?$AAu?$AAt?$AA?5?$AA?$CG?$AA?$CG?$AA?5?$AAc?$AAf?$AAg?$AA?$AA@ 100c1f6c     libgit2:transaction.obj
 0002:00012f84       ??_C@_1BM@LGLIJKFG@?$AAt?$AAx?$AA?5?$AA?$CG?$AA?$CG?$AA?5?$AAr?$AAe?$AAf?$AAn?$AAa?$AAm?$AAe?$AA?$AA@ 100c1f84     libgit2:transaction.obj
 0002:00012fa0       ??_C@_0CG@FBBNMAJF@the?5specified?5reference?5is?5not?5l@ 100c1fa0     libgit2:transaction.obj
 0002:00012fc8       ??_C@_1DA@MNEJHMMD@?$AAt?$AAx?$AA?5?$AA?$CG?$AA?$CG?$AA?5?$AAr?$AAe?$AAf?$AAn?$AAa?$AAm?$AAe?$AA?5?$AA?$CG?$AA?$CG?$AA?5?$AAt?$AAa?$AAr?$AAg?$AAe?$AAt?$AA?$AA@ 100c1fc8     libgit2:transaction.obj
 0002:00012ff8       ??_C@_1DA@KGJFOKNJ@?$AAt?$AAx?$AA?5?$AA?$CG?$AA?$CG?$AA?5?$AAr?$AAe?$AAf?$AAn?$AAa?$AAm?$AAe?$AA?5?$AA?$CG?$AA?$CG?$AA?5?$AAr?$AAe?$AAf?$AAl?$AAo?$AAg?$AA?$AA@ 100c1ff8     libgit2:transaction.obj
 0002:00013028       ??_C@_15HAAFJJPI@?$AAt?$AAx?$AA?$AA@ 100c2028     libgit2:transaction.obj
 0002:00013030       ??_C@_1DO@BAKJCBNC@?$AA?4?$AA?4?$AA?2?$AAd?$AAe?$AAp?$AAs?$AA?2?$AAl?$AAi?$AAb?$AAg?$AAi?$AAt?$AA2?$AA?2?$AAs?$AAr?$AAc?$AA?2?$AAb?$AAu?$AAf?$AA_?$AAt?$AAe?$AAx?$AAt?$AA?4?$AAc?$AA?$AA@ 100c2030     libgit2:buf_text.obj
 0002:00013070       ??_C@_1BG@CDPIIHCH@?$AAt?$AAg?$AAt?$AA?5?$AA?$CB?$AA?$DN?$AA?5?$AAs?$AAr?$AAc?$AA?$AA@ 100c2070     libgit2:buf_text.obj
 0002:00013088       ??_C@_1EK@OCCECCIN@?$AA?4?$AA?4?$AA?2?$AAd?$AAe?$AAp?$AAs?$AA?2?$AAl?$AAi?$AAb?$AAg?$AAi?$AAt?$AA2?$AA?2?$AAs?$AAr?$AAc?$AA?2?$AAt?$AAr?$AAa?$AAn?$AAs?$AAp?$AAo?$AAr?$AAt?$AAs?$AA?2?$AAs@ 100c2088     libgit2:ssh.obj
 0002:000130d8       ??_C@_0ED@GDLBLJKE@Cannot?5create?5SSH?5transport?4?5Lib@ 100c20d8     libgit2:ssh.obj
 0002:0001311c       ??_C@_1DM@OEHDMFB@?$AA?4?$AA?4?$AA?2?$AAd?$AAe?$AAp?$AAs?$AA?2?$AAl?$AAi?$AAb?$AAg?$AAi?$AAt?$AA2?$AA?2?$AAs?$AAr?$AAc?$AA?2?$AAm?$AAw?$AAi?$AAn?$AAd?$AAo?$AAw?$AA?4?$AAc?$AA?$AA@ 100c211c     libgit2:mwindow.obj
 0002:00013158       ??_C@_1CC@KNHKNDFD@?$AA?$CB?$AAg?$AAi?$AAt?$AA_?$AA_?$AAp?$AAa?$AAc?$AAk?$AA_?$AAc?$AAa?$AAc?$AAh?$AAe?$AA?$AA@ 100c2158     libgit2:mwindow.obj
 0002:0001317c       ??_C@_1CA@JKOPIIKE@?$AAg?$AAi?$AAt?$AA_?$AA_?$AAp?$AAa?$AAc?$AAk?$AA_?$AAc?$AAa?$AAc?$AAh?$AAe?$AA?$AA@ 100c217c     libgit2:mwindow.obj
 0002:000131a0       ??_C@_1FK@JCPAIPEK@?$AAg?$AAi?$AAt?$AA_?$AAs?$AAt?$AAr?$AAm?$AAa?$AAp?$AA_?$AAv?$AAa?$AAl?$AAi?$AAd?$AA_?$AAi?$AAn?$AAd?$AAe?$AAx?$AA?$CI?$AAg?$AAi?$AAt?$AA_?$AA_?$AAp?$AAa?$AAc?$AAk@ 100c21a0     libgit2:mwindow.obj
 0002:000131fc       ??_C@_1CE@NLCIGLLL@?$AAw?$AA?9?$AA?$DO?$AAi?$AAn?$AAu?$AAs?$AAe?$AA_?$AAc?$AAn?$AAt?$AA?5?$AA?$DN?$AA?$DN?$AA?5?$AA0?$AA?$AA@ 100c21fc     libgit2:mwindow.obj
 0002:00013220       ??_C@_0DB@FFCLINIL@Failed?5to?5close?5memory?5window?4?5C@ 100c2220     libgit2:mwindow.obj
 0002:00013254       ??_C@_0CL@NLCIFFPE@libgit2?5was?5not?5built?5with?5OpenS@ 100c2254     libgit2:openssl_stream.obj
 0002:00013280       ??_C@_1DE@CICNECHE@?$AA?4?$AA?4?$AA?2?$AAd?$AAe?$AAp?$AAs?$AA?2?$AAl?$AAi?$AAb?$AAg?$AAi?$AAt?$AA2?$AA?2?$AAs?$AAr?$AAc?$AA?2?$AAt?$AAa?$AAg?$AA?4?$AAc?$AA?$AA@ 100c2280     libgit2:tag.obj
 0002:000132b4       ??_C@_13DKOGBHCI@?$AAt?$AA?$AA@ 100c22b4     libgit2:tag.obj
 0002:000132b8       ??_C@_0BI@MKBMGHDJ@Failed?5to?5parse?5tag?4?5?$CFs?$AA@ 100c22b8     libgit2:tag.obj
 0002:000132d0       ??_C@_07IDLGIEDF@commit?6?$AA@ 100c22d0     libgit2:tag.obj
 0002:000132d8       ??_C@_05OFJHEEFE@tree?6?$AA@ 100c22d8     libgit2:tag.obj
 0002:000132e0       ??_C@_05IFDKHKNA@blob?6?$AA@ 100c22e0     libgit2:tag.obj
 0002:000132e8       ??_C@_04BGCOLKE@tag?6?$AA@ 100c22e8     libgit2:tag.obj
 0002:000132f0       ??_C@_07JIGNKHIP@object?5?$AA@ 100c22f0     libgit2:tag.obj
 0002:000132f8       ??_C@_0BF@ECFIJMJG@Object?5field?5invalid?$AA@ 100c22f8     libgit2:tag.obj
 0002:00013310       ??_C@_0BB@MNAKOOJM@Object?5too?5short?$AA@ 100c2310     libgit2:tag.obj
 0002:00013324       ??_C@_0BF@GPODMJHH@Type?5field?5not?5found?$AA@ 100c2324     libgit2:tag.obj
 0002:0001333c       ??_C@_0BE@OIFGNCJB@Invalid?5object?5type?$AA@ 100c233c     libgit2:tag.obj
 0002:00013350       ??_C@_04GOAJCHIM@tag?5?$AA@ 100c2350     libgit2:tag.obj
 0002:00013358       ??_C@_0BE@OBBHEKKA@Tag?5field?5not?5found?$AA@ 100c2358     libgit2:tag.obj
 0002:0001336c       ??_C@_07GPOMPDLP@tagger?5?$AA@ 100c236c     libgit2:tag.obj
 0002:00013374       ??_C@_02PHMGELLB@?6?6?$AA@ 100c2374     libgit2:tag.obj
 0002:00013378       ??_C@_0BI@NDJONJEK@tag?5contains?5no?5message?$AA@ 100c2378     libgit2:tag.obj
 0002:00013390       ??_C@_08EJICPDHK@type?5?$CFs?6?$AA@ 100c2390     libgit2:tag.obj
 0002:0001339c       ??_C@_07HAICIJME@tag?5?$CFs?6?$AA@ 100c239c     libgit2:tag.obj
 0002:000133a4       ??_C@_0CB@GELDLOAA@Failed?5to?5create?5tag?5annotation?4@ 100c23a4     libgit2:tag.obj
 0002:000133c8       ??_C@_1DG@IFGOILMO@?$AAr?$AAe?$AAp?$AAo?$AA?5?$AA?$CG?$AA?$CG?$AA?5?$AAt?$AAa?$AAg?$AA_?$AAn?$AAa?$AAm?$AAe?$AA?5?$AA?$CG?$AA?$CG?$AA?5?$AAt?$AAa?$AAr?$AAg?$AAe?$AAt?$AA?$AA@ 100c23c8     libgit2:tag.obj
 0002:00013400       ??_C@_1FM@GIKCJFFG@?$AA?$CB?$AAc?$AAr?$AAe?$AAa?$AAt?$AAe?$AA_?$AAt?$AAa?$AAg?$AA_?$AAa?$AAn?$AAn?$AAo?$AAt?$AAa?$AAt?$AAi?$AAo?$AAn?$AA?5?$AA?$HM?$AA?$HM?$AA?5?$AA?$CI?$AAt?$AAa?$AAg?$AAg?$AAe@ 100c2400     libgit2:tag.obj
 0002:0001345c       ??_C@_0DE@HCDPKGEN@The?5given?5target?5does?5not?5belong@ 100c245c     libgit2:tag.obj
 0002:00013490       ??_C@_0BD@IBCNHGDC@Tag?5already?5exists?$AA@ 100c2490     libgit2:tag.obj
 0002:000134a8       ??_C@_1GO@GCAEKNOG@?$AAo?$AAi?$AAd?$AA?5?$AA?$CG?$AA?$CG?$AA?5?$AAr?$AAe?$AAp?$AAo?$AA?5?$AA?$CG?$AA?$CG?$AA?5?$AAt?$AAa?$AAg?$AA_?$AAn?$AAa?$AAm?$AAe?$AA?5?$AA?$CG?$AA?$CG?$AA?5?$AAt?$AAa?$AAr?$AAg?$AAe@ 100c24a8     libgit2:tag.obj
 0002:00013518       ??_C@_1BM@LFLDAHCE@?$AAo?$AAi?$AAd?$AA?5?$AA?$CG?$AA?$CG?$AA?5?$AAb?$AAu?$AAf?$AAf?$AAe?$AAr?$AA?$AA@ 100c2518     libgit2:tag.obj
 0002:00013534       ??_C@_0CJ@IPDMOPAG@The?5type?5for?5the?5given?5target?5is@ 100c2534     libgit2:tag.obj
 0002:00013560       ??_C@_0BA@OCCOKGE@git_tag_foreach?$AA@ 100c2560     libgit2:tag.obj
 0002:00013570       ??_C@_1DK@NJPEOAKH@?$AAt?$AAa?$AAg?$AA_?$AAn?$AAa?$AAm?$AAe?$AAs?$AA?5?$AA?$CG?$AA?$CG?$AA?5?$AAr?$AAe?$AAp?$AAo?$AA?5?$AA?$CG?$AA?$CG?$AA?5?$AAp?$AAa?$AAt?$AAt?$AAe?$AAr?$AAn?$AA?$AA@ 100c2570     libgit2:tag.obj
 0002:000135ac       ??_C@_1DM@GAGICFI@?$AA?4?$AA?4?$AA?2?$AAd?$AAe?$AAp?$AAs?$AA?2?$AAl?$AAi?$AAb?$AAg?$AAi?$AAt?$AA2?$AA?2?$AAs?$AAr?$AAc?$AA?2?$AAr?$AAe?$AAf?$AAs?$AAp?$AAe?$AAc?$AA?4?$AAc?$AA?$AA@ 100c25ac     libgit2:refspec.obj
 0002:000135e8       ??_C@_1CC@PBPDPLNJ@?$AAr?$AAe?$AAf?$AAs?$AAp?$AAe?$AAc?$AA?5?$AA?$CG?$AA?$CG?$AA?5?$AAi?$AAn?$AAp?$AAu?$AAt?$AA?$AA@ 100c25e8     libgit2:refspec.obj
 0002:0001360c       ??_C@_0BN@GGCCGCHJ@?8?$CFs?8?5is?5not?5a?5valid?5refspec?4?$AA@ 100c260c     libgit2:refspec.obj
 0002:0001362c       ??_C@_1BA@EEBHGDHD@?$AAr?$AAe?$AAf?$AAs?$AAp?$AAe?$AAc?$AA?$AA@ 100c262c     libgit2:refspec.obj
 0002:0001363c       ??_C@_1CK@OLEADPJI@?$AAf?$AAr?$AAo?$AAm?$AA_?$AAs?$AAt?$AAa?$AAr?$AA?5?$AA?$CG?$AA?$CG?$AA?5?$AAt?$AAo?$AA_?$AAs?$AAt?$AAa?$AAr?$AA?$AA@ 100c263c     libgit2:refspec.obj
 0002:00013668       ??_C@_1CI@FOPHFPGJ@?$AAo?$AAu?$AAt?$AA?5?$AA?$CG?$AA?$CG?$AA?5?$AAs?$AAp?$AAe?$AAc?$AA?5?$AA?$CG?$AA?$CG?$AA?5?$AAn?$AAa?$AAm?$AAe?$AA?$AA@ 100c2668     libgit2:refspec.obj
 0002:00013690       ??_C@_0CC@GOEMEMMJ@ref?5?8?$CFs?8?5doesn?8t?5match?5the?5sourc@ 100c2690     libgit2:refspec.obj
 0002:000136b4       ??_C@_0CH@PBPEKKOH@ref?5?8?$CFs?8?5doesn?8t?5match?5the?5desti@ 100c26b4     libgit2:refspec.obj
 0002:000136dc       ??_C@_05CCMOGDN@?$CFs?3?$CFs?$AA@ 100c26dc     libgit2:refspec.obj
 0002:000136e4       ??_C@_1CE@FHKEAPBA@?$AAs?$AAp?$AAe?$AAc?$AA?5?$AA?$CG?$AA?$CG?$AA?5?$AAs?$AAp?$AAe?$AAc?$AA?9?$AA?$DO?$AAs?$AAr?$AAc?$AA?$AA@ 100c26e4     libgit2:refspec.obj
 0002:00013708       ??_C@_19NMPBPOIG@?$AAs?$AAp?$AAe?$AAc?$AA?$AA@ 100c2708     libgit2:refspec.obj
 0002:00013714       ??_C@_08IGKJBCN@remotes?1?$AA@ 100c2714     libgit2:refspec.obj
 0002:00013720       ??_C@_1DI@MCGPHABA@?$AA?4?$AA?4?$AA?2?$AAd?$AAe?$AAp?$AAs?$AA?2?$AAl?$AAi?$AAb?$AAg?$AAi?$AAt?$AA2?$AA?2?$AAs?$AAr?$AAc?$AA?2?$AAt?$AAs?$AAo?$AAr?$AAt?$AA?4?$AAc?$AA?$AA@ 100c2720     libgit2:tsort.obj
 0002:00013758       ??_C@_1BC@PPAEDHAP@?$AAs?$AAi?$AAz?$AAe?$AA?5?$AA?$DO?$AA?5?$AA0?$AA?$AA@ 100c2758     libgit2:tsort.obj
 0002:0001376c       ??_C@_04HAPDLBFF@auto?$AA@ 100c276c     libgit2:crlf.obj
 0002:00013774       ??_C@_0CF@FPIFFOHB@LF?5would?5be?5replaced?5by?5CRLF?5in?5@ 100c2774     libgit2:crlf.obj
 0002:0001379c       ??_C@_0CE@MGKAGICI@Invalid?5input?5to?5line?5ending?5fil@ 100c279c     libgit2:crlf.obj
 0002:000137c0       ??_C@_0O@JLKKAKFI@crlf?5eol?5text?$AA@ 100c27c0     libgit2:crlf.obj
 0002:000137d0       ??_C@_0BD@GNKBECBM@?$FLinternal?$FN__TRUE__?$AA@ 100c27d0     libgit2:attr.obj
 0002:000137e4       ??_C@_0BE@LFDKIKBJ@?$FLinternal?$FN__FALSE__?$AA@ 100c27e4     libgit2:attr.obj
 0002:000137f8       ??_C@_0BE@EEMDCOKO@?$FLinternal?$FN__UNSET__?$AA@ 100c27f8     libgit2:attr.obj
 0002:0001380c       ??_C@_1DG@PBGOOBLD@?$AA?4?$AA?4?$AA?2?$AAd?$AAe?$AAp?$AAs?$AA?2?$AAl?$AAi?$AAb?$AAg?$AAi?$AAt?$AA2?$AA?2?$AAs?$AAr?$AAc?$AA?2?$AAa?$AAt?$AAt?$AAr?$AA?4?$AAc?$AA?$AA@ 100c280c     libgit2:attr.obj
 0002:00013844       ??_C@_1CM@BMDDGOJB@?$AAv?$AAa?$AAl?$AAu?$AAe?$AA?5?$AA?$CG?$AA?$CG?$AA?5?$AAr?$AAe?$AAp?$AAo?$AA?5?$AA?$CG?$AA?$CG?$AA?5?$AAn?$AAa?$AAm?$AAe?$AA?$AA@ 100c2844     libgit2:attr.obj
 0002:00013870       ??_C@_1DA@EBPHCECB@?$AAv?$AAa?$AAl?$AAu?$AAe?$AAs?$AA?5?$AA?$CG?$AA?$CG?$AA?5?$AAr?$AAe?$AAp?$AAo?$AA?5?$AA?$CG?$AA?$CG?$AA?5?$AAn?$AAa?$AAm?$AAe?$AAs?$AA?$AA@ 100c2870     libgit2:attr.obj
 0002:000138a0       ??_C@_1CC@IADAICNG@?$AAr?$AAe?$AAp?$AAo?$AA?5?$AA?$CG?$AA?$CG?$AA?5?$AAc?$AAa?$AAl?$AAl?$AAb?$AAa?$AAc?$AAk?$AA?$AA@ 100c28a0     libgit2:attr.obj
 0002:000138c4       ??_C@_0BB@IBAKOAKO@git_attr_foreach?$AA@ 100c28c4     libgit2:attr.obj
 0002:000138d8       ??_C@_0O@IAMPHNCP@gitattributes?$AA@ 100c28d8     libgit2:attr.obj
 0002:000138e8       ??_C@_0BA@IGLLFBNL@info?1attributes?$AA@ 100c28e8     libgit2:attr.obj
 0002:000138f8       ??_C@_0P@ODBBCBOE@?4gitattributes?$AA@ 100c28f8     libgit2:attr.obj
 0002:00013908       ??_C@_05IPNPAHPE@$Id?3?5?$AA@ 100c2908     libgit2:ident.obj
 0002:00013910       ??_C@_02MJBLIBKL@?5$?$AA@  100c2910     libgit2:ident.obj
 0002:00013914       ??_C@_04FFLGBEML@$Id$?$AA@ 100c2914     libgit2:ident.obj
 0002:0001391c       ??_C@_06OJICJPBB@?$CLident?$AA@ 100c291c     libgit2:ident.obj
 0002:00013928       ??_C@_1EA@LFHJOPIH@?$AA?4?$AA?4?$AA?2?$AAd?$AAe?$AAp?$AAs?$AA?2?$AAl?$AAi?$AAb?$AAg?$AAi?$AAt?$AA2?$AA?2?$AAs?$AAr?$AAc?$AA?2?$AAw?$AAi?$AAn?$AA3?$AA2?$AA?2?$AAm?$AAa?$AAp?$AA?4?$AAc?$AA?$AA@ 100c2928     libgit2:map.obj
 0002:00013968       ??_C@_1CO@KNLNKJIF@?$AAo?$AAu?$AAt?$AA?5?$AA?$CB?$AA?$DN?$AA?5?$AAN?$AAU?$AAL?$AAL?$AA?5?$AA?$CG?$AA?$CG?$AA?5?$AAl?$AAe?$AAn?$AA?5?$AA?$DO?$AA?5?$AA0?$AA?$AA@ 100c2968     libgit2:map.obj
 0002:00013998       ??_C@_1GE@JDDPFAKE@?$AA?$CI?$AAp?$AAr?$AAo?$AAt?$AA?5?$AA?$CG?$AA?5?$AAG?$AAI?$AAT?$AA_?$AAP?$AAR?$AAO?$AAT?$AA_?$AAW?$AAR?$AAI?$AAT?$AAE?$AA?$CJ?$AA?5?$AA?$HM?$AA?$HM?$AA?5?$AA?$CI?$AAp?$AAr?$AAo?$AAt@ 100c2998     libgit2:map.obj
 0002:000139fc       ??_C@_0CF@PMLHDJPF@Failed?5to?5mmap?4?5Invalid?5handle?5v@ 100c29fc     libgit2:map.obj
 0002:00013a28       ??_C@_0EC@JENFMKLH@Failed?5to?5mmap?4?5Offset?5must?5be?5m@ 100c2a28     libgit2:map.obj
 0002:00013a6c       ??_C@_0CA@JDKBKDJH@Failed?5to?5mmap?4?5No?5data?5written?$AA@ 100c2a6c     libgit2:map.obj
 0002:00013a8c       ??_C@_1BI@PAMACCMC@?$AAm?$AAa?$AAp?$AA?5?$AA?$CB?$AA?$DN?$AA?5?$AAN?$AAU?$AAL?$AAL?$AA?$AA@ 100c2a8c     libgit2:map.obj
 0002:00013aa4       ??_C@_0CP@HFLDPGMA@Failed?5to?5munmap?4?5Could?5not?5unma@ 100c2aa4     libgit2:map.obj
 0002:00013ad4       ??_C@_0CJ@MEHJAAKC@Failed?5to?5munmap?4?5Could?5not?5clos@ 100c2ad4     libgit2:map.obj
 0002:00013b00       ??_C@_0CD@EOMOOAHO@Could?5not?5read?5from?5directory?5?8?$CF@ 100c2b00     libgit2:dir.obj
 0002:00013b24       ??_C@_0DM@NEBHHLNO@Failed?5to?5finish?5ZLib?5inflation?4@ 100c2b24     libgit2:odb_loose.obj
 0002:00013b60       ??_C@_0BJ@BCJOJG@Failed?5to?5inflate?5buffer?$AA@ 100c2b60     libgit2:odb_loose.obj
 0002:00013b7c       ??_C@_0DF@JBDFIPM@Failed?5to?5inflate?5buffer?4?5Stream@ 100c2b7c     libgit2:odb_loose.obj
 0002:00013bb4       ??_C@_0CA@HGAIPENE@Failed?5to?5inflate?5loose?5object?4?$AA@ 100c2bb4     libgit2:odb_loose.obj
 0002:00013bd4       ??_C@_0BP@DKPCBFJA@Failed?5to?5inflate?5disk?5object?4?$AA@ 100c2bd4     libgit2:odb_loose.obj
 0002:00013bf8       ??_C@_1EA@GIGFONA@?$AA?4?$AA?4?$AA?2?$AAd?$AAe?$AAp?$AAs?$AA?2?$AAl?$AAi?$AAb?$AAg?$AAi?$AAt?$AA2?$AA?2?$AAs?$AAr?$AAc?$AA?2?$AAo?$AAd?$AAb?$AA_?$AAl?$AAo?$AAo?$AAs?$AAe?$AA?4?$AAc?$AA?$AA@ 100c2bf8     libgit2:odb_loose.obj
 0002:00013c38       ??_C@_1BG@CCKIEKHP@?$AAo?$AAu?$AAt?$AA?5?$AA?$CG?$AA?$CG?$AA?5?$AAl?$AAo?$AAc?$AA?$AA@ 100c2c38     libgit2:odb_loose.obj
 0002:00013c50       ??_C@_0CD@HIEMGGKM@Failed?5to?5read?5loose?5object?5head@ 100c2c50     libgit2:odb_loose.obj
 0002:00013c74       ??_C@_0CE@JMCIPHDH@no?5matching?5loose?5object?5for?5pre@ 100c2c74     libgit2:odb_loose.obj
 0002:00013c98       ??_C@_0CC@DMJLFNGE@multiple?5matches?5in?5loose?5object@ 100c2c98     libgit2:odb_loose.obj
 0002:00013cbc       ??_C@_1BO@BEGMGADL@?$AAb?$AAa?$AAc?$AAk?$AAe?$AAn?$AAd?$AA?5?$AA?$CG?$AA?$CG?$AA?5?$AAo?$AAi?$AAd?$AA?$AA@ 100c2cbc     libgit2:odb_loose.obj
 0002:00013cdc       ??_C@_0BJ@JAHAFKNA@no?5matching?5loose?5object?$AA@ 100c2cdc     libgit2:odb_loose.obj
 0002:00013cf8       ??_C@_1GI@PBICJFDJ@?$AAl?$AAe?$AAn?$AA?5?$AA?$DO?$AA?$DN?$AA?5?$AAG?$AAI?$AAT?$AA_?$AAO?$AAI?$AAD?$AA_?$AAM?$AAI?$AAN?$AAP?$AAR?$AAE?$AAF?$AAI?$AAX?$AAL?$AAE?$AAN?$AA?5?$AA?$CG?$AA?$CG?$AA?5?$AAl@ 100c2cf8     libgit2:odb_loose.obj
 0002:00013d60       ??_C@_1CK@HPMHGEFE@?$AAb?$AAa?$AAc?$AAk?$AAe?$AAn?$AAd?$AA?5?$AA?$CG?$AA?$CG?$AA?5?$AAs?$AAh?$AAo?$AAr?$AAt?$AA_?$AAo?$AAi?$AAd?$AA?$AA@ 100c2d60     libgit2:odb_loose.obj
 0002:00013d90       ??_C@_1HE@LGCHBNII@?$AAb?$AAa?$AAc?$AAk?$AAe?$AAn?$AAd?$AA?5?$AA?$CG?$AA?$CG?$AA?5?$AAo?$AAu?$AAt?$AA?5?$AA?$CG?$AA?$CG?$AA?5?$AAs?$AAh?$AAo?$AAr?$AAt?$AA_?$AAi?$AAd?$AA?5?$AA?$CG?$AA?$CG?$AA?5?$AAl?$AAe@ 100c2d90     libgit2:odb_loose.obj
 0002:00013e04       ??_C@_0BA@OENGMEJA@git_odb_foreach?$AA@ 100c2e04     libgit2:odb_loose.obj
 0002:00013e14       ??_C@_1BM@EAMCBOMM@?$AAb?$AAa?$AAc?$AAk?$AAe?$AAn?$AAd?$AA?5?$AA?$CG?$AA?$CG?$AA?5?$AAc?$AAb?$AA?$AA@ 100c2e14     libgit2:odb_loose.obj
 0002:00013e30       ??_C@_1DA@JCJCKENO@?$AA_?$AAb?$AAa?$AAc?$AAk?$AAe?$AAn?$AAd?$AA?5?$AA?$CG?$AA?$CG?$AA?5?$AAl?$AAe?$AAn?$AAg?$AAt?$AAh?$AA?5?$AA?$DO?$AA?$DN?$AA?5?$AA0?$AA?$AA@ 100c2e30     libgit2:odb_loose.obj
 0002:00013e60       ??_C@_0L@GEEFPBBG@tmp_object?$AA@ 100c2e60     libgit2:odb_loose.obj
 0002:00013e6c       ??_C@_1BC@DNPMJPMH@?$AA_?$AAb?$AAa?$AAc?$AAk?$AAe?$AAn?$AAd?$AA?$AA@ 100c2e6c     libgit2:odb_loose.obj
 0002:00013e80       ??_C@_1DG@PDLEELPJ@?$AAb?$AAa?$AAc?$AAk?$AAe?$AAn?$AAd?$AA_?$AAo?$AAu?$AAt?$AA?5?$AA?$CG?$AA?$CG?$AA?5?$AAo?$AAb?$AAj?$AAe?$AAc?$AAt?$AAs?$AA_?$AAd?$AAi?$AAr?$AA?$AA@ 100c2e80     libgit2:odb_loose.obj
 0002:00013eb8       ??_C@_04KJDKLBAM@?4idx?$AA@ 100c2eb8     libgit2:odb_pack.obj
 0002:00013ec0       ??_C@_0BK@NBPNDAJB@failed?5to?5find?5pack?5entry?$AA@ 100c2ec0     libgit2:odb_pack.obj
 0002:00013edc       ??_C@_0BM@OKGDBPDF@found?5multiple?5pack?5entries?$AA@ 100c2edc     libgit2:odb_pack.obj
 0002:00013ef8       ??_C@_0CC@MAIMBOMC@no?5matching?5pack?5entry?5for?5prefi@ 100c2ef8     libgit2:odb_pack.obj
 0002:00013f1c       ??_C@_0BM@LHNPBHLB@failed?5to?5refresh?5packfiles?$AA@ 100c2f1c     libgit2:odb_pack.obj
 0002:00013f38       ??_C@_1DO@MBFFKIL@?$AA?4?$AA?4?$AA?2?$AAd?$AAe?$AAp?$AAs?$AA?2?$AAl?$AAi?$AAb?$AAg?$AAi?$AAt?$AA2?$AA?2?$AAs?$AAr?$AAc?$AA?2?$AAo?$AAd?$AAb?$AA_?$AAp?$AAa?$AAc?$AAk?$AA?4?$AAc?$AA?$AA@ 100c2f38     libgit2:odb_pack.obj
 0002:00013f78       ??_C@_1EE@OMFKOOOP@?$AAl?$AAe?$AAn?$AA_?$AAp?$AA?5?$AA?$CG?$AA?$CG?$AA?5?$AAt?$AAy?$AAp?$AAe?$AA_?$AAp?$AA?5?$AA?$CG?$AA?$CG?$AA?5?$AAb?$AAa?$AAc?$AAk?$AAe?$AAn?$AAd?$AA?5?$AA?$CG?$AA?$CG?$AA?5?$AAo?$AAi@ 100c2f78     libgit2:odb_pack.obj
 0002:00013fbc       ??_C@_1BO@CFMPCKOC@?$AA_?$AAb?$AAa?$AAc?$AAk?$AAe?$AAn?$AAd?$AA?5?$AA?$CG?$AA?$CG?$AA?5?$AAc?$AAb?$AA?$AA@ 100c2fbc     libgit2:odb_pack.obj
 0002:00013fdc       ??_C@_1BE@DNFHOKEG@?$AAw?$AAr?$AAi?$AAt?$AAe?$AAp?$AAa?$AAc?$AAk?$AA?$AA@ 100c2fdc     libgit2:odb_pack.obj
 0002:00013ff0       ??_C@_1CA@HEEJNNGA@?$AAo?$AAu?$AAt?$AA?5?$AA?$CG?$AA?$CG?$AA?5?$AA_?$AAb?$AAa?$AAc?$AAk?$AAe?$AAn?$AAd?$AA?$AA@ 100c2ff0     libgit2:odb_pack.obj
 0002:00014010       ??_C@_04IPANLPFO@pack?$AA@ 100c3010     libgit2:odb_pack.obj
 0002:00014018       ??_C@_1EA@PNEFJHDG@?$AA?4?$AA?4?$AA?2?$AAd?$AAe?$AAp?$AAs?$AA?2?$AAl?$AAi?$AAb?$AAg?$AAi?$AAt?$AA2?$AA?2?$AAs?$AAr?$AAc?$AA?2?$AAf?$AAe?$AAt?$AAc?$AAh?$AAh?$AAe?$AAa?$AAd?$AA?4?$AAc?$AA?$AA@ 100c3018     libgit2:fetchhead.obj
 0002:00014058       ??_C@_1BG@OHKJJGDI@?$AAo?$AAu?$AAt?$AA?5?$AA?$CG?$AA?$CG?$AA?5?$AAo?$AAi?$AAd?$AA?$AA@ 100c3058     libgit2:fetchhead.obj
 0002:00014070       ??_C@_1CM@MNANJD@?$AAf?$AAi?$AAl?$AAe?$AA?5?$AA?$CG?$AA?$CG?$AA?5?$AAf?$AAe?$AAt?$AAc?$AAh?$AAh?$AAe?$AAa?$AAd?$AA_?$AAr?$AAe?$AAf?$AA?$AA@ 100c3070     libgit2:fetchhead.obj
 0002:0001409c       ??_C@_07GMJNLFFG@branch?5?$AA@ 100c309c     libgit2:fetchhead.obj
 0002:000140a4       ??_C@_07OHGANECE@?$CFs?7?7?$CFs?6?$AA@ 100c30a4     libgit2:fetchhead.obj
 0002:000140ac       ??_C@_0O@EEGFBBLL@not?9for?9merge?$AA@ 100c30ac     libgit2:fetchhead.obj
 0002:000140bc       ??_C@_0BE@DGDDCPJM@?$CFs?7?$CFs?7?$CFs?8?$CFs?8?5of?5?$CFs?6?$AA@ 100c30bc     libgit2:fetchhead.obj
 0002:000140d0       ??_C@_1CO@MGJOKBKJ@?$AAr?$AAe?$AAp?$AAo?$AA?5?$AA?$CG?$AA?$CG?$AA?5?$AAf?$AAe?$AAt?$AAc?$AAh?$AAh?$AAe?$AAa?$AAd?$AA_?$AAr?$AAe?$AAf?$AAs?$AA?$AA@ 100c30d0     libgit2:fetchhead.obj
 0002:00014100       ??_C@_0L@PBICNDGC@FETCH_HEAD?$AA@ 100c3100     libgit2:fetchhead.obj
 0002:0001410c       ??_C@_0CB@EGCGLFBC@Empty?5line?5in?5FETCH_HEAD?5line?5?$CFd@ 100c310c     libgit2:fetchhead.obj
 0002:00014130       ??_C@_0CI@GNOPILIG@Invalid?5object?5ID?5in?5FETCH_HEAD?5@ 100c3130     libgit2:fetchhead.obj
 0002:00014158       ??_C@_0BC@BOJNCECG@Invalid?5object?5ID?$AA@ 100c3158     libgit2:fetchhead.obj
 0002:0001416c       ??_C@_0BJ@KPLOBFBN@?$CFs?5in?5FETCH_HEAD?5line?5?$CFd?$AA@ 100c316c     libgit2:fetchhead.obj
 0002:00014188       ??_C@_0CP@CDMAKDKB@Invalid?5description?5data?5in?5FETC@ 100c3188     libgit2:fetchhead.obj
 0002:000141b8       ??_C@_0CO@IILGBAPM@Invalid?5for?9merge?5entry?5in?5FETCH@ 100c31b8     libgit2:fetchhead.obj
 0002:000141e8       ??_C@_0CK@BOKLFIMI@Invalid?5description?5in?5FETCH_HEA@ 100c31e8     libgit2:fetchhead.obj
 0002:00014214       ??_C@_08FIKBNLBB@branch?5?8?$AA@ 100c3214     libgit2:fetchhead.obj
 0002:00014220       ??_C@_05DOKFHEEJ@tag?5?8?$AA@ 100c3220     libgit2:fetchhead.obj
 0002:00014228       ??_C@_01GEODFPGF@?8?$AA@   100c3228     libgit2:fetchhead.obj
 0002:0001422c       ??_C@_02KIDIFCCK@?8?5?$AA@ 100c322c     libgit2:fetchhead.obj
 0002:00014230       ??_C@_05CPMODALD@?8?5of?5?$AA@ 100c3230     libgit2:fetchhead.obj
 0002:00014238       ??_C@_0CB@OBADAHND@git_repository_fetchhead_foreach@ 100c3238     libgit2:fetchhead.obj
 0002:0001425c       ??_C@_0CO@BKKIEPLI@Failed?5to?5filter?5the?5reference?5l@ 100c325c     libgit2:fetch.obj
 0002:0001428c       ??_C@_0BC@HPFKMHLK@git_fetch_options?$AA@ 100c328c     libgit2:fetch.obj
 0002:000142a0       ??_C@_0BB@LGMIABNG@git_push_options?$AA@ 100c32a0     libgit2:push.obj
 0002:000142b4       ??_C@_0BL@PPDDCBOB@Not?5a?5valid?5reference?5?8?$CFs?8?$AA@ 100c32b4     libgit2:push.obj
 0002:000142d0       ??_C@_0DE@BJDKNHCC@src?5refspec?5?8?$CFs?8?5does?5not?5match?5@ 100c32d0     libgit2:push.obj
 0002:00014304       ??_C@_0BD@KFAPHBJP@invalid?5refspec?5?$CFs?$AA@ 100c3304     libgit2:push.obj
 0002:00014318       ??_C@_0P@MDNDGHPM@update?5by?5push?$AA@ 100c3318     libgit2:push.obj
 0002:00014328       ??_C@_0HL@NIBKJCIH@Cannot?5push?5because?5a?5reference?5@ 100c3328     libgit2:push.obj
 0002:000143a4       ??_C@_0CK@LNLJALDP@Cannot?5push?5non?9fastforwardable?5@ 100c33a4     libgit2:push.obj
 0002:000143d0       ??_C@_0BH@JAJGNAGA@No?5such?5reference?5?8?$CFs?8?$AA@ 100c33d0     libgit2:push.obj
 0002:000143e8       ??_C@_0CG@HEPMBGBK@Remote?5transport?5doesn?8t?5support@ 100c33e8     libgit2:push.obj
 0002:00014410       ??_C@_0DB@NGPDNGMO@unpacking?5the?5sent?5packfile?5fail@ 100c3410     libgit2:push.obj
 0002:00014444       ??_C@_0BI@CDDGDFDK@git_push_status_foreach?$AA@ 100c3444     libgit2:push.obj
 0002:0001445c       ??_C@_06LBLAGLAC@git?3?1?1?$AA@ 100c345c     libgit2:transport.obj
 0002:00014464       ??_C@_07FGAOOBMN@http?3?1?1?$AA@ 100c3464     libgit2:transport.obj
 0002:0001446c       ??_C@_08MFLLBFBE@https?3?1?1?$AA@ 100c346c     libgit2:transport.obj
 0002:00014478       ??_C@_06CFHMIIKB@ssh?3?1?1?$AA@ 100c3478     libgit2:transport.obj
 0002:00014480       ??_C@_0BJ@IPHAJGPD@Unsupported?5URL?5protocol?$AA@ 100c3480     libgit2:transport.obj
 0002:0001449c       ??_C@_0O@GPAAMBBL@git_transport?$AA@ 100c349c     libgit2:transport.obj
 0002:000144b0       ??_C@_1EA@BMNODAAM@?$AA?4?$AA?4?$AA?2?$AAd?$AAe?$AAp?$AAs?$AA?2?$AAl?$AAi?$AAb?$AAg?$AAi?$AAt?$AA2?$AA?2?$AAs?$AAr?$AAc?$AA?2?$AAt?$AAr?$AAa?$AAn?$AAs?$AAp?$AAo?$AAr?$AAt?$AA?4?$AAc?$AA?$AA@ 100c34b0     libgit2:transport.obj
 0002:000144f0       ??_C@_1O@FCPFPLA@?$AAs?$AAc?$AAh?$AAe?$AAm?$AAe?$AA?$AA@ 100c34f0     libgit2:transport.obj
 0002:00014500       ??_C@_15FBHCBMCA@?$AAc?$AAb?$AA?$AA@ 100c3500     libgit2:transport.obj
 0002:00014508       ??_C@_05BJLFHBLD@?$CFs?3?1?1?$AA@ 100c3508     libgit2:transport.obj
 0002:00014510       ??_C@_1DK@JJLLGJNJ@?$AA?4?$AA?4?$AA?2?$AAd?$AAe?$AAp?$AAs?$AA?2?$AAl?$AAi?$AAb?$AAg?$AAi?$AAt?$AA2?$AA?2?$AAs?$AAr?$AAc?$AA?2?$AAr?$AAe?$AAf?$AAl?$AAo?$AAg?$AA?4?$AAc?$AA?$AA@ 100c3510     libgit2:reflog.obj
 0002:0001454c       ??_C@_1CO@HAIMFGBG@?$AAr?$AAe?$AAf?$AAl?$AAo?$AAg?$AA?5?$AA?$CG?$AA?$CG?$AA?5?$AAr?$AAe?$AAp?$AAo?$AA?5?$AA?$CG?$AA?$CG?$AA?5?$AAn?$AAa?$AAm?$AAe?$AA?$AA@ 100c354c     libgit2:reflog.obj
 0002:0001457c       ??_C@_1CK@IPHAPOHI@?$AAr?$AAe?$AAf?$AAl?$AAo?$AAg?$AA?5?$AA?$CG?$AA?$CG?$AA?5?$AAr?$AAe?$AAf?$AAl?$AAo?$AAg?$AA?9?$AA?$DO?$AAd?$AAb?$AA?$AA@ 100c357c     libgit2:reflog.obj
 0002:000145a8       ??_C@_1DO@BEABCBON@?$AAr?$AAe?$AAf?$AAl?$AAo?$AAg?$AA?5?$AA?$CG?$AA?$CG?$AA?5?$AAn?$AAe?$AAw?$AA_?$AAo?$AAi?$AAd?$AA?5?$AA?$CG?$AA?$CG?$AA?5?$AAc?$AAo?$AAm?$AAm?$AAi?$AAt?$AAt?$AAe?$AAr?$AA?$AA@ 100c35a8     libgit2:reflog.obj
 0002:000145e8       ??_C@_0CG@OBIFJJFC@Reflog?5message?5cannot?5contain?5ne@ 100c35e8     libgit2:reflog.obj
 0002:00014610       ??_C@_0CJ@CHGLIBOO@00000000000000000000000000000000@ 100c3610     libgit2:reflog.obj
 0002:0001463c       ??_C@_1O@JBFKFJDO@?$AAr?$AAe?$AAf?$AAl?$AAo?$AAg?$AA?$AA@ 100c363c     libgit2:reflog.obj
 0002:0001464c       ??_C@_0BN@JAMIILPP@No?5reflog?5entry?5at?5index?5?$CFIu?$AA@ 100c364c     libgit2:reflog.obj
 0002:0001466c       ??_C@_1DM@OGGBIGMI@?$AA?4?$AA?4?$AA?2?$AAd?$AAe?$AAp?$AAs?$AA?2?$AAl?$AAi?$AAb?$AAg?$AAi?$AAt?$AA2?$AA?2?$AAs?$AAr?$AAc?$AA?2?$AAh?$AAa?$AAs?$AAh?$AAs?$AAi?$AAg?$AA?4?$AAc?$AA?$AA@ 100c366c     libgit2:hashsig.obj
 0002:000146a8       ??_C@_1LE@JCIFBLDJ@?$AA?$CB?$AA?$CI?$AAs?$AAi?$AAg?$AA?9?$AA?$DO?$AAo?$AAp?$AAt?$AA?5?$AA?$CG?$AA?5?$AAG?$AAI?$AAT?$AA_?$AAH?$AAA?$AAS?$AAH?$AAS?$AAI?$AAG?$AA_?$AAI?$AAG?$AAN?$AAO?$AAR?$AAE?$AA_@ 100c36a8     libgit2:hashsig.obj
 0002:0001475c       ??_C@_0DE@DKOHFMKN@File?5too?5small?5for?5similarity?5si@ 100c375c     libgit2:hashsig.obj
 0002:00014790       ??_C@_0DB@HGPOHGLF@Read?5error?5on?5?8?$CFs?8?5calculating?5s@ 100c3790     libgit2:hashsig.obj
 0002:000147c4       ??_C@_1CC@FMDNCEON@?$AAa?$AA?9?$AA?$DO?$AAc?$AAm?$AAp?$AA?5?$AA?$DN?$AA?$DN?$AA?5?$AAb?$AA?9?$AA?$DO?$AAc?$AAm?$AAp?$AA?$AA@ 100c37c4     libgit2:hashsig.obj
 0002:000147e8       ??_C@_0BD@CHNFLNPN@?$CD?5pack?9refs?5with?3?5?$AA@ 100c37e8     libgit2:refdb_fs.obj
 0002:000147fc       ??_C@_0P@NKNOJBEG@?5fully?9peeled?5?$AA@ 100c37fc     libgit2:refdb_fs.obj
 0002:0001480c       ??_C@_08DMIANPOK@?5peeled?5?$AA@ 100c380c     libgit2:refdb_fs.obj
 0002:00014818       ??_C@_0CB@GNHCMHBD@Corrupted?5packed?5references?5file@ 100c3818     libgit2:refdb_fs.obj
 0002:0001483c       ??_C@_0CD@GKHNIFNJ@Corrupted?5loose?5reference?5file?3?5@ 100c383c     libgit2:refdb_fs.obj
 0002:00014860       ??_C@_05PLDAOGJA@ref?3?5?$AA@ 100c3860     libgit2:refdb_fs.obj
 0002:00014868       ??_C@_05IAIEIABG@?4lock?$AA@ 100c3868     libgit2:refdb_fs.obj
 0002:00014870       ??_C@_1DO@KBJHLPBF@?$AA?4?$AA?4?$AA?2?$AAd?$AAe?$AAp?$AAs?$AA?2?$AAl?$AAi?$AAb?$AAg?$AAi?$AAt?$AA2?$AA?2?$AAs?$AAr?$AAc?$AA?2?$AAr?$AAe?$AAf?$AAd?$AAb?$AA_?$AAf?$AAs?$AA?4?$AAc?$AA?$AA@ 100c3870     libgit2:refdb_fs.obj
 0002:000148b0       ??_C@_1BA@NEANJDMP@?$AAb?$AAa?$AAc?$AAk?$AAe?$AAn?$AAd?$AA?$AA@ 100c38b0     libgit2:refdb_fs.obj
 0002:000148c0       ??_C@_0BP@EMCEKOGJ@Corrupted?5loose?5reference?5file?$AA@ 100c38c0     libgit2:refdb_fs.obj
 0002:000148e0       ??_C@_0BJ@NKBKPFKB@Reference?5?8?$CFs?8?5not?5found?$AA@ 100c38e0     libgit2:refdb_fs.obj
 0002:000148fc       ??_C@_07MHJDBIMI@?$CFs?1refs?$AA@ 100c38fc     libgit2:refdb_fs.obj
 0002:00014908       ??_C@_0EL@LCGKAHOH@Failed?5to?5write?5reference?5?8?$CFs?8?3?5@ 100c3908     libgit2:refdb_fs.obj
 0002:00014954       ??_C@_0DC@GLFHEMAL@Path?5to?5reference?5?8?$CFs?8?5collides?5@ 100c3954     libgit2:refdb_fs.obj
 0002:00014988       ??_C@_1DA@BMHIDPPK@?$AAf?$AAi?$AAl?$AAe?$AA?5?$AA?$CG?$AA?$CG?$AA?5?$AAb?$AAa?$AAc?$AAk?$AAe?$AAn?$AAd?$AA?5?$AA?$CG?$AA?$CG?$AA?5?$AAn?$AAa?$AAm?$AAe?$AA?$AA@ 100c3988     libgit2:refdb_fs.obj
 0002:000149b8       ??_C@_0BN@JEGMNPPG@Invalid?5reference?5name?5?8?$CFs?8?4?$AA@ 100c39b8     libgit2:refdb_fs.obj
 0002:000149d8       ??_C@_0DJ@FJGPKNMI@cannot?5lock?5ref?5?8?$CFs?8?0?5there?5are?5@ 100c39d8     libgit2:refdb_fs.obj
 0002:00014a14       ??_C@_1BI@BFHJGBMF@?$AAf?$AAi?$AAl?$AAe?$AA?5?$AA?$CG?$AA?$CG?$AA?5?$AAr?$AAe?$AAf?$AA?$AA@ 100c3a14     libgit2:refdb_fs.obj
 0002:00014a2c       ??_C@_0L@INCGEEHJ@?$CFs?5?$CFs?6?$FO?$CFs?6?$AA@ 100c3a2c     libgit2:refdb_fs.obj
 0002:00014a38       ??_C@_06IINFAHFO@?$CFs?5?$CFs?6?$AA@ 100c3a38     libgit2:refdb_fs.obj
 0002:00014a40       ??_C@_0DI@ICHOEEPE@Failed?5to?5remove?5loose?5reference@ 100c3a40     libgit2:refdb_fs.obj
 0002:00014a78       ??_C@_0CH@EAKOBGKA@?$CD?5pack?9refs?5with?3?5peeled?5fully?9p@ 100c3a78     libgit2:refdb_fs.obj
 0002:00014aa0       ??_C@_0CD@DHBCKBN@old?5reference?5value?5does?5not?5mat@ 100c3aa0     libgit2:refdb_fs.obj
 0002:00014ac4       ??_C@_1CI@GGPDDLPK@?$AAb?$AAa?$AAc?$AAk?$AAe?$AAn?$AAd?$AA?5?$AA?$CG?$AA?$CG?$AA?5?$AAr?$AAe?$AAf?$AA_?$AAn?$AAa?$AAm?$AAe?$AA?$AA@ 100c3ac4     libgit2:refdb_fs.obj
 0002:00014aec       ??_C@_0BE@OAMGKHJB@refs?1namespaces?1?$CFs?1?$AA@ 100c3aec     libgit2:refdb_fs.obj
 0002:00014b00       ??_C@_0BI@CDMDHGKN@refs?1namespaces?1?$CFs?1refs?$AA@ 100c3b00     libgit2:refdb_fs.obj
 0002:00014b18       ??_C@_0CF@LCGINLAD@Ran?5out?5of?5data?5while?5parsing?5re@ 100c3b18     libgit2:refdb_fs.obj
 0002:00014b40       ??_C@_05MIDDFADP@logs?1?$AA@ 100c3b40     libgit2:refdb_fs.obj
 0002:00014b48       ??_C@_1CC@INCJMCKF@?$AA_?$AAb?$AAa?$AAc?$AAk?$AAe?$AAn?$AAd?$AA?5?$AA?$CG?$AA?$CG?$AA?5?$AAn?$AAa?$AAm?$AAe?$AA?$AA@ 100c3b48     libgit2:refdb_fs.obj
 0002:00014b6c       ??_C@_1DA@MPHBDIMN@?$AAo?$AAu?$AAt?$AA?5?$AA?$CG?$AA?$CG?$AA?5?$AA_?$AAb?$AAa?$AAc?$AAk?$AAe?$AAn?$AAd?$AA?5?$AA?$CG?$AA?$CG?$AA?5?$AAn?$AAa?$AAm?$AAe?$AA?$AA@ 100c3b6c     libgit2:refdb_fs.obj
 0002:00014b9c       ??_C@_01CLKCMJKC@?5?$AA@   100c3b9c     libgit2:refdb_fs.obj
 0002:00014ba0       ??_C@_0CL@OCGKGGIA@Log?5file?5for?5reference?5?8?$CFs?8?5does@ 100c3ba0     libgit2:refdb_fs.obj
 0002:00014bcc       ??_C@_1CG@MIGMMPLI@?$AA_?$AAb?$AAa?$AAc?$AAk?$AAe?$AAn?$AAd?$AA?5?$AA?$CG?$AA?$CG?$AA?5?$AAr?$AAe?$AAf?$AAl?$AAo?$AAg?$AA?$AA@ 100c3bcc     libgit2:refdb_fs.obj
 0002:00014bf8       ??_C@_0EE@JIJBDNBF@cannot?5create?5reflog?5at?5?8?$CFs?8?0?5th@ 100c3bf8     libgit2:refdb_fs.obj
 0002:00014c40       ??_C@_1EC@ICINGJJ@?$AA_?$AAb?$AAa?$AAc?$AAk?$AAe?$AAn?$AAd?$AA?5?$AA?$CG?$AA?$CG?$AA?5?$AAo?$AAl?$AAd?$AA_?$AAn?$AAa?$AAm?$AAe?$AA?5?$AA?$CG?$AA?$CG?$AA?5?$AAn?$AAe?$AAw?$AA_?$AAn?$AAa?$AAm?$AAe@ 100c3c40     libgit2:refdb_fs.obj
 0002:00014c84       ??_C@_0M@PHCCPANO@temp_reflog?$AA@ 100c3c84     libgit2:refdb_fs.obj
 0002:00014c90       ??_C@_0BP@EJONMOBE@Failed?5to?5rename?5reflog?5for?5?$CFs?$AA@ 100c3c90     libgit2:refdb_fs.obj
 0002:00014cb0       ??_C@_0M@EOLOKIGO@packed?9refs?$AA@ 100c3cb0     libgit2:refdb_fs.obj
 0002:00014cbc       ??_C@_0CA@MEDMNGII@Unable?5to?5convert?5path?5to?5UTF?98?$AA@ 100c3cbc     libgit2:findfile.obj
 0002:00014ce0       ??_C@_1EK@KGBKKHDF@?$AA?4?$AA?4?$AA?2?$AAd?$AAe?$AAp?$AAs?$AA?2?$AAl?$AAi?$AAb?$AAg?$AAi?$AAt?$AA2?$AA?2?$AAs?$AAr?$AAc?$AA?2?$AAw?$AAi?$AAn?$AA3?$AA2?$AA?2?$AAf?$AAi?$AAn?$AAd?$AAf?$AAi@ 100c3ce0     libgit2:findfile.obj
 0002:00014d2c       ??_C@_1CM@CEKAEKDE@?$AAp?$AAa?$AAt?$AAh?$AA?5?$AA?$CG?$AA?$CG?$AA?5?$AAb?$AAu?$AAf?$AA?5?$AA?$CG?$AA?$CG?$AA?5?$AAb?$AAu?$AAf?$AAl?$AAe?$AAn?$AA?$AA@ 100c3d2c     libgit2:findfile.obj
 0002:00014d58       ??_C@_19IJOJOJIB@?$AAP?$AAA?$AAT?$AAH?$AA?$AA@ 100c3d58     libgit2:findfile.obj
 0002:00014d64       ??_C@_17ENLBLDPN@?$AAb?$AAu?$AAf?$AA?$AA@ 100c3d64     libgit2:findfile.obj
 0002:00014d6c       ??_C@_1CA@CBMLAMC@?$AAI?$AAn?$AAs?$AAt?$AAa?$AAl?$AAl?$AAL?$AAo?$AAc?$AAa?$AAt?$AAi?$AAo?$AAn?$AA?$AA@ 100c3d6c     libgit2:findfile.obj
 0002:00014d90       ??_C@_1BA@PACNBOJL@?$AAg?$AAi?$AAt?$AA?4?$AAe?$AAx?$AAe?$AA?$AA@ 100c3d90     libgit2:findfile.obj
 0002:00014da0       ??_C@_1BA@NNOFODFB@?$AAg?$AAi?$AAt?$AA?4?$AAc?$AAm?$AAd?$AA?$AA@ 100c3da0     libgit2:findfile.obj
 0002:00014db0       ??_C@_1HI@KLPMPDOH@?$AAS?$AAO?$AAF?$AAT?$AAW?$AAA?$AAR?$AAE?$AA?2?$AAM?$AAi?$AAc?$AAr?$AAo?$AAs?$AAo?$AAf?$AAt?$AA?2?$AAW?$AAi?$AAn?$AAd?$AAo?$AAw?$AAs?$AA?2?$AAC?$AAu?$AAr?$AAr?$AAe@ 100c3db0     libgit2:findfile.obj
 0002:00014e28       ??_C@_1BA@JCLGLHIB@?$AA?$CF?$AAH?$AAO?$AAM?$AAE?$AA?$CF?$AA?2?$AA?$AA@ 100c3e28     libgit2:findfile.obj
 0002:00014e38       ??_C@_1CO@LJNGEEIM@?$AA?$CF?$AAH?$AAO?$AAM?$AAE?$AAD?$AAR?$AAI?$AAV?$AAE?$AA?$CF?$AA?$CF?$AAH?$AAO?$AAM?$AAE?$AAP?$AAA?$AAT?$AAH?$AA?$CF?$AA?2?$AA?$AA@ 100c3e38     libgit2:findfile.obj
 0002:00014e68       ??_C@_1BO@HOOLNKOB@?$AA?$CF?$AAU?$AAS?$AAE?$AAR?$AAP?$AAR?$AAO?$AAF?$AAI?$AAL?$AAE?$AA?$CF?$AA?2?$AA?$AA@ 100c3e68     libgit2:findfile.obj
 0002:00014e88       ??_C@_1CM@PFHGJOHH@?$AA?$CF?$AAX?$AAD?$AAG?$AA_?$AAC?$AAO?$AAN?$AAF?$AAI?$AAG?$AA_?$AAH?$AAO?$AAM?$AAE?$AA?$CF?$AA?2?$AAg?$AAi?$AAt?$AA?$AA@ 100c3e88     libgit2:findfile.obj
 0002:00014eb4       ??_C@_1BM@ILLNBKBK@?$AA?$CF?$AAA?$AAP?$AAP?$AAD?$AAA?$AAT?$AAA?$AA?$CF?$AA?2?$AAg?$AAi?$AAt?$AA?$AA@ 100c3eb4     libgit2:findfile.obj
 0002:00014ed0       ??_C@_1CG@NHDKHDIJ@?$AA?$CF?$AAL?$AAO?$AAC?$AAA?$AAL?$AAA?$AAP?$AAP?$AAD?$AAA?$AAT?$AAA?$AA?$CF?$AA?2?$AAg?$AAi?$AAt?$AA?$AA@ 100c3ed0     libgit2:findfile.obj
 0002:00014ef8       ??_C@_1CG@NLLBKLDJ@?$AA?$CF?$AAH?$AAO?$AAM?$AAE?$AA?$CF?$AA?2?$AA?4?$AAc?$AAo?$AAn?$AAf?$AAi?$AAg?$AA?2?$AAg?$AAi?$AAt?$AA?$AA@ 100c3ef8     libgit2:findfile.obj
 0002:00014f20       ??_C@_1EE@OLGMACFJ@?$AA?$CF?$AAH?$AAO?$AAM?$AAE?$AAD?$AAR?$AAI?$AAV?$AAE?$AA?$CF?$AA?$CF?$AAH?$AAO?$AAM?$AAE?$AAP?$AAA?$AAT?$AAH?$AA?$CF?$AA?2?$AA?4?$AAc?$AAo?$AAn?$AAf?$AAi?$AAg?$AA?2?$AAg?$AAi@ 100c3f20     libgit2:findfile.obj
 0002:00014f64       ??_C@_1DE@CAKDKDNC@?$AA?$CF?$AAU?$AAS?$AAE?$AAR?$AAP?$AAR?$AAO?$AAF?$AAI?$AAL?$AAE?$AA?$CF?$AA?2?$AA?4?$AAc?$AAo?$AAn?$AAf?$AAi?$AAg?$AA?2?$AAg?$AAi?$AAt?$AA?$AA@ 100c3f64     libgit2:findfile.obj
 0002:00014f98       ??_C@_1CE@PPABDMEN@?$AA?$CF?$AAP?$AAR?$AAO?$AAG?$AAR?$AAA?$AAM?$AAD?$AAA?$AAT?$AAA?$AA?$CF?$AA?2?$AAG?$AAi?$AAt?$AA?$AA@ 100c3f98     libgit2:findfile.obj
 0002:00014fbc       ??_C@_0BH@CALDHMLA@Invalid?5pack?5file?5?9?5?$CFs?$AA@ 100c3fbc     libgit2:pack.obj
 0002:00014fd4       ??_C@_1DG@DIOOBGNE@?$AA?4?$AA?4?$AA?2?$AAd?$AAe?$AAp?$AAs?$AA?2?$AAl?$AAi?$AAb?$AAg?$AAi?$AAt?$AA2?$AA?2?$AAs?$AAr?$AAc?$AA?2?$AAp?$AAa?$AAc?$AAk?$AA?4?$AAc?$AA?$AA@ 100c3fd4     libgit2:pack.obj
 0002:0001500c       ??_C@_1CK@CHMAIMOB@?$AAe?$AA?9?$AA?$DO?$AAr?$AAe?$AAf?$AAc?$AAo?$AAu?$AAn?$AAt?$AA?4?$AAv?$AAa?$AAl?$AA?5?$AA?$DN?$AA?$DN?$AA?5?$AA0?$AA?$AA@ 100c400c     libgit2:pack.obj
 0002:00015038       ??_C@_0BP@EHEMGJFK@Unable?5to?5stat?5pack?5index?5?8?$CFs?8?$AA@ 100c4038     libgit2:pack.obj
 0002:00015058       ??_C@_0BI@MFPMJHCM@Invalid?5pack?5index?5?8?$CFs?8?$AA@ 100c4058     libgit2:pack.obj
 0002:00015070       ??_C@_0BK@OAPJEPHC@unsupported?5index?5version?$AA@ 100c4070     libgit2:pack.obj
 0002:0001508c       ??_C@_0BH@JJKAIFE@index?5is?5non?9monotonic?$AA@ 100c408c     libgit2:pack.obj
 0002:000150a4       ??_C@_0BD@FANBODJJ@index?5is?5corrupted?$AA@ 100c40a4     libgit2:pack.obj
 0002:000150b8       ??_C@_0BB@MBJFIKI@wrong?5index?5size?$AA@ 100c40b8     libgit2:pack.obj
 0002:000150cc       ??_C@_1DG@HEBIDFKL@?$AAn?$AAa?$AAm?$AAe?$AA_?$AAl?$AAe?$AAn?$AA?5?$AA?$DO?$AA?5?$AAs?$AAt?$AAr?$AAl?$AAe?$AAn?$AA?$CI?$AA?$CC?$AA?4?$AAp?$AAa?$AAc?$AAk?$AA?$CC?$AA?$CJ?$AA?$AA@ 100c40cc     libgit2:pack.obj
 0002:00015108       ??_C@_1GI@CKDPMJBD@?$AAt?$AAy?$AAp?$AAe?$AA?5?$AA?$DO?$AA?$DN?$AA?5?$AAG?$AAI?$AAT?$AA_?$AAO?$AAB?$AAJ?$AA_?$AAC?$AAO?$AAM?$AAM?$AAI?$AAT?$AA?5?$AA?$CG?$AA?$CG?$AA?5?$AAt?$AAy?$AAp?$AAe?$AA?5?$AA?$DM@ 100c4108     libgit2:pack.obj
 0002:00015170       ??_C@_0BB@CABJKBPN@buffer?5too?5small?$AA@ 100c4170     libgit2:pack.obj
 0002:00015184       ??_C@_0BD@NDELBPEC@packfile?5corrupted?$AA@ 100c4184     libgit2:pack.obj
 0002:00015198       ??_C@_0BG@JIBNBPIJ@header?5length?5is?5zero?$AA@ 100c4198     libgit2:pack.obj
 0002:000151b0       ??_C@_0BF@LNOFJBIF@delta?5offset?5is?5zero?$AA@ 100c41b0     libgit2:pack.obj
 0002:000151c8       ??_C@_0CB@JNGCALKC@dependency?5chain?5ends?5in?5a?5delta@ 100c41c8     libgit2:pack.obj
 0002:000151ec       ??_C@_0CA@LNIGPFJE@invalid?5packfile?5type?5in?5header?$AA@ 100c41ec     libgit2:pack.obj
 0002:0001520c       ??_C@_0BP@KPNIPOKL@failed?5to?5init?5packfile?5stream?$AA@ 100c420c     libgit2:pack.obj
 0002:0001522c       ??_C@_0CD@MCAJKBFC@error?5reading?5from?5the?5zlib?5stre@ 100c422c     libgit2:pack.obj
 0002:00015250       ??_C@_0CF@DIALPEPE@failed?5to?5init?5zlib?5stream?5on?5un@ 100c4250     libgit2:pack.obj
 0002:00015278       ??_C@_0BM@MEMEJIJL@error?5inflating?5zlib?5stream?$AA@ 100c4278     libgit2:pack.obj
 0002:00015294       ??_C@_0CJ@CHNCBOHB@base?5entry?5delta?5is?5not?5in?5the?5s@ 100c4294     libgit2:pack.obj
 0002:000152c0       ??_C@_0BI@EDBEIHBB@failed?5to?5open?5packfile?$AA@ 100c42c0     libgit2:pack.obj
 0002:000152d8       ??_C@_0BG@PAFNENDJ@Invalid?5packfile?5?8?$CFs?8?$AA@ 100c42d8     libgit2:pack.obj
 0002:000152f0       ??_C@_0BG@JECJEGAE@invalid?5packfile?5path?$AA@ 100c42f0     libgit2:pack.obj
 0002:00015308       ??_C@_09MBHCGBPO@?$CF?4?$CKs?4pack?$AA@ 100c4308     libgit2:pack.obj
 0002:00015314       ??_C@_05PAKCALEK@?4keep?$AA@ 100c4314     libgit2:pack.obj
 0002:0001531c       ??_C@_05MFELINKG@?4pack?$AA@ 100c431c     libgit2:pack.obj
 0002:00015324       ??_C@_0BD@IHILJNAJ@packfile?5not?5found?$AA@ 100c4324     libgit2:pack.obj
 0002:00015338       ??_C@_1CE@JKMAEDEK@?$AAp?$AA?9?$AA?$DO?$AAi?$AAn?$AAd?$AAe?$AAx?$AA_?$AAm?$AAa?$AAp?$AA?4?$AAd?$AAa?$AAt?$AAa?$AA?$AA@ 100c4338     libgit2:pack.obj
 0002:0001535c       ??_C@_0BH@GAJNPCJI@git_pack_foreach_entry?$AA@ 100c435c     libgit2:pack.obj
 0002:00015374       ??_C@_0CF@CGJEICFC@failed?5to?5find?5offset?5for?5pack?5e@ 100c4374     libgit2:pack.obj
 0002:0001539c       ??_C@_0CG@CNAALEMK@found?5multiple?5offsets?5for?5pack?5@ 100c439c     libgit2:pack.obj
 0002:000153c4       ??_C@_0BK@NBKPCIMP@packfile?5index?5is?5corrupt?$AA@ 100c43c4     libgit2:pack.obj
 0002:000153e0       ??_C@_13LFIEIAHP@?$AAp?$AA?$AA@ 100c43e0     libgit2:pack.obj
 0002:000153e4       ??_C@_0BN@DJMONFKJ@bad?5object?5found?5in?5packfile?$AA@ 100c43e4     libgit2:pack.obj
 0002:00015404       ??_C@_0BO@KNFKLKJD@?6?2?5No?5newline?5at?5end?5of?5file?6?$AA@ 100c4404     libgit2:xutils.obj
 0002:00015424       ??_C@_0L@FPFMPDDA@0123456789?$AA@ 100c4424     libgit2:xutils.obj
 0002:00015430       ??_C@_01IHBHIGKO@?0?$AA@   100c4430     libgit2:xutils.obj
 0002:00015434       ??_C@_03POGKENBI@?5?$EA?$EA?$AA@ 100c4434     libgit2:xutils.obj
 0002:00015438       ??_C@_0BF@LELOHDNI@Wrong?5pack?5signature?$AA@ 100c4438     libgit2:indexer.obj
 0002:00015450       ??_C@_0BD@JLPBNGCH@Wrong?5pack?5version?$AA@ 100c4450     libgit2:indexer.obj
 0002:00015464       ??_C@_1DM@IGKINEJJ@?$AA?4?$AA?4?$AA?2?$AAd?$AAe?$AAp?$AAs?$AA?2?$AAl?$AAi?$AAb?$AAg?$AAi?$AAt?$AA2?$AA?2?$AAs?$AAr?$AAc?$AA?2?$AAi?$AAn?$AAd?$AAe?$AAx?$AAe?$AAr?$AA?4?$AAc?$AA?$AA@ 100c4464     libgit2:indexer.obj
 0002:000154a0       ??_C@_1BM@LPPGHLJI@?$AAi?$AAd?$AAx?$AA?5?$AA?$CG?$AA?$CG?$AA?5?$AAs?$AAt?$AAr?$AAe?$AAa?$AAm?$AA?$AA@ 100c44a0     libgit2:indexer.obj
 0002:000154c0       ??_C@_1GO@FOABMJMD@?$AAt?$AAy?$AAp?$AAe?$AA?5?$AA?$DN?$AA?$DN?$AA?5?$AAG?$AAI?$AAT?$AA_?$AAO?$AAB?$AAJ?$AA_?$AAR?$AAE?$AAF?$AA_?$AAD?$AAE?$AAL?$AAT?$AAA?$AA?5?$AA?$HM?$AA?$HM?$AA?5?$AAt?$AAy?$AAp@ 100c44c0     libgit2:indexer.obj
 0002:00015530       ??_C@_1O@PPFFKCHG@?$AAs?$AAt?$AAr?$AAe?$AAa?$AAm?$AA?$AA@ 100c4530     libgit2:indexer.obj
 0002:00015540       ??_C@_0CC@MBJJIBOO@duplicate?5object?5?$CFs?5found?5in?5pac@ 100c4540     libgit2:indexer.obj
 0002:00015564       ??_C@_0BP@MNLCELJ@cannot?5insert?5object?5into?5pack?$AA@ 100c4564     libgit2:indexer.obj
 0002:00015584       ??_C@_0BG@OEFODJMH@Failed?5to?5hash?5object?$AA@ 100c4584     libgit2:indexer.obj
 0002:0001559c       ??_C@_0BB@OPDPCFBO@indexer?5progress?$AA@ 100c459c     libgit2:indexer.obj
 0002:000155b0       ??_C@_1BK@NFKHCMNF@?$AAd?$AAa?$AAt?$AAa?$AA?5?$AA?$CG?$AA?$CG?$AA?5?$AAs?$AAi?$AAz?$AAe?$AA?$AA@ 100c45b0     libgit2:indexer.obj
 0002:000155cc       ??_C@_0BM@PPBOFPPD@cannot?5extend?5packfile?5?8?$CFs?8?$AA@ 100c45cc     libgit2:indexer.obj
 0002:000155e8       ??_C@_1CK@LPHGCDLF@?$AAi?$AAd?$AAx?$AA?5?$AA?$CG?$AA?$CG?$AA?5?$AAd?$AAa?$AAt?$AAa?$AA?5?$AA?$CG?$AA?$CG?$AA?5?$AAs?$AAt?$AAa?$AAt?$AAs?$AA?$AA@ 100c45e8     libgit2:indexer.obj
 0002:00015614       ??_C@_05KMHGCLKD@pack?9?$AA@ 100c4614     libgit2:indexer.obj
 0002:0001561c       ??_C@_0BE@LEDMKHJO@missing?5delta?5bases?$AA@ 100c461c     libgit2:indexer.obj
 0002:00015630       ??_C@_1EI@NPBFFION@?$AAg?$AAi?$AAt?$AA_?$AAv?$AAe?$AAc?$AAt?$AAo?$AAr?$AA_?$AAl?$AAe?$AAn?$AAg?$AAt?$AAh?$AA?$CI?$AA?$CG?$AAi?$AAd?$AAx?$AA?9?$AA?$DO?$AAd?$AAe?$AAl?$AAt?$AAa?$AAs?$AA?$CJ?$AA?5@ 100c4630     libgit2:indexer.obj
 0002:00015678       ??_C@_0CG@FNHEBODF@cannot?5fix?5a?5thin?5pack?5without?5a@ 100c4678     libgit2:indexer.obj
 0002:000156a0       ??_C@_0CJ@NLHBBLNL@no?5REF_DELTA?5found?0?5cannot?5injec@ 100c46a0     libgit2:indexer.obj
 0002:000156cc       ??_C@_0CA@NMPLNFOP@failed?5to?5map?5delta?5information?$AA@ 100c46cc     libgit2:indexer.obj
 0002:000156ec       ??_C@_0BH@NPJMJOEF@incomplete?5pack?5header?$AA@ 100c46ec     libgit2:indexer.obj
 0002:00015704       ??_C@_0CH@LHFALBGO@unexpected?5data?5at?5the?5end?5of?5th@ 100c4704     libgit2:indexer.obj
 0002:0001572c       ??_C@_0BK@ELFNGBH@packfile?5trailer?5mismatch?$AA@ 100c472c     libgit2:indexer.obj
 0002:00015748       ??_C@_09FOADIEFK@early?5EOF?$AA@ 100c4748     libgit2:indexer.obj
 0002:00015754       ??_C@_03DAKNAIGI@idx?$AA@  100c4754     libgit2:indexer.obj
 0002:00015758       ??_C@_0BJ@BJIEGHJ@failed?5to?5close?5packfile?$AA@ 100c4758     libgit2:indexer.obj
 0002:00015774       ??_C@_0BE@GFJKMCEN@pack?4deltaCacheSize?$AA@ 100c4774     libgit2:pack-objects.obj
 0002:00015788       ??_C@_0BF@HFAPDNBB@pack?4deltaCacheLimit?$AA@ 100c4788     libgit2:pack-objects.obj
 0002:000157a0       ??_C@_0BC@HEGEIMHC@pack?4windowMemory?$AA@ 100c47a0     libgit2:pack-objects.obj
 0002:000157b4       ??_C@_0CH@GDOPCGAN@Failed?5to?5initialize?5packbuilder@ 100c47b4     libgit2:pack-objects.obj
 0002:000157e0       ??_C@_1EG@OEBLPNPG@?$AA?4?$AA?4?$AA?2?$AAd?$AAe?$AAp?$AAs?$AA?2?$AAl?$AAi?$AAb?$AAg?$AAi?$AAt?$AA2?$AA?2?$AAs?$AAr?$AAc?$AA?2?$AAp?$AAa?$AAc?$AAk?$AA?9?$AAo?$AAb?$AAj?$AAe?$AAc?$AAt?$AAs@ 100c47e0     libgit2:pack-objects.obj
 0002:00015828       ??_C@_15NEDAGMBF@?$AAp?$AAb?$AA?$AA@ 100c4828     libgit2:pack-objects.obj
 0002:00015830       ??_C@_1BE@NFELCFJD@?$AAp?$AAb?$AA?5?$AA?$CG?$AA?$CG?$AA?5?$AAo?$AAi?$AAd?$AA?$AA@ 100c4830     libgit2:pack-objects.obj
 0002:00015844       ??_C@_0BH@JHPCNHAO@git_packbuilder_insert?$AA@ 100c4844     libgit2:pack-objects.obj
 0002:0001585c       ??_C@_0BD@KIDBIBBH@Delta?5size?5changed?$AA@ 100c485c     libgit2:pack-objects.obj
 0002:00015870       ??_C@_0BE@NLGCNDBH@invalid?5write?5order?$AA@ 100c4870     libgit2:pack-objects.obj
 0002:00015884       ??_C@_0CC@KJOMIGKP@Inconsistent?5target?5object?5lengt@ 100c4884     libgit2:pack-objects.obj
 0002:000158a8       ??_C@_0CC@LGOPOFCD@Inconsistent?5source?5object?5lengt@ 100c48a8     libgit2:pack-objects.obj
 0002:000158cc       ??_C@_0BG@HCCOPJG@report_delta_progress?$AA@ 100c48cc     libgit2:pack-objects.obj
 0002:000158e4       ??_C@_0BI@NHOFACEJ@unable?5to?5create?5thread?$AA@ 100c48e4     libgit2:pack-objects.obj
 0002:000158fc       ??_C@_1BC@PFIPCFNJ@?$AAp?$AAb?$AA?5?$AA?$CG?$AA?$CG?$AA?5?$AAi?$AAd?$AA?$AA@ 100c48fc     libgit2:pack-objects.obj
 0002:00015910       ??_C@_0BE@IIDOFNCB@unknown?5object?5type?$AA@ 100c4910     libgit2:pack-objects.obj
 0002:00015924       ??_C@_1BG@PGIAPABD@?$AAp?$AAb?$AA?5?$AA?$CG?$AA?$CG?$AA?5?$AAw?$AAa?$AAl?$AAk?$AA?$AA@ 100c4924     libgit2:pack-objects.obj
 0002:00015940       ??_C@_1EO@GKPFKPLI@?$AA?4?$AA?4?$AA?2?$AAd?$AAe?$AAp?$AAs?$AA?2?$AAl?$AAi?$AAb?$AAg?$AAi?$AAt?$AA2?$AA?2?$AAs?$AAr?$AAc?$AA?2?$AAt?$AAr?$AAa?$AAn?$AAs?$AAp?$AAo?$AAr?$AAt?$AAs?$AA?2?$AAs@ 100c4940     libgit2:smart.obj
 0002:00015990       ??_C@_1CE@PDLGNLHH@?$AAt?$AA?9?$AA?$DO?$AAc?$AAu?$AAr?$AAr?$AAe?$AAn?$AAt?$AA_?$AAs?$AAt?$AAr?$AAe?$AAa?$AAm?$AA?$AA@ 100c4990     libgit2:smart.obj
 0002:000159b4       ??_C@_0L@DMPACEMJ@User?9Agent?$AA@ 100c49b4     libgit2:smart.obj
 0002:000159c0       ??_C@_04CPPPJGME@Host?$AA@ 100c49c0     libgit2:smart.obj
 0002:000159c8       ??_C@_06MDEHPNLG@Accept?$AA@ 100c49c8     libgit2:smart.obj
 0002:000159d0       ??_C@_0N@LAFFMKKA@Content?9Type?$AA@ 100c49d0     libgit2:smart.obj
 0002:000159e0       ??_C@_0BC@ELHLFCNH@Transfer?9Encoding?$AA@ 100c49e0     libgit2:smart.obj
 0002:000159f4       ??_C@_0P@HOJGPHBA@Content?9Length?$AA@ 100c49f4     libgit2:smart.obj
 0002:00015a04       ??_C@_0CF@OJEPFCBA@custom?5HTTP?5header?5?8?$CFs?8?5is?5malfo@ 100c4a04     libgit2:smart.obj
 0002:00015a2c       ??_C@_0DC@JBOHIACE@custom?5HTTP?5header?5?8?$CFs?8?5is?5alrea@ 100c4a2c     libgit2:smart.obj
 0002:00015a60       ??_C@_0BC@HOMBIKFP@Invalid?5direction?$AA@ 100c4a60     libgit2:smart.obj
 0002:00015a74       ??_C@_0BB@LGOPIMKM@Invalid?5response?$AA@ 100c4a74     libgit2:smart.obj
 0002:00015a88       ??_C@_0BA@CMHBEAFA@capabilities?$FO?$HL?$HN?$AA@ 100c4a88     libgit2:smart.obj
 0002:00015a98       ??_C@_0CK@GJKPAGGL@The?5transport?5has?5not?5yet?5loaded@ 100c4a98     libgit2:smart.obj
 0002:00015ac4       ??_C@_0CH@CIPBAIHB@This?5operation?5is?5only?5valid?5for@ 100c4ac4     libgit2:smart.obj
 0002:00015af0       ??_C@_1EM@DJBDILKJ@?$AAt?$AA?9?$AA?$DO?$AAr?$AAp?$AAc?$AA?5?$AA?$HM?$AA?$HM?$AA?5?$AAt?$AA?9?$AA?$DO?$AAc?$AAu?$AAr?$AAr?$AAe?$AAn?$AAt?$AA_?$AAs?$AAt?$AAr?$AAe?$AAa?$AAm?$AA?5?$AA?$DN?$AA?$DN?$AA?5?$AAs@ 100c4af0     libgit2:smart.obj
 0002:00015b3c       ??_C@_0CG@OJNLPMKB@This?5operation?5is?5only?5valid?5for@ 100c4b3c     libgit2:smart.obj
 0002:00015b68       ??_C@_1EO@GFMLNGEP@?$AAt?$AA?9?$AA?$DO?$AAr?$AAp?$AAc?$AA?5?$AA?$HM?$AA?$HM?$AA?5?$AAt?$AA?9?$AA?$DO?$AAc?$AAu?$AAr?$AAr?$AAe?$AAn?$AAt?$AA_?$AAs?$AAt?$AAr?$AAe?$AAa?$AAm?$AA?5?$AA?$DN?$AA?$DN?$AA?5?$AA?$CK@ 100c4b68     libgit2:smart.obj
 0002:00015bb8       ??_C@_04JDPKJLKG@0000?$AA@ 100c4bb8     libgit2:smart.obj
 0002:00015bc0       ??_C@_05PBGCLELH@host?$DN?$AA@ 100c4bc0     libgit2:git.obj
 0002:00015bc8       ??_C@_0O@GPABHKDC@Malformed?5URL?$AA@ 100c4bc8     libgit2:git.obj
 0002:00015bd8       ??_C@_0O@KAANKJEO@?$CF04x?$CFs?5?$CFs?$CFc?$CFs?$AA@ 100c4bd8     libgit2:git.obj
 0002:00015be8       ??_C@_0L@LKLDBEKD@git_stream?$AA@ 100c4be8     libgit2:git.obj
 0002:00015bf4       ??_C@_04NIJDIOLP@9418?$AA@ 100c4bf4     libgit2:git.obj
 0002:00015bfc       ??_C@_0CK@LOEJCJH@Must?5call?5UPLOADPACK_LS?5before?5U@ 100c4bfc     libgit2:git.obj
 0002:00015c28       ??_C@_0CM@GMEDDEL@Must?5call?5RECEIVEPACK_LS?5before?5@ 100c4c28     libgit2:git.obj
 0002:00015c58       ??_C@_1EK@PGKCMBEL@?$AA?4?$AA?4?$AA?2?$AAd?$AAe?$AAp?$AAs?$AA?2?$AAl?$AAi?$AAb?$AAg?$AAi?$AAt?$AA2?$AA?2?$AAs?$AAr?$AAc?$AA?2?$AAt?$AAr?$AAa?$AAn?$AAs?$AAp?$AAo?$AAr?$AAt?$AAs?$AA?2?$AAg@ 100c4c58     libgit2:git.obj
 0002:00015ca4       ??_C@_1CG@DMGFOPGI@?$AA?$CB?$AAt?$AA?9?$AA?$DO?$AAc?$AAu?$AAr?$AAr?$AAe?$AAn?$AAt?$AA_?$AAs?$AAt?$AAr?$AAe?$AAa?$AAm?$AA?$AA@ 100c4ca4     libgit2:git.obj
 0002:00015ccc       ??_C@_0M@OALKFOIL@upload?9pack?$AA@ 100c4ccc     libgit2:winhttp.obj
 0002:00015cd8       ??_C@_0CD@CDBNMAJL@?1info?1refs?$DPservice?$DNgit?9upload?9pa@ 100c4cd8     libgit2:winhttp.obj
 0002:00015cfc       ??_C@_0BB@ENMEFINN@?1git?9upload?9pack?$AA@ 100c4cfc     libgit2:winhttp.obj
 0002:00015d10       ??_C@_0N@CKLJDJFJ@receive?9pack?$AA@ 100c4d10     libgit2:winhttp.obj
 0002:00015d20       ??_C@_0CE@DHMNIOKD@?1info?1refs?$DPservice?$DNgit?9receive?9p@ 100c4d20     libgit2:winhttp.obj
 0002:00015d44       ??_C@_0BC@KIBMLDJO@?1git?9receive?9pack?$AA@ 100c4d44     libgit2:winhttp.obj
 0002:00015d58       ??_C@_17KCHPOIEI@?$AAG?$AAE?$AAT?$AA?$AA@ 100c4d58     libgit2:winhttp.obj
 0002:00015d60       ??_C@_19JLKJCDCM@?$AAP?$AAO?$AAS?$AAT?$AA?$AA@ 100c4d60     libgit2:winhttp.obj
 0002:00015d6c       ??_C@_1CC@DPBNJLAP@?$AAP?$AAr?$AAa?$AAg?$AAm?$AAa?$AA?3?$AA?5?$AAn?$AAo?$AA?9?$AAc?$AAa?$AAc?$AAh?$AAe?$AA?$AA@ 100c4d6c     libgit2:winhttp.obj
 0002:00015d90       ??_C@_1DG@BAGHLJDK@?$AAT?$AAr?$AAa?$AAn?$AAs?$AAf?$AAe?$AAr?$AA?9?$AAE?$AAn?$AAc?$AAo?$AAd?$AAi?$AAn?$AAg?$AA?3?$AA?5?$AAc?$AAh?$AAu?$AAn?$AAk?$AAe?$AAd?$AA?$AA@ 100c4d90     libgit2:winhttp.obj
 0002:00015dc8       ??_C@_0BG@EPHDEOFO@Authorization?3?5Basic?5?$AA@ 100c4dc8     libgit2:winhttp.obj
 0002:00015de0       ??_C@_0CG@EHLEBJLN@Failed?5to?5convert?5string?5to?5wide@ 100c4de0     libgit2:winhttp.obj
 0002:00015e08       ??_C@_0CG@HGAHOHHK@Failed?5to?5add?5a?5header?5to?5the?5re@ 100c4e08     libgit2:winhttp.obj
 0002:00015e30       ??_C@_0CB@JGEAOFEL@failed?5to?5get?5server?5certificate@ 100c4e30     libgit2:winhttp.obj
 0002:00015e54       ??_C@_0CB@LKHGBHH@user?5cancelled?5certificate?5check@ 100c4e54     libgit2:winhttp.obj
 0002:00015e78       ??_C@_17MLBOKGLB@?$AA?$CK?$AA?1?$AA?$CK?$AA?$AA@ 100c4e78     libgit2:winhttp.obj
 0002:00015e80       ??_C@_0BH@OEOIFKCL@Failed?5to?5open?5request?$AA@ 100c4e80     libgit2:winhttp.obj
 0002:00015e98       ??_C@_0CD@BEJMPEOP@Failed?5to?5set?5timeouts?5for?5WinHT@ 100c4e98     libgit2:winhttp.obj
 0002:00015ebc       ??_C@_0BE@EHMEDAKI@Failed?5to?5set?5proxy?$AA@ 100c4ebc     libgit2:winhttp.obj
 0002:00015ed0       ??_C@_0BM@EJKABPDO@Failed?5to?5disable?5redirects?$AA@ 100c4ed0     libgit2:winhttp.obj
 0002:00015eec       ??_C@_0CL@JJCFBJPB@Content?9Type?3?5application?1x?9git?9@ 100c4eec     libgit2:winhttp.obj
 0002:00015f18       ??_C@_0DC@HIGKIHOG@Failed?5to?5convert?5content?9type?5t@ 100c4f18     libgit2:winhttp.obj
 0002:00015f4c       ??_C@_0CE@OPFGCAHE@Accept?3?5application?1x?9git?9?$CFs?9res@ 100c4f4c     libgit2:winhttp.obj
 0002:00015f70       ??_C@_0DD@GBDOOKBL@Failed?5to?5convert?5accept?5header?5@ 100c4f70     libgit2:winhttp.obj
 0002:00015fa4       ??_C@_0DD@DHAIGFAO@Failed?5to?5convert?5custom?5header?5@ 100c4fa4     libgit2:winhttp.obj
 0002:00015fd8       ??_C@_0CH@HIPKKKDI@Failed?5to?5parse?5supported?5auth?5s@ 100c4fd8     libgit2:winhttp.obj
 0002:00016000       ??_C@_04MMHCPEAC@?$CFX?$AN?6?$AA@ 100c5000     libgit2:winhttp.obj
 0002:00016008       ??_C@_0BN@KJOJAGHC@Failed?5to?5write?5chunk?5header?$AA@ 100c5008     libgit2:winhttp.obj
 0002:00016028       ??_C@_0BG@CAIHMKEK@Failed?5to?5write?5chunk?$AA@ 100c5028     libgit2:winhttp.obj
 0002:00016040       ??_C@_0BN@LHGELHLH@Failed?5to?5write?5chunk?5footer?$AA@ 100c5040     libgit2:winhttp.obj
 0002:00016060       ??_C@_0BL@NNMKHKDB@Unable?5to?5close?5connection?$AA@ 100c5060     libgit2:winhttp.obj
 0002:0001607c       ??_C@_0BI@NDMAKNCD@Unable?5to?5close?5session?$AA@ 100c507c     libgit2:winhttp.obj
 0002:00016094       ??_C@_09OKINDMOG@git?11?40?5?$CI?$AA@ 100c5094     libgit2:winhttp.obj
 0002:000160a0       ??_C@_0P@OFFGMGGH@libgit2?50?424?43?$AA@ 100c50a0     libgit2:winhttp.obj
 0002:000160b0       ??_C@_0CK@BOHNGNAH@Unable?5to?5convert?5host?5to?5wide?5c@ 100c50b0     libgit2:winhttp.obj
 0002:000160dc       ??_C@_0BH@MCMINMMK@Failed?5to?5init?5WinHTTP?$AA@ 100c50dc     libgit2:winhttp.obj
 0002:000160f4       ??_C@_0BK@HBOBHECK@Failed?5to?5connect?5to?5host?$AA@ 100c50f4     libgit2:winhttp.obj
 0002:00016110       ??_C@_0BH@GIAIMEPD@failed?5to?5send?5request?$AA@ 100c5110     libgit2:winhttp.obj
 0002:00016128       ??_C@_0BP@ILBOPBD@failed?5to?5set?5security?5options?$AA@ 100c5128     libgit2:winhttp.obj
 0002:00016148       ??_C@_0CN@GFPOHPOK@Too?5many?5redirects?5or?5authentica@ 100c5148     libgit2:winhttp.obj
 0002:00016178       ??_C@_1FC@PJFDEAOG@?$AA?4?$AA?4?$AA?2?$AAd?$AAe?$AAp?$AAs?$AA?2?$AAl?$AAi?$AAb?$AAg?$AAi?$AAt?$AA2?$AA?2?$AAs?$AAr?$AAc?$AA?2?$AAt?$AAr?$AAa?$AAn?$AAs?$AAp?$AAo?$AAr?$AAt?$AAs?$AA?2?$AAw@ 100c5178     libgit2:winhttp.obj
 0002:000161cc       ??_C@_1CK@FPPGKFAF@?$AAs?$AA?9?$AA?$DO?$AAv?$AAe?$AAr?$AAb?$AA?5?$AA?$DN?$AA?$DN?$AA?5?$AAp?$AAo?$AAs?$AAt?$AA_?$AAv?$AAe?$AAr?$AAb?$AA?$AA@ 100c51cc     libgit2:winhttp.obj
 0002:000161f8       ??_C@_05CPFNAGPN@0?$AN?6?$AN?6?$AA@ 100c51f8     libgit2:winhttp.obj
 0002:00016200       ??_C@_0BM@GGIEHJBJ@Failed?5to?5write?5final?5chunk?$AA@ 100c5200     libgit2:winhttp.obj
 0002:0001621c       ??_C@_0BN@KFJNOFK@Failed?5to?5reset?5file?5pointer?$AA@ 100c521c     libgit2:winhttp.obj
 0002:0001623c       ??_C@_0BO@LNBAFNFK@Failed?5to?5read?5from?5temp?5file?$AA@ 100c523c     libgit2:winhttp.obj
 0002:0001625c       ??_C@_0BF@HLFNKEMH@Failed?5to?5write?5data?$AA@ 100c525c     libgit2:winhttp.obj
 0002:00016274       ??_C@_1DI@GMGJLNBM@?$AAb?$AAy?$AAt?$AAe?$AAs?$AA_?$AAr?$AAe?$AAa?$AAd?$AA?5?$AA?$DN?$AA?$DN?$AA?5?$AAb?$AAy?$AAt?$AAe?$AAs?$AA_?$AAw?$AAr?$AAi?$AAt?$AAt?$AAe?$AAn?$AA?$AA@ 100c5274     libgit2:winhttp.obj
 0002:000162ac       ??_C@_0BL@MNBFKBPG@Failed?5to?5receive?5response?$AA@ 100c52ac     libgit2:winhttp.obj
 0002:000162c8       ??_C@_0BP@LBDKGPGF@Failed?5to?5retrieve?5status?5code?$AA@ 100c52c8     libgit2:winhttp.obj
 0002:000162e8       ??_C@_0BP@FIIHCKOM@Failed?5to?5read?5Location?5header?$AA@ 100c52e8     libgit2:winhttp.obj
 0002:00016308       ??_C@_0CL@ILNKCBKG@Failed?5to?5convert?5Location?5heade@ 100c5308     libgit2:winhttp.obj
 0002:00016334       ??_C@_1BA@KHENHBIO@?$AAt?$AA?9?$AA?$DO?$AAc?$AAr?$AAe?$AAd?$AA?$AA@ 100c5334     libgit2:winhttp.obj
 0002:00016344       ??_C@_0CE@JIFGJKGP@Request?5failed?5with?5status?5code?3@ 100c5344     libgit2:winhttp.obj
 0002:00016368       ??_C@_0BM@DPADOBDJ@application?1x?9git?9?$CFs?9result?$AA@ 100c5368     libgit2:winhttp.obj
 0002:00016384       ??_C@_0CD@OJCBHJOJ@application?1x?9git?9?$CFs?9advertiseme@ 100c5384     libgit2:winhttp.obj
 0002:000163a8       ??_C@_0DL@FLLCCOFD@Failed?5to?5convert?5expected?5conte@ 100c53a8     libgit2:winhttp.obj
 0002:000163e4       ??_C@_0CJ@IHDIFLHO@Failed?5to?5retrieve?5response?5cont@ 100c53e4     libgit2:winhttp.obj
 0002:00016410       ??_C@_0CB@LNCKNJLM@Received?5unexpected?5content?9type@ 100c5410     libgit2:winhttp.obj
 0002:00016434       ??_C@_0BE@KEOJEJGI@Failed?5to?5read?5data?$AA@ 100c5434     libgit2:winhttp.obj
 0002:00016448       ??_C@_0CL@HHHCPOCE@Subtransport?5configured?5for?5only@ 100c5448     libgit2:winhttp.obj
 0002:00016474       ??_C@_1DI@NOFEPNG@?$AA?$CI?$AAD?$AAW?$AAO?$AAR?$AAD?$AA?$CJ?$AAl?$AAe?$AAn?$AA?5?$AA?$DN?$AA?$DN?$AA?5?$AAb?$AAy?$AAt?$AAe?$AAs?$AA_?$AAw?$AAr?$AAi?$AAt?$AAt?$AAe?$AAn?$AA?$AA@ 100c5474     libgit2:winhttp.obj
 0002:000164ac       ??_C@_0CG@PEKENPOL@Unable?5to?5generate?5name?5for?5temp@ 100c54ac     libgit2:winhttp.obj
 0002:000164d4       ??_C@_0CH@KFCGDAOP@Buffer?5too?5small?5for?5name?5of?5tem@ 100c54d4     libgit2:winhttp.obj
 0002:00016500       ??_C@_1FK@LKJJPNM@?$AA?$CF?$AA0?$AA8?$AAx?$AA?$CF?$AA0?$AA4?$AAx?$AA?$CF?$AA0?$AA4?$AAx?$AA?$CF?$AA0?$AA2?$AAx?$AA?$CF?$AA0?$AA2?$AAx?$AA?$CF?$AA0?$AA2?$AAx?$AA?$CF?$AA0?$AA2?$AAx?$AA?$CF?$AA0?$AA2?$AAx@ 100c5500     libgit2:winhttp.obj
 0002:0001655c       ??_C@_0BI@ILBBGPBJ@Failed?5to?5get?5temp?5path?$AA@ 100c555c     libgit2:winhttp.obj
 0002:00016574       ??_C@_0CA@BCOKMENF@Failed?5to?5create?5temporary?5file?$AA@ 100c5574     libgit2:winhttp.obj
 0002:00016594       ??_C@_0CC@CELMDLKL@Failed?5to?5write?5to?5temporary?5fil@ 100c5594     libgit2:winhttp.obj
 0002:000165b8       ??_C@_1EO@GMKKLMFL@?$AA?4?$AA?4?$AA?2?$AAd?$AAe?$AAp?$AAs?$AA?2?$AAl?$AAi?$AAb?$AAg?$AAi?$AAt?$AA2?$AA?2?$AAs?$AAr?$AAc?$AA?2?$AAt?$AAr?$AAa?$AAn?$AAs?$AAp?$AAo?$AAr?$AAt?$AAs?$AA?2?$AAl@ 100c55b8     libgit2:local.obj
 0002:00016608       ??_C@_0DM@GCLPMNEC@Local?5push?5doesn?8t?5?$CIyet?$CJ?5support@ 100c5608     libgit2:local.obj
 0002:00016644       ??_C@_0N@EIIKKNOL@objects?1pack?$AA@ 100c5644     libgit2:local.obj
 0002:00016654       ??_C@_0O@KCKHCENK@funny?5refname?$AA@ 100c5654     libgit2:local.obj
 0002:00016664       ??_C@_0CC@IPJBNIKP@Remote?5branch?5not?5found?5to?5delet@ 100c5664     libgit2:local.obj
 0002:00016688       ??_C@_0BO@GFNIKECB@Unspecified?5error?5encountered?$AA@ 100c5688     libgit2:local.obj
 0002:000166a8       ??_C@_0BF@DJHPBHAE@Counting?5objects?5?$CFd?$AN?$AA@ 100c56a8     libgit2:local.obj
 0002:000166c0       ??_C@_0CE@BHECIFMN@Compressing?5objects?3?5?$CF?40f?$CF?$CF?5?$CI?$CFd?1@ 100c56c0     libgit2:local.obj
 0002:000166e4       ??_C@_07BMLEKCLC@?0?5done?6?$AA@ 100c56e4     libgit2:local.obj
 0002:000166ec       ??_C@_0CH@KFFHJEDA@Unable?5to?5load?5file?5larger?5than?5@ 100c56ec     libgit2:sortedcache.obj
 0002:00016714       ??_C@_0BL@MFKGKKHB@Removing?5item?5out?5of?5range?$AA@ 100c5714     libgit2:sortedcache.obj
 0002:00016730       ??_C@_01JOAMLHOP@?9?$AA@   100c5730     libgit2:xemit.obj
 0002:00016734       ??_C@_01MIFGBAGJ@?$CL?$AA@ 100c5734     libgit2:xemit.obj
 0002:00016738       ??_C@_0DL@NANHBKPM@Failed?5to?5apply?5delta?4?5Base?5size@ 100c5738     libgit2:delta-apply.obj
 0002:00016774       ??_C@_0BG@FPKDHHII@Failed?5to?5apply?5delta?$AA@ 100c5774     libgit2:delta-apply.obj
 0002:0001678c       ??_C@_0BB@IOLHDPBL@Remote?5error?3?5?$CFs?$AA@ 100c578c     libgit2:smart_protocol.obj
 0002:000167a0       ??_C@_0BL@JGDGLLIH@remote?5sent?5invalid?5symref?$AA@ 100c57a0     libgit2:smart_protocol.obj
 0002:000167bc       ??_C@_09DAMJJNF@ofs?9delta?$AA@ 100c57bc     libgit2:smart_protocol.obj
 0002:000167c8       ??_C@_0BD@KDKMPJNP@multi_ack_detailed?$AA@ 100c57c8     libgit2:smart_protocol.obj
 0002:000167dc       ??_C@_09MHIBIOOE@multi_ack?$AA@ 100c57dc     libgit2:smart_protocol.obj
 0002:000167e8       ??_C@_0M@MOCBPGBG@include?9tag?$AA@ 100c57e8     libgit2:smart_protocol.obj
 0002:000167f4       ??_C@_0O@OOBKOFGG@side?9band?964k?$AA@ 100c57f4     libgit2:smart_protocol.obj
 0002:00016804       ??_C@_09OEGGLJME@side?9band?$AA@ 100c5804     libgit2:smart_protocol.obj
 0002:00016810       ??_C@_0M@NONGLHHB@delete?9refs?$AA@ 100c5810     libgit2:smart_protocol.obj
 0002:0001681c       ??_C@_09BNKDLMKL@thin?9pack?$AA@ 100c581c     libgit2:smart_protocol.obj
 0002:00016828       ??_C@_06EOBBKIDP@symref?$AA@ 100c5828     libgit2:smart_protocol.obj
 0002:00016830       ??_C@_0CE@DLOPFKPP@The?5fetch?5was?5cancelled?5by?5the?5u@ 100c5830     libgit2:smart_protocol.obj
 0002:00016854       ??_C@_0BE@HPMCMCNA@Unexpected?5pkt?5type?$AA@ 100c5854     libgit2:smart_protocol.obj
 0002:00016868       ??_C@_0O@GJPPPFEG@?$CF04Ix?$CFs?5?$CFs?5?$CFs?$AA@ 100c5868     libgit2:smart_protocol.obj
 0002:00016878       ??_C@_0O@LHGLKHLF@report?9status?$AA@ 100c5878     libgit2:smart_protocol.obj
 0002:00016888       ??_C@_0BO@PKEJBEDF@report?9status?3?5protocol?5error?$AA@ 100c5888     libgit2:smart_protocol.obj
 0002:000168a8       ??_C@_0CC@FAFLJLEA@report?9status?3?5Error?5reported?3?5?$CF@ 100c58a8     libgit2:smart_protocol.obj
 0002:000168cc       ??_C@_0BO@INDIBKHA@Incomplete?5pack?5data?5pkt?9line?$AA@ 100c58cc     libgit2:smart_protocol.obj
 0002:000168ec       ??_C@_08DLICDMBN@continue?$AA@ 100c58ec     libgit2:smart_pkt.obj
 0002:000168f8       ??_C@_06DBHEJNGA@common?$AA@ 100c58f8     libgit2:smart_pkt.obj
 0002:00016900       ??_C@_05GLLMDLIO@ready?$AA@ 100c5900     libgit2:smart_pkt.obj
 0002:00016908       ??_C@_0BH@DDIEFJJC@Error?5parsing?5pkt?9line?$AA@ 100c5908     libgit2:smart_pkt.obj
 0002:00016920       ??_C@_0BE@OLLBDKGE@Invalid?5packet?5line?$AA@ 100c5920     libgit2:smart_pkt.obj
 0002:00016934       ??_C@_09BMBHPPEF@unpack?5ok?$AA@ 100c5934     libgit2:smart_pkt.obj
 0002:00016940       ??_C@_0CC@EIKGHDPO@invalid?5hex?5digit?5in?5length?3?5?8?$CFs@ 100c5940     libgit2:smart_pkt.obj
 0002:00016964       ??_C@_04EDDHFNCG@PACK?$AA@ 100c5964     libgit2:smart_pkt.obj
 0002:0001696c       ??_C@_03JMECLKOM@ACK?$AA@  100c596c     libgit2:smart_pkt.obj
 0002:00016970       ??_C@_03MHKFHONE@NAK?$AA@  100c5970     libgit2:smart_pkt.obj
 0002:00016974       ??_C@_04DCHGMGIO@ERR?5?$AA@ 100c5974     libgit2:smart_pkt.obj
 0002:0001697c       ??_C@_02MFDMBIJM@ok?$AA@   100c597c     libgit2:smart_pkt.obj
 0002:00016980       ??_C@_02GIELDNKH@ng?$AA@   100c5980     libgit2:smart_pkt.obj
 0002:00016984       ??_C@_06FIONAGJL@unpack?$AA@ 100c5984     libgit2:smart_pkt.obj
 0002:0001698c       ??_C@_0BE@IDELEHBO@multi_ack_detailed?5?$AA@ 100c598c     libgit2:smart_pkt.obj
 0002:000169a0       ??_C@_0L@DCCEIDEN@multi_ack?5?$AA@ 100c59a0     libgit2:smart_pkt.obj
 0002:000169ac       ??_C@_0N@GBJOLAAF@include?9tag?5?$AA@ 100c59ac     libgit2:smart_pkt.obj
 0002:000169bc       ??_C@_0L@NEJNPNHO@thin?9pack?5?$AA@ 100c59bc     libgit2:smart_pkt.obj
 0002:000169c8       ??_C@_0L@GDDOAOGA@ofs?9delta?5?$AA@ 100c59c8     libgit2:smart_pkt.obj
 0002:000169d4       ??_C@_0DA@PPPDIIAG@Tried?5to?5produce?5packet?5with?5inv@ 100c59d4     libgit2:smart_pkt.obj
 0002:00016a04       ??_C@_0BA@FANBBFEG@?$CF04xwant?5?$CFs?5?$CFs?6?$AA@ 100c5a04     libgit2:smart_pkt.obj
 0002:00016a14       ??_C@_05JMJKDBEJ@?$CFs?$CFs?6?$AA@ 100c5a14     libgit2:smart_pkt.obj
 0002:00016a1c       ??_C@_1DK@HFPHIDEO@?$AA?4?$AA?4?$AA?2?$AAd?$AAe?$AAp?$AAs?$AA?2?$AAl?$AAi?$AAb?$AAg?$AAi?$AAt?$AA2?$AA?2?$AAs?$AAr?$AAc?$AA?2?$AAn?$AAe?$AAt?$AAo?$AAp?$AAs?$AA?4?$AAc?$AA?$AA@ 100c5a1c     libgit2:netops.obj
 0002:00016a58       ??_C@_1CK@CGIINBHL@?$AAp?$AAt?$AAr?$AA?5?$AA?9?$AA?5?$AAb?$AAu?$AAf?$AA?9?$AA?$DO?$AAd?$AAa?$AAt?$AAa?$AA?5?$AA?$DO?$AA?$DN?$AA?5?$AA0?$AA?$AA@ 100c5a58     libgit2:netops.obj
 0002:00016a88       ??_C@_1EE@CHHLBCAG@?$AAp?$AAt?$AAr?$AA?5?$AA?9?$AA?5?$AAb?$AAu?$AAf?$AA?9?$AA?$DO?$AAd?$AAa?$AAt?$AAa?$AA?5?$AA?$DM?$AA?$DN?$AA?5?$AA?$CI?$AAi?$AAn?$AAt?$AA?$CJ?$AA?5?$AAb?$AAu?$AAf?$AA?9?$AA?$DO?$AAl?$AAe@ 100c5a88     libgit2:netops.obj
 0002:00016acc       ??_C@_1BI@HIBPPKAF@?$AAd?$AAa?$AAt?$AAa?$AA?5?$AA?$CG?$AA?$CG?$AA?5?$AAu?$AAr?$AAl?$AA?$AA@ 100c5acc     libgit2:netops.obj
 0002:00016ae4       ??_C@_02PFIAKEDG@80?$AA@   100c5ae4     libgit2:netops.obj
 0002:00016ae8       ??_C@_0CL@NIFIMMDG@Redirect?5from?5HTTPS?5to?5HTTP?5is?5n@ 100c5ae8     libgit2:netops.obj
 0002:00016b14       ??_C@_03HGPLGHGJ@443?$AA@  100c5b14     libgit2:netops.obj
 0002:00016b18       ??_C@_0BI@NLFJFKAI@Unrecognized?5URL?5prefix?$AA@ 100c5b18     libgit2:netops.obj
 0002:00016b30       ??_C@_0CA@GJPOGMDO@Cross?5host?5redirect?5not?5allowed?$AA@ 100c5b30     libgit2:netops.obj
 0002:00016b50       ??_C@_0BD@FDBHHLAD@Malformed?5URL?5?8?$CFs?8?$AA@ 100c5b50     libgit2:netops.obj
 0002:00016b64       ??_C@_0BK@CKJLDFIM@invalid?5url?0?5missing?5path?$AA@ 100c5b64     libgit2:netops.obj
 0002:00016b80       ??_C@_06DJHOIPC@?$CFs?3?5?$CFs?$AA@ 100c5b80     libgit2:socket_stream.obj
 0002:00016b88       ??_C@_0BH@PIKBAJHF@Winsock?5cleanup?5failed?$AA@ 100c5b88     libgit2:socket_stream.obj
 0002:00016ba0       ??_C@_0BE@GDCHNAFG@Winsock?5init?5failed?$AA@ 100c5ba0     libgit2:socket_stream.obj
 0002:00016bb4       ??_C@_0CF@JABKEPML@Failed?5to?5resolve?5address?5for?5?$CFs@ 100c5bb4     libgit2:socket_stream.obj
 0002:00016bdc       ??_C@_0BG@CJJIDIJC@error?5creating?5socket?$AA@ 100c5bdc     libgit2:socket_stream.obj
 0002:00016bf4       ??_C@_0BI@KDOLBLEM@Failed?5to?5connect?5to?5?$CFs?$AA@ 100c5bf4     libgit2:socket_stream.obj
 0002:00016c0c       ??_C@_0BD@CPBPDEOJ@Error?5sending?5data?$AA@ 100c5c0c     libgit2:socket_stream.obj
 0002:00016c20       ??_C@_0BM@OJGKBLKA@Error?5receiving?5socket?5data?$AA@ 100c5c20     libgit2:socket_stream.obj
 0002:00016c40       ??_C@_1EI@IEEEMIHB@?$AA?4?$AA?4?$AA?2?$AAd?$AAe?$AAp?$AAs?$AA?2?$AAl?$AAi?$AAb?$AAg?$AAi?$AAt?$AA2?$AA?2?$AAs?$AAr?$AAc?$AA?2?$AAs?$AAo?$AAc?$AAk?$AAe?$AAt?$AA_?$AAs?$AAt?$AAr?$AAe?$AAa@ 100c5c40     libgit2:socket_stream.obj
 0002:00016c88       ??_C@_1BI@NAMOHKDF@?$AAo?$AAu?$AAt?$AA?5?$AA?$CG?$AA?$CG?$AA?5?$AAh?$AAo?$AAs?$AAt?$AA?$AA@ 100c5c88     libgit2:socket_stream.obj
 0002:00016ca0       ??_C@_1EM@HBKMCBAP@?$AA?4?$AA?4?$AA?2?$AAd?$AAe?$AAp?$AAs?$AA?2?$AAl?$AAi?$AAb?$AAg?$AAi?$AAt?$AA2?$AA?2?$AAs?$AAr?$AAc?$AA?2?$AAt?$AAr?$AAa?$AAn?$AAs?$AAp?$AAo?$AAr?$AAt?$AAs?$AA?2?$AAc@ 100c5ca0     libgit2:cred.obj
 0002:00016cec       ??_C@_1DK@JABFHEFK@?$AAc?$AAr?$AAe?$AAd?$AA?5?$AA?$CG?$AA?$CG?$AA?5?$AAu?$AAs?$AAe?$AAr?$AAn?$AAa?$AAm?$AAe?$AA?5?$AA?$CG?$AA?$CG?$AA?5?$AAp?$AAa?$AAs?$AAs?$AAw?$AAo?$AAr?$AAd?$AA?$AA@ 100c5cec     libgit2:cred.obj
 0002:00016d28       ??_C@_0ED@FLHMCJAF@This?5version?5of?5libgit2?5was?5not?5@ 100c5d28     libgit2:cred.obj
 0002:00016d6c       ??_C@_1DO@KGGCGFDI@?$AAu?$AAs?$AAe?$AAr?$AAn?$AAa?$AAm?$AAe?$AA?5?$AA?$CG?$AA?$CG?$AA?5?$AAc?$AAr?$AAe?$AAd?$AA?5?$AA?$CG?$AA?$CG?$AA?5?$AAp?$AAr?$AAi?$AAv?$AAa?$AAt?$AAe?$AAk?$AAe?$AAy?$AA?$AA@ 100c5d6c     libgit2:cred.obj
 0002:00016db0       ??_C@_1EG@EINMLAFM@?$AAo?$AAu?$AAt?$AA?5?$AA?$CG?$AA?$CG?$AA?5?$AAu?$AAs?$AAe?$AAr?$AAn?$AAa?$AAm?$AAe?$AA?5?$AA?$CG?$AA?$CG?$AA?5?$AAp?$AAr?$AAo?$AAm?$AAp?$AAt?$AA_?$AAc?$AAa?$AAl?$AAl?$AAb?$AAa@ 100c5db0     libgit2:cred.obj
 0002:00016df8       ??_C@_1CC@NMHNHHLA@?$AAu?$AAs?$AAe?$AAr?$AAn?$AAa?$AAm?$AAe?$AA?5?$AA?$CG?$AA?$CG?$AA?5?$AAc?$AAr?$AAe?$AAd?$AA?$AA@ 100c5df8     libgit2:cred.obj
 0002:00016e1c       ??_C@_19CEKNEAKK@?$AAc?$AAr?$AAe?$AAd?$AA?$AA@ 100c5e1c     libgit2:cred.obj
 0002:00016e28       ??_C@_0CA@BBOEKFGF@Invalid?5config?5path?5selector?5?$CFd?$AA@ 100c5e28     libgit2:settings.obj
 0002:00016e48       ??_C@_0DJ@BJPFCDOO@cannot?5set?5certificate?5locations@ 100c5e48     libgit2:settings.obj
 0002:00016e84       ??_C@_0DC@MDKFFKHM@cannot?5set?5custom?5ciphers?3?5OpenS@ 100c5e84     libgit2:settings.obj
 0002:00016eb8       ??_C@_0BD@EMMFHBOA@invalid?5option?5key?$AA@ 100c5eb8     libgit2:settings.obj
 0002:00016ecc       ??_C@_0BH@LIBMMIGA@incorrect?5header?5check?$AA@ 100c5ecc     zlib:inflate.obj
 0002:00016ee4       ??_C@_0BL@IHKGDAEE@unknown?5compression?5method?$AA@ 100c5ee4     zlib:inflate.obj
 0002:00016f00       ??_C@_0BE@EMOGCLGO@invalid?5window?5size?$AA@ 100c5f00     zlib:inflate.obj
 0002:00016f14       ??_C@_0BD@PJCBIDD@invalid?5block?5type?$AA@ 100c5f14     zlib:inflate.obj
 0002:00016f28       ??_C@_0BN@LGAADGOK@invalid?5stored?5block?5lengths?$AA@ 100c5f28     zlib:inflate.obj
 0002:00016f48       ??_C@_0CE@GMIGFPBB@too?5many?5length?5or?5distance?5symb@ 100c5f48     zlib:inflate.obj
 0002:00016f6c       ??_C@_0BJ@HDEPPGOH@invalid?5code?5lengths?5set?$AA@ 100c5f6c     zlib:inflate.obj
 0002:00016f88       ??_C@_0BK@BMMPFBBH@invalid?5bit?5length?5repeat?$AA@ 100c5f88     zlib:inflate.obj
 0002:00016fa4       ??_C@_0CF@DGDMADCD@invalid?5code?5?9?9?5missing?5end?9of?9b@ 100c5fa4     zlib:inflate.obj
 0002:00016fcc       ??_C@_0BM@IIMGAINC@invalid?5literal?1lengths?5set?$AA@ 100c5fcc     zlib:inflate.obj
 0002:00016fe8       ??_C@_0BG@GMDFCBGP@invalid?5distances?5set?$AA@ 100c5fe8     zlib:inflate.obj
 0002:00017000       ??_C@_0BM@FFFLPBBC@invalid?5literal?1length?5code?$AA@ 100c6000     zlib:inflate.obj
 0002:0001701c       ??_C@_0BG@LBKINIKP@invalid?5distance?5code?$AA@ 100c601c     zlib:inflate.obj
 0002:00017034       ??_C@_0BO@ECPMAOGG@invalid?5distance?5too?5far?5back?$AA@ 100c6034     zlib:inflate.obj
 0002:00017054       ??_C@_0BF@MEIGEHBE@incorrect?5data?5check?$AA@ 100c6054     zlib:inflate.obj
 0002:0001706c       ??_C@_0BA@MOKMMFOD@need?5dictionary?$AA@ 100c606c     zlib:zutil.obj
 0002:0001707c       ??_C@_0L@FNAOCBOG@stream?5end?$AA@ 100c607c     zlib:zutil.obj
 0002:00017088       ??_C@_0L@KIJFAKBJ@file?5error?$AA@ 100c6088     zlib:zutil.obj
 0002:00017094       ??_C@_0N@MKKNPMJD@stream?5error?$AA@ 100c6094     zlib:zutil.obj
 0002:000170a4       ??_C@_0L@HAHMBNLP@data?5error?$AA@ 100c60a4     zlib:zutil.obj
 0002:000170b0       ??_C@_0BE@OGGJBMCE@insufficient?5memory?$AA@ 100c60b0     zlib:zutil.obj
 0002:000170c4       ??_C@_0N@DFPGLBGC@buffer?5error?$AA@ 100c60c4     zlib:zutil.obj
 0002:000170d4       ??_C@_0BF@CJFPCCEG@incompatible?5version?$AA@ 100c60d4     zlib:zutil.obj
 0002:000170ec       ??_C@_06HCMPIHJG@HPE_OK?$AA@ 100c60ec     http_parser:http_parser.obj
 0002:000170f4       ??_C@_07IPNMCAN@success?$AA@ 100c60f4     http_parser:http_parser.obj
 0002:000170fc       ??_C@_0BF@IPCPDMDP@HPE_CB_message_begin?$AA@ 100c60fc     http_parser:http_parser.obj
 0002:00017114       ??_C@_0CF@FIKLBLKE@the?5on_message_begin?5callback?5fa@ 100c6114     http_parser:http_parser.obj
 0002:0001713c       ??_C@_0L@BGAIMDHB@HPE_CB_url?$AA@ 100c613c     http_parser:http_parser.obj
 0002:00017148       ??_C@_0BL@FHNPBLJD@the?5on_url?5callback?5failed?$AA@ 100c6148     http_parser:http_parser.obj
 0002:00017164       ??_C@_0BE@EGJFLKIM@HPE_CB_header_field?$AA@ 100c6164     http_parser:http_parser.obj
 0002:00017178       ??_C@_0CE@NCPJEBFC@the?5on_header_field?5callback?5fai@ 100c6178     http_parser:http_parser.obj
 0002:0001719c       ??_C@_0BE@CNHBFOC@HPE_CB_header_value?$AA@ 100c619c     http_parser:http_parser.obj
 0002:000171b0       ??_C@_0CE@IEBDPPKH@the?5on_header_value?5callback?5fai@ 100c61b0     http_parser:http_parser.obj
 0002:000171d4       ??_C@_0BI@MFDJEDCB@HPE_CB_headers_complete?$AA@ 100c61d4     http_parser:http_parser.obj
 0002:000171ec       ??_C@_0CI@FJODALIB@the?5on_headers_complete?5callback@ 100c61ec     http_parser:http_parser.obj
 0002:00017214       ??_C@_0M@KHEJBOLO@HPE_CB_body?$AA@ 100c6214     http_parser:http_parser.obj
 0002:00017220       ??_C@_0BM@OEICKNJO@the?5on_body?5callback?5failed?$AA@ 100c6220     http_parser:http_parser.obj
 0002:0001723c       ??_C@_0BI@MMENOJCN@HPE_CB_message_complete?$AA@ 100c623c     http_parser:http_parser.obj
 0002:00017254       ??_C@_0CI@CLNKFNMM@the?5on_message_complete?5callback@ 100c6254     http_parser:http_parser.obj
 0002:0001727c       ??_C@_0BG@GGGHMKAI@HPE_INVALID_EOF_STATE?$AA@ 100c627c     http_parser:http_parser.obj
 0002:00017294       ??_C@_0CD@BNLCGJEB@stream?5ended?5at?5an?5unexpected?5ti@ 100c6294     http_parser:http_parser.obj
 0002:000172b8       ??_C@_0BE@FMGFKNKB@HPE_HEADER_OVERFLOW?$AA@ 100c62b8     http_parser:http_parser.obj
 0002:000172cc       ??_C@_0CO@GGIKFED@too?5many?5header?5bytes?5seen?$DL?5over@ 100c62cc     http_parser:http_parser.obj
 0002:000172fc       ??_C@_0BG@GCINOCIP@HPE_CLOSED_CONNECTION?$AA@ 100c62fc     http_parser:http_parser.obj
 0002:00017314       ??_C@_0DI@CKAHDGDC@data?5received?5after?5completed?5co@ 100c6314     http_parser:http_parser.obj
 0002:0001734c       ??_C@_0BE@FFIHLPNJ@HPE_INVALID_VERSION?$AA@ 100c634c     http_parser:http_parser.obj
 0002:00017360       ??_C@_0BF@CFOPGFMA@invalid?5HTTP?5version?$AA@ 100c6360     http_parser:http_parser.obj
 0002:00017378       ??_C@_0BD@MAJDLGBL@HPE_INVALID_STATUS?$AA@ 100c6378     http_parser:http_parser.obj
 0002:0001738c       ??_C@_0BJ@KBCLEIIE@invalid?5HTTP?5status?5code?$AA@ 100c638c     http_parser:http_parser.obj
 0002:000173a8       ??_C@_0BD@JJAFNCFD@HPE_INVALID_METHOD?$AA@ 100c63a8     http_parser:http_parser.obj
 0002:000173bc       ??_C@_0BE@KAEFGEJO@invalid?5HTTP?5method?$AA@ 100c63bc     http_parser:http_parser.obj
 0002:000173d0       ??_C@_0BA@DBELOOBJ@HPE_INVALID_URL?$AA@ 100c63d0     http_parser:http_parser.obj
 0002:000173e0       ??_C@_0M@IHNFGJMC@invalid?5URL?$AA@ 100c63e0     http_parser:http_parser.obj
 0002:000173ec       ??_C@_0BB@JHPEEDEC@HPE_INVALID_HOST?$AA@ 100c63ec     http_parser:http_parser.obj
 0002:00017400       ??_C@_0N@EKHJDEOB@invalid?5host?$AA@ 100c6400     http_parser:http_parser.obj
 0002:00017410       ??_C@_0BB@MGKGPFDG@HPE_INVALID_PORT?$AA@ 100c6410     http_parser:http_parser.obj
 0002:00017424       ??_C@_0N@BLCLICJF@invalid?5port?$AA@ 100c6424     http_parser:http_parser.obj
 0002:00017434       ??_C@_0BB@MEIDKDOK@HPE_INVALID_PATH?$AA@ 100c6434     http_parser:http_parser.obj
 0002:00017448       ??_C@_0N@BJAONEEJ@invalid?5path?$AA@ 100c6448     http_parser:http_parser.obj
 0002:00017458       ??_C@_0BJ@NLLIIAID@HPE_INVALID_QUERY_STRING?$AA@ 100c6458     http_parser:http_parser.obj
 0002:00017474       ??_C@_0BF@PGFEONOK@invalid?5query?5string?$AA@ 100c6474     http_parser:http_parser.obj
 0002:0001748c       ??_C@_0BF@KPHPIPKG@HPE_INVALID_FRAGMENT?$AA@ 100c648c     http_parser:http_parser.obj
 0002:000174a4       ??_C@_0BB@BLGKONIP@invalid?5fragment?$AA@ 100c64a4     http_parser:http_parser.obj
 0002:000174b8       ??_C@_0BA@LPCFBFPI@HPE_LF_EXPECTED?$AA@ 100c64b8     http_parser:http_parser.obj
 0002:000174c8       ??_C@_0BG@HEBLPMDJ@LF?5character?5expected?$AA@ 100c64c8     http_parser:http_parser.obj
 0002:000174e0       ??_C@_0BJ@IHOEECLA@HPE_INVALID_HEADER_TOKEN?$AA@ 100c64e0     http_parser:http_parser.obj
 0002:000174fc       ??_C@_0BM@JNNMENMG@invalid?5character?5in?5header?$AA@ 100c64fc     http_parser:http_parser.obj
 0002:00017518       ??_C@_0BL@OLDOOILG@HPE_INVALID_CONTENT_LENGTH?$AA@ 100c6518     http_parser:http_parser.obj
 0002:00017534       ??_C@_0CL@NJOOFCA@invalid?5character?5in?5content?9len@ 100c6534     http_parser:http_parser.obj
 0002:00017560       ??_C@_0BH@DNFJEHAE@HPE_INVALID_CHUNK_SIZE?$AA@ 100c6560     http_parser:http_parser.obj
 0002:00017578       ??_C@_0CH@KJBEIJMP@invalid?5character?5in?5chunk?5size?5@ 100c6578     http_parser:http_parser.obj
 0002:000175a0       ??_C@_0BF@IOMLLMND@HPE_INVALID_CONSTANT?$AA@ 100c65a0     http_parser:http_parser.obj
 0002:000175b8       ??_C@_0BI@FIOFDGGO@invalid?5constant?5string?$AA@ 100c65b8     http_parser:http_parser.obj
 0002:000175d0       ??_C@_0BL@KCFJDMGA@HPE_INVALID_INTERNAL_STATE?$AA@ 100c65d0     http_parser:http_parser.obj
 0002:000175ec       ??_C@_0CG@MCDPPGMC@encountered?5unexpected?5internal?5@ 100c65ec     http_parser:http_parser.obj
 0002:00017614       ??_C@_0L@NEACAOMN@HPE_STRICT?$AA@ 100c6614     http_parser:http_parser.obj
 0002:00017620       ??_C@_0BN@FGOIJDFH@strict?5mode?5assertion?5failed?$AA@ 100c6620     http_parser:http_parser.obj
 0002:00017640       ??_C@_0L@HFDKICHA@HPE_PAUSED?$AA@ 100c6640     http_parser:http_parser.obj
 0002:0001764c       ??_C@_0BB@JFDHKBPI@parser?5is?5paused?$AA@ 100c664c     http_parser:http_parser.obj
 0002:00017660       ??_C@_0M@FAFDJKCN@HPE_UNKNOWN?$AA@ 100c6660     http_parser:http_parser.obj
 0002:0001766c       ??_C@_0BK@FGOEOOHP@an?5unknown?5error?5occurred?$AA@ 100c666c     http_parser:http_parser.obj
 0002:00017688       ??_C@_1FO@JFPKNGEI@?$AA?4?$AA?4?$AA?2?$AAd?$AAe?$AAp?$AAs?$AA?2?$AAl?$AAi?$AAb?$AAg?$AAi?$AAt?$AA2?$AA?2?$AAd?$AAe?$AAp?$AAs?$AA?2?$AAh?$AAt?$AAt?$AAp?$AA?9?$AAp?$AAa?$AAr?$AAs?$AAe?$AAr@ 100c6688     http_parser:http_parser.obj
 0002:000176e8       ??_C@_1CI@PIODLIDM@?$AA?$CB?$AA?$CC?$AAU?$AAn?$AAe?$AAx?$AAp?$AAe?$AAc?$AAt?$AAe?$AAd?$AA?5?$AAs?$AAt?$AAa?$AAt?$AAe?$AA?$CC?$AA?$AA@ 100c66e8     http_parser:http_parser.obj
 0002:00017710       __real@3f800000            100c6710     libgit2:diff_patch.obj
 0002:00017718       __real@3fe0000000000000    100c6718     libgit2:smart_protocol.obj
 0002:00017720       __real@3fe8a3d70a3d70a4    100c6720     libgit2:revwalk.obj
 0002:00017728       __real@3ff4cccccccccccd    100c6728     libgit2:index.obj
 0002:00017730       __real@408f400000000000    100c6730     libgit2:smart_protocol.obj
 0002:00017738       __real@42c80000            100c6738     libgit2:local.obj
 0002:00017740       __xmm@00000000000000000000000000000001 100c6740     libgit2:submodule.obj
 0002:00017750       __xmm@41f00000000000000000000000000000 100c6750     libgit2:smart_protocol.obj
 0002:00017760       __xmm@ffffffffffffffffffffffffffffffff 100c6760     libgit2:regex.obj
 0002:00017858       __load_config_used         100c6858     LIBCMT:loadcfg.obj
 0002:000178b4       ??_R4exception@std@@6B@    100c68b4     libcpmt:xthrow.obj
 0002:000178c8       ??_R3exception@std@@8      100c68c8     libcpmt:xthrow.obj
 0002:000178d8       ??_R2exception@std@@8      100c68d8     libcpmt:xthrow.obj
 0002:000178e0       ??_R1A@?0A@EA@exception@std@@8 100c68e0     libcpmt:xthrow.obj
 0002:000178fc       ??_R4bad_alloc@std@@6B@    100c68fc     libcpmt:xthrow.obj
 0002:00017910       ??_R3bad_alloc@std@@8      100c6910     libcpmt:xthrow.obj
 0002:00017920       ??_R2bad_alloc@std@@8      100c6920     libcpmt:xthrow.obj
 0002:0001792c       ??_R1A@?0A@EA@bad_alloc@std@@8 100c692c     libcpmt:xthrow.obj
 0002:00017948       ??_R4logic_error@std@@6B@  100c6948     libcpmt:xthrow.obj
 0002:0001795c       ??_R3logic_error@std@@8    100c695c     libcpmt:xthrow.obj
 0002:0001796c       ??_R2logic_error@std@@8    100c696c     libcpmt:xthrow.obj
 0002:00017978       ??_R1A@?0A@EA@logic_error@std@@8 100c6978     libcpmt:xthrow.obj
 0002:00017994       ??_R4length_error@std@@6B@ 100c6994     libcpmt:xthrow.obj
 0002:000179a8       ??_R3length_error@std@@8   100c69a8     libcpmt:xthrow.obj
 0002:000179b8       ??_R2length_error@std@@8   100c69b8     libcpmt:xthrow.obj
 0002:000179c8       ??_R1A@?0A@EA@length_error@std@@8 100c69c8     libcpmt:xthrow.obj
 0002:000179e4       ??_R4out_of_range@std@@6B@ 100c69e4     libcpmt:xthrow.obj
 0002:000179f8       ??_R3out_of_range@std@@8   100c69f8     libcpmt:xthrow.obj
 0002:00017a08       ??_R2out_of_range@std@@8   100c6a08     libcpmt:xthrow.obj
 0002:00017a18       ??_R1A@?0A@EA@out_of_range@std@@8 100c6a18     libcpmt:xthrow.obj
 0002:00017a34       ??_R4type_info@@6B@        100c6a34     LIBCMT:std_type_info_static.obj
 0002:00017a48       ??_R3type_info@@8          100c6a48     LIBCMT:std_type_info_static.obj
 0002:00017a58       ??_R2type_info@@8          100c6a58     LIBCMT:std_type_info_static.obj
 0002:00017a60       ??_R1A@?0A@EA@type_info@@8 100c6a60     LIBCMT:std_type_info_static.obj
 0002:00017a7c       ??_R4bad_array_new_length@std@@6B@ 100c6a7c     LIBCMT:throw_bad_alloc.obj
 0002:00017a90       ??_R3bad_array_new_length@std@@8 100c6a90     LIBCMT:throw_bad_alloc.obj
 0002:00017aa0       ??_R2bad_array_new_length@std@@8 100c6aa0     LIBCMT:throw_bad_alloc.obj
 0002:00017ab0       ??_R1A@?0A@EA@bad_array_new_length@std@@8 100c6ab0     LIBCMT:throw_bad_alloc.obj
 0002:00017ad0       ___safe_se_handler_table   100c6ad0     <linker-defined>
 0002:00017e30       ___rtc_iaa                 100c6e30     LIBCMT:_initsect_.obj
 0002:00017e34       ___rtc_izz                 100c6e34     LIBCMT:_initsect_.obj
 0002:00017e38       ___rtc_taa                 100c6e38     LIBCMT:_initsect_.obj
 0002:00017e3c       ___rtc_tzz                 100c6e3c     LIBCMT:_initsect_.obj
 0002:00017e40       __TI2?AVbad_alloc@std@@    100c6e40     libcpmt:xthrow.obj
 0002:00017e50       __CTA2?AVbad_alloc@std@@   100c6e50     libcpmt:xthrow.obj
 0002:00017e5c       __CT??_R0?AVbad_alloc@std@@@8??0bad_alloc@std@@QAE@ABV01@@Z12 100c6e5c     libcpmt:xthrow.obj
 0002:00017e78       __CT??_R0?AVexception@std@@@8??0exception@std@@QAE@ABV01@@Z12 100c6e78     libcpmt:xthrow.obj
 0002:00017e94       __CT??_R0?AVlogic_error@std@@@8??0logic_error@std@@QAE@ABV01@@Z12 100c6e94     libcpmt:xthrow.obj
 0002:00017eb0       __TI3?AVlength_error@std@@ 100c6eb0     libcpmt:xthrow.obj
 0002:00017ec0       __CTA3?AVlength_error@std@@ 100c6ec0     libcpmt:xthrow.obj
 0002:00017ed0       __CT??_R0?AVlength_error@std@@@8??0length_error@std@@QAE@ABV01@@Z12 100c6ed0     libcpmt:xthrow.obj
 0002:00017eec       __TI3?AVout_of_range@std@@ 100c6eec     libcpmt:xthrow.obj
 0002:00017efc       __CTA3?AVout_of_range@std@@ 100c6efc     libcpmt:xthrow.obj
 0002:00017f0c       __CT??_R0?AVout_of_range@std@@@8??0out_of_range@std@@QAE@ABV01@@Z12 100c6f0c     libcpmt:xthrow.obj
 0002:00017f84       __TI3?AVbad_array_new_length@std@@ 100c6f84     LIBCMT:throw_bad_alloc.obj
 0002:00017f94       __CTA3?AVbad_array_new_length@std@@ 100c6f94     LIBCMT:throw_bad_alloc.obj
 0002:00017fa4       __CT??_R0?AVbad_array_new_length@std@@@8??0bad_array_new_length@std@@QAE@ABV01@@Z12 100c6fa4     LIBCMT:throw_bad_alloc.obj
 0002:0001d9b8       __IMPORT_DESCRIPTOR_node   100cc9b8     node:node.exe
 0002:0001d9cc       __IMPORT_DESCRIPTOR_KERNEL32 100cc9cc     kernel32:KERNEL32.dll
 0002:0001d9e0       __IMPORT_DESCRIPTOR_ADVAPI32 100cc9e0     advapi32:ADVAPI32.dll
 0002:0001d9f4       __IMPORT_DESCRIPTOR_ole32  100cc9f4     ole32:ole32.dll
 0002:0001da08       __IMPORT_DESCRIPTOR_CRYPT32 100cca08     crypt32:CRYPT32.dll
 0002:0001da1c       __IMPORT_DESCRIPTOR_RPCRT4 100cca1c     rpcrt4:RPCRT4.dll
 0002:0001da30       __IMPORT_DESCRIPTOR_WINHTTP 100cca30     winhttp:WINHTTP.dll
 0002:0001da44       __IMPORT_DESCRIPTOR_WS2_32 100cca44     ws2_32:WS2_32.dll
 0002:0001da58       __NULL_IMPORT_DESCRIPTOR   100cca58     node:node.exe
 0003:00000000       ___security_cookie_complement 100cf000     LIBCMT:gs_cookie.obj
 0003:00000004       ___security_cookie         100cf004     LIBCMT:gs_cookie.obj
 0003:00000008       ___scrt_native_dllmain_reason 100cf008     LIBCMT:utility.obj
 0003:00000010       ___isa_enabled             100cf010     LIBCMT:_cpu_disp_.obj
 0003:00000030       __NLG_Destination          100cf030     libvcruntime:_exsup_.obj
 0003:00000040       ___abort_behavior          100cf040     libucrt:abort.obj
 0003:00000050       __iob                      100cf050     libucrt:_file.obj
 0003:00000100       __lookuptrailbytes         100cf100     libucrt:read.obj
 0003:00000208       ___acrt_initial_locale_data 100cf208     libucrt:nlsdata.obj
 0003:000002c0       ___acrt_initial_locale_pointers 100cf2c0     libucrt:nlsdata.obj
 0003:000002c8       ___acrt_wide_c_locale_string 100cf2c8     libucrt:nlsdata.obj
 0003:000002d0       ___badioinfo               100cf2d0     libucrt:ioinit.obj
 0003:000003a0       __pwctype                  100cf3a0     libucrt:ctype.obj
 0003:00000498       __mbctype                  100cf498     libucrt:mbctype.obj
 0003:000005a0       __mbcasemap                100cf5a0     libucrt:mbctype.obj
 0003:000006a0       ___acrt_initial_multibyte_data 100cf6a0     libucrt:mbctype.obj
 0003:000008c0       ___acrt_current_multibyte_data 100cf8c0     libucrt:mbctype.obj
 0003:000008c4       ___globallocalestatus      100cf8c4     libucrt:glstatus.obj
 0003:000008c8       ___acrt_lconv_static_decimal 100cf8c8     libucrt:localeconv.obj
 0003:000008cc       ___acrt_lconv_static_W_decimal 100cf8cc     libucrt:localeconv.obj
 0003:000008d0       ___acrt_lconv_c            100cf8d0     libucrt:localeconv.obj
 0003:00000920       ___dcrt_lowio_console_output_handle 100cf920     libucrt:initcon.obj
 0003:00000930       __fltused                  100cf930     LIBCMT:fltused.obj
 0003:0000096c       _git_object__strict_input_validation 100cf96c     libgit2:object.obj
 0003:0000096d       _git_cache__enabled        100cf96d     libgit2:cache.obj
 0003:00000a60       _git_repository__reserved_names_win32 100cfa60     libgit2:repository.obj
 0003:00000c08       _git_cache__max_storage    100cfc08     libgit2:cache.obj
 0003:00000f00       _git_mwindow__mapped_limit 100cff00     libgit2:mwindow.obj
 0003:00000f04       _git_mwindow__window_size  100cff04     libgit2:mwindow.obj
 0003:000010c0       ??_R0?AVbad_alloc@std@@@8  100d00c0     libcpmt:xthrow.obj
 0003:000010dc       ??_R0?AVexception@std@@@8  100d00dc     libcpmt:xthrow.obj
 0003:000010f8       ??_R0?AVlogic_error@std@@@8 100d00f8     libcpmt:xthrow.obj
 0003:00001118       ??_R0?AVlength_error@std@@@8 100d0118     libcpmt:xthrow.obj
 0003:00001138       ??_R0?AVout_of_range@std@@@8 100d0138     libcpmt:xthrow.obj
 0003:00001158       ??_R0?AVtype_info@@@8      100d0158     LIBCMT:std_type_info_static.obj
 0003:00001170       ??_R0?AVbad_array_new_length@std@@@8 100d0170     LIBCMT:throw_bad_alloc.obj
 0003:000014c4       ___scrt_current_native_startup_state 100d04c4     LIBCMT:utility.obj
 0003:000014c8       ___scrt_native_startup_lock 100d04c8     LIBCMT:utility.obj
 0003:000014e8       ?__type_info_root_node@@3U__type_info_node@@A 100d04e8     LIBCMT:tncleanup.obj
 0003:000014f0       ?_OptionsStorage@?1??__local_stdio_scanf_options@@9@4_KA 100d04f0     LIBCMT:default_local_stdio_options.obj
 0003:000014f8       ___scrt_debugger_hook_flag 100d04f8     LIBCMT:utility_desktop.obj
 0003:000014fc       ___isa_available           100d04fc     LIBCMT:_cpu_disp_.obj
 0003:00001500       ___favor                   100d0500     LIBCMT:_cpu_disp_.obj
 0003:0000157c       ___pPurecall               100d057c     libvcruntime:purevirt_data.obj
 0003:00001580       ?pArgList@UnDecorator@@0PAVReplicator@@A 100d0580     libvcruntime:undname.obj
 0003:00001584       ?pZNameList@UnDecorator@@0PAVReplicator@@A 100d0584     libvcruntime:undname.obj
 0003:00001588       ?pTemplateArgList@UnDecorator@@0PAVReplicator@@A 100d0588     libvcruntime:undname.obj
 0003:0000158c       ?gName@UnDecorator@@0PBDB  100d058c     libvcruntime:undname.obj
 0003:00001590       ?name@UnDecorator@@0PBDB   100d0590     libvcruntime:undname.obj
 0003:00001594       ?outputString@UnDecorator@@0PADA 100d0594     libvcruntime:undname.obj
 0003:00001598       ?maxStringLength@UnDecorator@@0HA 100d0598     libvcruntime:undname.obj
 0003:0000159c       ?disableFlags@UnDecorator@@0KA 100d059c     libvcruntime:undname.obj
 0003:000015a0       ?fExplicitTemplateParams@UnDecorator@@0_NA 100d05a0     libvcruntime:undname.obj
 0003:000015a1       ?fGetTemplateArgumentList@UnDecorator@@0_NA 100d05a1     libvcruntime:undname.obj
 0003:000015a4       ?m_pGetParameter@UnDecorator@@0P6APADJ@ZA 100d05a4     libvcruntime:undname.obj
 0003:000015c0       __nstream                  100d05c0     libucrt:_file.obj
 0003:000015c4       ___piob                    100d05c4     libucrt:_file.obj
 0003:000015c8       __cflush                   100d05c8     libucrt:_file.obj
 0003:000016e8       __environ_table            100d06e8     libucrt:environment_initialization.obj
 0003:000016ec       __wenviron_table           100d06ec     libucrt:environment_initialization.obj
 0003:000016f0       ___dcrt_initial_wide_environment 100d06f0     libucrt:environment_initialization.obj
 0003:000016f4       ___dcrt_initial_narrow_environment 100d06f4     libucrt:environment_initialization.obj
 0003:000016f8       ___acrt_atexit_table       100d06f8     libucrt:onexit.obj
 0003:00001704       ___acrt_at_quick_exit_table 100d0704     libucrt:onexit.obj
 0003:00001710       __umaskval                 100d0710     libucrt:umask.obj
 0003:0000172c       ___acrt_locale_changed_data 100d072c     libucrt:wsetlocale.obj
 0003:00001730       ___acrt_current_locale_data 100d0730     libucrt:nlsdata.obj
 0003:00001810       ___pioinfo                 100d0810     libucrt:ioinit.obj
 0003:00001a10       __nhandle                  100d0a10     libucrt:ioinit.obj
 0003:00001a18       ___acrt_stdout_buffer      100d0a18     libucrt:_sftbuf.obj
 0003:00001a1c       ___acrt_stderr_buffer      100d0a1c     libucrt:_sftbuf.obj
 0003:00001b5c       ?_timezone@@3V?$dual_state_global@J@__crt_state_management@@A 100d0b5c     libucrt:timeset.obj
 0003:00001b60       ?_daylight@@3V?$dual_state_global@H@__crt_state_management@@A 100d0b60     libucrt:timeset.obj
 0003:00001b64       ?_dstbias@@3V?$dual_state_global@J@__crt_state_management@@A 100d0b64     libucrt:timeset.obj
 0003:00001c28       ___mblocalename            100d0c28     libucrt:mbctype.obj
 0003:00001c2c       ___mbcodepage              100d0c2c     libucrt:mbctype.obj
 0003:00001c30       ___ismbcodepage            100d0c30     libucrt:mbctype.obj
 0003:00001c34       ___mbulinfo                100d0c34     libucrt:mbctype.obj
 0003:00001c48       ___argc                    100d0c48     libucrt:argv_data.obj
 0003:00001c4c       ___argv                    100d0c4c     libucrt:argv_data.obj
 0003:00001c50       ___wargv                   100d0c50     libucrt:argv_data.obj
 0003:00001c54       __acmdln                   100d0c54     libucrt:argv_data.obj
 0003:00001c58       __wcmdln                   100d0c58     libucrt:argv_data.obj
 0003:00001c5c       __pgmptr                   100d0c5c     libucrt:argv_data.obj
 0003:00001c60       ___acrt_heap               100d0c60     libucrt:heap_handle.obj
 0003:00001c6c       ___acrt_lconv_static_null  100d0c6c     libucrt:localeconv.obj
 0003:00001c70       ___acrt_lconv_static_W_null 100d0c70     libucrt:localeconv.obj
 0003:00001c74       __fmode                    100d0c74     libucrt:txtmode.obj
 0003:00001c78       ___fastflag                100d0c78     libucrt:fp_flags.obj
 0003:00001c8c       _git_cache__current_storage 100d0c8c     libgit2:cache.obj
 0003:00001c90       _git__pack_cache           100d0c90     libgit2:mwindow.obj
 0003:00001d50       ___scrt_ucrt_dll_is_in_use 100d0d50     <common>
 0003:00001d54       ___dyn_tls_init_callback   100d0d54     <common>
 0003:00001d58       __pDestructExceptionObject 100d0d58     <common>
 0003:00001d5c       __pmatherr                 100d0d5c     <common>
 0003:00001d60       ___use_sse2_mathfcns       100d0d60     <common>
 0003:00001d64       _git_buf__oom              100d0d64     <common>
 0003:00001d65       _git_buf__initbuf          100d0d65     <common>
 0003:00001d80       _git__mwindow_mutex        100d0d80     <common>
 0003:00001d98       _git__user_agent           100d0d98     <common>
 0003:00001d9c       _git__ssl_ciphers          100d0d9c     <common>
 0003:00001da0       ?_OptionsStorage@?1??__local_stdio_printf_options@@9@9 100d0da0     <common>
 0003:00001dc0       ?buff@?1??gai_strerrorA@@9@9 100d0dc0     <common>

 entry point at        0001:000956df

 Static symbols

 0000:fff25000       .debug$S                   10000000     kernel32:KERNEL32.dll
 0000:fff25000       .debug$S                   10000000     kernel32:KERNEL32.dll
 0000:fff25000       .debug$S                   10000000     kernel32:KERNEL32.dll
 0000:fff25000       .debug$S                   10000000     kernel32:KERNEL32.dll
 0000:fff25000       .debug$S                   10000000     kernel32:KERNEL32.dll
 0000:fff25000       .debug$S                   10000000     kernel32:KERNEL32.dll
 0000:fff25000       .debug$S                   10000000     kernel32:KERNEL32.dll
 0000:fff25000       .debug$S                   10000000     kernel32:KERNEL32.dll
 0000:fff25000       .debug$S                   10000000     kernel32:KERNEL32.dll
 0000:fff25000       .debug$S                   10000000     kernel32:KERNEL32.dll
 0000:fff25000       .debug$S                   10000000     kernel32:KERNEL32.dll
 0000:fff25000       .debug$S                   10000000     kernel32:KERNEL32.dll
 0000:fff25000       .debug$S                   10000000     kernel32:KERNEL32.dll
 0000:fff25000       .debug$S                   10000000     kernel32:KERNEL32.dll
 0000:fff25000       .debug$S                   10000000     kernel32:KERNEL32.dll
 0000:fff25000       .debug$S                   10000000     kernel32:KERNEL32.dll
 0000:fff25000       .debug$S                   10000000     kernel32:KERNEL32.dll
 0000:fff25000       .debug$S                   10000000     kernel32:KERNEL32.dll
 0000:fff25000       .debug$S                   10000000     kernel32:KERNEL32.dll
 0000:fff25000       .debug$S                   10000000     kernel32:KERNEL32.dll
 0000:fff25000       .debug$S                   10000000     kernel32:KERNEL32.dll
 0000:fff25000       .debug$S                   10000000     kernel32:KERNEL32.dll
 0000:fff25000       .debug$S                   10000000     kernel32:KERNEL32.dll
 0000:fff25000       .debug$S                   10000000     kernel32:KERNEL32.dll
 0000:fff25000       .debug$S                   10000000     kernel32:KERNEL32.dll
 0000:fff25000       .debug$S                   10000000     kernel32:KERNEL32.dll
 0000:fff25000       .debug$S                   10000000     kernel32:KERNEL32.dll
 0000:fff25000       .debug$S                   10000000     kernel32:KERNEL32.dll
 0000:fff25000       .debug$S                   10000000     kernel32:KERNEL32.dll
 0000:fff25000       .debug$S                   10000000     kernel32:KERNEL32.dll
 0000:fff25000       .debug$S                   10000000     kernel32:KERNEL32.dll
 0000:fff25000       .debug$S                   10000000     kernel32:KERNEL32.dll
 0000:fff25000       .debug$S                   10000000     kernel32:KERNEL32.dll
 0000:fff25000       .debug$S                   10000000     kernel32:KERNEL32.dll
 0000:fff25000       .debug$S                   10000000     kernel32:KERNEL32.dll
 0000:fff25000       .debug$S                   10000000     kernel32:KERNEL32.dll
 0000:fff25000       .debug$S                   10000000     kernel32:KERNEL32.dll
 0000:fff25000       .debug$S                   10000000     kernel32:KERNEL32.dll
 0000:fff25000       .debug$S                   10000000     kernel32:KERNEL32.dll
 0000:fff25000       .debug$S                   10000000     kernel32:KERNEL32.dll
 0000:fff25000       .debug$S                   10000000     kernel32:KERNEL32.dll
 0000:fff25000       .debug$S                   10000000     kernel32:KERNEL32.dll
 0000:fff25000       .debug$S                   10000000     kernel32:KERNEL32.dll
 0000:fff25000       .debug$S                   10000000     kernel32:KERNEL32.dll
 0000:fff25000       .debug$S                   10000000     kernel32:KERNEL32.dll
 0000:fff25000       .debug$S                   10000000     kernel32:KERNEL32.dll
 0000:fff25000       .debug$S                   10000000     kernel32:KERNEL32.dll
 0000:fff25000       .debug$S                   10000000     kernel32:KERNEL32.dll
 0000:fff25000       .debug$S                   10000000     kernel32:KERNEL32.dll
 0000:fff25000       .debug$S                   10000000     kernel32:KERNEL32.dll
 0000:fff25000       .debug$S                   10000000     kernel32:KERNEL32.dll
 0000:fff25000       .debug$S                   10000000     kernel32:KERNEL32.dll
 0000:fff25000       .debug$S                   10000000     kernel32:KERNEL32.dll
 0000:fff25000       .debug$S                   10000000     kernel32:KERNEL32.dll
 0000:fff25000       .debug$S                   10000000     kernel32:KERNEL32.dll
 0000:fff25000       .debug$S                   10000000     kernel32:KERNEL32.dll
 0000:fff25000       .debug$S                   10000000     kernel32:KERNEL32.dll
 0000:fff25000       .debug$S                   10000000     kernel32:KERNEL32.dll
 0000:fff25000       .debug$S                   10000000     kernel32:KERNEL32.dll
 0000:fff25000       .debug$S                   10000000     kernel32:KERNEL32.dll
 0000:fff25000       .debug$S                   10000000     kernel32:KERNEL32.dll
 0000:fff25000       .debug$S                   10000000     kernel32:KERNEL32.dll
 0000:fff25000       .debug$S                   10000000     kernel32:KERNEL32.dll
 0000:fff25000       .debug$S                   10000000     kernel32:KERNEL32.dll
 0000:fff25000       .debug$S                   10000000     kernel32:KERNEL32.dll
 0000:fff25000       .debug$S                   10000000     kernel32:KERNEL32.dll
 0000:fff25000       .debug$S                   10000000     kernel32:KERNEL32.dll
 0000:fff25000       .debug$S                   10000000     kernel32:KERNEL32.dll
 0000:fff25000       .debug$S                   10000000     kernel32:KERNEL32.dll
 0000:fff25000       .debug$S                   10000000     kernel32:KERNEL32.dll
 0000:fff25000       .debug$S                   10000000     kernel32:KERNEL32.dll
 0000:fff25000       .debug$S                   10000000     kernel32:KERNEL32.dll
 0000:fff25000       .debug$S                   10000000     kernel32:KERNEL32.dll
 0000:fff25000       .debug$S                   10000000     kernel32:KERNEL32.dll
 0000:fff25000       .debug$S                   10000000     kernel32:KERNEL32.dll
 0000:fff25000       .debug$S                   10000000     kernel32:KERNEL32.dll
 0000:fff25000       .debug$S                   10000000     kernel32:KERNEL32.dll
 0000:fff25000       .debug$S                   10000000     kernel32:KERNEL32.dll
 0000:fff25000       .debug$S                   10000000     kernel32:KERNEL32.dll
 0000:fff25000       .debug$S                   10000000     kernel32:KERNEL32.dll
 0000:fff25000       .debug$S                   10000000     kernel32:KERNEL32.dll
 0000:fff25000       .debug$S                   10000000     kernel32:KERNEL32.dll
 0000:fff25000       .debug$S                   10000000     kernel32:KERNEL32.dll
 0000:fff25000       .debug$S                   10000000     kernel32:KERNEL32.dll
 0000:fff25000       .debug$S                   10000000     kernel32:KERNEL32.dll
 0000:fff25000       .debug$S                   10000000     kernel32:KERNEL32.dll
 0000:fff25000       .debug$S                   10000000     kernel32:KERNEL32.dll
 0000:fff25000       .debug$S                   10000000     kernel32:KERNEL32.dll
 0000:fff25000       .debug$S                   10000000     kernel32:KERNEL32.dll
 0000:fff25000       .debug$S                   10000000     kernel32:KERNEL32.dll
 0000:fff25000       .debug$S                   10000000     kernel32:KERNEL32.dll
 0000:fff25000       .debug$S                   10000000     kernel32:KERNEL32.dll
 0000:fff25000       .debug$S                   10000000     kernel32:KERNEL32.dll
 0000:fff25000       .debug$S                   10000000     kernel32:KERNEL32.dll
 0000:fff25000       .debug$S                   10000000     kernel32:KERNEL32.dll
 0000:fff25000       .debug$S                   10000000     kernel32:KERNEL32.dll
 0000:fff25000       .debug$S                   10000000     kernel32:KERNEL32.dll
 0000:fff25000       .debug$S                   10000000     kernel32:KERNEL32.dll
 0000:fff25000       .debug$S                   10000000     kernel32:KERNEL32.dll
 0000:fff25000       .debug$S                   10000000     kernel32:KERNEL32.dll
 0000:fff25000       .debug$S                   10000000     kernel32:KERNEL32.dll
 0000:fff25000       .debug$S                   10000000     kernel32:KERNEL32.dll
 0000:fff25000       .debug$S                   10000000     kernel32:KERNEL32.dll
 0000:fff25000       .debug$S                   10000000     kernel32:KERNEL32.dll
 0000:fff25000       .debug$S                   10000000     kernel32:KERNEL32.dll
 0000:fff25000       .debug$S                   10000000     kernel32:KERNEL32.dll
 0000:fff25000       .debug$S                   10000000     kernel32:KERNEL32.dll
 0000:fff25000       .debug$S                   10000000     kernel32:KERNEL32.dll
 0000:fff25000       .debug$S                   10000000     kernel32:KERNEL32.dll
 0000:fff25000       .debug$S                   10000000     kernel32:KERNEL32.dll
 0000:fff25000       .debug$S                   10000000     kernel32:KERNEL32.dll
 0000:fff25000       .debug$S                   10000000     kernel32:KERNEL32.dll
 0000:fff25000       .debug$S                   10000000     kernel32:KERNEL32.dll
 0000:fff25000       .debug$S                   10000000     kernel32:KERNEL32.dll
 0000:fff25000       .debug$S                   10000000     kernel32:KERNEL32.dll
 0000:fff25000       .debug$S                   10000000     kernel32:KERNEL32.dll
 0000:fff25000       .debug$S                   10000000     kernel32:KERNEL32.dll
 0000:fff25000       .debug$S                   10000000     kernel32:KERNEL32.dll
 0000:fff25000       .debug$S                   10000000     kernel32:KERNEL32.dll
 0000:fff25000       .debug$S                   10000000     kernel32:KERNEL32.dll
 0000:fff25000       .debug$S                   10000000     kernel32:KERNEL32.dll
 0000:fff25000       .debug$S                   10000000     kernel32:KERNEL32.dll
 0000:fff25000       .debug$S                   10000000     kernel32:KERNEL32.dll
 0000:fff25000       .debug$S                   10000000     kernel32:KERNEL32.dll
 0000:fff25000       .debug$S                   10000000     kernel32:KERNEL32.dll
 0000:fff25000       .debug$S                   10000000     kernel32:KERNEL32.dll
 0000:fff25000       .debug$S                   10000000     kernel32:KERNEL32.dll
 0000:fff25000       .debug$S                   10000000     kernel32:KERNEL32.dll
 0000:fff25000       .debug$S                   10000000     kernel32:KERNEL32.dll
 0000:fff25000       .debug$S                   10000000     advapi32:ADVAPI32.dll
 0000:fff25000       .debug$S                   10000000     advapi32:ADVAPI32.dll
 0000:fff25000       .debug$S                   10000000     advapi32:ADVAPI32.dll
 0000:fff25000       .debug$S                   10000000     node:node.exe
 0000:fff25000       .debug$S                   10000000     node:node.exe
 0000:fff25000       .debug$S                   10000000     ole32:ole32.dll
 0000:fff25000       .debug$S                   10000000     ole32:ole32.dll
 0000:fff25000       .debug$S                   10000000     ole32:ole32.dll
 0000:fff25000       .debug$S                   10000000     node:node.exe
 0000:fff25000       .debug$S                   10000000     node:node.exe
 0000:fff25000       .debug$S                   10000000     git.exp
 0000:fff25000       .debug$S                   10000000     ws2_32:WS2_32.dll
 0000:fff25000       .debug$S                   10000000     ws2_32:WS2_32.dll
 0000:fff25000       .debug$S                   10000000     ws2_32:WS2_32.dll
 0000:fff25000       .debug$S                   10000000     ws2_32:WS2_32.dll
 0000:fff25000       .debug$S                   10000000     ws2_32:WS2_32.dll
 0000:fff25000       .debug$S                   10000000     ws2_32:WS2_32.dll
 0000:fff25000       .debug$S                   10000000     ws2_32:WS2_32.dll
 0000:fff25000       .debug$S                   10000000     ws2_32:WS2_32.dll
 0000:fff25000       .debug$S                   10000000     ws2_32:WS2_32.dll
 0000:fff25000       .debug$S                   10000000     ws2_32:WS2_32.dll
 0000:fff25000       .debug$S                   10000000     ws2_32:WS2_32.dll
 0000:fff25000       .debug$S                   10000000     ws2_32:WS2_32.dll
 0000:fff25000       .debug$S                   10000000     ws2_32:WS2_32.dll
 0000:fff25000       .debug$S                   10000000     ws2_32:WS2_32.dll
 0000:fff25000       .debug$S                   10000000     ws2_32:WS2_32.dll
 0000:fff25000       .debug$S                   10000000     winhttp:WINHTTP.dll
 0000:fff25000       .debug$S                   10000000     winhttp:WINHTTP.dll
 0000:fff25000       .debug$S                   10000000     winhttp:WINHTTP.dll
 0000:fff25000       .debug$S                   10000000     winhttp:WINHTTP.dll
 0000:fff25000       .debug$S                   10000000     winhttp:WINHTTP.dll
 0000:fff25000       .debug$S                   10000000     winhttp:WINHTTP.dll
 0000:fff25000       .debug$S                   10000000     winhttp:WINHTTP.dll
 0000:fff25000       .debug$S                   10000000     winhttp:WINHTTP.dll
 0000:fff25000       .debug$S                   10000000     node:node.exe
 0000:fff25000       .debug$S                   10000000     winhttp:WINHTTP.dll
 0000:fff25000       .debug$S                   10000000     winhttp:WINHTTP.dll
 0000:fff25000       .debug$S                   10000000     winhttp:WINHTTP.dll
 0000:fff25000       .debug$S                   10000000     winhttp:WINHTTP.dll
 0000:fff25000       .debug$S                   10000000     winhttp:WINHTTP.dll
 0000:fff25000       .debug$S                   10000000     winhttp:WINHTTP.dll
 0000:fff25000       .debug$S                   10000000     rpcrt4:RPCRT4.dll
 0000:fff25000       .debug$S                   10000000     crypt32:CRYPT32.dll
 0000:fff25000       .debug$S                   10000000     node:node.exe
 0000:fff25000       .debug$S                   10000000     node:node.exe
 0000:fff25000       .debug$S                   10000000     node:node.exe
 0000:fff25000       .debug$S                   10000000     node:node.exe
 0000:fff25000       .debug$S                   10000000     node:node.exe
 0000:fff25000       .debug$S                   10000000     node:node.exe
 0000:fff25000       .debug$S                   10000000     node:node.exe
 0000:fff25000       .debug$S                   10000000     node:node.exe
 0000:fff25000       .debug$S                   10000000     node:node.exe
 0000:fff25000       .debug$S                   10000000     node:node.exe
 0000:fff25000       .debug$S                   10000000     node:node.exe
 0000:fff25000       .debug$S                   10000000     node:node.exe
 0000:fff25000       .debug$S                   10000000     node:node.exe
 0000:fff25000       .debug$S                   10000000     node:node.exe
 0000:fff25000       .debug$S                   10000000     node:node.exe
 0000:fff25000       .debug$S                   10000000     node:node.exe
 0000:fff25000       .debug$S                   10000000     node:node.exe
 0000:fff25000       .debug$S                   10000000     node:node.exe
 0000:fff25000       .debug$S                   10000000     node:node.exe
 0000:fff25000       .debug$S                   10000000     node:node.exe
 0000:fff25000       .debug$S                   10000000     node:node.exe
 0000:fff25000       .debug$S                   10000000     node:node.exe
 0000:fff25000       .debug$S                   10000000     node:node.exe
 0000:fff25000       .debug$S                   10000000     node:node.exe
 0000:fff25000       .debug$S                   10000000     node:node.exe
 0000:fff25000       .debug$S                   10000000     node:node.exe
 0000:fff25000       .debug$S                   10000000     node:node.exe
 0000:fff25000       .debug$S                   10000000     node:node.exe
 0000:fff25000       .debug$S                   10000000     node:node.exe
 0000:fff25000       .debug$S                   10000000     node:node.exe
 0000:fff25000       .debug$S                   10000000     node:node.exe
 0000:fff25000       .debug$S                   10000000     node:node.exe
 0000:fff25000       .debug$S                   10000000     node:node.exe
 0000:fff25000       .debug$S                   10000000     node:node.exe
 0000:fff25000       .debug$S                   10000000     node:node.exe
 0000:fff25000       .debug$S                   10000000     node:node.exe
 0000:fff25000       .debug$S                   10000000     node:node.exe
 0000:fff25000       .debug$S                   10000000     node:node.exe
 0000:fff25000       .debug$S                   10000000     node:node.exe
 0000:fff25000       .debug$S                   10000000     node:node.exe
 0000:fff25000       .debug$S                   10000000     node:node.exe
 0000:fff25000       .debug$S                   10000000     node:node.exe
 0000:fff25000       .debug$S                   10000000     node:node.exe
 0000:fff25000       .debug$S                   10000000     node:node.exe
 0000:fff25000       .debug$S                   10000000     node:node.exe
 0000:fff25000       .debug$S                   10000000     node:node.exe
 0000:fff25000       .debug$S                   10000000     node:node.exe
 0000:fff25000       .debug$S                   10000000     node:node.exe
 0001:00000000       ?FunctionCallbackWrapper@imp@Nan@@YAXABV?$FunctionCallbackInfo@VValue@v8@@@v8@@@Z 10001000 f   repository.obj
 0001:000007b0       __register_git             100017b0 f   repository.obj
 0001:000067c0       _git_oid__cmp              100077c0 f   libgit2:pack.obj
 0001:000067c0       _git_oid__cmp              100077c0 f   libgit2:checkout.obj
 0001:000067c0       _git_oid__cmp              100077c0 f   libgit2:diff.obj
 0001:000067c0       _git_oid__cmp              100077c0 f   libgit2:merge.obj
 0001:000067e0       _git_path_equal_or_prefixed 100077e0 f   libgit2:checkout.obj
 0001:00006860       _git_iterator_advance      10007860 f   libgit2:checkout.obj
 0001:00006870       _git_iterator_advance_into 10007870 f   libgit2:checkout.obj
 0001:00006880       _checkout_notify           10007880 f   libgit2:checkout.obj
 0001:000069ac       $LN26                      100079ac     libgit2:checkout.obj
 0001:000069b8       $LN23                      100079b8     libgit2:checkout.obj
 0001:000069d0       _is_workdir_base_or_new    100079d0 f   libgit2:checkout.obj
 0001:00006a30       _checkout_is_workdir_modified 10007a30 f   libgit2:checkout.obj
 0001:00006be0       _checkout_action_common    10007be0 f   libgit2:checkout.obj
 0001:00006c80       _checkout_action_no_wd     10007c80 f   libgit2:checkout.obj
 0001:00006d58       $LN23                      10007d58     libgit2:checkout.obj
 0001:00006d80       _wd_item_is_removable      10007d80 f   libgit2:checkout.obj
 0001:00006dc0       _checkout_queue_remove     10007dc0 f   libgit2:checkout.obj
 0001:00006e30       _checkout_action_wd_only   10007e30 f   libgit2:checkout.obj
 0001:000071b0       _submodule_is_config_only  100081b0 f   libgit2:checkout.obj
 0001:00007250       _checkout_action_with_wd   10008250 f   libgit2:checkout.obj
 0001:00007484       $LN35                      10008484     libgit2:checkout.obj
 0001:000074b0       _checkout_action_with_wd_blocker 100084b0 f   libgit2:checkout.obj
 0001:00007530       $LN17                      10008530     libgit2:checkout.obj
 0001:00007560       _checkout_action_with_wd_dir 10008560 f   libgit2:checkout.obj
 0001:0000767c       $LN33                      1000867c     libgit2:checkout.obj
 0001:000076a0       _checkout_action           100086a0 f   libgit2:checkout.obj
 0001:00007960       _checkout_remaining_wd_items 10008960 f   libgit2:checkout.obj
 0001:00007d90       _checkout_idxentry_cmp     10008d90 f   libgit2:checkout.obj
 0001:00007de0       _checkout_conflictdata_cmp 10008de0 f   libgit2:checkout.obj
 0001:00007e90       _conflict_pathspec_match   10008e90 f   libgit2:checkout.obj
 0001:00007fc0       _checkout_conflict_detect_submodule 10008fc0 f   libgit2:checkout.obj
 0001:00008030       _checkout_conflict_detect_binary 10009030 f   libgit2:checkout.obj
 0001:00008170       _checkout_conflict_append_update 10009170 f   libgit2:checkout.obj
 0001:000081f0       _checkout_conflicts_foreach 100091f0 f   libgit2:checkout.obj
 0001:000082e0       _checkout_conflicts_cmp_ancestor 100092e0 f   libgit2:checkout.obj
 0001:00008320       _checkout_conflicts_search_ancestor 10009320 f   libgit2:checkout.obj
 0001:000083b0       _checkout_conflicts_search_branch 100093b0 f   libgit2:checkout.obj
 0001:00008460       _checkout_conflicts_load_byname_entry 10009460 f   libgit2:checkout.obj
 0001:00008640       _checkout_conflicts_coalesce_renames 10009640 f   libgit2:checkout.obj
 0001:000087c0       _checkout_conflicts_mark_directoryfile 100097c0 f   libgit2:checkout.obj
 0001:00008910       _checkout_get_update_conflicts 10009910 f   libgit2:checkout.obj
 0001:00008990       _checkout_conflict_append_remove 10009990 f   libgit2:checkout.obj
 0001:00008a00       _checkout_verify_paths     10009a00 f   libgit2:checkout.obj
 0001:00008a80       _checkout_get_actions      10009a80 f   libgit2:checkout.obj
 0001:00008d90       _checkout_mkdir            10009d90 f   libgit2:checkout.obj
 0001:00008e10       _mkpath2file               10009e10 f   libgit2:checkout.obj
 0001:00008f70       _checkout_stream_write     10009f70 f   libgit2:checkout.obj
 0001:00008fb0       _checkout_stream_close     10009fb0 f   libgit2:checkout.obj
 0001:00008ff0       _checkout_stream_free      10009ff0 f   libgit2:checkout.obj
 0001:00008ff0       _buf_stream_free           10009ff0 f   libgit2:filter.obj
 0001:00008ff0       _empty_iterator__free      10009ff0 f   libgit2:iterator.obj
 0001:00009000       _blob_content_to_file      1000a000 f   libgit2:checkout.obj
 0001:000091d0       _blob_content_to_link      1000a1d0 f   libgit2:checkout.obj
 0001:000092d0       _checkout_update_index     1000a2d0 f   libgit2:checkout.obj
 0001:000093a0       _checkout_submodule_update_index 1000a3a0 f   libgit2:checkout.obj
 0001:00009490       _checkout_submodule        1000a490 f   libgit2:checkout.obj
 0001:00009560       _report_progress           1000a560 f   libgit2:checkout.obj
 0001:00009580       _checkout_safe_for_update_only 1000a580 f   libgit2:checkout.obj
 0001:00009650       _checkout_write_content    1000a650 f   libgit2:checkout.obj
 0001:000096e0       _checkout_blob             1000a6e0 f   libgit2:checkout.obj
 0001:00009800       _checkout_remove_the_old   1000a800 f   libgit2:checkout.obj
 0001:00009990       _checkout_create_the_new   1000a990 f   libgit2:checkout.obj
 0001:00009a20       _checkout_create_submodules 1000aa20 f   libgit2:checkout.obj
 0001:00009ab0       _checkout_lookup_head_tree 1000aab0 f   libgit2:checkout.obj
 0001:00009b40       _conflict_entry_name       1000ab40 f   libgit2:checkout.obj
 0001:00009be0       _checkout_path_suffixed    1000abe0 f   libgit2:checkout.obj
 0001:00009d90       _checkout_write_entry      1000ad90 f   libgit2:checkout.obj
 0001:00009ec0       _checkout_merge_path       1000aec0 f   libgit2:checkout.obj
 0001:00009f90       _checkout_write_merge      1000af90 f   libgit2:checkout.obj
 0001:0000a440       _checkout_conflict_update_index 1000b440 f   libgit2:checkout.obj
 0001:0000a500       _checkout_create_conflicts 1000b500 f   libgit2:checkout.obj
 0001:0000a720       _checkout_remove_conflicts 1000b720 f   libgit2:checkout.obj
 0001:0000a790       _checkout_extensions_update_index 1000b790 f   libgit2:checkout.obj
 0001:0000a840       _checkout_data_clear       1000b840 f   libgit2:checkout.obj
 0001:0000a9f0       _checkout_data_init        1000b9f0 f   libgit2:checkout.obj
 0001:0000b600       _git__malloc               1000c600 f   libgit2:pack-objects.obj
 0001:0000b600       _git__malloc               1000c600 f   libgit2:xhistogram.obj
 0001:0000b600       _git__malloc               1000c600 f   libgit2:filebuf.obj
 0001:0000b600       _git__malloc               1000c600 f   libgit2:delta.obj
 0001:0000b600       _git__malloc               1000c600 f   libgit2:commit.obj
 0001:0000b620       _git__strdup               1000c620 f   libgit2:commit.obj
 0001:0000b650       _git__strndup              1000c650 f   libgit2:netops.obj
 0001:0000b650       _git__strndup              1000c650 f   libgit2:tree.obj
 0001:0000b650       _git__strndup              1000c650 f   libgit2:commit.obj
 0001:0000b650       _git__strndup              1000c650 f   libgit2:refspec.obj
 0001:0000b650       _git__strndup              1000c650 f   libgit2:config_file.obj
 0001:0000b6b0       _git_array_grow            1000c6b0 f   libgit2:commit.obj
 0001:0000b6b0       _git_array_grow            1000c6b0 f   libgit2:merge.obj
 0001:0000b810       _git_commit__create_internal 1000c810 f   libgit2:commit.obj
 0001:0000bbe0       _commit_parent_from_varargs 1000cbe0 f   libgit2:commit.obj
 0001:0000bc90       _commit_parent_from_ids    1000cc90 f   libgit2:commit.obj
 0001:0000bd00       _commit_parent_from_array  1000cd00 f   libgit2:commit.obj
 0001:0000bdf0       _commit_parent_for_amend   1000cdf0 f   libgit2:commit.obj
 0001:0000d050       _git__reallocarray         1000e050 f   libgit2:revwalk.obj
 0001:0000d050       _git__reallocarray         1000e050 f   libgit2:indexer.obj
 0001:0000d050       _git__reallocarray         1000e050 f   libgit2:mwindow.obj
 0001:0000d050       _git__reallocarray         1000e050 f   libgit2:cache.obj
 0001:0000d050       _git__reallocarray         1000e050 f   libgit2:fileops.obj
 0001:0000d050       _git__reallocarray         1000e050 f   libgit2:index.obj
 0001:0000d050       _git__reallocarray         1000e050 f   libgit2:transaction.obj
 0001:0000d050       _git__reallocarray         1000e050 f   libgit2:submodule.obj
 0001:0000d050       _git__reallocarray         1000e050 f   libgit2:attrcache.obj
 0001:0000d050       _git__reallocarray         1000e050 f   libgit2:sortedcache.obj
 0001:0000d050       _git__reallocarray         1000e050 f   libgit2:attr.obj
 0001:0000d090       _str_hash_no_trailing_slash 1000e090 f   libgit2:submodule.obj
 0001:0000d0d0       _str_equal_no_trailing_slash 1000e0d0 f   libgit2:submodule.obj
 0001:0000d150       _kh_get_str                1000e150 f   libgit2:submodule.obj
 0001:0000d280       _kh_resize_str             1000e280 f   libgit2:submodule.obj
 0001:0000d590       _kh_put_str                1000e590 f   libgit2:submodule.obj
 0001:0000d760       _submodule_cmp             1000e760 f   libgit2:submodule.obj
 0001:0000d760       _push_spec_rref_cmp        1000e760 f   libgit2:push.obj
 0001:0000d7a0       _submodule_config_key_trunc_puts 1000e7a0 f   libgit2:submodule.obj
 0001:0000d7f0       _find_by_path              1000e7f0 f   libgit2:submodule.obj
 0001:0000d8b0       _name_from_path            1000e8b0 f   libgit2:submodule.obj
 0001:0000dcb0       _submodule_free_dup        1000ecb0 f   libgit2:submodule.obj
 0001:0000dcd0       _submodule_get_or_create   1000ecd0 f   libgit2:submodule.obj
 0001:0000dd90       _submodules_from_index     1000ed90 f   libgit2:submodule.obj
 0001:0000df70       _submodules_from_head      1000ef70 f   libgit2:submodule.obj
 0001:0000e260       _all_submodules            1000f260 f   libgit2:submodule.obj
 0001:0000e6e0       _submodule_repo_init       1000f6e0 f   libgit2:submodule.obj
 0001:0000f130       _write_var                 10010130 f   libgit2:submodule.obj
 0001:0000f5d0       _submodule_repo_create     100105d0 f   libgit2:submodule.obj
 0001:0000f720       _git_submodule_update_repo_init_cb 10010720 f   libgit2:submodule.obj
 0001:00010010       _git_submodule__open       10011010 f   libgit2:submodule.obj
 0001:00010210       _submodule_update_from_index_entry 10011210 f   libgit2:submodule.obj
 0001:00010270       _submodule_update_head     10011270 f   libgit2:submodule.obj
 0001:00010640       _submodule_alloc           10011640 f   libgit2:submodule.obj
 0001:00010730       _submodule_release         10011730 f   libgit2:submodule.obj
 0001:00010880       _get_value                 10011880 f   libgit2:submodule.obj
 0001:000108e0       _submodule_read_config     100118e0 f   libgit2:submodule.obj
 0001:00010c00       _submodule_load_each       10011c00 f   libgit2:submodule.obj
 0001:00010d70       _submodule_load_from_wd_lite 10011d70 f   libgit2:submodule.obj
 0001:00010e60       _gitmodules_snapshot       10011e60 f   libgit2:submodule.obj
 0001:00010f50       _open_gitmodules           10011f50 f   libgit2:submodule.obj
 0001:00011030       _lookup_head_remote_key    10012030 f   libgit2:submodule.obj
 0001:00011150       _lookup_default_remote     10012150 f   libgit2:submodule.obj
 0001:000111f0       _get_url_base              100121f0 f   libgit2:submodule.obj
 0001:000112e0       _submodule_get_index_status 100122e0 f   libgit2:submodule.obj
 0001:00011380       _submodule_get_wd_status   10012380 f   libgit2:submodule.obj
 0001:000115e0       _git__reallocarray         100125e0 f   libgit2:tree.obj
 0001:000115e0       _git__reallocarray         100125e0 f   libgit2:pack-objects.obj
 0001:000115e0       _git__reallocarray         100125e0 f   libgit2:diff_driver.obj
 0001:000115e0       _git__reallocarray         100125e0 f   libgit2:config_file.obj
 0001:000115e0       _git__reallocarray         100125e0 f   libgit2:pack.obj
 0001:00011620       _git_array_grow            10012620 f   libgit2:repository.obj
 0001:00011620       _git_array_grow            10012620 f   libgit2:filter.obj
 0001:00011620       _git_array_grow            10012620 f   libgit2:tree.obj
 0001:000116c0       _git_array__search         100126c0 f   libgit2:tree.obj
 0001:00011740       _kh_get_str                10012740 f   libgit2:attr.obj
 0001:00011740       _kh_get_str                10012740 f   libgit2:fileops.obj
 0001:00011740       _kh_get_str                10012740 f   libgit2:config_file.obj
 0001:00011740       _kh_get_str                10012740 f   libgit2:tree.obj
 0001:00011740       _kh_get_str                10012740 f   libgit2:diff_driver.obj
 0001:00011740       _kh_get_str                10012740 f   libgit2:transaction.obj
 0001:00011740       _kh_get_str                10012740 f   libgit2:sortedcache.obj
 0001:00011740       _kh_get_str                10012740 f   libgit2:attrcache.obj
 0001:00011850       _kh_resize_str             10012850 f   libgit2:diff_driver.obj
 0001:00011850       _kh_resize_str             10012850 f   libgit2:config_file.obj
 0001:00011850       _kh_resize_str             10012850 f   libgit2:tree.obj
 0001:00011b90       _kh_put_str                10012b90 f   libgit2:tree.obj
 0001:00011b90       _kh_put_str                10012b90 f   libgit2:diff_driver.obj
 0001:00011b90       _kh_put_str                10012b90 f   libgit2:config_file.obj
 0001:00011d80       _entry_sort_cmp            10012d80 f   libgit2:tree.obj
 0001:00011e50       _alloc_entry               10012e50 f   libgit2:tree.obj
 0001:00011ef0       _homing_search_cmp         10012ef0 f   libgit2:tree.obj
 0001:00011f70       _tree_key_search           10012f70 f   libgit2:tree.obj
 0001:00012600       _tree_error                10013600 f   libgit2:tree.obj
 0001:00012770       _find_next_dir             10013770 f   libgit2:tree.obj
 0001:000128b0       _append_entry              100138b0 f   libgit2:tree.obj
 0001:00012990       _write_tree                10013990 f   libgit2:tree.obj
 0001:00013770       _tree_walk                 10014770 f   libgit2:tree.obj
 0001:00013a00       _git_array_grow            10014a00 f   libgit2:revwalk.obj
 0001:00013a00       _git_array_grow            10014a00 f   libgit2:pathspec.obj
 0001:00013aa0       _kh_get_oid                10014aa0 f   libgit2:indexer.obj
 0001:00013aa0       _kh_get_oid                10014aa0 f   libgit2:cache.obj
 0001:00013aa0       _kh_get_oid                10014aa0 f   libgit2:revwalk.obj
 0001:00013aa0       _kh_get_oid                10014aa0 f   libgit2:pack-objects.obj
 0001:00013aa0       _kh_get_oid                10014aa0 f   libgit2:pack.obj
 0001:00013b90       _kh_resize_oid             10014b90 f   libgit2:indexer.obj
 0001:00013b90       _kh_resize_oid             10014b90 f   libgit2:cache.obj
 0001:00013b90       _kh_resize_oid             10014b90 f   libgit2:revwalk.obj
 0001:00013e70       _kh_put_oid                10014e70 f   libgit2:cache.obj
 0001:00013e70       _kh_put_oid                10014e70 f   libgit2:revwalk.obj
 0001:00013e70       _kh_put_oid                10014e70 f   libgit2:indexer.obj
 0001:000140f0       _mark_uninteresting        100150f0 f   libgit2:revwalk.obj
 0001:000142b0       _process_commit_parents    100152b0 f   libgit2:revwalk.obj
 0001:00014370       _push_commit               10015370 f   libgit2:revwalk.obj
 0001:00014550       _push_glob                 10015550 f   libgit2:revwalk.obj
 0001:00014b40       _revwalk_enqueue_timesort  10015b40 f   libgit2:revwalk.obj
 0001:00014ba0       _revwalk_enqueue_unsorted  10015ba0 f   libgit2:revwalk.obj
 0001:00014bf0       _revwalk_next_timesort     10015bf0 f   libgit2:revwalk.obj
 0001:00014c80       _revwalk_next_unsorted     10015c80 f   libgit2:revwalk.obj
 0001:00014cd0       _revwalk_next_toposort     10015cd0 f   libgit2:revwalk.obj
 0001:00014eb0       _revwalk_next_reverse      10015eb0 f   libgit2:revwalk.obj
 0001:00014f00       _premark_uninteresting     10015f00 f   libgit2:revwalk.obj
 0001:00015300       _prepare_walk              10016300 f   libgit2:revwalk.obj
 0001:00015a20       _diff_delta__alloc         10016a20 f   libgit2:diff.obj
 0001:00015af0       _diff_insert_delta         10016af0 f   libgit2:diff.obj
 0001:00015b80       _diff_pathspec_match       10016b80 f   libgit2:diff.obj
 0001:00015bf0       _diff_delta__from_one      10016bf0 f   libgit2:diff.obj
 0001:00015d60       _diff_delta__from_two      10016d60 f   libgit2:diff.obj
 0001:00015e90       _diff_delta__last_for_item 10016e90 f   libgit2:diff.obj
 0001:00015f2c       $LN27                      10016f2c     libgit2:diff.obj
 0001:00015f40       $LN25                      10016f40     libgit2:diff.obj
 0001:000160b0       _diff_entry_cmp            100170b0 f   libgit2:diff.obj
 0001:000160f0       _diff_entry_icmp           100170f0 f   libgit2:diff.obj
 0001:00016110       _diff_set_ignore_case      10017110 f   libgit2:diff.obj
 0001:000161f0       _diff_list_alloc           100171f0 f   libgit2:diff.obj
 0001:000163b0       _diff_list_apply_options   100173b0 f   libgit2:diff.obj
 0001:00016730       $LN78                      10017730     libgit2:diff.obj
 0001:00016744       $LN79                      10017744     libgit2:diff.obj
 0001:00016760       _diff_list_free            10017760 f   libgit2:diff.obj
 0001:00016be0       _maybe_modified_submodule  10017be0 f   libgit2:diff.obj
 0001:00016ce0       _maybe_modified            10017ce0 f   libgit2:diff.obj
 0001:000173a0       _entry_is_prefixed         100183a0 f   libgit2:diff.obj
 0001:00017400       _iterator_advance          10018400 f   libgit2:diff.obj
 0001:000174b0       _iterator_advance_into     100184b0 f   libgit2:diff.obj
 0001:000174d0       _handle_unmatched_new_item 100184d0 f   libgit2:diff.obj
 0001:00017830       _handle_unmatched_old_item 10018830 f   libgit2:diff.obj
 0001:00019450       _set_error                 1001a450 f   libgit2:errors.obj
 0001:00019ae0       _valid_repository_path     1001aae0 f   libgit2:repository.obj
 0001:00019b30       _repository_alloc          1001ab30 f   libgit2:repository.obj
 0001:00019c40       _load_config_data          1001ac40 f   libgit2:repository.obj
 0001:00019cb0       _load_workdir              1001acb0 f   libgit2:repository.obj
 0001:00019db0       _find_ceiling_dir_offset   1001adb0 f   libgit2:repository.obj
 0001:00019f10       _read_gitfile              1001af10 f   libgit2:repository.obj
 0001:0001a040       _find_repo                 1001b040 f   libgit2:repository.obj
 0001:0001a760       _load_config               1001b760 f   libgit2:repository.obj
 0001:0001b040       _reserved_names_add8dot3   1001c040 f   libgit2:repository.obj
 0001:0001b200       _check_repositoryformatversion 1001c200 f   libgit2:repository.obj
 0001:0001b240       _repo_init_create_head     1001c240 f   libgit2:repository.obj
 0001:0001b390       _is_chmod_supported        1001c390 f   libgit2:repository.obj
 0001:0001b430       _is_filesystem_case_insensitive 1001c430 f   libgit2:repository.obj
 0001:0001b500       _are_symlinks_supported    1001c500 f   libgit2:repository.obj
 0001:0001b5c0       _create_empty_file         1001c5c0 f   libgit2:repository.obj
 0001:0001b660       _repo_local_config         1001c660 f   libgit2:repository.obj
 0001:0001b780       _repo_init_fs_configs      1001c780 f   libgit2:repository.obj
 0001:0001b880       _repo_init_config          1001c880 f   libgit2:repository.obj
 0001:0001bca0       _repo_reinit_submodule_fs  1001cca0 f   libgit2:repository.obj
 0001:0001be00       _repo_write_template       1001ce00 f   libgit2:repository.obj
 0001:0001bf00       _repo_write_gitlink        1001cf00 f   libgit2:repository.obj
 0001:0001c130       _repo_init_structure       1001d130 f   libgit2:repository.obj
 0001:0001c3d0       _repo_init_directories     1001d3d0 f   libgit2:repository.obj
 0001:0001c6b0       _default_repository_create 1001d6b0 f   libgit2:clone.obj
 0001:0001cb30       _at_least_one_cb           1001db30 f   libgit2:repository.obj
 0001:0001d410       _checkout_message          1001e410 f   libgit2:repository.obj
 0001:0001d7f0       _detach                    1001e7f0 f   libgit2:repository.obj
 0001:0001e2b0       _alloc_ref                 1001f2b0 f   libgit2:refs.obj
 0001:0001e660       _reference_normalize_for_repo 1001f660 f   libgit2:refs.obj
 0001:0001ebe0       _reference__create         1001fbe0 f   libgit2:refs.obj
 0001:0001f160       _reference__rename         10020160 f   libgit2:refs.obj
 0001:0001f860       _cb__reflist_add           10020860 f   libgit2:refs.obj
 0001:0001f930       _ensure_segment_validity   10020930 f   libgit2:refs.obj
 0001:0001f9a4       $LN34                      100209a4     libgit2:refs.obj
 0001:0001f9ac       $LN31                      100209ac     libgit2:refs.obj
 0001:0001fa10       _is_all_caps_and_underscore 10020a10 f   libgit2:refs.obj
 0001:0001fe00       _get_terminal              10020e00 f   libgit2:refs.obj
 0001:000211b4       $LN33                      100221b4     libgit2:util.obj
 0001:000212d0       _index_delta2status        100222d0 f   libgit2:status.obj
 0001:00021328       $LN14                      10022328     libgit2:status.obj
 0001:00021350       _workdir_delta2status      10022350 f   libgit2:status.obj
 0001:00021494       $LN19                      10022494     libgit2:status.obj
 0001:000214c0       _status_collect            100224c0 f   libgit2:status.obj
 0001:00021580       _status_entry_icmp         10022580 f   libgit2:status.obj
 0001:000215d0       _status_entry_cmp          100225d0 f   libgit2:status.obj
 0001:00021630       _git_status_list_alloc     10022630 f   libgit2:status.obj
 0001:00021690       _status_validate_options   10022690 f   libgit2:status.obj
 0001:00021c60       _get_one_status            10022c60 f   libgit2:status.obj
 0001:00021f10       _giterr_set_after_callback_function 10022f10 f   libgit2:path.obj
 0001:00021f10       _giterr_set_after_callback_function 10022f10 f   libgit2:pack-objects.obj
 0001:00021f10       _giterr_set_after_callback_function 10022f10 f   libgit2:index.obj
 0001:00021f10       _giterr_set_after_callback_function 10022f10 f   libgit2:diff_print.obj
 0001:00021f50       _git_object__type_from_filemode 10022f50 f   libgit2:index.obj
 0001:00021f90       _idxentry_hash             10022f90 f   libgit2:index.obj
 0001:00021fe0       _kh_get_idx                10022fe0 f   libgit2:index.obj
 0001:000220e0       _kh_resize_idx             100230e0 f   libgit2:index.obj
 0001:000220e0       _kh_resize_idxicase        100230e0 f   libgit2:index.obj
 0001:00022410       _kh_put_idx                10023410 f   libgit2:index.obj
 0001:00022600       _kh_get_idxicase           10023600 f   libgit2:index.obj
 0001:000226e0       _kh_put_idxicase           100236e0 f   libgit2:index.obj
 0001:000229e0       _index_entry_srch_path     100239e0 f   libgit2:index.obj
 0001:00022a20       _index_entry_isrch_path    10023a20 f   libgit2:index.obj
 0001:00022ae0       _conflict_name_cmp         10023ae0 f   libgit2:index.obj
 0001:00022b70       _reuc_srch                 10023b70 f   libgit2:index.obj
 0001:00022bb0       _reuc_isrch                10023bb0 f   libgit2:index.obj
 0001:00022bd0       _reuc_cmp                  10023bd0 f   libgit2:index.obj
 0001:00022c10       _reuc_icmp                 10023c10 f   libgit2:index.obj
 0001:00022c30       _index_entry_free          10023c30 f   libgit2:index.obj
 0001:00022c50       _index_merge_mode          10023c50 f   libgit2:index.obj
 0001:00022d00       _index_find                10023d00 f   libgit2:index.obj
 0001:00023120       _index_free                10024120 f   libgit2:index.obj
 0001:000232b0       _index_free_deleted        100242b0 f   libgit2:index.obj
 0001:00023320       _index_remove_entry        10024320 f   libgit2:index.obj
 0001:00023730       _compare_checksum          10024730 f   libgit2:index.obj
 0001:00023a30       _truncate_racily_clean     10024a30 f   libgit2:index.obj
 0001:00023f60       _index_entry_create        10024f60 f   libgit2:index.obj
 0001:00024020       _index_entry_init          10025020 f   libgit2:index.obj
 0001:00024120       _reuc_entry_alloc          10025120 f   libgit2:index.obj
 0001:000241a0       _index_entry_reuc_init     100251a0 f   libgit2:index.obj
 0001:00024290       _index_entry_cpy           10025290 f   libgit2:index.obj
 0001:000242c0       _has_file_name             100252c0 f   libgit2:index.obj
 0001:00024510       _has_dir_name              10025510 f   libgit2:index.obj
 0001:00024790       _canonicalize_directory_path 10025790 f   libgit2:index.obj
 0001:00024920       _index_no_dups             10025920 f   libgit2:index.obj
 0001:00024950       _index_existing_and_best   10025950 f   libgit2:index.obj
 0001:00024ab0       _index_insert              10025ab0 f   libgit2:index.obj
 0001:00024d80       _index_conflict_to_reuc    10025d80 f   libgit2:index.obj
 0001:00025000       _add_repo_as_submodule     10026000 f   libgit2:index.obj
 0001:00025d30       _index_conflict__get_byindex 10026d30 f   libgit2:index.obj
 0001:00025ed0       _index_conflict_remove     10026ed0 f   libgit2:index.obj
 0001:00026480       _index_reuc_on_dup         10027480 f   libgit2:index.obj
 0001:000264a0       _index_reuc_insert         100274a0 f   libgit2:index.obj
 0001:000267f0       _read_reuc                 100277f0 f   libgit2:index.obj
 0001:000269b0       _read_conflict_names       100279b0 f   libgit2:index.obj
 0001:00026bf0       _read_entry                10027bf0 f   libgit2:index.obj
 0001:00026e40       _read_extension            10027e40 f   libgit2:index.obj
 0001:00026f50       _parse_index               10027f50 f   libgit2:index.obj
 0001:00027270       _is_index_extended         10028270 f   libgit2:index.obj
 0001:000272c0       _write_disk_entry          100282c0 f   libgit2:index.obj
 0001:000273d0       _write_entries             100283d0 f   libgit2:index.obj
 0001:00027480       _create_name_extension_data 10028480 f   libgit2:index.obj
 0001:00027540       _write_name_extension      10028540 f   libgit2:index.obj
 0001:00027620       _create_reuc_extension_data 10028620 f   libgit2:index.obj
 0001:00027770       _write_reuc_extension      10028770 f   libgit2:index.obj
 0001:00027850       _write_tree_extension      10028850 f   libgit2:index.obj
 0001:00027970       _write_index               10028970 f   libgit2:index.obj
 0001:00027af0       _read_tree_cb              10028af0 f   libgit2:index.obj
 0001:000280f0       _apply_each_file           100290f0 f   libgit2:index.obj
 0001:00028180       _index_apply_to_wd_diff    10029180 f   libgit2:index.obj
 0001:00028380       _index_apply_to_all        10029380 f   libgit2:index.obj
 0001:00028970       _git_array_grow            10029970 f   libgit2:diff_patch.obj
 0001:00028a10       _diff_patch_update_binary  10029a10 f   libgit2:diff_patch.obj
 0001:00028a80       _diff_patch_normalize_options 10029a80 f   libgit2:diff_patch.obj
 0001:00028bd0       _diff_patch_init_from_diff 10029bd0 f   libgit2:diff_patch.obj
 0001:00028d38       $LN56                      10029d38     libgit2:diff_patch.obj
 0001:00028d44       $LN52                      10029d44     libgit2:diff_patch.obj
 0001:00028d50       $LN57                      10029d50     libgit2:diff_patch.obj
 0001:00028d60       $LN53                      10029d60     libgit2:diff_patch.obj
 0001:00028d70       _diff_patch_alloc_from_diff 10029d70 f   libgit2:diff_patch.obj
 0001:00028de0       _diff_patch_diffable       10029de0 f   libgit2:diff_patch.obj
 0001:00028e50       _diff_patch_load           10029e50 f   libgit2:diff_patch.obj
 0001:00029040       _diff_patch_invoke_file_callback 1002a040 f   libgit2:diff_patch.obj
 0001:000290e0       _create_binary             1002a0e0 f   libgit2:diff_patch.obj
 0001:000292a0       _diff_binary               1002a2a0 f   libgit2:diff_patch.obj
 0001:00029390       _diff_patch_generate       1002a390 f   libgit2:diff_patch.obj
 0001:00029420       _diff_patch_free           1002a420 f   libgit2:diff_patch.obj
 0001:000296d0       _diff_single_generate      1002a6d0 f   libgit2:diff_patch.obj
 0001:00029790       _diff_patch_from_sources   1002a790 f   libgit2:diff_patch.obj
 0001:000298c0       _diff_patch_with_delta_alloc 1002a8c0 f   libgit2:diff_patch.obj
 0001:00029a10       _diff_from_sources         1002aa10 f   libgit2:diff_patch.obj
 0001:00029af0       _patch_from_sources        1002aaf0 f   libgit2:diff_patch.obj
 0001:0002a480       _empty_iterator__reset     1002b480 f   libgit2:iterator.obj
 0001:0002a480       _diff_patch_file_cb        1002b480 f   libgit2:diff_patch.obj
 0001:0002a480       _fs_iterator__seek         1002b480 f   libgit2:iterator.obj
 0001:0002a490       _diff_patch_binary_cb      1002b490 f   libgit2:diff_patch.obj
 0001:0002a540       _diff_patch_hunk_cb        1002b540 f   libgit2:diff_patch.obj
 0001:0002a5c0       _diff_patch_line_cb        1002b5c0 f   libgit2:diff_patch.obj
 0001:0002a6e0       _diff_output_to_patch      1002b6e0 f   libgit2:diff_patch.obj
 0001:0002a720       _does_negate_pattern       1002b720 f   libgit2:ignore.obj
 0001:0002a810       _does_negate_rule          1002b810 f   libgit2:ignore.obj
 0001:0002aa60       _parse_ignore_file         1002ba60 f   libgit2:ignore.obj
 0001:0002ac20       _push_ignore_file          1002bc20 f   libgit2:ignore.obj
 0001:0002ac90       _push_one_ignore           1002bc90 f   libgit2:ignore.obj
 0001:0002ad00       _get_internal_ignores      1002bd00 f   libgit2:ignore.obj
 0001:0002b250       _ignore_lookup_in_rules    1002c250 f   libgit2:ignore.obj
 0001:0002ba60       _config_free               1002ca60 f   libgit2:config.obj
 0001:0002bb20       _config_backend_cmp        1002cb20 f   libgit2:config.obj
 0001:0002bdd0       _find_internal_file_by_level 1002cdd0 f   libgit2:config.obj
 0001:0002be50       _duplicate_level           1002ce50 f   libgit2:config.obj
 0001:0002be70       _try_remove_existing_file_internal 1002ce70 f   libgit2:config.obj
 0001:0002bf30       _git_config__add_internal  1002cf30 f   libgit2:config.obj
 0001:0002c130       _all_iter_next             1002d130 f   libgit2:config.obj
 0001:0002c1f0       _all_iter_glob_next        1002d1f0 f   libgit2:config.obj
 0001:0002c260       _all_iter_free             1002d260 f   libgit2:config.obj
 0001:0002c280       _all_iter_glob_free        1002d280 f   libgit2:config.obj
 0001:0002c930       _get_entry                 1002d930 f   libgit2:config.obj
 0001:0002d0a0       _multivar_iter_next        1002e0a0 f   libgit2:config.obj
 0001:0002d79c       $LN25                      1002e79c     libgit2:config.obj
 0001:0002d90c       $LN19                      1002e90c     libgit2:config.obj
 0001:0002d920       $LN13                      1002e920     libgit2:config.obj
 0001:0002dbd0       _rename_config_entries_cb  1002ebd0 f   libgit2:config.obj
 0001:0002de90       _git__multiply_sizet_overflow 1002ee90 f   libgit2:merge.obj
 0001:0002de90       _git__multiply_sizet_overflow 1002ee90 f   libgit2:xdiffi.obj
 0001:0002dec0       _giterr_set_after_callback_function 1002eec0 f   libgit2:merge.obj
 0001:0002e320       _merge_bases               1002f320 f   libgit2:merge.obj
 0001:0002e570       _clear_commit_marks_1      1002f570 f   libgit2:merge.obj
 0001:0002e680       _clear_commit_marks_many   1002f680 f   libgit2:merge.obj
 0001:0002e710       _clear_commit_marks        1002f710 f   libgit2:merge.obj
 0001:0002e770       _paint_down_to_common      1002f770 f   libgit2:merge.obj
 0001:0002ea80       _remove_redundant          1002fa80 f   libgit2:merge.obj
 0001:0002f0e0       _index_entry_cmp           100300e0 f   libgit2:merge.obj
 0001:0002f160       _merge_conflict_resolve_trivial 10030160 f   libgit2:merge.obj
 0001:0002f280       _merge_conflict_resolve_one_removed 10030280 f   libgit2:merge.obj
 0001:0002f310       _merge_conflict_resolve_one_renamed 10030310 f   libgit2:merge.obj
 0001:0002f480       _merge_conflict_resolve_automerge 10030480 f   libgit2:merge.obj
 0001:0002f750       _merge_conflict_resolve    10030750 f   libgit2:merge.obj
 0001:0002f7e0       _index_entry_similarity_exact 100307e0 f   libgit2:merge.obj
 0001:0002f820       _index_entry_similarity_calc 10030820 f   libgit2:merge.obj
 0001:0002f920       _index_entry_similarity_inexact 10030920 f   libgit2:merge.obj
 0001:0002f9f0       _merge_diff_mark_similarity 100309f0 f   libgit2:merge.obj
 0001:0002fc10       _merge_diff_mark_rename_conflict 10030c10 f   libgit2:merge.obj
 0001:0002fd40       _merge_diff_list_coalesce_renames 10030d40 f   libgit2:merge.obj
 0001:0002ff00       _merge_diff_list_count_candidates 10030f00 f   libgit2:merge.obj
 0001:00030150       _path_is_prefixed          10031150 f   libgit2:merge.obj
 0001:000301a0       _merge_diff_detect_df_conflict 100311a0 f   libgit2:merge.obj
 0001:000302d0       _merge_diff_detect_type    100312d0 f   libgit2:merge.obj
 0001:00030350       _index_entry_dup_pool      10031350 f   libgit2:merge.obj
 0001:000303e0       _merge_delta_type_from_index_entries 100313e0 f   libgit2:merge.obj
 0001:000304a0       _merge_diff_from_index_entries 100314a0 f   libgit2:merge.obj
 0001:00030550       _queue_difference          10031550 f   libgit2:merge.obj
 0001:00030800       _merge_normalize_opts      10031800 f   libgit2:merge.obj
 0001:00030940       _merge_index_insert_reuc   10031940 f   libgit2:merge.obj
 0001:00030a30       _index_update_reuc         10031a30 f   libgit2:merge.obj
 0001:00030c10       _index_from_diff_list      10031c10 f   libgit2:merge.obj
 0001:00031190       _insert_head_ids           10032190 f   libgit2:merge.obj
 0001:00031260       _create_virtual_base       10032260 f   libgit2:merge.obj
 0001:00031340       _compute_base              10032340 f   libgit2:merge.obj
 0001:00031550       _iterator_for_annotated_commit 10032550 f   libgit2:merge.obj
 0001:000315e0       _merge_annotated_commits   100325e0 f   libgit2:merge.obj
 0001:00031770       _write_merge_head          10032770 f   libgit2:merge.obj
 0001:000318a0       _write_merge_mode          100328a0 f   libgit2:merge.obj
 0001:000319a0       _msg_entry_is_tracking     100329a0 f   libgit2:merge.obj
 0001:00031a00       _msg_entry_is_tag          10032a00 f   libgit2:merge.obj
 0001:00031a60       _msg_entry_is_remote       10032a60 f   libgit2:merge.obj
 0001:00031ae0       _merge_msg_entries         10032ae0 f   libgit2:merge.obj
 0001:00031b40       _merge_msg_write_entries   10032b40 f   libgit2:merge.obj
 0001:00031c20       _write_merge_msg           10032c20 f   libgit2:merge.obj
 0001:00032160       _merge_ancestor_head       10033160 f   libgit2:merge.obj
 0001:000322f0       _merge_normalize_checkout_opts 100332f0 f   libgit2:merge.obj
 0001:00032430       _merge_check_index         10033430 f   libgit2:merge.obj
 0001:00032670       _merge_check_workdir       10033670 f   libgit2:merge.obj
 0001:00032cb0       _merge_heads               10033cb0 f   libgit2:merge.obj
 0001:00032e00       _merge_preference          10033e00 f   libgit2:merge.obj
 0001:00033700       _write_file_stream         10034700 f   libgit2:blob.obj
 0001:00033970       _write_file_filtered       10034970 f   libgit2:blob.obj
 0001:00033a00       _write_symlink             10034a00 f   libgit2:blob.obj
 0001:00034290       _shutdown_common           10035290 f   libgit2:global.obj
 0001:00034950       _peel_error                10035950 f   libgit2:object.obj
 0001:00034c0c       $LN103                     10035c0c     libgit2:object.obj
 0001:00034c1c       $LN104                     10035c1c     libgit2:object.obj
 0001:00035630       _resize_trie               10036630 f   libgit2:oid.obj
 0001:000356b0       _push_leaf                 100366b0 f   libgit2:oid.obj
 0001:000358d0       _retrieve_branch_reference 100368d0 f   libgit2:branch.obj
 0001:000359a0       _create_branch             100369a0 f   libgit2:branch.obj
 0001:000362a0       _retrieve_upstream_configuration 100372a0 f   libgit2:branch.obj
 0001:00036a90       _unset_upstream            10037a90 f   libgit2:branch.obj
 0001:00036f90       _iterator_pathlist__init   10037f90 f   libgit2:iterator.obj
 0001:00037030       _iterator_pathlist__match  10038030 f   libgit2:iterator.obj
 0001:000370e0       _iterator_pathlist_walk__contains 100380e0 f   libgit2:iterator.obj
 0001:00037160       _iterator_pathlist__update_ignore_case 10038160 f   libgit2:iterator.obj
 0001:000371d0       _iterator__reset_range     100381d0 f   libgit2:iterator.obj
 0001:00037260       _iterator__update_ignore_case 10038260 f   libgit2:iterator.obj
 0001:000372e0       _empty_iterator__noop      100382e0 f   libgit2:iterator.obj
 0001:00037300       _index_iterator__seek      10038300 f   libgit2:iterator.obj
 0001:00037300       _tree_iterator__seek       10038300 f   libgit2:iterator.obj
 0001:00037300       _empty_iterator__seek      10038300 f   libgit2:iterator.obj
 0001:00037310       _empty_iterator__at_end    10038310 f   libgit2:iterator.obj
 0001:00037480       _tree_iterator__current_filename 10038480 f   libgit2:iterator.obj
 0001:000374f0       _tree_iterator__rewrite_filename 100384f0 f   libgit2:iterator.obj
 0001:00037550       _tree_iterator__ci_cmp     10038550 f   libgit2:iterator.obj
 0001:000376b0       _tree_iterator__search_cmp 100386b0 f   libgit2:iterator.obj
 0001:00037720       _tree_iterator__move_to_next 10038720 f   libgit2:iterator.obj
 0001:000377e0       _tree_iterator__set_next   100387e0 f   libgit2:iterator.obj
 0001:000379b0       _tree_iterator__push_frame 100389b0 f   libgit2:iterator.obj
 0001:00037d30       _tree_iterator__pop_all    10038d30 f   libgit2:iterator.obj
 0001:00037e50       _tree_iterator__update_entry 10038e50 f   libgit2:iterator.obj
 0001:00037ef0       _tree_iterator__advance_into_internal 10038ef0 f   libgit2:iterator.obj
 0001:00037f10       _tree_iterator__advance_internal 10038f10 f   libgit2:iterator.obj
 0001:00038020       _tree_iterator__current    10039020 f   libgit2:iterator.obj
 0001:000380a0       _tree_iterator__advance    100390a0 f   libgit2:iterator.obj
 0001:000380d0       _tree_iterator__advance_into 100390d0 f   libgit2:iterator.obj
 0001:00038120       _tree_iterator__reset      10039120 f   libgit2:iterator.obj
 0001:00038160       _tree_iterator__at_end     10039160 f   libgit2:iterator.obj
 0001:00038180       _tree_iterator__free       10039180 f   libgit2:iterator.obj
 0001:00038220       _tree_iterator__create_root_frame 10039220 f   libgit2:iterator.obj
 0001:000384a0       _index_iterator__advance_over_unwanted 100394a0 f   libgit2:iterator.obj
 0001:00038550       _index_iterator__next_prefix_tree 10039550 f   libgit2:iterator.obj
 0001:000385e0       _index_iterator__first_prefix_tree 100395e0 f   libgit2:iterator.obj
 0001:00038680       _index_iterator__current   10039680 f   libgit2:iterator.obj
 0001:000386e0       _index_iterator__at_end    100396e0 f   libgit2:iterator.obj
 0001:000386f0       _index_iterator__advance   100396f0 f   libgit2:iterator.obj
 0001:000387a0       _index_iterator__advance_into 100397a0 f   libgit2:iterator.obj
 0001:00038800       _index_iterator__reset     10039800 f   libgit2:iterator.obj
 0001:000388f0       _index_iterator__free      100398f0 f   libgit2:iterator.obj
 0001:00038b70       _fs_iterator_path_with_stat_cmp 10039b70 f   libgit2:iterator.obj
 0001:00038bb0       _fs_iterator_path_with_stat_cmp_icase 10039bb0 f   libgit2:iterator.obj
 0001:00038bd0       _fs_iterator__alloc_frame  10039bd0 f   libgit2:iterator.obj
 0001:00038c30       _fs_iterator__entry_cmp    10039c30 f   libgit2:iterator.obj
 0001:00038c50       _fs_iterator__seek_frame_start 10039c50 f   libgit2:iterator.obj
 0001:00038c80       _dirload_with_stat         10039c80 f   libgit2:iterator.obj
 0001:00038fa0       _fs_iterator__expand_dir   10039fa0 f   libgit2:iterator.obj
 0001:000390a0       _fs_iterator__current      1003a0a0 f   libgit2:iterator.obj
 0001:000390d0       _fs_iterator__at_end       1003a0d0 f   libgit2:iterator.obj
 0001:000390e0       _fs_iterator__advance_into 1003a0e0 f   libgit2:iterator.obj
 0001:00039160       _fs_iterator__advance_over_internal 1003a160 f   libgit2:iterator.obj
 0001:000391e0       _fs_iterator__advance      1003a1e0 f   libgit2:iterator.obj
 0001:00039280       _fs_iterator__reset        1003a280 f   libgit2:iterator.obj
 0001:00039340       _fs_iterator__free         1003a340 f   libgit2:iterator.obj
 0001:000393c0       _fs_iterator__update_entry 1003a3c0 f   libgit2:iterator.obj
 0001:000395a0       _fs_iterator__initialize   1003a5a0 f   libgit2:iterator.obj
 0001:000397f0       _workdir_path_is_dotgit    1003a7f0 f   libgit2:iterator.obj
 0001:00039880       _is_submodule              1003a880 f   libgit2:iterator.obj
 0001:000399a0       _workdir_iterator__enter_dir 1003a9a0 f   libgit2:iterator.obj
 0001:00039b90       _workdir_iterator__leave_dir 1003ab90 f   libgit2:iterator.obj
 0001:00039bb0       _workdir_iterator__update_entry 1003abb0 f   libgit2:iterator.obj
 0001:00039be0       _workdir_iterator__free    1003abe0 f   libgit2:iterator.obj
 0001:00039f50       _workdir_iterator_update_is_ignored 1003af50 f   libgit2:iterator.obj
 0001:0003a380       _filter_def_priority_cmp   1003b380 f   libgit2:filter.obj
 0001:0003a3a0       _filter_def_scan_attrs     1003b3a0 f   libgit2:filter.obj
 0001:0003a560       _filter_def_set_attrs      1003b560 f   libgit2:filter.obj
 0001:0003a5f0       $LN27                      1003b5f0     libgit2:filter.obj
 0001:0003a604       $LN24                      1003b604     libgit2:filter.obj
 0001:0003a630       _filter_registry_insert    1003b630 f   libgit2:filter.obj
 0001:0003a8b0       _git_filter_global_shutdown 1003b8b0 f   libgit2:filter.obj
 0001:0003a990       _filter_registry_find      1003b990 f   libgit2:filter.obj
 0001:0003acb0       _git__free                 1003bcb0 f   libgit2:remote.obj
 0001:0003acb0       _default_free              1003bcb0 f   libgit2:cred.obj
 0001:0003acb0       _username_free             1003bcb0 f   libgit2:cred.obj
 0001:0003ad40       _filter_list_new           1003bd40 f   libgit2:filter.obj
 0001:0003ade0       _filter_list_check_attributes 1003bde0 f   libgit2:filter.obj
 0001:0003b4b0       _buf_stream_write          1003c4b0 f   libgit2:filter.obj
 0001:0003b510       _buf_stream_close          1003c510 f   libgit2:filter.obj
 0001:0003b7d0       _proxy_stream_write        1003c7d0 f   libgit2:filter.obj
 0001:0003b810       _proxy_stream_close        1003c810 f   libgit2:filter.obj
 0001:0003b8c0       _proxy_stream_free         1003c8c0 f   libgit2:filter.obj
 0001:0003b960       _proxy_stream_init         1003c960 f   libgit2:filter.obj
 0001:0003ba00       _stream_list_init          1003ca00 f   libgit2:filter.obj
 0001:0003c3a0       _strict_comparison         1003d3a0 f   libgit2:vector.obj
 0001:0003c650       _pool_alloc                1003d650 f   libgit2:pool.obj
 0001:0003d850       _lock_file                 1003e850 f   libgit2:filebuf.obj
 0001:0003db70       _write_normal              1003eb70 f   libgit2:filebuf.obj
 0001:0003dbc0       _write_deflate             1003ebc0 f   libgit2:filebuf.obj
 0001:0003dca0       _resolve_symlink           1003eca0 f   libgit2:filebuf.obj
 0001:0003e750       _git_has_win32_version     1003f750 f   libgit2:path.obj
 0001:0003e7f0       _git_win32__stat_init      1003f7f0 f   libgit2:path.obj
 0001:0003e7f0       _git_win32__stat_init      1003f7f0 f   libgit2:posix_w32.obj
 0001:0003e900       _git_win32__file_attribute_to_stat 1003f900 f   libgit2:path.obj
 0001:0003e900       _git_win32__file_attribute_to_stat 1003f900 f   libgit2:posix_w32.obj
 0001:0003e9e0       _git_path_equal_or_prefixed 1003f9e0 f   libgit2:path.obj
 0001:0003efb0       _local_file_url_prefixlen  1003ffb0 f   libgit2:path.obj
 0001:0003f4f8       $LN11                      100404f8     libgit2:path.obj
 0001:0003f508       $LN9                       10040508     libgit2:path.obj
 0001:0003f530       __check_dir_contents       10040530 f   libgit2:path.obj
 0001:0003fd90       _diriter_update_paths      10040d90 f   libgit2:path.obj
 0001:0003fff0       _next_hfs_char             10040ff0 f   libgit2:path.obj
 0001:0004007c       $LN21                      1004107c     libgit2:path.obj
 0001:00040084       $LN19                      10041084     libgit2:path.obj
 0001:000400b0       _verify_dotgit_hfs         100410b0 f   libgit2:path.obj
 0001:00040120       _verify_dotgit_ntfs        10041120 f   libgit2:path.obj
 0001:000401e0       _verify_char               100411e0 f   libgit2:path.obj
 0001:00040220       $LN13                      10041220     libgit2:path.obj
 0001:00040228       $LN10                      10041228     libgit2:path.obj
 0001:00040290       _verify_component          10041290 f   libgit2:path.obj
 0001:000404c0       _dotgit_flags              100414c0 f   libgit2:path.obj
 0001:00040800       _pathspec_match_context_init 10041800 f   libgit2:pathspec.obj
 0001:00040850       _pathspec_match_one        10041850 f   libgit2:pathspec.obj
 0001:00040910       _git_pathspec__match_at    10041910 f   libgit2:pathspec.obj
 0001:00040bf0       _pathspec_free             10041bf0 f   libgit2:pathspec.obj
 0001:00040d30       _pathspec_match_free       10041d30 f   libgit2:pathspec.obj
 0001:00040dd0       _pathspec_mark_pattern     10041dd0 f   libgit2:pathspec.obj
 0001:00040e50       _pathspec_mark_remaining   10041e50 f   libgit2:pathspec.obj
 0001:00040f30       _pathspec_build_failure_array 10041f30 f   libgit2:pathspec.obj
 0001:00041040       _pathspec_match_from_iterator 10042040 f   libgit2:pathspec.obj
 0001:000419e0       _kh_resize_str             100429e0 f   libgit2:attrcache.obj
 0001:000419e0       _kh_resize_str             100429e0 f   libgit2:fileops.obj
 0001:000419e0       _kh_resize_str             100429e0 f   libgit2:attr.obj
 0001:000419e0       _kh_resize_str             100429e0 f   libgit2:transaction.obj
 0001:000419e0       _kh_resize_str             100429e0 f   libgit2:sortedcache.obj
 0001:000419e0       _kh_resize_str             100429e0 f   libgit2:mwindow.obj
 0001:00041cf0       _kh_put_str                10042cf0 f   libgit2:attrcache.obj
 0001:00041cf0       _kh_put_str                10042cf0 f   libgit2:attr.obj
 0001:00041cf0       _kh_put_str                10042cf0 f   libgit2:sortedcache.obj
 0001:00041cf0       _kh_put_str                10042cf0 f   libgit2:transaction.obj
 0001:00041cf0       _kh_put_str                10042cf0 f   libgit2:fileops.obj
 0001:00042400       _mkdir_validate_dir        10043400 f   libgit2:fileops.obj
 0001:000424f0       _mkdir_validate_mode       100434f0 f   libgit2:fileops.obj
 0001:000425a0       _mkdir_canonicalize        100435a0 f   libgit2:fileops.obj
 0001:00042d90       _futils__error_cannot_rmdir 10043d90 f   libgit2:fileops.obj
 0001:00042dc0       _futils__rm_first_parent   10043dc0 f   libgit2:fileops.obj
 0001:00042f20       _futils__rmdir_recurs_foreach 10043f20 f   libgit2:fileops.obj
 0001:000430c0       _futils__rmdir_empty_parent 100440c0 f   libgit2:fileops.obj
 0001:000432f0       _cp_by_fd                  100442f0 f   libgit2:fileops.obj
 0001:00043470       _cp_link                   10044470 f   libgit2:fileops.obj
 0001:00043530       __cp_r_mkdir               10044530 f   libgit2:fileops.obj
 0001:00043580       __cp_r_callback            10044580 f   libgit2:fileops.obj
 0001:00043b80       _lstat_w                   10044b80 f   libgit2:posix_w32.obj
 0001:00043e50       _getfinalpath_w            10044e50 f   libgit2:posix_w32.obj
 0001:00044520       _attr_file_free            10045520 f   libgit2:attr_file.obj
 0001:000445e0       _attr_file_oid_from_index  100455e0 f   libgit2:attr_file.obj
 0001:00045170       _sort_by_hash_and_name     10046170 f   libgit2:attr_file.obj
 0001:000451c0       _merge_assignments         100461c0 f   libgit2:attr_file.obj
 0001:00045530       _git_attr_rule__clear      10046530 f   libgit2:attr_file.obj
 0001:00045660       _merge_file_best_path      10046660 f   libgit2:merge_file.obj
 0001:00045740       _merge_file_best_mode      10046740 f   libgit2:merge_file.obj
 0001:00045810       _merge_file__xdiff         10046810 f   libgit2:merge_file.obj
 0001:00045a50       _merge_file__binary        10046a50 f   libgit2:merge_file.obj
 0001:00045af0       _merge_file__from_inputs   10046af0 f   libgit2:merge_file.obj
 0001:00045ee0       _extract_trimmed           10046ee0 f   libgit2:signature.obj
 0001:00046ca0       _fake_wstream__fwrite      10047ca0 f   libgit2:odb.obj
 0001:00046cc0       _fake_wstream__write       10047cc0 f   libgit2:odb.obj
 0001:00046d00       _fake_wstream__free        10047d00 f   libgit2:odb.obj
 0001:00046d20       _init_fake_wstream         10047d20 f   libgit2:odb.obj
 0001:00046dc0       _backend_sort_cmp          10047dc0 f   libgit2:odb.obj
 0001:00046ed0       _add_backend_internal      10047ed0 f   libgit2:odb.obj
 0001:000470a0       _add_default_backends      100480a0 f   libgit2:odb.obj
 0001:00047130       _load_alternates           10048130 f   libgit2:odb.obj
 0001:00047330       _odb_free                  10048330 f   libgit2:odb.obj
 0001:000473f0       _odb_exists_1              100483f0 f   libgit2:odb.obj
 0001:000474e0       _odb_exists_prefix_1       100484e0 f   libgit2:odb.obj
 0001:00047940       _odb_read_1                10048940 f   libgit2:odb.obj
 0001:00047bd0       _read_prefix_1             10048bd0 f   libgit2:odb.obj
 0001:000480c0       _hash_header               100490c0 f   libgit2:odb.obj
 0001:000486f0       _git__strdup               100496f0 f   libgit2:cred.obj
 0001:000486f0       _git__strdup               100496f0 f   libgit2:remote.obj
 0001:000486f0       _git__strdup               100496f0 f   libgit2:smart_protocol.obj
 0001:00048710       _add_refspec_to            10049710 f   libgit2:remote.obj
 0001:000487c0       _download_tags_value       100497c0 f   libgit2:remote.obj
 0001:000488f0       _write_add_refspec         100498f0 f   libgit2:remote.obj
 0001:00048a10       _canonicalize_url          10049a10 f   libgit2:remote.obj
 0001:00048ab0       _create_internal           10049ab0 f   libgit2:remote.obj
 0001:00049020       _refspec_cb                1004a020 f   libgit2:remote.obj
 0001:00049050       _get_optional_config       1004a050 f   libgit2:remote.obj
 0001:000494c0       _lookup_remote_prune_config 1004a4c0 f   libgit2:remote.obj
 0001:00049670       _set_url                   1004a670 f   libgit2:remote.obj
 0001:00049b80       _dwim_refspecs             1004ab80 f   libgit2:remote.obj
 0001:00049f10       _free_refspecs             1004af10 f   libgit2:remote.obj
 0001:00049f70       _remote_head_cmp           1004af70 f   libgit2:remote.obj
 0001:00049f70       _find_head                 1004af70 f   libgit2:remote.obj
 0001:00049fb0       _ls_to_vector              1004afb0 f   libgit2:remote.obj
 0001:0004a410       _remote_head_for_fetchspec_src 1004b410 f   libgit2:remote.obj
 0001:0004a4b0       _ref_to_update             1004b4b0 f   libgit2:remote.obj
 0001:0004a620       _remote_head_for_ref       1004b620 f   libgit2:remote.obj
 0001:0004a780       _git_remote_write_fetchhead 1004b780 f   libgit2:remote.obj
 0001:0004aa40       _prune_candidates          1004ba40 f   libgit2:remote.obj
 0001:0004af30       _update_tips_for_spec      1004bf30 f   libgit2:remote.obj
 0001:0004b360       _next_head                 1004c360 f   libgit2:remote.obj
 0001:0004b490       _opportunistic_updates     1004c490 f   libgit2:remote.obj
 0001:0004baa0       _remote_list_cb            1004caa0 f   libgit2:remote.obj
 0001:0004bdc0       _rename_remote_config_section 1004cdc0 f   libgit2:remote.obj
 0001:0004bea0       _update_config_entries_cb  1004cea0 f   libgit2:remote.obj
 0001:0004bef0       _update_branch_remote_config_entry 1004cef0 f   libgit2:remote.obj
 0001:0004bf50       _rename_one_remote_reference 1004cf50 f   libgit2:remote.obj
 0001:0004c2a0       _rename_remote_references  1004d2a0 f   libgit2:remote.obj
 0001:0004c3e0       _rename_fetch_refspecs     1004d3e0 f   libgit2:remote.obj
 0001:0004c990       _copy_refspecs             1004d990 f   libgit2:remote.obj
 0001:0004cb40       _remove_branch_config_related_entries 1004db40 f   libgit2:remote.obj
 0001:0004cdb0       _remove_refs               1004ddb0 f   libgit2:remote.obj
 0001:0004cf60       _remove_remote_tracking    1004df60 f   libgit2:remote.obj
 0001:0004d650       _create_branch             1004e650 f   libgit2:clone.obj
 0001:0004d730       _setup_tracking_config     1004e730 f   libgit2:clone.obj
 0001:0004d830       _update_head_to_new_branch 1004e830 f   libgit2:clone.obj
 0001:0004d940       _update_head_to_remote     1004e940 f   libgit2:clone.obj
 0001:0004daf0       _update_head_to_branch     1004eaf0 f   libgit2:clone.obj
 0001:0004dc20       _default_remote_create     1004ec20 f   libgit2:clone.obj
 0001:0004dc40       _create_and_configure_origin 1004ec40 f   libgit2:clone.obj
 0001:0004dd90       _checkout_branch           1004ed90 f   libgit2:clone.obj
 0001:0004de40       _clone_into                1004ee40 f   libgit2:clone.obj
 0001:0004e480       _clone_local_into          1004f480 f   libgit2:clone.obj
 0001:0004e740       _git_array_grow            1004f740 f   libgit2:config_file.obj
 0001:0004e7e0       _set_parse_error           1004f7e0 f   libgit2:config_file.obj
 0001:0004e870       _append_entry              1004f870 f   libgit2:config_file.obj
 0001:0004e8f0       _free_vars                 1004f8f0 f   libgit2:config_file.obj
 0001:0004e990       _refcounted_strmap_free    1004f990 f   libgit2:config_file.obj
 0001:0004e9c0       _refcounted_strmap_alloc   1004f9c0 f   libgit2:config_file.obj
 0001:0004ea40       _config_open               1004fa40 f   libgit2:config_file.obj
 0001:0004eb80       _config__refresh           1004fb80 f   libgit2:config_file.obj
 0001:0004ecc0       _config_refresh            1004fcc0 f   libgit2:config_file.obj
 0001:0004ed50       _backend_free              1004fd50 f   libgit2:config_file.obj
 0001:0004edf0       _config_iterator_free      1004fdf0 f   libgit2:config_file.obj
 0001:0004ee10       _config_iterator_next      1004fe10 f   libgit2:config_file.obj
 0001:0004ee60       _config_iterator_new       1004fe60 f   libgit2:config_file.obj
 0001:0004eee0       _config_set                1004fee0 f   libgit2:config_file.obj
 0001:0004f010       _release_map               10050010 f   libgit2:config_file.obj
 0001:0004f040       _config_get                10050040 f   libgit2:config_file.obj
 0001:0004f0e0       _config_set_multivar       100500e0 f   libgit2:config_file.obj
 0001:0004f200       _config_delete             10050200 f   libgit2:config_file.obj
 0001:0004f310       _config_delete_multivar    10050310 f   libgit2:config_file.obj
 0001:0004f460       _config_snapshot           10050460 f   libgit2:config_file.obj
 0001:0004f470       _config_lock               10050470 f   libgit2:config_file.obj
 0001:0004f4d0       _config_unlock             100504d0 f   libgit2:config_file.obj
 0001:0004f610       _config_set_multivar_readonly 10050610 f   libgit2:config_file.obj
 0001:0004f610       _config_unlock_readonly    10050610 f   libgit2:config_file.obj
 0001:0004f610       _config_delete_multivar_readonly 10050610 f   libgit2:config_file.obj
 0001:0004f610       _config_delete_readonly    10050610 f   libgit2:config_file.obj
 0001:0004f610       _config_set_readonly       10050610 f   libgit2:config_file.obj
 0001:0004f610       _config_lock_readonly      10050610 f   libgit2:config_file.obj
 0001:0004f630       _backend_readonly_free     10050630 f   libgit2:config_file.obj
 0001:0004f680       _config_readonly_open      10050680 f   libgit2:config_file.obj
 0001:0004f760       _reader_getchar            10050760 f   libgit2:config_file.obj
 0001:0004f7f0       _reader_readline           100507f0 f   libgit2:config_file.obj
 0001:0004f8e0       _parse_section_header_ext  100508e0 f   libgit2:config_file.obj
 0001:0004fb20       _parse_section_header      10050b20 f   libgit2:config_file.obj
 0001:0004fcf0       _strip_comments            10050cf0 f   libgit2:config_file.obj
 0001:0004fd80       _escape_value              10050d80 f   libgit2:config_file.obj
 0001:0004ff00       _unescape_line             10050f00 f   libgit2:config_file.obj
 0001:0004fff0       _parse_multiline_variable  10050ff0 f   libgit2:config_file.obj
 0001:000500d0       _parse_name                100510d0 f   libgit2:config_file.obj
 0001:000501c0       _parse_variable            100511c0 f   libgit2:config_file.obj
 0001:00050300       _config_parse              10051300 f   libgit2:config_file.obj
 0001:00050528       $LN52                      10051528     libgit2:config_file.obj
 0001:00050538       $LN35                      10051538     libgit2:config_file.obj
 0001:000505a0       _read_on_variable          100515a0 f   libgit2:config_file.obj
 0001:00050840       _config_read               10051840 f   libgit2:config_file.obj
 0001:000508d0       _write_section             100518d0 f   libgit2:config_file.obj
 0001:00050a10       _write_value               10051a10 f   libgit2:config_file.obj
 0001:00050a80       _write_on_section          10051a80 f   libgit2:config_file.obj
 0001:00050b90       _write_on_variable         10051b90 f   libgit2:config_file.obj
 0001:00050cb0       _write_on_comment          10051cb0 f   libgit2:config_file.obj
 0001:00050d00       _write_on_eof              10051d00 f   libgit2:config_file.obj
 0001:00050d90       _config_write              10051d90 f   libgit2:config_file.obj
 0001:00051390       _read_tree_internal        10052390 f   libgit2:tree-cache.obj
 0001:00051540       _read_tree_recursive       10052540 f   libgit2:tree-cache.obj
 0001:00051930       _write_tree                10052930 f   libgit2:tree-cache.obj
 0001:00051990       _pqueue_up                 10052990 f   libgit2:pqueue.obj
 0001:000519f0       _pqueue_down               100529f0 f   libgit2:pqueue.obj
 0001:00051c30       _commit_quick_parse        10052c30 f   libgit2:commit_list.obj
 0001:00051f30       _maybe_abbrev              10052f30 f   libgit2:revparse.obj
 0001:00051fb0       _build_regex               10052fb0 f   libgit2:revparse.obj
 0001:00052030       _maybe_describe            10053030 f   libgit2:revparse.obj
 0001:00052120       _revparse_lookup_object    10053120 f   libgit2:revparse.obj
 0001:00052250       _retrieve_previously_checked_out_branch_or_revision 10053250 f   libgit2:revparse.obj
 0001:000524e0       _retrieve_oid_from_reflog  100534e0 f   libgit2:revparse.obj
 0001:000526b0       _retrieve_revobject_from_reflog 100536b0 f   libgit2:revparse.obj
 0001:000527b0       _retrieve_remote_tracking_reference 100537b0 f   libgit2:revparse.obj
 0001:00052850       _handle_at_syntax          10053850 f   libgit2:revparse.obj
 0001:00052a20       _parse_obj_type            10053a20 f   libgit2:revparse.obj
 0001:00052b20       _handle_caret_parent_syntax 10053b20 f   libgit2:revparse.obj
 0001:00052ba0       _handle_colon_syntax       10053ba0 f   libgit2:revparse.obj
 0001:00052c60       _walk_and_search           10053c60 f   libgit2:revparse.obj
 0001:00052e50       _handle_grep_syntax        10053e50 f   libgit2:revparse.obj
 0001:00052f60       _handle_caret_curly_syntax 10053f60 f   libgit2:revparse.obj
 0001:00053030       _extract_curly_braces_content 10054030 f   libgit2:revparse.obj
 0001:00053120       _extract_path              10054120 f   libgit2:revparse.obj
 0001:000531c0       _extract_how_many          100541c0 f   libgit2:revparse.obj
 0001:000532a0       _object_from_reference     100542a0 f   libgit2:revparse.obj
 0001:00053350       _ensure_base_rev_loaded    10054350 f   libgit2:revparse.obj
 0001:000538a0       $LN167                     100548a0     libgit2:revparse.obj
 0001:000538b4       $LN139                     100548b4     libgit2:revparse.obj
 0001:00053bc0       _git_diff_file__resolve_zero_size 10054bc0 f   libgit2:diff_tform.obj
 0001:00053bc0       _git_diff_file__resolve_zero_size 10054bc0 f   libgit2:diff_file.obj
 0001:00054120       _normalize_find_opts       10055120 f   libgit2:diff_tform.obj
 0001:00054340       _insert_delete_side_of_split 10055340 f   libgit2:diff_tform.obj
 0001:00054390       _apply_splits_and_deletes  10055390 f   libgit2:diff_tform.obj
 0001:00054560       _similarity_init           10055560 f   libgit2:diff_tform.obj
 0001:00054600       _similarity_sig            10055600 f   libgit2:diff_tform.obj
 0001:00054790       _similarity_unload         10055790 f   libgit2:diff_tform.obj
 0001:000547f0       _similarity_measure        100557f0 f   libgit2:diff_tform.obj
 0001:00054ab0       _calc_self_similarity      10055ab0 f   libgit2:diff_tform.obj
 0001:00054b10       _is_rename_target          10055b10 f   libgit2:diff_tform.obj
 0001:00054bc0       $LN19                      10055bc0     libgit2:diff_tform.obj
 0001:00054bd0       $LN17                      10055bd0     libgit2:diff_tform.obj
 0001:00054be0       _is_rename_source          10055be0 f   libgit2:diff_tform.obj
 0001:00054cac       $LN21                      10055cac     libgit2:diff_tform.obj
 0001:00054cbc       $LN19                      10055cbc     libgit2:diff_tform.obj
 0001:00054cd0       _delta_is_split            10055cd0 f   libgit2:diff_tform.obj
 0001:00054cf0       _delta_is_new_only         10055cf0 f   libgit2:diff_tform.obj
 0001:00054d10       _delta_make_rename         10055d10 f   libgit2:diff_tform.obj
 0001:00055650       _tm_to_time_t              10056650 f   libgit2:date.obj
 0001:00055720       _match_string              10056720 f   libgit2:date.obj
 0001:00055790       _match_alpha               10056790 f   libgit2:date.obj
 0001:000558e0       _is_date                   100568e0 f   libgit2:date.obj
 0001:000559f0       _match_multi_number        100569f0 f   libgit2:date.obj
 0001:00055be0       _match_digit               10056be0 f   libgit2:date.obj
 0001:00055d80       _match_tz                  10056d80 f   libgit2:date.obj
 0001:00055e20       _match_object_header_date  10056e20 f   libgit2:date.obj
 0001:00055ef0       _parse_date_basic          10056ef0 f   libgit2:date.obj
 0001:000560c0       _update_tm                 100570c0 f   libgit2:date.obj
 0001:00056140       _date_now                  10057140 f   libgit2:date.obj
 0001:00056160       _date_yesterday            10057160 f   libgit2:date.obj
 0001:00056180       _date_midnight             10057180 f   libgit2:date.obj
 0001:000561c0       _date_noon                 100571c0 f   libgit2:date.obj
 0001:00056200       _date_tea                  10057200 f   libgit2:date.obj
 0001:00056240       _date_pm                   10057240 f   libgit2:date.obj
 0001:00056290       _date_am                   10057290 f   libgit2:date.obj
 0001:000562e0       _date_never                100572e0 f   libgit2:date.obj
 0001:00056320       _approxidate_alpha         10057320 f   libgit2:date.obj
 0001:00056780       _approxidate_str           10057780 f   libgit2:date.obj
 0001:00056bb0       _diff_print_info_init__common 10057bb0 f   libgit2:diff_print.obj
 0001:00056c70       _diff_print_info_init_frompatch 10057c70 f   libgit2:diff_print.obj
 0001:00056d2c       $LN15                      10057d2c     libgit2:diff_print.obj
 0001:00056d50       _diff_print_one_name_only  10057d50 f   libgit2:diff_print.obj
 0001:00056e60       _diff_print_one_name_status 10057e60 f   libgit2:diff_print.obj
 0001:00057030       $LN49                      10058030     libgit2:diff_print.obj
 0001:00057060       _diff_print_one_raw        10058060 f   libgit2:diff_print.obj
 0001:0005722c       $LN44                      1005822c     libgit2:diff_print.obj
 0001:00057250       _diff_print_oid_range      10058250 f   libgit2:diff_print.obj
 0001:00057360       _diff_delta_format_with_paths 10058360 f   libgit2:diff_print.obj
 0001:00057490       _format_binary             10058490 f   libgit2:diff_print.obj
 0001:00057650       _diff_print_load_content   10058650 f   libgit2:diff_print.obj
 0001:000577e4       $LN63                      100587e4     libgit2:diff_print.obj
 0001:000577f0       $LN58                      100587f0     libgit2:diff_print.obj
 0001:000577fc       $LN64                      100587fc     libgit2:diff_print.obj
 0001:00057808       $LN59                      10058808     libgit2:diff_print.obj
 0001:00057820       _diff_print_patch_file_binary 10058820 f   libgit2:diff_print.obj
 0001:000578e0       _diff_print_patch_file     100588e0 f   libgit2:diff_print.obj
 0001:000579b0       _diff_print_patch_binary   100589b0 f   libgit2:diff_print.obj
 0001:00057a40       _diff_print_patch_hunk     10058a40 f   libgit2:diff_print.obj
 0001:00057a90       _diff_print_patch_line     10058a90 f   libgit2:diff_print.obj
 0001:00057c44       $LN34                      10058c44     libgit2:diff_print.obj
 0001:00058740       _re_string_allocate        10059740 f   libgit2:regex.obj
 0001:00058830       _re_string_construct       10059830 f   libgit2:regex.obj
 0001:00058920       _build_upper_buffer        10059920 f   libgit2:regex.obj
 0001:00058990       _re_string_translate_buffer 10059990 f   libgit2:regex.obj
 0001:000589d0       _re_string_reconstruct     100599d0 f   libgit2:regex.obj
 0001:00058b20       _re_string_context_at      10059b20 f   libgit2:regex.obj
 0001:00058b80       _re_node_set_init_1        10059b80 f   libgit2:regex.obj
 0001:00058bc0       _re_node_set_init_2        10059bc0 f   libgit2:regex.obj
 0001:00058c20       _re_node_set_init_copy     10059c20 f   libgit2:regex.obj
 0001:00058c80       _re_node_set_add_intersect 10059c80 f   libgit2:regex.obj
 0001:00058e20       _re_node_set_init_union    10059e20 f   libgit2:regex.obj
 0001:00058fa0       _re_node_set_merge         10059fa0 f   libgit2:regex.obj
 0001:00059140       _re_node_set_insert        1005a140 f   libgit2:regex.obj
 0001:00059230       _re_node_set_contains      1005a230 f   libgit2:regex.obj
 0001:00059280       _re_node_set_remove_at     1005a280 f   libgit2:regex.obj
 0001:000592b0       _re_dfa_add_node           1005a2b0 f   libgit2:regex.obj
 0001:00059440       _calc_state_hash           1005a440 f   libgit2:regex.obj
 0001:00059500       _re_acquire_state          1005a500 f   libgit2:regex.obj
 0001:000595e0       _re_acquire_state_context  1005a5e0 f   libgit2:regex.obj
 0001:000596d0       _register_state            1005a6d0 f   libgit2:regex.obj
 0001:000597f0       _free_state                1005a7f0 f   libgit2:regex.obj
 0001:00059850       _create_ci_newstate        1005a850 f   libgit2:regex.obj
 0001:00059960       _create_cd_newstate        1005a960 f   libgit2:regex.obj
 0001:00059bb0       _re_compile_fastmap_iter   1005abb0 f   libgit2:regex.obj
 0001:00059e50       _free_dfa_content          1005ae50 f   libgit2:regex.obj
 0001:0005a020       _re_compile_internal       1005b020 f   libgit2:regex.obj
 0001:0005a160       _init_dfa                  1005b160 f   libgit2:regex.obj
 0001:0005a1f0       _init_word_char            1005b1f0 f   libgit2:regex.obj
 0001:0005a230       _free_workarea_compile     1005b230 f   libgit2:regex.obj
 0001:0005a280       _create_initial_state      1005b280 f   libgit2:regex.obj
 0001:0005a460       _analyze                   1005b460 f   libgit2:regex.obj
 0001:0005a5f0       _postorder                 1005b5f0 f   libgit2:regex.obj
 0001:0005a650       _preorder                  1005b650 f   libgit2:regex.obj
 0001:0005a6a0       _optimize_subexps          1005b6a0 f   libgit2:regex.obj
 0001:0005a720       _lower_subexps             1005b720 f   libgit2:regex.obj
 0001:0005a790       _lower_subexp              1005b790 f   libgit2:regex.obj
 0001:0005a980       _calc_first                1005b980 f   libgit2:regex.obj
 0001:0005aa00       _calc_next                 1005ba00 f   libgit2:regex.obj
 0001:0005aa50       _link_nfa_nodes            1005ba50 f   libgit2:regex.obj
 0001:0005aba4       $LN24                      1005bba4     libgit2:regex.obj
 0001:0005abbc       $LN20                      1005bbbc     libgit2:regex.obj
 0001:0005abd0       _duplicate_node_closure    1005bbd0 f   libgit2:regex.obj
 0001:0005ae30       _search_duplicated_node    1005be30 f   libgit2:regex.obj
 0001:0005ae80       _duplicate_node            1005be80 f   libgit2:regex.obj
 0001:0005af00       _calc_inveclosure          1005bf00 f   libgit2:regex.obj
 0001:0005aff0       _calc_eclosure             1005bff0 f   libgit2:regex.obj
 0001:0005b1e0       _calc_eclosure_iter        1005c1e0 f   libgit2:regex.obj
 0001:0005b3c0       _peek_token                1005c3c0 f   libgit2:regex.obj
 0001:0005b918       $LN86                      1005c918     libgit2:regex.obj
 0001:0005b964       $LN81                      1005c964     libgit2:regex.obj
 0001:0005b9bc       $LN87                      1005c9bc     libgit2:regex.obj
 0001:0005b9f4       $LN82                      1005c9f4     libgit2:regex.obj
 0001:0005ba70       _peek_token_bracket        1005ca70 f   libgit2:regex.obj
 0001:0005bb70       _parse                     1005cb70 f   libgit2:regex.obj
 0001:0005bc90       _parse_reg_exp             1005cc90 f   libgit2:regex.obj
 0001:0005bd80       _parse_branch              1005cd80 f   libgit2:regex.obj
 0001:0005be50       _parse_expression          1005ce50 f   libgit2:regex.obj
 0001:0005c1b4       $LN79                      1005d1b4     libgit2:regex.obj
 0001:0005c1f0       $LN71                      1005d1f0     libgit2:regex.obj
 0001:0005c220       _parse_sub_exp             1005d220 f   libgit2:regex.obj
 0001:0005c2f0       _parse_dup_op              1005d2f0 f   libgit2:regex.obj
 0001:0005c5d0       _build_range_exp           1005d5d0 f   libgit2:regex.obj
 0001:0005c6d0       _build_collating_symbol    1005d6d0 f   libgit2:regex.obj
 0001:0005c6d0       _build_equiv_class         1005d6d0 f   libgit2:regex.obj
 0001:0005c710       _parse_bracket_exp         1005d710 f   libgit2:regex.obj
 0001:0005ca9c       $LN97                      1005da9c     libgit2:regex.obj
 0001:0005cab0       _parse_bracket_symbol      1005dab0 f   libgit2:regex.obj
 0001:0005cb70       _build_charclass           1005db70 f   libgit2:regex.obj
 0001:0005d360       _build_charclass_op        1005e360 f   libgit2:regex.obj
 0001:0005d4d0       _fetch_number              1005e4d0 f   libgit2:regex.obj
 0001:0005d580       _create_token_tree         1005e580 f   libgit2:regex.obj
 0001:0005d620       _mark_opt_subexp           1005e620 f   libgit2:regex.obj
 0001:0005d640       _free_tree                 1005e640 f   libgit2:regex.obj
 0001:0005d670       _duplicate_tree            1005e670 f   libgit2:regex.obj
 0001:0005d760       _re_search_internal        1005e760 f   libgit2:regex.obj
 0001:0005de14       $LN240                     1005ee14     libgit2:regex.obj
 0001:0005de30       _prune_impossible_nodes    1005ee30 f   libgit2:regex.obj
 0001:0005e060       _acquire_init_state_context 1005f060 f   libgit2:regex.obj
 0001:0005e0d0       _check_matching            1005f0d0 f   libgit2:regex.obj
 0001:0005e310       _check_halt_state_context  1005f310 f   libgit2:regex.obj
 0001:0005e3f0       _proceed_next_node         1005f3f0 f   libgit2:regex.obj
 0001:0005e680       _push_fail_stack           1005f680 f   libgit2:regex.obj
 0001:0005e720       _pop_fail_stack            1005f720 f   libgit2:regex.obj
 0001:0005e7a0       _set_regs                  1005f7a0 f   libgit2:regex.obj
 0001:0005ea00       _free_fail_stack_return    1005fa00 f   libgit2:regex.obj
 0001:0005ea50       _update_regs               1005fa50 f   libgit2:regex.obj
 0001:0005eaf0       _sift_states_backward      1005faf0 f   libgit2:regex.obj
 0001:0005ec10       _build_sifted_states       1005fc10 f   libgit2:regex.obj
 0001:0005ecf0       _clean_state_log_if_needed 1005fcf0 f   libgit2:regex.obj
 0001:0005ed40       _merge_state_array         1005fd40 f   libgit2:regex.obj
 0001:0005edd0       _update_cur_sifted_state   1005fdd0 f   libgit2:regex.obj
 0001:0005eeb0       _add_epsilon_src_nodes     1005feb0 f   libgit2:regex.obj
 0001:0005ef60       _sub_epsilon_src_nodes     1005ff60 f   libgit2:regex.obj
 0001:0005f180       _check_dst_limits          10060180 f   libgit2:regex.obj
 0001:0005f2c0       _check_dst_limits_calc_pos_1 100602c0 f   libgit2:regex.obj
 0001:0005f440       _check_subexp_limits       10060440 f   libgit2:regex.obj
 0001:0005f6a0       _sift_states_bkref         100606a0 f   libgit2:regex.obj
 0001:0005f8f0       _transit_state             100608f0 f   libgit2:regex.obj
 0001:0005f9d0       _merge_state_with_log      100609d0 f   libgit2:regex.obj
 0001:0005fb00       _find_recover_state        10060b00 f   libgit2:regex.obj
 0001:0005fc70       _check_subexp_matching_top 10060c70 f   libgit2:regex.obj
 0001:0005fcd0       _transit_state_bkref       10060cd0 f   libgit2:regex.obj
 0001:00060000       _get_subexp                10061000 f   libgit2:regex.obj
 0001:00060450       _check_arrival             10061450 f   libgit2:regex.obj
 0001:00060810       _check_arrival_add_next_nodes 10061810 f   libgit2:regex.obj
 0001:000608b0       _check_arrival_expand_ecl  100618b0 f   libgit2:regex.obj
 0001:00060a00       _check_arrival_expand_ecl_sub 10061a00 f   libgit2:regex.obj
 0001:00060ad0       _expand_bkref_cache        10061ad0 f   libgit2:regex.obj
 0001:00060de0       _build_trtable             10061de0 f   libgit2:regex.obj
 0001:00061310       _group_nodes_into_DFAstates 10062310 f   libgit2:regex.obj
 0001:00061a40       _check_node_accept         10062a40 f   libgit2:regex.obj
 0001:00061b10       _extend_buffers            10062b10 f   libgit2:regex.obj
 0001:00061ba0       _match_ctx_init            10062ba0 f   libgit2:regex.obj
 0001:00061c00       _match_ctx_clean           10062c00 f   libgit2:regex.obj
 0001:00061ca0       _match_ctx_add_entry       10062ca0 f   libgit2:regex.obj
 0001:00061db0       _search_cur_bkref_entry    10062db0 f   libgit2:regex.obj
 0001:00061e10       _match_ctx_add_subtop      10062e10 f   libgit2:regex.obj
 0001:00061ea0       _match_ctx_add_sublast     10062ea0 f   libgit2:regex.obj
 0001:00061f10       _git_array_grow            10062f10 f   libgit2:diff_driver.obj
 0001:000620a0       _diff_driver_add_patterns  100630a0 f   libgit2:diff_driver.obj
 0001:000621d0       _diff_driver_xfuncname     100631d0 f   libgit2:diff_driver.obj
 0001:000621f0       _diff_driver_funcname      100631f0 f   libgit2:diff_driver.obj
 0001:00062210       _diff_driver_alloc         10063210 f   libgit2:diff_driver.obj
 0001:000622a0       _git_diff_driver_builtin   100632a0 f   libgit2:diff_driver.obj
 0001:00062470       _git_diff_driver_load      10063470 f   libgit2:diff_driver.obj
 0001:000629a0       _diff_context_line__simple 100639a0 f   libgit2:diff_driver.obj
 0001:000629d0       _diff_context_line__pattern_match 100639d0 f   libgit2:diff_driver.obj
 0001:00062af0       _diff_context_find         10063af0 f   libgit2:diff_driver.obj
 0001:00062bb0       _annotated_commit_init     10063bb0 f   libgit2:annotated_commit.obj
 0001:00063720       _kh_init_str               10064720 f   libgit2:attrcache.obj
 0001:00063840       _attr_cache_make_entry     10064840 f   libgit2:attrcache.obj
 0001:000638e0       _attr_cache_upsert         100648e0 f   libgit2:attrcache.obj
 0001:00063960       _attr_cache_remove         10064960 f   libgit2:attrcache.obj
 0001:000639e0       _attr_cache_lookup         100649e0 f   libgit2:attrcache.obj
 0001:00063ca0       _attr_cache__lookup_path   10064ca0 f   libgit2:attrcache.obj
 0001:00063dd0       _attr_cache__free          10064dd0 f   libgit2:attrcache.obj
 0001:00064340       _clear_cache               10065340 f   libgit2:cache.obj
 0001:000644d0       _cache_evict_entries       100654d0 f   libgit2:cache.obj
 0001:000645f0       _cache_store               100655f0 f   libgit2:cache.obj
 0001:000648b0       _path__cwd                 100658b0 f   libgit2:path_w32.obj
 0001:00064930       _path__skip_server         10065930 f   libgit2:path_w32.obj
 0001:00064960       _path__skip_prefix         10065960 f   libgit2:path_w32.obj
 0001:000651a0       _git_sysdir_guess_programdata_dirs 100661a0 f   libgit2:sysdir.obj
 0001:000651b0       _git_sysdir_guess_system_dirs 100661b0 f   libgit2:sysdir.obj
 0001:000651c0       _git_sysdir_guess_global_dirs 100661c0 f   libgit2:sysdir.obj
 0001:000651d0       _git_sysdir_guess_xdg_dirs 100661d0 f   libgit2:sysdir.obj
 0001:000651e0       _git_sysdir_guess_template_dirs 100661e0 f   libgit2:sysdir.obj
 0001:000651f0       _git_sysdir_global_shutdown 100661f0 f   libgit2:sysdir.obj
 0001:00065eb0       _p_fnmatchx                10066eb0 f   libgit2:fnmatch.obj
 0001:000660f0       $LN143                     100670f0     libgit2:fnmatch.obj
 0001:00066108       $LN138                     10067108     libgit2:fnmatch.obj
 0001:00066170       _rangematch                10067170 f   libgit2:fnmatch.obj
 0001:00066380       _git_xdiff_scan_int        10067380 f   libgit2:diff_xdiff.obj
 0001:000663f0       _git_xdiff_parse_hunk      100673f0 f   libgit2:diff_xdiff.obj
 0001:00066490       _diff_update_lines         10067490 f   libgit2:diff_xdiff.obj
 0001:00066568       $LN20                      10067568     libgit2:diff_xdiff.obj
 0001:00066578       $LN17                      10067578     libgit2:diff_xdiff.obj
 0001:000665a0       _git_xdiff_cb              100675a0 f   libgit2:diff_xdiff.obj
 0001:00066790       _git_xdiff                 10067790 f   libgit2:diff_xdiff.obj
 0001:00066980       _lookup_index_alloc        10067980 f   libgit2:delta.obj
 0001:000670b0       _diff_file_content_binary_by_size 100680b0 f   libgit2:diff_file.obj
 0001:000670f0       _diff_file_content_binary_by_content 100680f0 f   libgit2:diff_file.obj
 0001:00067150       _diff_file_content_init_common 10068150 f   libgit2:diff_file.obj
 0001:000673e0       _diff_file_content_commit_to_str 100683e0 f   libgit2:diff_file.obj
 0001:000675b0       _diff_file_content_load_blob 100685b0 f   libgit2:diff_file.obj
 0001:00067690       _diff_file_content_load_workdir_symlink_fake 10068690 f   libgit2:diff_file.obj
 0001:00067720       _diff_file_content_load_workdir_symlink 10068720 f   libgit2:diff_file.obj
 0001:00067800       _diff_file_content_load_workdir_file 10068800 f   libgit2:diff_file.obj
 0001:000679d0       _diff_file_content_load_workdir 100689d0 f   libgit2:diff_file.obj
 0001:00067bb0       _zstream_seterr            10068bb0 f   libgit2:zstream.obj
 0001:00067e80       _git_win32__threadproc@4   10068e80 f   libgit2:thread.obj
 0001:00068250       _copy_common               10069250 f   libgit2:transaction.obj
 0001:000684a0       _dup_reflog                100694a0 f   libgit2:transaction.obj
 0001:00068700       _update_target             10069700 f   libgit2:transaction.obj
 0001:00069100       $LN19                      1006a100     libgit2:buf_text.obj
 0001:00069114       $LN17                      1006a114     libgit2:buf_text.obj
 0001:000691d8       $LN26                      1006a1d8     libgit2:buf_text.obj
 0001:000691ec       $LN23                      1006a1ec     libgit2:buf_text.obj
 0001:000692a0       _kh_get_str                1006a2a0 f   libgit2:mwindow.obj
 0001:000693b0       _kh_put_str                1006a3b0 f   libgit2:mwindow.obj
 0001:000695c0       _git_mwindow_files_free    1006a5c0 f   libgit2:mwindow.obj
 0001:000699e0       _git_mwindow_close_lru     1006a9e0 f   libgit2:mwindow.obj
 0001:00069ae0       _new_window                1006aae0 f   libgit2:mwindow.obj
 0001:00069e50       _giterr_set_after_callback_function 1006ae50 f   libgit2:tag.obj
 0001:00069ff0       _tag_parse                 1006aff0 f   libgit2:tag.obj
 0001:0006a2c0       _write_tag_annotation      1006b2c0 f   libgit2:tag.obj
 0001:0006a4a0       _git_tag_create__internal  1006b4a0 f   libgit2:tag.obj
 0001:0006ab50       _tags_cb                   1006bb50 f   libgit2:tag.obj
 0001:0006ac50       _tag_list_cb               1006bc50 f   libgit2:tag.obj
 0001:0006b1e0       _refspec_transform         1006c1e0 f   libgit2:refspec.obj
 0001:0006b920       _bisort                    1006c920 f   libgit2:tsort.obj
 0001:0006baa0       _count_run                 1006caa0 f   libgit2:tsort.obj
 0001:0006bba0       _merge                     1006cba0 f   libgit2:tsort.obj
 0001:0006bd50       _collapse                  1006cd50 f   libgit2:tsort.obj
 0001:0006c150       _tsort_r_cmp               1006d150 f   libgit2:tsort.obj
 0001:0006c160       _check_crlf                1006d160 f   libgit2:crlf.obj
 0001:0006c240       _check_eol                 1006d240 f   libgit2:crlf.obj
 0001:0006c2d0       _has_cr_in_index           1006d2d0 f   libgit2:crlf.obj
 0001:0006c3c0       _crlf_apply_to_odb         1006d3c0 f   libgit2:crlf.obj
 0001:0006c470       _line_ending               1006d470 f   libgit2:crlf.obj
 0001:0006c4c4       $LN21                      1006d4c4     libgit2:crlf.obj
 0001:0006c4e0       _crlf_apply_to_workdir     1006d4e0 f   libgit2:crlf.obj
 0001:0006c5a0       _crlf_check                1006d5a0 f   libgit2:crlf.obj
 0001:0006c770       _crlf_apply                1006d770 f   libgit2:crlf.obj
 0001:0006c7c0       _crlf_cleanup              1006d7c0 f   libgit2:crlf.obj
 0001:0006c7c0       _use_git_free              1006d7c0 f   libgit2:pack.obj
 0001:0006c820       _giterr_set_after_callback_function 1006d820 f   libgit2:attr.obj
 0001:0006cf40       _preload_attr_file         1006df40 f   libgit2:attr.obj
 0001:0006cfa0       _system_attr_file          1006dfa0 f   libgit2:attr.obj
 0001:0006d020       _attr_setup                1006e020 f   libgit2:attr.obj
 0001:0006d230       _attr_decide_sources       1006e230 f   libgit2:attr.obj
 0001:0006d2b0       _push_attr_file            1006e2b0 f   libgit2:attr.obj
 0001:0006d320       _push_one_attr             1006e320 f   libgit2:attr.obj
 0001:0006d3e0       _release_attr_files        1006e3e0 f   libgit2:attr.obj
 0001:0006d450       _collect_attr_files        1006e450 f   libgit2:attr.obj
 0001:0006d640       _ident_find_id             1006e640 f   libgit2:ident.obj
 0001:0006d6d0       _ident_insert_id           1006e6d0 f   libgit2:ident.obj
 0001:0006d840       _ident_remove_id           1006e840 f   libgit2:ident.obj
 0001:0006d8f0       _ident_apply               1006e8f0 f   libgit2:ident.obj
 0001:0006dbd0       _hash__block               1006ebd0 f   libgit2:hash_generic.obj
 0001:0006ef90       _xdl_append_merge          1006ff90 f   libgit2:xmerge.obj
 0001:0006f060       _xdl_cleanup_merge         10070060 f   libgit2:xmerge.obj
 0001:0006f0a0       _xdl_merge_cmp_lines       100700a0 f   libgit2:xmerge.obj
 0001:0006f360       _xdl_recs_copy_0           10070360 f   libgit2:xmerge.obj
 0001:0006f440       _fill_conflict_hunk        10070440 f   libgit2:xmerge.obj
 0001:0006f7a0       _xdl_fill_merge_buffer     100707a0 f   libgit2:xmerge.obj
 0001:0006fa60       _xdl_refine_conflicts      10070a60 f   libgit2:xmerge.obj
 0001:0006fc80       _lines_contain_alnum       10070c80 f   libgit2:xmerge.obj
 0001:0006fcf0       _xdl_simplify_non_conflicts 10070cf0 f   libgit2:xmerge.obj
 0001:0006fd80       _xdl_do_merge              10070d80 f   libgit2:xmerge.obj
 0001:00070310       _object_file_name          10071310 f   libgit2:odb_loose.obj
 0001:000703b0       _get_binary_object_header  100713b0 f   libgit2:odb_loose.obj
 0001:00070440       _get_object_header         10071440 f   libgit2:odb_loose.obj
 0001:00070510       _finish_inflate            10071510 f   libgit2:odb_loose.obj
 0001:00070590       _inflate_buffer            10071590 f   libgit2:odb_loose.obj
 0001:00070660       _inflate_tail              10071660 f   libgit2:odb_loose.obj
 0001:00070740       _inflate_packlike_loose_disk_obj 10071740 f   libgit2:odb_loose.obj
 0001:00070830       _inflate_disk_obj          10071830 f   libgit2:odb_loose.obj
 0001:000709a0       _read_loose                100719a0 f   libgit2:odb_loose.obj
 0001:00070a60       _read_header_loose         10071a60 f   libgit2:odb_loose.obj
 0001:00070c60       _locate_object             10071c60 f   libgit2:odb_loose.obj
 0001:00070d10       _fn_locate_object_short_oid 10071d10 f   libgit2:odb_loose.obj
 0001:00070e00       _locate_object_short_oid   10071e00 f   libgit2:odb_loose.obj
 0001:00071090       _loose_backend__read_header 10072090 f   libgit2:odb_loose.obj
 0001:000711c0       _loose_backend__read       100721c0 f   libgit2:odb_loose.obj
 0001:000712f0       _loose_backend__read_prefix 100722f0 f   libgit2:odb_loose.obj
 0001:00071410       _loose_backend__exists     10072410 f   libgit2:odb_loose.obj
 0001:000714a0       _loose_backend__exists_prefix 100724a0 f   libgit2:odb_loose.obj
 0001:00071540       _filename_to_oid           10072540 f   libgit2:odb_loose.obj
 0001:000715d0       _foreach_object_dir_cb     100725d0 f   libgit2:odb_loose.obj
 0001:00071660       _foreach_cb                10072660 f   libgit2:odb_loose.obj
 0001:000716b0       _loose_backend__foreach    100726b0 f   libgit2:odb_loose.obj
 0001:000717c0       _loose_backend__stream_fwrite 100727c0 f   libgit2:odb_loose.obj
 0001:00071880       _loose_backend__stream_write 10072880 f   libgit2:odb_loose.obj
 0001:000718a0       _loose_backend__stream_free 100728a0 f   libgit2:odb_loose.obj
 0001:000718c0       _loose_backend__stream     100728c0 f   libgit2:odb_loose.obj
 0001:00071a90       _loose_backend__write      10072a90 f   libgit2:odb_loose.obj
 0001:00071c30       _loose_backend__free       10072c30 f   libgit2:odb_loose.obj
 0001:00071da0       _packfile_sort__cb         10072da0 f   libgit2:odb_pack.obj
 0001:00071df0       _packfile_load__cb         10072df0 f   libgit2:odb_pack.obj
 0001:00071ed0       _pack_entry_find_inner     10072ed0 f   libgit2:odb_pack.obj
 0001:00071f50       _pack_entry_find           10072f50 f   libgit2:odb_pack.obj
 0001:00072010       _pack_entry_find_prefix    10073010 f   libgit2:odb_pack.obj
 0001:00072220       _pack_backend__refresh     10073220 f   libgit2:odb_pack.obj
 0001:000722d0       _pack_backend__read_header 100732d0 f   libgit2:odb_pack.obj
 0001:00072340       _pack_backend__read        10073340 f   libgit2:odb_pack.obj
 0001:000723b0       _pack_backend__read_prefix 100733b0 f   libgit2:odb_pack.obj
 0001:000724c0       _pack_backend__exists      100734c0 f   libgit2:odb_pack.obj
 0001:000724f0       _pack_backend__exists_prefix 100734f0 f   libgit2:odb_pack.obj
 0001:00072560       _pack_backend__foreach     10073560 f   libgit2:odb_pack.obj
 0001:000725d0       _pack_backend__writepack_append 100735d0 f   libgit2:odb_pack.obj
 0001:00072610       _pack_backend__writepack_commit 10073610 f   libgit2:odb_pack.obj
 0001:00072650       _pack_backend__writepack_free 10073650 f   libgit2:odb_pack.obj
 0001:00072690       _pack_backend__writepack   10073690 f   libgit2:odb_pack.obj
 0001:00072740       _pack_backend__free        10073740 f   libgit2:odb_pack.obj
 0001:000727e0       _pack_backend__alloc       100737e0 f   libgit2:odb_pack.obj
 0001:00072a00       _giterr_set_after_callback_function 10073a00 f   libgit2:fetchhead.obj
 0001:00072b70       _fetchhead_ref_write       10073b70 f   libgit2:fetchhead.obj
 0001:00072df0       _fetchhead_ref_parse       10073df0 f   libgit2:fetchhead.obj
 0001:00073290       _maybe_want                10074290 f   libgit2:fetch.obj
 0001:00073330       _filter_wants              10074330 f   libgit2:fetch.obj
 0001:00073580       _push_status_ref_cmp       10074580 f   libgit2:push.obj
 0001:00073750       _check_rref                10074750 f   libgit2:push.obj
 0001:000737a0       _check_lref                100747a0 f   libgit2:push.obj
 0001:00073800       _parse_refspec             10074800 f   libgit2:push.obj
 0001:00073b40       _enqueue_tag               10074b40 f   libgit2:push.obj
 0001:00073c60       _revwalk                   10074c60 f   libgit2:push.obj
 0001:00074360       _enqueue_object            10075360 f   libgit2:push.obj
 0001:000743e0       _queue_differences         100753e0 f   libgit2:push.obj
 0001:00074680       _queue_objects             10075680 f   libgit2:push.obj
 0001:00074890       _add_update                10075890 f   libgit2:push.obj
 0001:00074940       _calculate_work            10075940 f   libgit2:push.obj
 0001:00074a40       _do_push                   10075a40 f   libgit2:push.obj
 0001:00074b50       _filter_refs               10075b50 f   libgit2:push.obj
 0001:00074f50       _transport_find_by_url     10075f50 f   libgit2:transport.obj
 0001:00074fe0       _transport_find_fn         10075fe0 f   libgit2:transport.obj
 0001:00075aa0       _hashsig_cmp_max           10076aa0 f   libgit2:hashsig.obj
 0001:00075ac0       _hashsig_cmp_min           10076ac0 f   libgit2:hashsig.obj
 0001:00075ae0       _hashsig_heap_down         10076ae0 f   libgit2:hashsig.obj
 0001:00075ba0       _hashsig_in_progress_init  10076ba0 f   libgit2:hashsig.obj
 0001:00075c70       _hashsig_add_hashes        10076c70 f   libgit2:hashsig.obj
 0001:00075f30       _hashsig_finalize_hashes   10076f30 f   libgit2:hashsig.obj
 0001:00076290       _hashsig_heap_compare      10077290 f   libgit2:hashsig.obj
 0001:000763c0       _packref_cmp               100773c0 f   libgit2:refdb_fs.obj
 0001:00076400       _packed_reload             10077400 f   libgit2:refdb_fs.obj
 0001:000766b0       _loose_parse_oid           100776b0 f   libgit2:refdb_fs.obj
 0001:00076720       _loose_lookup_to_packfile  10077720 f   libgit2:refdb_fs.obj
 0001:000768b0       __dirent_loose_load        100778b0 f   libgit2:refdb_fs.obj
 0001:00076980       _packed_loadloose          10077980 f   libgit2:refdb_fs.obj
 0001:00076a00       _refdb_fs_backend__exists  10077a00 f   libgit2:refdb_fs.obj
 0001:00076ad0       _loose_lookup              10077ad0 f   libgit2:refdb_fs.obj
 0001:00076c60       _ref_error_notfound        10077c60 f   libgit2:refdb_fs.obj
 0001:00076c80       _packed_lookup             10077c80 f   libgit2:refdb_fs.obj
 0001:00076d50       _refdb_fs_backend__lookup  10077d50 f   libgit2:refdb_fs.obj
 0001:00076db0       _refdb_fs_backend__iterator_free 10077db0 f   libgit2:refdb_fs.obj
 0001:00076e40       _iter_load_loose_paths     10077e40 f   libgit2:refdb_fs.obj
 0001:000770f0       _refdb_fs_backend__iterator_next 100780f0 f   libgit2:refdb_fs.obj
 0001:00077320       _refdb_fs_backend__iterator_next_name 10078320 f   libgit2:refdb_fs.obj
 0001:000774e0       _refdb_fs_backend__iterator 100784e0 f   libgit2:refdb_fs.obj
 0001:000775c0       _ref_is_available          100785c0 f   libgit2:refdb_fs.obj
 0001:00077650       _reference_path_available  10078650 f   libgit2:refdb_fs.obj
 0001:000777c0       _loose_lock                100787c0 f   libgit2:refdb_fs.obj
 0001:000778b0       _loose_commit              100788b0 f   libgit2:refdb_fs.obj
 0001:00077960       _refdb_fs_backend__lock    10078960 f   libgit2:refdb_fs.obj
 0001:000779c0       _refdb_fs_backend__unlock  100789c0 f   libgit2:refdb_fs.obj
 0001:00077a50       _packed_find_peel          10078a50 f   libgit2:refdb_fs.obj
 0001:00077ad0       _packed_write_ref          10078ad0 f   libgit2:refdb_fs.obj
 0001:00077b90       _packed_remove_loose       10078b90 f   libgit2:refdb_fs.obj
 0001:00077d40       _packed_write              10078d40 f   libgit2:refdb_fs.obj
 0001:00077e90       _should_write_reflog       10078e90 f   libgit2:refdb_fs.obj
 0001:00077f70       _cmp_old_ref               10078f70 f   libgit2:refdb_fs.obj
 0001:000780b0       _maybe_append_head         100790b0 f   libgit2:refdb_fs.obj
 0001:000782f0       _refdb_fs_backend__write   100792f0 f   libgit2:refdb_fs.obj
 0001:000783d0       _refdb_fs_backend__write_tail 100793d0 f   libgit2:refdb_fs.obj
 0001:000784f0       _refdb_fs_backend__delete  100794f0 f   libgit2:refdb_fs.obj
 0001:000785d0       _refdb_fs_backend__delete_tail 100795d0 f   libgit2:refdb_fs.obj
 0001:00078750       _refdb_fs_backend__rename  10079750 f   libgit2:refdb_fs.obj
 0001:000789c0       _refdb_fs_backend__compress 100799c0 f   libgit2:refdb_fs.obj
 0001:00078a10       _refdb_fs_backend__free    10079a10 f   libgit2:refdb_fs.obj
 0001:00078a70       _setup_namespace           10079a70 f   libgit2:refdb_fs.obj
 0001:00078b80       _reflog_alloc              10079b80 f   libgit2:refdb_fs.obj
 0001:00078c10       _reflog_parse              10079c10 f   libgit2:refdb_fs.obj
 0001:00079010       _create_new_reflog_file    1007a010 f   libgit2:refdb_fs.obj
 0001:00079050       _refdb_reflog_fs__ensure_log 1007a050 f   libgit2:refdb_fs.obj
 0001:00079120       _has_reflog                1007a120 f   libgit2:refdb_fs.obj
 0001:000791c0       _refdb_reflog_fs__has_log  1007a1c0 f   libgit2:refdb_fs.obj
 0001:00079200       _refdb_reflog_fs__read     1007a200 f   libgit2:refdb_fs.obj
 0001:00079360       _serialize_reflog_entry    1007a360 f   libgit2:refdb_fs.obj
 0001:00079540       _lock_reflog               1007a540 f   libgit2:refdb_fs.obj
 0001:00079620       _refdb_reflog_fs__write    1007a620 f   libgit2:refdb_fs.obj
 0001:00079770       _reflog_append             1007a770 f   libgit2:refdb_fs.obj
 0001:00079ab0       _refdb_reflog_fs__rename   1007aab0 f   libgit2:refdb_fs.obj
 0001:00079cc0       _refdb_reflog_fs__delete   1007acc0 f   libgit2:refdb_fs.obj
 0001:00079fb0       _win32_walkpath            1007afb0 f   libgit2:findfile.obj
 0001:0007a040       _win32_find_git_in_path    1007b040 f   libgit2:findfile.obj
 0001:0007a220       _win32_find_git_in_registry 1007b220 f   libgit2:findfile.obj
 0001:0007a3b0       _win32_find_existing_dirs  1007b3b0 f   libgit2:findfile.obj
 0001:0007a680       _xdl_split                 1007b680 f   libgit2:xdiffi.obj
 0001:0007b5c0       _xdl_call_hunk_func        1007c5c0 f   libgit2:xdiffi.obj
 0001:0007b6d0       _xdl_mark_ignorable        1007c6d0 f   libgit2:xdiffi.obj
 0001:0007b8e0       _git_array_grow            1007c8e0 f   libgit2:pack.obj
 0001:0007b980       _kh_get_off                1007c980 f   libgit2:pack.obj
 0001:0007ba60       _kh_resize_off             1007ca60 f   libgit2:pack.obj
 0001:0007bdd0       _kh_put_off                1007cdd0 f   libgit2:pack.obj
 0001:0007bf90       _cache_free                1007cf90 f   libgit2:pack.obj
 0001:0007c040       _cache_init                1007d040 f   libgit2:pack.obj
 0001:0007c090       _free_lowest_entry         1007d090 f   libgit2:pack.obj
 0001:0007c140       _cache_add                 1007d140 f   libgit2:pack.obj
 0001:0007c260       _pack_index_check          1007d260 f   libgit2:pack.obj
 0001:0007c480       _pack_index_open           1007d480 f   libgit2:pack.obj
 0001:0007c5e0       _packfile_unpack_header1   1007d5e0 f   libgit2:pack.obj
 0001:0007c980       _pack_dependency_chain     1007d980 f   libgit2:pack.obj
 0001:0007d060       $LN84                      1007e060     libgit2:pack.obj
 0001:0007d06c       $LN76                      1007e06c     libgit2:pack.obj
 0001:0007d080       _use_git_alloc             1007e080 f   libgit2:pack.obj
 0001:0007d250       _packfile_unpack_compressed 1007e250 f   libgit2:pack.obj
 0001:0007d6f0       _packfile_open             1007e6f0 f   libgit2:pack.obj
 0001:0007dc00       _nth_packed_object_offset  1007ec00 f   libgit2:pack.obj
 0001:0007dc90       _git__memcmp4              1007ec90 f   libgit2:pack.obj
 0001:0007df30       _pack_entry_find_offset    1007ef30 f   libgit2:pack.obj
 0001:0007e650       _xdl_hash_record_with_whitespace 1007f650 f   libgit2:xutils.obj
 0001:0007eac0       _xdl_init_classifier       1007fac0 f   libgit2:xprepare.obj
 0001:0007ebf0       _xdl_free_classifier       1007fbf0 f   libgit2:xprepare.obj
 0001:0007ec30       _xdl_classify_record       1007fc30 f   libgit2:xprepare.obj
 0001:0007edd0       _xdl_prepare_ctx           1007fdd0 f   libgit2:xprepare.obj
 0001:0007f0c0       _xdl_free_ctx              100800c0 f   libgit2:xprepare.obj
 0001:0007f270       _xdl_clean_mmatch          10080270 f   libgit2:xprepare.obj
 0001:0007f330       _xdl_cleanup_records       10080330 f   libgit2:xprepare.obj
 0001:0007f560       _xdl_trim_ends             10080560 f   libgit2:xprepare.obj
 0001:0007f630       _parse_header              10080630 f   libgit2:indexer.obj
 0001:0007f6d0       _objects_cmp               100806d0 f   libgit2:indexer.obj
 0001:0007f910       _hash_header               10080910 f   libgit2:indexer.obj
 0001:0007f9a0       _hash_object_stream        100809a0 f   libgit2:indexer.obj
 0001:0007fa20       _advance_delta_offset      10080a20 f   libgit2:indexer.obj
 0001:0007fac0       _read_object_stream        10080ac0 f   libgit2:indexer.obj
 0001:0007fc10       _crc_object                10080c10 f   libgit2:indexer.obj
 0001:0007fd10       _store_object              10080d10 f   libgit2:indexer.obj
 0001:0007fed0       _save_entry                10080ed0 f   libgit2:indexer.obj
 0001:0007ff80       _hash_and_save             10080f80 f   libgit2:indexer.obj
 0001:000800b0       _do_progress_callback      100810b0 f   libgit2:indexer.obj
 0001:00080110       _hash_partially            10081110 f   libgit2:indexer.obj
 0001:00080210       _write_at                  10081210 f   libgit2:indexer.obj
 0001:000802c0       _append_to_pack            100812c0 f   libgit2:indexer.obj
 0001:00080820       _index_path                10081820 f   libgit2:indexer.obj
 0001:00080960       _inject_object             10081960 f   libgit2:indexer.obj
 0001:00080bf0       _fix_thin_pack             10081bf0 f   libgit2:indexer.obj
 0001:00080d60       _resolve_deltas            10081d60 f   libgit2:indexer.obj
 0001:00080f20       _update_header_and_rehash  10081f20 f   libgit2:indexer.obj
 0001:00081780       _git__timer                10082780 f   libgit2:pack-objects.obj
 0001:000817d0       _kh_resize_oid             100827d0 f   libgit2:pack-objects.obj
 0001:00081ae0       _kh_put_oid                10082ae0 f   libgit2:pack-objects.obj
 0001:00081cb0       _name_hash                 10082cb0 f   libgit2:pack-objects.obj
 0001:00081d00       _packbuilder_config        10082d00 f   libgit2:pack-objects.obj
 0001:00082180       _rehash                    10083180 f   libgit2:pack-objects.obj
 0001:00082430       _get_delta                 10083430 f   libgit2:pack-objects.obj
 0001:00082530       _write_object              10083530 f   libgit2:pack-objects.obj
 0001:000827d0       _write_one                 100837d0 f   libgit2:pack-objects.obj
 0001:00082870       _add_family_to_write_order 10083870 f   libgit2:pack-objects.obj
 0001:00082910       _cb_tag_foreach            10083910 f   libgit2:pack-objects.obj
 0001:00082940       _compute_write_order       10083940 f   libgit2:pack-objects.obj
 0001:00082be0       _write_pack                10083be0 f   libgit2:pack-objects.obj
 0001:00082e00       _write_pack_buf            10083e00 f   libgit2:pack-objects.obj
 0001:00082e20       _type_size_sort            10083e20 f   libgit2:pack-objects.obj
 0001:00082e70       _delta_cacheable           10083e70 f   libgit2:pack-objects.obj
 0001:00082ef0       _try_delta                 10083ef0 f   libgit2:pack-objects.obj
 0001:00083270       _check_delta_limit         10084270 f   libgit2:pack-objects.obj
 0001:000832a0       _report_delta_progress     100842a0 f   libgit2:pack-objects.obj
 0001:00083380       _find_deltas               10084380 f   libgit2:pack-objects.obj
 0001:00083850       _threaded_find_deltas      10084850 f   libgit2:pack-objects.obj
 0001:00083950       _ll_find_deltas            10084950 f   libgit2:pack-objects.obj
 0001:00083da0       _prepare_pack              10084da0 f   libgit2:pack-objects.obj
 0001:00083f80       _write_cb                  10084f80 f   libgit2:pack-objects.obj
 0001:000840a0       _cb_tree_walk              100850a0 f   libgit2:pack-objects.obj
 0001:00084418       $LN23                      10085418     libgit2:pack-objects.obj
 0001:000844c0       _retrieve_object           100854c0 f   libgit2:pack-objects.obj
 0001:00084560       _mark_tree_uninteresting   10085560 f   libgit2:pack-objects.obj
 0001:000846b0       _mark_edges_uninteresting  100856b0 f   libgit2:pack-objects.obj
 0001:00084bc0       _git_smart__recv_cb        10085bc0 f   libgit2:smart.obj
 0001:00084c60       _git_smart__set_callbacks  10085c60 f   libgit2:smart.obj
 0001:00084c90       _git_smart__set_custom_headers 10085c90 f   libgit2:smart.obj
 0001:00084fb0       _free_symrefs              10085fb0 f   libgit2:smart.obj
 0001:00085020       _git_smart__connect        10086020 f   libgit2:smart.obj
 0001:00085280       _git_smart__ls             10086280 f   libgit2:smart.obj
 0001:00085480       _git_smart__cancel         10086480 f   libgit2:smart.obj
 0001:000854a0       _git_smart__is_connected   100864a0 f   libgit2:smart.obj
 0001:000854c0       _git_smart__read_flags     100864c0 f   libgit2:smart.obj
 0001:000854d0       _git_smart__close          100864d0 f   libgit2:smart.obj
 0001:00085630       _git_smart__free           10086630 f   libgit2:smart.obj
 0001:00085750       _ref_name_cmp              10086750 f   libgit2:smart.obj
 0001:00085920       _gen_proto                 10086920 f   libgit2:git.obj
 0001:00085ab0       _send_command              10086ab0 f   libgit2:git.obj
 0001:00085b30       _git_proto_stream_read     10086b30 f   libgit2:git.obj
 0001:00085bb0       _git_proto_stream_write    10086bb0 f   libgit2:git.obj
 0001:00085be0       _git_proto_stream_free     10086be0 f   libgit2:git.obj
 0001:00085c30       _git_proto_stream_alloc    10086c30 f   libgit2:git.obj
 0001:00085d10       __git_uploadpack_ls        10086d10 f   libgit2:git.obj
 0001:00085e80       __git_receivepack_ls       10086e80 f   libgit2:git.obj
 0001:00085fe0       __git_action               10086fe0 f   libgit2:git.obj
 0001:00086070       $LN18                      10087070     libgit2:git.obj
 0001:00086080       __git_close                10087080 f   libgit2:git.obj
 0001:000860b0       __git_free                 100870b0 f   libgit2:git.obj
 0001:00086170       _git_has_win32_version     10087170 f   libgit2:winhttp.obj
 0001:00086210       _apply_basic_credential    10087210 f   libgit2:winhttp.obj
 0001:000863a0       _fallback_cred_acquire_cb  100873a0 f   libgit2:winhttp.obj
 0001:00086470       _certificate_check         10087470 f   libgit2:winhttp.obj
 0001:00086550       _winhttp_stream_close      10087550 f   libgit2:winhttp.obj
 0001:000865c0       _winhttp_stream_connect    100875c0 f   libgit2:winhttp.obj
 0001:00086a30       _write_chunk               10087a30 f   libgit2:winhttp.obj
 0001:00086b40       _winhttp_close_connection  10087b40 f   libgit2:winhttp.obj
 0001:00086bb0       _user_agent                10087bb0 f   libgit2:winhttp.obj
 0001:00086cc0       _winhttp_connect           10087cc0 f   libgit2:winhttp.obj
 0001:00086e80       _send_request              10087e80 f   libgit2:winhttp.obj
 0001:00086fd0       _winhttp_stream_read       10087fd0 f   libgit2:winhttp.obj
 0001:00087780       _winhttp_stream_write_single 10088780 f   libgit2:winhttp.obj
 0001:00087820       _put_uuid_string           10088820 f   libgit2:winhttp.obj
 0001:00087930       _get_temp_file             10088930 f   libgit2:winhttp.obj
 0001:000879b0       _winhttp_stream_write_buffered 100889b0 f   libgit2:winhttp.obj
 0001:00087ae0       _winhttp_stream_write_chunked 10088ae0 f   libgit2:winhttp.obj
 0001:00087c30       _winhttp_stream_free       10088c30 f   libgit2:winhttp.obj
 0001:00087c40       _winhttp_receivepack       10088c40 f   libgit2:winhttp.obj
 0001:00087c90       _winhttp_action            10088c90 f   libgit2:winhttp.obj
 0001:00087da8       $LN38                      10088da8     libgit2:winhttp.obj
 0001:00087dc0       _winhttp_close             10088dc0 f   libgit2:winhttp.obj
 0001:00087e60       _winhttp_free              10088e60 f   libgit2:winhttp.obj
 0001:00087ed0       _free_head                 10088ed0 f   libgit2:local.obj
 0001:00087ef0       _free_heads                10088ef0 f   libgit2:local.obj
 0001:00087f50       _add_ref                   10088f50 f   libgit2:local.obj
 0001:00088260       _store_refs                10089260 f   libgit2:local.obj
 0001:000883f0       _local_connect             100893f0 f   libgit2:local.obj
 0001:000884d0       _local_ls                  100894d0 f   libgit2:local.obj
 0001:00088510       _local_negotiate_fetch     10089510 f   libgit2:local.obj
 0001:000885f0       _local_push_update_remote_ref 100895f0 f   libgit2:local.obj
 0001:00088690       _transfer_to_push_transfer 10089690 f   libgit2:local.obj
 0001:000886c0       _local_push                100896c0 f   libgit2:local.obj
 0001:000889e0       _foreach_cb                100899e0 f   libgit2:local.obj
 0001:00088a10       _local_counting            10089a10 f   libgit2:local.obj
 0001:00088b40       _local_download_pack       10089b40 f   libgit2:local.obj
 0001:00088ec0       _local_set_callbacks       10089ec0 f   libgit2:local.obj
 0001:00088ee0       _local_is_connected        10089ee0 f   libgit2:local.obj
 0001:00088ef0       _local_read_flags          10089ef0 f   libgit2:local.obj
 0001:00088f00       _local_cancel              10089f00 f   libgit2:local.obj
 0001:00088f10       _local_close               10089f10 f   libgit2:local.obj
 0001:00088f50       _local_free                10089f50 f   libgit2:local.obj
 0001:00089060       _kh_del_str                1008a060 f   libgit2:sortedcache.obj
 0001:00089200       _sortedcache_clear         1008a200 f   libgit2:sortedcache.obj
 0001:000892c0       _sortedcache_free          1008a2c0 f   libgit2:sortedcache.obj
 0001:00089390       _sortedcache_copy_item     1008a390 f   libgit2:sortedcache.obj
 0001:000897a0       _sortedcache_magic_cmp     1008a7a0 f   libgit2:sortedcache.obj
 0001:000899b0       _def_ff                    1008a9b0 f   libgit2:xemit.obj
 0001:00089a30       _xdl_emit_common           1008aa30 f   libgit2:xemit.obj
 0001:00089af0       _get_func_line             1008aaf0 f   libgit2:xemit.obj
 0001:0008a230       _insert_record             1008b230 f   libgit2:xpatience.obj
 0001:0008a340       _fill_hashmap              1008b340 f   libgit2:xpatience.obj
 0001:0008a3f0       _find_longest_common_sequence 1008b3f0 f   libgit2:xpatience.obj
 0001:0008a500       _walk_common_sequence      1008b500 f   libgit2:xpatience.obj
 0001:0008a6b0       _patience_diff             1008b6b0 f   libgit2:xpatience.obj
 0001:0008a7f0       _scanA                     1008b7f0 f   libgit2:xhistogram.obj
 0001:0008a8f0       _try_lcs                   1008b8f0 f   libgit2:xhistogram.obj
 0001:0008ac00       _find_lcs                  1008bc00 f   libgit2:xhistogram.obj
 0001:0008aca0       _histogram_diff            1008bca0 f   libgit2:xhistogram.obj
 0001:0008afa0       _hdr_sz                    1008bfa0 f   libgit2:delta-apply.obj
 0001:0008b510       _append_symref             1008c510 f   libgit2:smart_protocol.obj
 0001:0008b860       _recv_pkt                  1008c860 f   libgit2:smart_protocol.obj
 0001:0008b900       _store_common              1008c900 f   libgit2:smart_protocol.obj
 0001:0008b970       _fetch_setup_walk          1008c970 f   libgit2:smart_protocol.obj
 0001:0008bb70       _wait_while_ack            1008cb70 f   libgit2:smart_protocol.obj
 0001:0008c0c0       _no_sideband               1008d0c0 f   libgit2:smart_protocol.obj
 0001:0008c170       _network_packetsize        1008d170 f   libgit2:smart_protocol.obj
 0001:0008c3f0       _gen_pktline               1008d3f0 f   libgit2:smart_protocol.obj
 0001:0008c560       _add_push_report_pkt       1008d560 f   libgit2:smart_protocol.obj
 0001:0008c650       $LN32                      1008d650     libgit2:smart_protocol.obj
 0001:0008c664       $LN28                      1008d664     libgit2:smart_protocol.obj
 0001:0008c680       _add_push_report_sideband_pkt 1008d680 f   libgit2:smart_protocol.obj
 0001:0008c7f0       _parse_report              1008d7f0 f   libgit2:smart_protocol.obj
 0001:0008ca10       _update_refs_from_report   1008da10 f   libgit2:smart_protocol.obj
 0001:0008ce70       _stream_thunk              1008de70 f   libgit2:smart_protocol.obj
 0001:0008d0f0       _ack_pkt                   1008e0f0 f   libgit2:smart_pkt.obj
 0001:0008d200       _comment_pkt               1008e200 f   libgit2:smart_pkt.obj
 0001:0008d280       _err_pkt                   1008e280 f   libgit2:smart_pkt.obj
 0001:0008d300       _data_pkt                  1008e300 f   libgit2:smart_pkt.obj
 0001:0008d370       _sideband_progress_pkt     1008e370 f   libgit2:smart_pkt.obj
 0001:0008d3e0       _sideband_error_pkt        1008e3e0 f   libgit2:smart_pkt.obj
 0001:0008d460       _ref_pkt                   1008e460 f   libgit2:smart_pkt.obj
 0001:0008d580       _ok_pkt                    1008e580 f   libgit2:smart_pkt.obj
 0001:0008d640       _ng_pkt                    1008e640 f   libgit2:smart_pkt.obj
 0001:0008d780       _unpack_pkt                1008e780 f   libgit2:smart_pkt.obj
 0001:0008d800       _parse_len                 1008e800 f   libgit2:smart_pkt.obj
 0001:0008dba0       _buffer_want_with_caps     1008eba0 f   libgit2:smart_pkt.obj
 0001:0008dfd0       _git__substrdup            1008efd0 f   libgit2:netops.obj
 0001:0008e020       _recv_stream               1008f020 f   libgit2:netops.obj
 0001:0008e3a0       _unescape                  1008f3a0 f   libgit2:netops.obj
 0001:0008e6a0       _net_set_error             1008f6a0 f   libgit2:socket_stream.obj
 0001:0008e6e0       _close_socket              1008f6e0 f   libgit2:socket_stream.obj
 0001:0008eb30       _ssh_custom_free           1008fb30 f   libgit2:cred.obj
 0001:0008eb30       _plaintext_free            1008fb30 f   libgit2:cred.obj
 0001:0008ec70       _ssh_key_free              1008fc70 f   libgit2:cred.obj
 0001:0008ed30       _ssh_interactive_free      1008fd30 f   libgit2:cred.obj
 0001:0008ed90       _git_cred_ssh_key_type_new 1008fd90 f   libgit2:cred.obj
 0001:0008f1f0       _config_level_to_sysdir    100901f0 f   libgit2:settings.obj
 0001:0008f228       $LN11                      10090228     libgit2:settings.obj
 0001:0008f558       $LN90                      10090558     libgit2:settings.obj
 0001:0008f7d0       _putShortMSB               100907d0 f   zlib:deflate.obj
 0001:0008f800       _flush_pending             10090800 f   zlib:deflate.obj
 0001:0008fc20       _lm_init                   10090c20 f   zlib:deflate.obj
 0001:0008fcd0       _longest_match             10090cd0 f   zlib:deflate.obj
 0001:0008fe40       _fill_window               10090e40 f   zlib:deflate.obj
 0001:00090040       _deflate_stored            10091040 f   zlib:deflate.obj
 0001:00090320       _deflate_fast              10091320 f   zlib:deflate.obj
 0001:00090730       _deflate_slow              10091730 f   zlib:deflate.obj
 0001:00090c20       _deflate_rle               10091c20 f   zlib:deflate.obj
 0001:00090fd0       _deflate_huff              10091fd0 f   zlib:deflate.obj
 0001:000913f0       _updatewindow              100923f0 f   zlib:inflate.obj
 0001:00092500       $LN530                     10093500     zlib:inflate.obj
 0001:0009257c       $LN531                     1009357c     zlib:inflate.obj
 0001:00092730       _init_block                10093730 f   zlib:trees.obj
 0001:000927c0       _pqdownheap                100937c0 f   zlib:trees.obj
 0001:00092890       _gen_bitlen                10093890 f   zlib:trees.obj
 0001:00092ac0       _gen_codes                 10093ac0 f   zlib:trees.obj
 0001:00092b60       _build_tree                10093b60 f   zlib:trees.obj
 0001:00092d70       _scan_tree                 10093d70 f   zlib:trees.obj
 0001:00092e60       _send_tree                 10093e60 f   zlib:trees.obj
 0001:00093360       _build_bl_tree             10094360 f   zlib:trees.obj
 0001:00093440       _send_all_trees            10094440 f   zlib:trees.obj
 0001:00093a30       _compress_block            10094a30 f   zlib:trees.obj
 0001:00093e20       _detect_data_type          10094e20 f   zlib:trees.obj
 0001:00093e90       _bi_flush                  10094e90 f   zlib:trees.obj
 0001:00093f10       _bi_windup                 10094f10 f   zlib:trees.obj
 0001:00093f70       _copy_block                10094f70 f   zlib:trees.obj
 0001:00094b80       _parse_url_char            10095b80 f   http_parser:http_parser.obj
 0001:00094dc4       $LN62                      10095dc4     http_parser:http_parser.obj
 0001:00094e00       _http_parse_host_char      10095e00 f   http_parser:http_parser.obj
 0001:00094f30       $LN35                      10095f30     http_parser:http_parser.obj
 0001:00094f60       _http_parse_host           10095f60 f   http_parser:http_parser.obj
 0001:00095044       $LN30                      10096044     http_parser:http_parser.obj
 0001:00095064       $LN31                      10096064     http_parser:http_parser.obj
 0001:0009506c       $LN27                      1009606c     http_parser:http_parser.obj
 0001:000951a0       $LN30                      100961a0     http_parser:http_parser.obj
 0001:000951c4       $LN28                      100961c4     http_parser:http_parser.obj
 0001:000953d7       ?dllmain_crt_dispatch@@YGHQAUHINSTANCE__@@KQAX@Z 100963d7 f   LIBCMT:dll_dllmain.obj
 0001:0009542a       ?dllmain_crt_process_attach@@YAHQAUHINSTANCE__@@QAX@Z 1009642a f   LIBCMT:dll_dllmain.obj
 0001:0009553c       ?dllmain_crt_process_detach@@YAH_N@Z 1009653c f   LIBCMT:dll_dllmain.obj
 0001:000955b9       ?dllmain_dispatch@@YAHQAUHINSTANCE__@@KQAX@Z 100965b9 f   LIBCMT:dll_dllmain.obj
 0001:000956b5       ?dllmain_raw@@YGHQAUHINSTANCE__@@KQAX@Z 100966b5 f   LIBCMT:dll_dllmain.obj
 0001:000959a2       ?find_pe_section@@YAPAU_IMAGE_SECTION_HEADER@@QAEI@Z 100969a2 f   LIBCMT:utility.obj
 0001:00095f30       $$000000                   10096f30     LIBCMT:_sehprolg4_.obj
 0001:00096140       $$000000                   10097140     libvcruntime:memmove.obj
 0001:000963a4       TrailingUpVec              100973a4     libvcruntime:memmove.obj
 0001:00096450       TrailingDownVec            10097450     libvcruntime:memmove.obj
 0001:000966c0       $$000000                   100976c0     libvcruntime:strchr.obj
 0001:000967f0       $$000000                   100977f0     libvcruntime:strrchr.obj
 0001:00096930       $$000000                   10097930     libvcruntime:memchr.obj
 0001:000969e0       $$000000                   100979e0     libvcruntime:strstr.obj
 0001:00096d40       _ValidateLocalCookies      10097d40 f   libvcruntime:_chandler4_.obj
 0001:00096f70       $$000000                   10097f70     libvcruntime:memset.obj
 0001:000970d0       $$000000                   100980d0     libvcruntime:_exsup4_.obj
 0001:00097160       __unwind_handler4          10098160 f   libvcruntime:_exsup4_.obj
 0001:000973e8       ?try_get_function@@YAPAXW4function_id@?A0x89697e75@@QBDQBW4module_id@2@2@Z 100983e8 f   libvcruntime:winapi_downlevel.obj
 0001:00097488       ?try_get_module@@YAPAUHINSTANCE__@@W4module_id@?A0x89697e75@@@Z 10098488 f   libvcruntime:winapi_downlevel.obj
 0001:000976d0       $$000000                   100986d0     libvcruntime:_exsup_.obj
 0001:000976f0       __unwind_handler           100986f0 f   libvcruntime:_exsup_.obj
 0001:00097810       $$000000                   10098810     libucrt:strncmp.obj
 0001:00097888       ??$common_assert_to_message_box@_W@@YAXQB_W0IQAX@Z 10098888 f   libucrt:assert.obj
 0001:00097924       ??$common_assert_to_message_box_build_string@_W@@YAXQA_WIQB_W1IQAX@Z 10098924 f   libucrt:assert.obj
 0001:00097e69       ??$common_assert_to_stderr@_W@@YAXQB_W0I@Z 10098e69 f   libucrt:assert.obj
 0001:00097f14       ?common_assert_to_stderr_direct@@YAXQB_W0I@Z 10098f14 f   libucrt:assert.obj
 0001:00097fc5       ?get_assert_format@@YAPB_W_W@Z 10098fc5 f   libucrt:assert.obj
 0001:000986a0       $$000000                   100996a0     libucrt:strcspn.obj
 0001:000986f0       $$000000                   100996f0     libucrt:strpbrk.obj
 0001:00098730       $$000000                   10099730     libucrt:strncpy.obj
 0001:000989f4       ??$common_strerror@D@@YAPADH@Z 100999f4 f   libucrt:strerror.obj
 0001:00098c64       ??$common_vsnprintf_s@D@@YAH_KQADIIQBDQAU__crt_locale_pointers@@1@Z 10099c64 f   libucrt:output.obj
 0001:00098d68       ??$common_vsprintf@Vformat_validation_base@__crt_stdio_output@@D@@YAH_KQADIQBDQAU__crt_locale_pointers@@1@Z 10099d68 f   libucrt:output.obj
 0001:00098ee4       ??$common_vsprintf@Vformat_validation_base@__crt_stdio_output@@_W@@YAH_KQA_WIQB_WQAU__crt_locale_pointers@@QAD@Z 10099ee4 f   libucrt:output.obj
 0001:00099069       ??$common_vsprintf@Vstandard_base@__crt_stdio_output@@D@@YAH_KQADIQBDQAU__crt_locale_pointers@@1@Z 1009a069 f   libucrt:output.obj
 0001:000991e5       ??$common_vsprintf@Vstandard_base@__crt_stdio_output@@_W@@YAH_KQA_WIQB_WQAU__crt_locale_pointers@@QAD@Z 1009a1e5 f   libucrt:output.obj
 0001:0009936a       ??$common_vsprintf_s@_W@@YAH_KQA_WIQB_WQAU__crt_locale_pointers@@QAD@Z 1009a36a f   libucrt:output.obj
 0001:0009986d       ??R<lambda_481dd5778c961fbcd3b60b650e9b9dc4>@@QBEHXZ 1009a86d f   libucrt:output.obj
 0001:00099c71       $LN52                      1009ac71     libucrt:output.obj
 0001:00099d8d       $LN54                      1009ad8d     libucrt:output.obj
 0001:00099ead       $LN54                      1009aead     libucrt:output.obj
 0001:00099fdd       $LN52                      1009afdd     libucrt:output.obj
 0001:0009a0fd       $LN54                      1009b0fd     libucrt:output.obj
 0001:0009aed3       $LN19                      1009bed3     libucrt:output.obj
 0001:0009bd81       ??$common_lseek@_J@@YA_JH_JH@Z 1009cd81 f   libucrt:lseek.obj
 0001:0009be86       ??$common_lseek_nolock@_J@@YA_JH_JH@Z 1009ce86 f   libucrt:lseek.obj
 0001:0009bf3a       ?get_drive_number_from_path@@YAHQB_W@Z 1009cf3a f   libucrt:drive.obj
 0001:0009c6d7       ??$common_open@_W@@YAHQB_WHH@Z 1009d6d7 f   libucrt:open.obj
 0001:0009c787       ?configure_text_mode@@YAHHUfile_options@?A0x704126de@@HAAW4__crt_lowio_text_mode@@@Z 1009d787 f   libucrt:open.obj
 0001:0009c9d4       ?create_file@@YAPAXQB_WQAU_SECURITY_ATTRIBUTES@@Ufile_options@?A0x704126de@@@Z 1009d9d4 f   libucrt:open.obj
 0001:0009c9f9       ?decode_open_create_flags@@YAKH@Z 1009d9f9 f   libucrt:open.obj
 0001:0009ca69       ?decode_options@@YA?AUfile_options@?A0x704126de@@HHH@Z 1009da69 f   libucrt:open.obj
 0001:0009cbe5       ?truncate_ctrl_z_if_present@@YAHH@Z 1009dbe5 f   libucrt:open.obj
 0001:0009d079       ??$common_gmtime_s@_J@@YAHQAUtm@@QB_J@Z 1009e079 f   libucrt:gmtime.obj
 0001:0009d1c6       ?compute_year@@YAHAA_JAA_N@Z 1009e1c6 f   libucrt:gmtime.obj
 0001:0009d361       ??$common_mktemp_s@D@@YAHQADI@Z 1009e361 f   libucrt:mktemp.obj
 0001:0009d47d       ??$common_localtime_s@_J@@YAHQAUtm@@QB_J@Z 1009e47d f   libucrt:localtime.obj
 0001:0009d869       ??$common_mktime@_J@@YA_JQAUtm@@_N@Z 1009e869 f   libucrt:mktime.obj
 0001:0009dcbe       ??$common_timespec_get@U_timespec64@@@@YAHQAU_timespec64@@H@Z 1009ecbe f   libucrt:time.obj
 0001:0009e24c       ??$common_tox_l@$1?internal_islower_l@@YA_NHQAU__crt_locale_pointers@@@Z$1?internal_map_upper@@YAHH0@Z@@YAHHKQAU__crt_locale_pointers@@@Z 1009f24c f   libucrt:tolower_toupper.obj
 0001:0009e396       ??$common_tox_l@$1?internal_isupper_l@@YA_NHQAU__crt_locale_pointers@@@Z$1?internal_map_lower@@YAHH0@Z@@YAHHKQAU__crt_locale_pointers@@@Z 1009f396 f   libucrt:tolower_toupper.obj
 0001:0009e4e0       ?internal_islower_l@@YA_NHQAU__crt_locale_pointers@@@Z 1009f4e0 f   libucrt:tolower_toupper.obj
 0001:0009e4fd       ?internal_isupper_l@@YA_NHQAU__crt_locale_pointers@@@Z 1009f4fd f   libucrt:tolower_toupper.obj
 0001:0009f187       ??R<lambda_b51c0495177f500e782686251704ae76>@@QBEIXZ 100a0187 f   libucrt:fwrite.obj
 0001:0009f450       $$000000                   100a0450     libucrt:strspn.obj
 0001:0009f496       ??$common_getenv@_W@@YAPA_WQB_W@Z 100a0496 f   libucrt:getenv.obj
 0001:0009f516       ??$common_getenv_nolock@D@@YAPADQBD@Z 100a0516 f   libucrt:getenv.obj
 0001:0009f586       ??$common_getenv_nolock@_W@@YAPA_WQB_W@Z 100a0586 f   libucrt:getenv.obj
 0001:0009f610       ??$common_getenv_s@D@@YAHQAIQADIQBD@Z 100a0610 f   libucrt:getenv.obj
 0001:0009f665       ??$common_getenv_s_nolock@D@@YAHQAIQADIQBD@Z 100a0665 f   libucrt:getenv.obj
 0001:0009fa32       ?atexit_exception_filter@@YAHK@Z 100a0a32 f   libucrt:exit.obj
 0001:0009fa45       ?common_exit@@YAXHW4_crt_exit_cleanup_mode@@W4_crt_exit_return_mode@@@Z 100a0a45 f   libucrt:exit.obj
 0001:0009fb5e       ?exit_or_terminate_process@@YAXI@Z 100a0b5e f   libucrt:exit.obj
 0001:0009fb9f       ?is_managed_app@@YA_NXZ    100a0b9f f   libucrt:exit.obj
 0001:0009fbe3       ?try_cor_exit_process@@YAXI@Z 100a0be3 f   libucrt:exit.obj
 0001:0009fc87       ??$common_configure_argv@D@@YAHW4_crt_argv_mode@@@Z 100a0c87 f   libucrt:argv_parsing.obj
 0001:0009fdab       ??$parse_command_line@D@@YAXPADPAPAD0PAI2@Z 100a0dab f   libucrt:argv_parsing.obj
 0001:0009ff80       ??$common_get_or_create_environment_nolock@D@@YAPAPADXZ 100a0f80 f   libucrt:environment_initialization.obj
 0001:0009ffaf       ??$common_get_or_create_environment_nolock@_W@@YAPAPA_WXZ 100a0faf f   libucrt:environment_initialization.obj
 0001:0009ffde       ??$common_initialize_environment_nolock@D@@YAHXZ 100a0fde f   libucrt:environment_initialization.obj
 0001:000a0037       ??$common_initialize_environment_nolock@_W@@YAHXZ 100a1037 f   libucrt:environment_initialization.obj
 0001:000a008b       ??$create_environment@D@@YAQAPADQAD@Z 100a108b f   libucrt:environment_initialization.obj
 0001:000a015c       ??$create_environment@_W@@YAQAPA_WQA_W@Z 100a115c f   libucrt:environment_initialization.obj
 0001:000a0256       ??$free_environment@_W@@YAXQAPA_W@Z 100a1256 f   libucrt:environment_initialization.obj
 0001:000a0256       ??$free_environment@D@@YAXQAPAD@Z 100a1256 f   libucrt:environment_initialization.obj
 0001:000a0285       ??$initialize_environment_by_cloning_nolock@D@@YAHXZ 100a1285 f   libucrt:environment_initialization.obj
 0001:000a0304       ??$initialize_environment_by_cloning_nolock@_W@@YAHXZ 100a1304 f   libucrt:environment_initialization.obj
 0001:000a03bd       ??$uninitialize_environment_internal@D@@YAXAAPAPAD@Z 100a13bd f   libucrt:environment_initialization.obj
 0001:000a03d8       ??$uninitialize_environment_internal@_W@@YAXAAPAPA_W@Z 100a13d8 f   libucrt:environment_initialization.obj
 0001:000a054a       ??R<lambda_275893d493268fdec8709772e3fcec0e>@@QBEHXZ 100a154a f   libucrt:onexit.obj
 0001:000a066a       ??R<lambda_4e60a939b0d047cfe11ddc22648dfba9>@@QBEHXZ 100a166a f   libucrt:onexit.obj
 0001:000a083f       _initialize_global_variables 100a183f f   libucrt:initialization.obj
 0001:000a0851       _initialize_c              100a1851 f   libucrt:initialization.obj
 0001:000a086b       _uninitialize_environment  100a186b f   libucrt:initialization.obj
 0001:000a0873       _uninitialize_c            100a1873 f   libucrt:initialization.obj
 0001:000a0873       _initialize_environment    100a1873 f   libucrt:initialization.obj
 0001:000a0873       _uninitialize_global_state_isolation 100a1873 f   libucrt:initialization.obj
 0001:000a0873       _report_memory_leaks       100a1873 f   libucrt:initialization.obj
 0001:000a0873       _initialize_global_state_isolation 100a1873 f   libucrt:initialization.obj
 0001:000a0876       _initialize_pointers       100a1876 f   libucrt:initialization.obj
 0001:000a08b3       _uninitialize_vcruntime    100a18b3 f   libucrt:initialization.obj
 0001:000a08bc       _uninitialize_allocated_memory 100a18bc f   libucrt:initialization.obj
 0001:000a0bd3       ??$translate_text_mode_nolock@D@@YAHHQADI@Z 100a1bd3 f   libucrt:read.obj
 0001:000a0d2a       ??$translate_text_mode_nolock@_W@@YAHHQA_WI@Z 100a1d2a f   libucrt:read.obj
 0001:000a0eea       ?translate_ansi_or_utf8_nolock@@YAHHQADIQA_WI@Z 100a1eea f   libucrt:read.obj
 0001:000a103a       ?translate_utf16_from_console_nolock@@YAHHQA_WI@Z 100a203a f   libucrt:read.obj
 0001:000a1583       ?write_double_translated_ansi_nolock@@YA?AUwrite_result@?A0x47fa6670@@HQBDI@Z 100a2583 f   libucrt:write.obj
 0001:000a1736       ?write_double_translated_unicode_nolock@@YA?AUwrite_result@?A0x47fa6670@@QBDI@Z 100a2736 f   libucrt:write.obj
 0001:000a17a3       ?write_requires_double_translation_nolock@@YA_NH@Z 100a27a3 f   libucrt:write.obj
 0001:000a1819       ?write_text_ansi_nolock@@YA?AUwrite_result@?A0x47fa6670@@HQBDI@Z 100a2819 f   libucrt:write.obj
 0001:000a18f8       ?write_text_utf16le_nolock@@YA?AUwrite_result@?A0x47fa6670@@HQBDI@Z 100a28f8 f   libucrt:write.obj
 0001:000a19e6       ?write_text_utf8_nolock@@YA?AUwrite_result@?A0x47fa6670@@HQBDI@Z 100a29e6 f   libucrt:write.obj
 0001:000a1fd9       ??$common_xtox@K_W@@YAHKQA_WII_N@Z 100a2fd9 f   libucrt:xtoa.obj
 0001:000a2067       ??$common_xtox_s@K_W@@YAHKQA_WII_N@Z 100a3067 f   libucrt:xtoa.obj
 0001:000a2213       ??$common_tcsncat_s@_W@@YAHQA_WIQB_WI@Z 100a3213 f   libucrt:wcsncat_s.obj
 0001:000a2307       ??$common_show_message_box@_W@@YAHQB_W0I@Z 100a3307 f   libucrt:crtmbox.obj
 0001:000a23e0       ??$message_box_wait_thread@_W@@YGKQAX@Z 100a33e0 f   libucrt:crtmbox.obj
 0001:000a24c3       _common_flush_all          100a34c3 f   libucrt:fflush.obj
 0001:000a266d       ??R<lambda_b721fa326cdb32351d23dfa67958c160>@@QBEHXZ 100a366d f   libucrt:setvbuf.obj
 0001:000a2707       ?set_buffer@@YAHV__crt_stdio_stream@@QADIH@Z 100a3707 f   libucrt:setvbuf.obj
 0001:000a2832       ?get_global_action_nolock@@YAPAP6AXH@ZH@Z 100a3832 f   libucrt:signal.obj
 0001:000a2874       ?siglookup@@YAPAU__crt_signal_action_t@@HQAU1@@Z 100a3874 f   libucrt:signal.obj
 0001:000a2ce3       ?construct_ptd@@YAXQAU__acrt_ptd@@QAPAU__crt_locale_data@@@Z 100a3ce3 f   libucrt:per_thread_data.obj
 0001:000a2d5c       ?destroy_fls@@YGXPAX@Z     100a3d5c f   libucrt:per_thread_data.obj
 0001:000a2d7d       ?destroy_ptd@@YAXQAU__acrt_ptd@@@Z 100a3d7d f   libucrt:per_thread_data.obj
 0001:000a2e26       ?replace_current_thread_locale_nolock@@YAXQAU__acrt_ptd@@QAU__crt_locale_data@@@Z 100a3e26 f   libucrt:per_thread_data.obj
 0001:000a3118       ??$common_tcsncpy_s@D@@YAHQADIQBDI@Z 100a4118 f   libucrt:strncpy_s.obj
 0001:000a31d4       ?try_get_CompareStringEx@@YAP6GHPB_WK0H0HPAU_nlsversioninfo@@PAXJ@ZXZ 100a41d4 f   libucrt:winapi_thunks.obj
 0001:000a31ee       ?try_get_MessageBoxA@@YAP6GHPAUHWND__@@PBD1I@ZXZ 100a41ee f   libucrt:winapi_thunks.obj
 0001:000a3208       ?try_get_MessageBoxW@@YAP6GHPAUHWND__@@PB_W1I@ZXZ 100a4208 f   libucrt:winapi_thunks.obj
 0001:000a3222       ?try_get_function@@YAPAXW4function_id@?A0x352e5c4b@@QBDQBW4module_id@2@2@Z 100a4222 f   libucrt:winapi_thunks.obj
 0001:000a32be       ?try_get_module@@YAPAUHINSTANCE__@@W4module_id@?A0x352e5c4b@@@Z 100a42be f   libucrt:winapi_thunks.obj
 0001:000a3a3a       ?initialize_inherited_file_handles_nolock@@YAXXZ 100a4a3a f   libucrt:ioinit.obj
 0001:000a3af0       ?initialize_stdio_handles_nolock@@YAXXZ 100a4af0 f   libucrt:ioinit.obj
 0001:000a3f04       ?fp_format_a@@YAHQBNPADIQADIH_NIQAU__crt_locale_pointers@@@Z 100a4f04 f   libucrt:cvt.obj
 0001:000a4207       ?fp_format_e@@YAHQBNQADI1IH_NIQAU__crt_locale_pointers@@@Z 100a5207 f   libucrt:cvt.obj
 0001:000a42a2       ?fp_format_e_internal@@YAHQADIH_NIQAU_strflt@@1QAU__crt_locale_pointers@@@Z 100a52a2 f   libucrt:cvt.obj
 0001:000a43ed       ?fp_format_f@@YAHQBNQADI1IHQAU__crt_locale_pointers@@@Z 100a53ed f   libucrt:cvt.obj
 0001:000a447a       ?fp_format_f_internal@@YAHQADIHQAU_strflt@@_NQAU__crt_locale_pointers@@@Z 100a547a f   libucrt:cvt.obj
 0001:000a4551       ?fp_format_g@@YAHQBNQADI1IH_NIQAU__crt_locale_pointers@@@Z 100a5551 f   libucrt:cvt.obj
 0001:000a4619       ?fp_format_nan_or_infinity@@YAHW4__acrt_fp_class@@_NPADI1@Z 100a5619 f   libucrt:cvt.obj
 0001:000a4711       ?shift_bytes@@YAXQADI0H@Z  100a5711 f   libucrt:cvt.obj
 0001:000a488f       ?fputwc_binary_nolock@@YAG_WV__crt_stdio_stream@@@Z 100a588f f   libucrt:fputwc.obj
 0001:000a4b10       $$000000                   100a5b10     libucrt:_strnicm.obj
 0001:000a4fa6       ?_isindst_nolock@@YAHQAUtm@@@Z 100a5fa6 f   libucrt:tzset.obj
 0001:000a518d       ?cvtdate@@YAXW4transition_type@?A0xdb49773f@@W4date_type@2@HHHHHHHHH@Z 100a618d f   libucrt:tzset.obj
 0001:000a52dd       ?tzset_from_environment_nolock@@YAXPAD@Z 100a62dd f   libucrt:tzset.obj
 0001:000a54b2       ?tzset_from_system_nolock@@YAXXZ 100a64b2 f   libucrt:tzset.obj
 0001:000a560d       ?tzset_nolock@@YAXXZ       100a660d f   libucrt:tzset.obj
 0001:000a58b9       ?__acrt_LCMapStringA_stat@@YAHPAU__crt_locale_pointers@@PB_WKPBDHPADHHH@Z 100a68b9 f   libucrt:lcmapstringa.obj
 0001:000a5ba0       ??$common_flush_and_write_nolock@D@@YAHHV__crt_stdio_stream@@@Z 100a6ba0 f   libucrt:_flsbuf.obj
 0001:000a5cb1       ??$common_flush_and_write_nolock@_W@@YAHHV__crt_stdio_stream@@@Z 100a6cb1 f   libucrt:_flsbuf.obj
 0001:000a5dc6       ??$write_buffer_nolock@D@@YA_NDV__crt_stdio_stream@@@Z 100a6dc6 f   libucrt:_flsbuf.obj
 0001:000a5e92       ??$write_buffer_nolock@_W@@YA_N_WV__crt_stdio_stream@@@Z 100a6e92 f   libucrt:_flsbuf.obj
 0001:000a6389       ?<helper_func_cdecl>@<lambda_62bb7ecb46d0a77b591a051c43eb5ad1>@@CAHPBX0@Z 100a7389 f   libucrt:argv_wildcards.obj
 0001:000a63a1       ??$common_expand_argv_wildcards@D@@YAHQAPADQAPAPAD@Z 100a73a1 f   libucrt:argv_wildcards.obj
 0001:000a6531       ??$copy_and_add_argument_to_buffer@D@@YAHQBD0IAAV?$argument_list@D@?A0xb0e4b824@@@Z 100a7531 f   libucrt:argv_wildcards.obj
 0001:000a65c7       ??$expand_argument_wildcards@D@@YAHQAD0AAV?$argument_list@D@?A0xb0e4b824@@@Z 100a75c7 f   libucrt:argv_wildcards.obj
 0001:000a68a2       ??R<lambda_ad1ced32f4ac17aa236e5ef05d6b3b7c>@@QBEXXZ 100a78a2 f   libucrt:mbctype.obj
 0001:000a6966       ?CPtoLocaleName@@YAPB_WH@Z 100a7966 f   libucrt:mbctype.obj
 0001:000a69a4       ?getSystemCP@@YAHH@Z       100a79a4 f   libucrt:mbctype.obj
 0001:000a6a17       ?setSBCS@@YAXPAU__crt_multibyte_data@@@Z 100a7a17 f   libucrt:mbctype.obj
 0001:000a6a7c       ?setSBUpLow@@YAXPAU__crt_multibyte_data@@@Z 100a7a7c f   libucrt:mbctype.obj
 0001:000a6c10       ?setmbcp_internal@@YAHH_N@Z 100a7c10 f   libucrt:mbctype.obj
 0001:000a6fc2       ?x_ismbbtype_l@@YAHPAU__crt_locale_pointers@@IHH@Z 100a7fc2 f   libucrt:ismbbyte.obj
 0001:000a704c       ?find_end_of_double_null_terminated_sequence@@YAPB_WQB_W@Z 100a804c f   libucrt:get_environment_from_os.obj
 0001:000a7156       ??$common_set_variable_in_environment_nolock@D@@YAHQADH@Z 100a8156 f   libucrt:setenv.obj
 0001:000a7391       ??$common_set_variable_in_environment_nolock@_W@@YAHQA_WH@Z 100a8391 f   libucrt:setenv.obj
 0001:000a75ce       ??$copy_environment@D@@YAPAPADQAPAD@Z 100a85ce f   libucrt:setenv.obj
 0001:000a767f       ??$copy_environment@_W@@YAPAPA_WQAPA_W@Z 100a867f f   libucrt:setenv.obj
 0001:000a773d       ??$find_in_environment_nolock@D@@YAHQBDI@Z 100a873d f   libucrt:setenv.obj
 0001:000a7791       ??$find_in_environment_nolock@_W@@YAHQB_WI@Z 100a8791 f   libucrt:setenv.obj
 0001:000a809f       ?free_crt_array_internal@@YAXQAPBXI@Z 100a909f f   libucrt:inittime.obj
 0001:000a81bf       ?GetTableIndexFromLocaleName@@YAHPB_W@Z 100a91bf f   libucrt:lcidtoname_downlevel.obj
 0001:000a9cda       _memcpy_s                  100aacda f   libucrt:cfout.obj
 0001:000a9cda       _memcpy_s                  100aacda f   libucrt:assert.obj
 0001:000a9cda       _memcpy_s                  100aacda f   libucrt:mbctype.obj
 0001:000a9e3c       ?InternalCompareStringA@@YAHPAU__crt_locale_pointers@@PB_WKPBDH2HH@Z 100aae3c f   libucrt:comparestringa.obj
 0001:000aa130       ?shortsort@@YAXPAD0IP6AHPBX1@Z@Z 100ab130 f   libucrt:qsort.obj
 0001:000aa1d0       ?swap@@YAXPAD0I@Z          100ab1d0 f   libucrt:qsort.obj
 0001:000aa64e       ?initialize_multibyte@@YAHXZ 100ab64e f   libucrt:multibyte_initializer.obj
 0001:000aa7c0       $$000000                   100ab7c0     libucrt:log10.obj
 0001:000aa910       $$000000                   100ab910     libucrt:ceil_pentium4.obj
 0001:000aaa2d       ___get_abstract_control_sse2 100aba2d f   libucrt:_fenvutils.obj
 0001:000aaaaa       ___get_abstract_control_x87 100abaaa f   libucrt:_fenvutils.obj
 0001:000aab1d       ___get_machine_control     100abb1d f   libucrt:_fenvutils.obj
 0001:000aab8e       ___get_machine_control_sse2 100abb8e f   libucrt:_fenvutils.obj
 0001:000aac0e       ___get_machine_status_sse2 100abc0e f   libucrt:_fenvutils.obj
 0001:000aac6f       ___get_machine_status_x87  100abc6f f   libucrt:_fenvutils.obj
 0001:000aafb0       $$000000                   100abfb0     libucrt:log10_pentium4.obj
 0001:000ab240       $$000000                   100ac240     libucrt:87tran.obj
 0001:000ab440       $$000000                   100ac440     libucrt:87disp.obj
 0001:000ab640       $$000000                   100ac640     libucrt:common.obj
 0001:000ab7d0       $$000000                   100ac7d0     libucrt:genexcep.obj
 0001:000ac890       $$000000                   100ad890     LIBCMT:ulldvrm.obj
 0001:000ac930       $$000000                   100ad930     LIBCMT:lldiv.obj
 0001:000ac9e0       $$000000                   100ad9e0     LIBCMT:llrem.obj
 0001:000acaa0       $$000000                   100adaa0     LIBCMT:llmul.obj
 0001:000acae0       $$000000                   100adae0     LIBCMT:lldvrm.obj
 0001:000acbc0       $$000000                   100adbc0     LIBCMT:_sehprolg4gs_.obj
 0001:000acc20       $$000000                   100adc20     LIBCMT:chkstk.obj
 0001:000acc50       $$000000                   100adc50     LIBCMT:ullshr.obj
 0001:000acc70       $$000000                   100adc70     LIBCMT:alloca16.obj
 0001:000acca0       $$000000                   100adca0     LIBCMT:llshl.obj
 0001:000accc0       $$000000                   100adcc0     LIBCMT:_ftol2_.obj
 0001:000acd80       $$000000                   100add80     libvcruntime:memcpy.obj
 0001:000acfe4       TrailingUpVec              100adfe4     libvcruntime:memcpy.obj
 0001:000ad090       TrailingDownVec            100ae090     libvcruntime:memcpy.obj
 0001:000ad3b0       $$000000                   100ae3b0     LIBCMT:ulldiv.obj
 0001:000ad420       $$000000                   100ae420     LIBCMT:_ftol3_.obj
 0002:000003c4       _GS_ExceptionPointers      100af3c4     LIBCMT:gs_report.obj
 0002:000003f8       ?ExceptionTemplate@?1??_CxxThrowException@@9@8@4UEHExceptionRecord@@B 100af3f8     libvcruntime:throw.obj
 0002:00000418       ?module_names@?A0x89697e75@@3QBQB_WB 100af418     libvcruntime:winapi_downlevel.obj
 0002:000004b4       ?candidate_modules@?1??try_get_FlsAlloc@@YAP6GKP6GXPAX@Z@ZXZ@4QBW4module_id@?A0x89697e75@@B 100af4b4     libvcruntime:winapi_downlevel.obj
 0002:000004c8       ?candidate_modules@?1??try_get_FlsFree@@YAP6GHK@ZXZ@4QBW4module_id@?A0x89697e75@@B 100af4c8     libvcruntime:winapi_downlevel.obj
 0002:000004d8       ?candidate_modules@?1??try_get_FlsGetValue@@YAP6GPAXK@ZXZ@4QBW4module_id@?A0x89697e75@@B 100af4d8     libvcruntime:winapi_downlevel.obj
 0002:000004ec       ?candidate_modules@?1??try_get_FlsSetValue@@YAP6GHKPAX@ZXZ@4QBW4module_id@?A0x89697e75@@B 100af4ec     libvcruntime:winapi_downlevel.obj
 0002:00000500       ?candidate_modules@?1??try_get_InitializeCriticalSectionEx@@YAP6GHPAU_RTL_CRITICAL_SECTION@@KK@ZXZ@4QBW4module_id@?A0x89697e75@@B 100af500     libvcruntime:winapi_downlevel.obj
 0002:00000528       ?tokenTable@@3QBQBDB       100af528     libvcruntime:undname.obj
 0002:00000560       ?nameTable@@3QBQBDB        100af560     libvcruntime:undname.obj
 0002:000006a4       ?rttiTable@@3QBQBDB        100af6a4     libvcruntime:undname.obj
 0002:00000f30       _errtable                  100aff30     libucrt:errno.obj
 0002:00001270       ___acrt_initializers       100b0270     libucrt:initialization.obj
 0002:00001b28       _module_names              100b0b28     libucrt:winapi_thunks.obj
 0002:00001fc8       ?candidate_modules@?1??try_get_AreFileApisANSI@@YAP6GHXZXZ@4QBW4module_id@?A0x352e5c4b@@B 100b0fc8     libucrt:winapi_thunks.obj
 0002:00001fdc       ?candidate_modules@?1??try_get_CompareStringEx@@YAP6GHPB_WK0H0HPAU_nlsversioninfo@@PAXJ@ZXZ@4QBW4module_id@?A0x352e5c4b@@B 100b0fdc     libucrt:winapi_thunks.obj
 0002:00001ff4       ?candidate_modules@?1??try_get_FlsAlloc@@YAP6GKP6GXPAX@Z@ZXZ@4QBW4module_id@?A0x352e5c4b@@B 100b0ff4     libucrt:winapi_thunks.obj
 0002:00001ffc       ?candidate_modules@?1??try_get_FlsFree@@YAP6GHK@ZXZ@4QBW4module_id@?A0x352e5c4b@@B 100b0ffc     libucrt:winapi_thunks.obj
 0002:00002004       ?candidate_modules@?1??try_get_FlsGetValue@@YAP6GPAXK@ZXZ@4QBW4module_id@?A0x352e5c4b@@B 100b1004     libucrt:winapi_thunks.obj
 0002:0000200c       ?candidate_modules@?1??try_get_FlsSetValue@@YAP6GHKPAX@ZXZ@4QBW4module_id@?A0x352e5c4b@@B 100b100c     libucrt:winapi_thunks.obj
 0002:00002014       ?candidate_modules@?1??try_get_GetActiveWindow@@YAP6GPAUHWND__@@XZXZ@4QBW4module_id@?A0x352e5c4b@@B 100b1014     libucrt:winapi_thunks.obj
 0002:0000202c       ?candidate_modules@?1??try_get_GetCurrentPackageId@@YAP6GJPAIPAE@ZXZ@4QBW4module_id@?A0x352e5c4b@@B 100b102c     libucrt:winapi_thunks.obj
 0002:00002048       ?candidate_modules@?1??try_get_GetLastActivePopup@@YAP6GPAUHWND__@@PAU2@@ZXZ@4QBW4module_id@?A0x352e5c4b@@B 100b1048     libucrt:winapi_thunks.obj
 0002:00002064       ?candidate_modules@?1??try_get_GetProcessWindowStation@@YAP6GPAUHWINSTA__@@XZXZ@4QBW4module_id@?A0x352e5c4b@@B 100b1064     libucrt:winapi_thunks.obj
 0002:00002084       ?candidate_modules@?1??try_get_GetSystemTimePreciseAsFileTime@@YAP6GXPAU_FILETIME@@@ZXZ@4QBW4module_id@?A0x352e5c4b@@B 100b1084     libucrt:winapi_thunks.obj
 0002:000020a8       ?candidate_modules@?1??try_get_GetUserObjectInformationW@@YAP6GHPAXH0KPAK@ZXZ@4QBW4module_id@?A0x352e5c4b@@B 100b10a8     libucrt:winapi_thunks.obj
 0002:000020cc       ?candidate_modules@?1??try_get_InitializeCriticalSectionEx@@YAP6GHPAU_RTL_CRITICAL_SECTION@@KK@ZXZ@4QBW4module_id@?A0x352e5c4b@@B 100b10cc     libucrt:winapi_thunks.obj
 0002:000020d4       ?candidate_modules@?1??try_get_LCMapStringEx@@YAP6GHPB_WK0HPA_WHPAU_nlsversioninfo@@PAXJ@ZXZ@4QBW4module_id@?A0x352e5c4b@@B 100b10d4     libucrt:winapi_thunks.obj
 0002:000020ec       ?candidate_modules@?1??try_get_LocaleNameToLCID@@YAP6GKPB_WK@ZXZ@4QBW4module_id@?A0x352e5c4b@@B 100b10ec     libucrt:winapi_thunks.obj
 0002:00002108       ?candidate_modules@?1??try_get_MessageBoxA@@YAP6GHPAUHWND__@@PBD1I@ZXZ@4QBW4module_id@?A0x352e5c4b@@B 100b1108     libucrt:winapi_thunks.obj
 0002:0000211c       ?candidate_modules@?1??try_get_MessageBoxW@@YAP6GHPAUHWND__@@PB_W1I@ZXZ@4QBW4module_id@?A0x352e5c4b@@B 100b111c     libucrt:winapi_thunks.obj
 0002:000029f0       __mb_locale_names          100b19f0     libucrt:mbctype.obj
 0002:00002a38       _LcidToLocaleNameTable     100b1a38     libucrt:lcidtoname_downlevel.obj
 0002:00003b50       _LocaleNameToIndexTable    100b2b50     libucrt:lcidtoname_downlevel.obj
 0002:000054a0       LOG_name                   100b44a0     libucrt:log10.obj
 0002:000054b0       _One                       100b44b0     libucrt:ceil_pentium4.obj
 0002:000054c0       _Bns                       100b44c0     libucrt:ceil_pentium4.obj
 0002:000054d0       _Zero                      100b44d0     libucrt:ceil_pentium4.obj
 0002:000054e0       _S                         100b44e0     libucrt:ceil_pentium4.obj
 0002:000054f0       _NegZero                   100b44f0     libucrt:ceil_pentium4.obj
 0002:00005500       emask                      100b4500     libucrt:log10_pentium4.obj
 0002:00005510       CC                         100b4510     libucrt:log10_pentium4.obj
 0002:00005520       Magic                      100b4520     libucrt:log10_pentium4.obj
 0002:00005530       hi_mask                    100b4530     libucrt:log10_pentium4.obj
 0002:00005540       LOG10_2                    100b4540     libucrt:log10_pentium4.obj
 0002:00005550       place_L                    100b4550     libucrt:log10_pentium4.obj
 0002:00005570       One                        100b4570     libucrt:log10_pentium4.obj
 0002:00005580       Zero                       100b4580     libucrt:log10_pentium4.obj
 0002:00005590       Two52                      100b4590     libucrt:log10_pentium4.obj
 0002:000055a0       Infs                       100b45a0     libucrt:log10_pentium4.obj
 0002:000055b0       NaN                        100b45b0     libucrt:log10_pentium4.obj
 0002:000055c0       coeff                      100b45c0     libucrt:log10_pentium4.obj
 0002:0000561e       _log2max                   100b461e     libucrt:87tran.obj
 0002:00005628       _smallarg                  100b4628     libucrt:87tran.obj
 0002:00005632       _half                      100b4632     libucrt:87tran.obj
 0002:0000567e       One                        100b467e     libucrt:87disp.obj
 0002:00005686       Three                      100b4686     libucrt:87disp.obj
 0002:0000568e       XAMtoTagTab                100b468e     libucrt:87disp.obj
 0002:000056a0       One                        100b46a0     libucrt:common.obj
 0002:000056b4       DblMax                     100b46b4     libucrt:common.obj
 0002:000056bc       DblMin                     100b46bc     libucrt:common.obj
 0002:000056c4       IeeeAdjO                   100b46c4     libucrt:common.obj
 0002:000056cc       IeeeAdjU                   100b46cc     libucrt:common.obj
 0002:000056d4       _infinity                  100b46d4     libucrt:common.obj
 0002:000056dc       _zero                      100b46dc     libucrt:common.obj
 0002:00005718       _over                      100b4718     libucrt:fpctrl.obj
 0002:00005724       _under                     100b4724     libucrt:fpctrl.obj
 0002:00005fe0       ?_names@?1??_get_fname@@9@9 100b4fe0     libucrt:fpexcept.obj
 0002:00007780       ___ac_HASH_UPPER           100b6780     libgit2:submodule.obj
 0002:00007788       ___ac_HASH_UPPER           100b6788     libgit2:tree.obj
 0002:00007790       ___ac_HASH_UPPER           100b6790     libgit2:revwalk.obj
 0002:0000779c       _INDEX_VERSION_NUMBER      100b679c     libgit2:index.obj
 0002:000077a0       ?formatters@?1??git_reference_dwim@@9@9 100b67a0     libgit2:refs.obj
 0002:000077bc       _INDEX_FOOTER_SIZE         100b67bc     libgit2:index.obj
 0002:000077c0       _utf8proc_utf8class        100b67c0     libgit2:util.obj
 0002:000078c0       _INDEX_EXT_UNMERGED_SIG    100b68c0     libgit2:index.obj
 0002:000078c4       _INDEX_HEADER_SIG          100b68c4     libgit2:index.obj
 0002:000078c8       _INDEX_EXT_CONFLICT_NAME_SIG 100b68c8     libgit2:index.obj
 0002:000078cc       _INDEX_EXT_TREECACHE_SIG   100b68cc     libgit2:index.obj
 0002:000078d0       _INDEX_VERSION_NUMBER_EXT  100b68d0     libgit2:index.obj
 0002:000078d4       _INDEX_HEADER_SIZE         100b68d4     libgit2:index.obj
 0002:000078d8       ___ac_HASH_UPPER           100b68d8     libgit2:index.obj
 0002:000078e0       _to_hex                    100b68e0     libgit2:oid.obj
 0002:000078f8       _from_hex                  100b68f8     libgit2:oid.obj
 0002:000079f8       _WRITE_BUFFER_SIZE         100b69f8     libgit2:filebuf.obj
 0002:00007a00       _base64_encode             100b6a00     libgit2:buffer.obj
 0002:00007a48       _from_hex                  100b6a48     libgit2:path.obj
 0002:00007b48       ___ac_HASH_UPPER           100b6b48     libgit2:fileops.obj
 0002:00007b50       _b85str                    100b6b50     libgit2:buffer.obj
 0002:00007ba8       _escapes                   100b6ba8     libgit2:config_file.obj
 0002:00007bac       _escaped                   100b6bac     libgit2:config_file.obj
 0002:00007bb0       ___ac_HASH_UPPER           100b6bb0     libgit2:config_file.obj
 0002:00007c00       _timezone_names            100b6c00     libgit2:date.obj
 0002:00007e10       _typelen                   100b6e10     libgit2:date.obj
 0002:00007e40       _weekday_names             100b6e40     libgit2:date.obj
 0002:00007e60       _special                   100b6e60     libgit2:date.obj
 0002:00007ea8       ?mdays@?1??tm_to_time_t@@9@9 100b6ea8     libgit2:date.obj
 0002:00008050       _number_name               100b7050     libgit2:date.obj
 0002:00008080       _month_names               100b7080     libgit2:date.obj
 0002:000080b0       ___ac_HASH_UPPER           100b70b0     libgit2:diff_driver.obj
 0002:000080b8       ?unc_prefix@?1??git_win32__canonicalize_path@@9@9 100b70b8     libgit2:w32_util.obj
 0002:000080c4       ?nt_prefix@?1??git_win32__canonicalize_path@@9@9 100b70c4     libgit2:w32_util.obj
 0002:000080d0       ?suffix@?1??git_win32__findfirstfile_filter@@9@9 100b70d0     libgit2:w32_util.obj
 0002:000080d8       ?dosdevices_prefix@?1??git_win32__canonicalize_path@@9@9 100b70d8     libgit2:w32_util.obj
 0002:000080e8       ___ac_HASH_UPPER           100b70e8     libgit2:attrcache.obj
 0002:000080f0       ___ac_HASH_UPPER           100b70f0     libgit2:cache.obj
 0002:000080f8       ___ac_HASH_UPPER           100b70f8     libgit2:transaction.obj
 0002:00008100       _U                         100b7100     libgit2:delta.obj
 0002:00008500       _T                         100b7500     libgit2:delta.obj
 0002:00008900       ___ac_HASH_UPPER           100b7900     libgit2:mwindow.obj
 0002:00008910       ?tag_types@?1??tag_parse@@9@9 100b7910     libgit2:tag.obj
 0002:00008928       ___ac_HASH_UPPER           100b7928     libgit2:attr.obj
 0002:00008930       ?pad@?1??git_hash_final@@9@9 100b7930     libgit2:hash_generic.obj
 0002:00008970       _from_hex                  100b7970     libgit2:odb_loose.obj
 0002:00008a70       ?traits_header@?4??packed_reload@@9@9 100b7a70     libgit2:refdb_fs.obj
 0002:00008a74       _cmd_receivepack           100b7a74     libgit2:git.obj
 0002:00008a88       ___ac_HASH_UPPER           100b7a88     libgit2:pack.obj
 0002:00008a90       ?suff@?1??git_indexer_new@@9@9 100b7a90     libgit2:indexer.obj
 0002:00008a98       ___ac_HASH_UPPER           100b7a98     libgit2:indexer.obj
 0002:00008aa0       ___ac_HASH_UPPER           100b7aa0     libgit2:pack-objects.obj
 0002:00008aa8       _prefix_git                100b7aa8     libgit2:git.obj
 0002:00008ab0       _forbidden_custom_headers  100b7ab0     libgit2:smart.obj
 0002:00008ac8       _cmd_uploadpack            100b7ac8     libgit2:git.obj
 0002:00008ad8       _upload_pack_ls_service_url 100b7ad8     libgit2:winhttp.obj
 0002:00008adc       _upload_pack_service_url   100b7adc     libgit2:winhttp.obj
 0002:00008ae0       _prefix_https              100b7ae0     libgit2:winhttp.obj
 0002:00008ae4       _receive_pack_service_url  100b7ae4     libgit2:winhttp.obj
 0002:00008ae8       _post_verb                 100b7ae8     libgit2:winhttp.obj
 0002:00008aec       _receive_pack_service      100b7aec     libgit2:winhttp.obj
 0002:00008af0       _receive_pack_ls_service_url 100b7af0     libgit2:winhttp.obj
 0002:00008af4       _upload_pack_service       100b7af4     libgit2:winhttp.obj
 0002:00008af8       _get_verb                  100b7af8     libgit2:winhttp.obj
 0002:00008afc       _pragma_nocache            100b7afc     libgit2:winhttp.obj
 0002:00008b00       _transfer_encoding         100b7b00     libgit2:winhttp.obj
 0002:00008b04       _no_check_cert_flags       100b7b04     libgit2:winhttp.obj
 0002:00008b08       _compressing_objects_fmt   100b7b08     libgit2:local.obj
 0002:00008b0c       _counting_objects_fmt      100b7b0c     libgit2:local.obj
 0002:00008b10       ___ac_HASH_UPPER           100b7b10     libgit2:sortedcache.obj
 0002:00008b18       ?buffer_len@?1??git__delta_read_header_fromstream@@9@9 100b7b18     libgit2:delta-apply.obj
 0002:00008b1c       _pkt_have_prefix           100b7b1c     libgit2:smart_pkt.obj
 0002:00008b28       _pkt_flush_str             100b7b28     libgit2:smart_pkt.obj
 0002:00008b30       _pkt_want_prefix           100b7b30     libgit2:smart_pkt.obj
 0002:00008b3c       _pkt_done_str              100b7b3c     libgit2:smart_pkt.obj
 0002:00008b48       _prefix_https              100b7b48     libgit2:netops.obj
 0002:00008b4c       _prefix_http               100b7b4c     libgit2:netops.obj
 0002:00008b50       ?my_version@?1??deflateInit2_@@9@9 100b7b50     zlib:deflate.obj
 0002:00008b58       _configuration_table       100b7b58     zlib:deflate.obj
 0002:00008bd0       ?lenfix@?1??fixedtables@@9@9 100b7bd0     zlib:inflate.obj
 0002:000093d0       ?distfix@?1??fixedtables@@9@9 100b83d0     zlib:inflate.obj
 0002:00009450       ?order@?1??inflate@@9@9    100b8450     zlib:inflate.obj
 0002:000094a0       _crc_table                 100b84a0     zlib:crc32.obj
 0002:00009ba0       _static_dtree              100b8ba0     zlib:trees.obj
 0002:00009c18       _extra_blbits              100b8c18     zlib:trees.obj
 0002:00009c70       _extra_lbits               100b8c70     zlib:trees.obj
 0002:00009cf0       _base_dist                 100b8cf0     zlib:trees.obj
 0002:00009d70       _base_length               100b8d70     zlib:trees.obj
 0002:00009df0       _extra_dbits               100b8df0     zlib:trees.obj
 0002:00009e70       _static_ltree              100b8e70     zlib:trees.obj
 0002:0000a2f0       _bl_order                  100b92f0     zlib:trees.obj
 0002:0000a308       ?dext@?1??inflate_table@@9@9 100b9308     zlib:inftrees.obj
 0002:0000a348       ?lext@?1??inflate_table@@9@9 100b9348     zlib:inftrees.obj
 0002:0000a388       ?lbase@?1??inflate_table@@9@9 100b9388     zlib:inftrees.obj
 0002:0000a3c8       ?dbase@?1??inflate_table@@9@9 100b93c8     zlib:inftrees.obj
 0002:0000a408       _normal_url_char           100b9408     http_parser:http_parser.obj
 0002:00017770       _Int32ToUInt32             100c6770     LIBCMT:_ftol3_.obj
 0002:00017778       _DP2to32                   100c6778     LIBCMT:_ftol3_.obj
 0002:00017780       _MantissaMask              100c6780     LIBCMT:_ftol3_.obj
 0002:00017788       _IntegerBit                100c6788     LIBCMT:_ftol3_.obj
 0002:00017790       _SignBit64                 100c6790     LIBCMT:_ftol3_.obj
 0002:00017798       _MinFP64                   100c6798     LIBCMT:_ftol3_.obj
 0002:000177a0       _MinInt64                  100c67a0     LIBCMT:_ftol3_.obj
 0002:000177a8       _MaxInt64                  100c67a8     LIBCMT:_ftol3_.obj
 0002:000177b0       _MaxUInt64                 100c67b0     LIBCMT:_ftol3_.obj
 0002:000177b8       _MaxFP32                   100c67b8     LIBCMT:_ftol3_.obj
 0002:000177c0       _MinFP32                   100c67c0     LIBCMT:_ftol3_.obj
 0002:000177c8       _MinSubInexact             100c67c8     LIBCMT:_ftol3_.obj
 0002:000177d0       _FpExcptTable              100c67d0     LIBCMT:_ftol3_.obj
 0002:000177e0       _i1075                     100c67e0     LIBCMT:_ftol3_.obj
 0002:000177e4       _i1087                     100c67e4     LIBCMT:_ftol3_.obj
 0002:000177e8       _x0800                     100c67e8     LIBCMT:_ftol3_.obj
 0002:000177ec       _x17FF                     100c67ec     LIBCMT:_ftol3_.obj
 0002:000177f0       _CWMask                    100c67f0     LIBCMT:_ftol3_.obj
 0002:00017f28       __sehtable$?dllmain_crt_process_attach@@YAHQAUHINSTANCE__@@QAX@Z 100c6f28     LIBCMT:dll_dllmain.obj
 0002:00017f48       __sehtable$?dllmain_crt_process_detach@@YAH_N@Z 100c6f48     LIBCMT:dll_dllmain.obj
 0002:00017f68       __sehtable$?dllmain_dispatch@@YAHQAUHINSTANCE__@@KQAX@Z 100c6f68     LIBCMT:dll_dllmain.obj
 0002:00017fc0       __sehtable$___scrt_is_nonwritable_in_current_image 100c6fc0     LIBCMT:utility.obj
 0002:00017fe0       __sehtable$??$?RV<lambda_ab9923ffb5d694ec0d78876dd103e44f>@@AAV<lambda_481dd5778c961fbcd3b60b650e9b9dc4>@@V<lambda_7923d86c9e3f319b415918ec4b39749c>@@@?$__crt_seh_guarded_call@H@@QAEH$$QAV<lambda_ab9923ffb5d694ec0d78876dd103e44f>@@AAV<lambda_481dd5778c961fbcd3b60b650e9b9dc4>@@$$QAV<lambda_7923d86c9e3f319b415918ec4b39749c>@@@Z 100c6fe0     libucrt:output.obj
 0002:00018000       __sehtable$??$common_lseek@_J@@YA_JH_JH@Z 100c7000     libucrt:lseek.obj
 0002:00018020       __sehtable$__alloc_osfhnd  100c7020     libucrt:osfinfo.obj
 0002:00018040       __sehtable$___acrt_lowio_ensure_fh_exists 100c7040     libucrt:osfinfo.obj
 0002:00018060       __sehtable$??$common_open@_W@@YAHQB_WHH@Z 100c7060     libucrt:open.obj
 0002:00018080       __sehtable$_fputc          100c7080     libucrt:fputc.obj
 0002:000180a0       __sehtable$??$?RV<lambda_11b4f7b0d3157825a5656a18eba1ae27>@@AAV<lambda_b51c0495177f500e782686251704ae76>@@V<lambda_cf89b47920b5017557bfe891e78aca36>@@@?$__crt_seh_guarded_call@I@@QAEI$$QAV<lambda_11b4f7b0d3157825a5656a18eba1ae27>@@AAV<lambda_b51c0495177f500e782686251704ae76>@@$$QAV<lambda_cf89b47920b5017557bfe891e78aca36>@@@Z 100c70a0     libucrt:fwrite.obj
 0002:000180c0       __sehtable$??$common_getenv@_W@@YAPA_WQB_W@Z 100c70c0     libucrt:getenv.obj
 0002:000180e0       __sehtable$??$common_getenv_s@D@@YAHQAIQADIQBD@Z 100c70e0     libucrt:getenv.obj
 0002:00018100       __sehtable$__query_new_handler 100c7100     libucrt:new_handler.obj
 0002:00018120       __sehtable$?common_exit@@YAXHW4_crt_exit_cleanup_mode@@W4_crt_exit_return_mode@@@Z 100c7120     libucrt:exit.obj
 0002:00018148       __sehtable$??$?RV<lambda_800076c951b434888f4765a74a194fcc>@@AAV<lambda_4e60a939b0d047cfe11ddc22648dfba9>@@V<lambda_6dbb1268764f43b569ce7b67e331d33a>@@@?$__crt_seh_guarded_call@H@@QAEH$$QAV<lambda_800076c951b434888f4765a74a194fcc>@@AAV<lambda_4e60a939b0d047cfe11ddc22648dfba9>@@$$QAV<lambda_6dbb1268764f43b569ce7b67e331d33a>@@@Z 100c7148     libucrt:onexit.obj
 0002:00018168       __sehtable$??$?RV<lambda_995298e7d72eb4c2aab26c0585b3abe5>@@AAV<lambda_275893d493268fdec8709772e3fcec0e>@@V<lambda_293819299cbf9a7022e18b56a874bb5c>@@@?$__crt_seh_guarded_call@H@@QAEH$$QAV<lambda_995298e7d72eb4c2aab26c0585b3abe5>@@AAV<lambda_275893d493268fdec8709772e3fcec0e>@@$$QAV<lambda_293819299cbf9a7022e18b56a874bb5c>@@@Z 100c7168     libucrt:onexit.obj
 0002:00018188       __sehtable$_terminate      100c7188     libucrt:terminate.obj
 0002:000181a8       __sehtable$??$?RV<lambda_123407a5e2ac06da108355a851863b7a>@@AAV<lambda_2fe9b910cf3cbf4a0ab98a02ba45b3ec>@@V<lambda_ae55bdf541ad94d75914d381c370e64d>@@@?$__crt_seh_guarded_call@H@@QAEH$$QAV<lambda_123407a5e2ac06da108355a851863b7a>@@AAV<lambda_2fe9b910cf3cbf4a0ab98a02ba45b3ec>@@$$QAV<lambda_ae55bdf541ad94d75914d381c370e64d>@@@Z 100c71a8     libucrt:close.obj
 0002:000181c8       __sehtable$__read          100c71c8     libucrt:read.obj
 0002:000181e8       __sehtable$__write         100c71e8     libucrt:write.obj
 0002:00018208       __sehtable$_fflush         100c7208     libucrt:fflush.obj
 0002:00018228       __sehtable$_common_flush_all 100c7228     libucrt:fflush.obj
 0002:00018250       __sehtable$??$?RV<lambda_d92cfe8357b99225085016881b624cb0>@@AAV<lambda_b721fa326cdb32351d23dfa67958c160>@@V<lambda_42d75b0848218ec137fa420c8ba9fdf9>@@@?$__crt_seh_guarded_call@H@@QAEH$$QAV<lambda_d92cfe8357b99225085016881b624cb0>@@AAV<lambda_b721fa326cdb32351d23dfa67958c160>@@$$QAV<lambda_42d75b0848218ec137fa420c8ba9fdf9>@@@Z 100c7250     libucrt:setvbuf.obj
 0002:00018270       __sehtable$_raise          100c7270     libucrt:signal.obj
 0002:00018290       __sehtable$??$?RV<lambda_a048d3beccc847880fc8490e18b82769>@@AAV<lambda_ec61778202f4f5fc7e7711acc23c3bca>@@V<lambda_f7496a158712204296dd6628a163878e>@@@?$__crt_seh_guarded_call@P6AXH@Z@@QAEP6AXH@Z$$QAV<lambda_a048d3beccc847880fc8490e18b82769>@@AAV<lambda_ec61778202f4f5fc7e7711acc23c3bca>@@$$QAV<lambda_f7496a158712204296dd6628a163878e>@@@Z 100c7290     libucrt:signal.obj
 0002:000182b0       __sehtable$??$?RV<lambda_9df27f884b057bc3edfc946cb5b7cf47>@@AAV<lambda_e69574bed617af4e071282c136b37893>@@V<lambda_cc0d902bcbbeb830f749456577db4721>@@@?$__crt_seh_guarded_call@X@@QAEX$$QAV<lambda_9df27f884b057bc3edfc946cb5b7cf47>@@AAV<lambda_e69574bed617af4e071282c136b37893>@@$$QAV<lambda_cc0d902bcbbeb830f749456577db4721>@@@Z 100c72b0     libucrt:per_thread_data.obj
 0002:000182d0       __sehtable$??$?RV<lambda_3518db117f0e7cdb002338c5d3c47b6c>@@AAV<lambda_b2ea41f6bbb362cd97d94c6828d90b61>@@V<lambda_abdedf541bb04549bc734292b4a045d4>@@@?$__crt_seh_guarded_call@X@@QAEX$$QAV<lambda_3518db117f0e7cdb002338c5d3c47b6c>@@AAV<lambda_b2ea41f6bbb362cd97d94c6828d90b61>@@$$QAV<lambda_abdedf541bb04549bc734292b4a045d4>@@@Z 100c72d0     libucrt:per_thread_data.obj
 0002:000182f0       __sehtable$??$?RV<lambda_51b6e8b1eb166f2a3faf91f424b38130>@@AAV<lambda_6250bd4b2a391816dd638c3bf72b0bcb>@@V<lambda_0b5a4a3e68152e1d9b943535f5f47bed>@@@?$__crt_seh_guarded_call@X@@QAEX$$QAV<lambda_51b6e8b1eb166f2a3faf91f424b38130>@@AAV<lambda_6250bd4b2a391816dd638c3bf72b0bcb>@@$$QAV<lambda_0b5a4a3e68152e1d9b943535f5f47bed>@@@Z 100c72f0     libucrt:per_thread_data.obj
 0002:00018310       __sehtable$??$?RV<lambda_5b71d36f03204c0beab531769a5b5694>@@AAV<lambda_be2b3da3f62db62e9dad5dc70221a656>@@V<lambda_8f9ce462984622f9bf76b59e2aaaf805>@@@?$__crt_seh_guarded_call@X@@QAEX$$QAV<lambda_5b71d36f03204c0beab531769a5b5694>@@AAV<lambda_be2b3da3f62db62e9dad5dc70221a656>@@$$QAV<lambda_8f9ce462984622f9bf76b59e2aaaf805>@@@Z 100c7310     libucrt:per_thread_data.obj
 0002:00018330       __sehtable$___acrt_uninitialize_locale 100c7330     libucrt:wsetlocale.obj
 0002:00018350       __sehtable$__fcloseall     100c7350     libucrt:closeall.obj
 0002:00018370       __sehtable$___acrt_initialize_lowio 100c7370     libucrt:ioinit.obj
 0002:00018390       __sehtable$__isindst       100c7390     libucrt:tzset.obj
 0002:000183b0       __sehtable$___tzset        100c73b0     libucrt:tzset.obj
 0002:000183d0       __sehtable$___acrt_update_thread_multibyte_data 100c73d0     libucrt:mbctype.obj
 0002:000183f0       __sehtable$??$?RV<lambda_978dc153c237d78434369da87b74ff60>@@AAV<lambda_ad1ced32f4ac17aa236e5ef05d6b3b7c>@@V<lambda_4a8533e2866a575feecb8298ce776b0d>@@@?$__crt_seh_guarded_call@X@@QAEX$$QAV<lambda_978dc153c237d78434369da87b74ff60>@@AAV<lambda_ad1ced32f4ac17aa236e5ef05d6b3b7c>@@$$QAV<lambda_4a8533e2866a575feecb8298ce776b0d>@@@Z 100c73f0     libucrt:mbctype.obj
 0002:00018410       __sehtable$??$?RV<lambda_61cee617f5178ae960314fd4d05640a0>@@AAV<lambda_6978c1fb23f02e42e1d9e99668cc68aa>@@V<lambda_9cd88cf8ad10232537feb2133f08c833>@@@?$__crt_seh_guarded_call@H@@QAEH$$QAV<lambda_61cee617f5178ae960314fd4d05640a0>@@AAV<lambda_6978c1fb23f02e42e1d9e99668cc68aa>@@$$QAV<lambda_9cd88cf8ad10232537feb2133f08c833>@@@Z 100c7410     libucrt:commit.obj
 0002:00018430       __sehtable$___acrt_update_thread_locale_data 100c7430     libucrt:locale_refcounting.obj
 0002:00018450       __sehtable$_fclose         100c7450     libucrt:fclose.obj
 0002:00018470       __sehtable$__IsNonwritableInCurrentImage 100c7470     LIBCMT:pesect.obj
 0002:00018490       .edata                     100c7490     git.exp
 0002:000184b8       rgpv                       100c74b8     git.exp
 0002:00018f68       rgszName                   100c7f68     git.exp
 0002:00019a18       rgwOrd                     100c8a18     git.exp
 0002:00019f70       szName                     100c8f70     git.exp
 0002:00019f79       $N00001                    100c8f79     git.exp
 0002:00019f88       $N00002                    100c8f88     git.exp
 0002:00019fa2       $N00003                    100c8fa2     git.exp
 0002:00019fc6       $N00004                    100c8fc6     git.exp
 0002:00019fe4       $N00005                    100c8fe4     git.exp
 0002:0001a006       $N00006                    100c9006     git.exp
 0002:0001a01e       $N00007                    100c901e     git.exp
 0002:0001a03a       $N00008                    100c903a     git.exp
 0002:0001a04d       $N00009                    100c904d     git.exp
 0002:0001a062       $N00010                    100c9062     git.exp
 0002:0001a073       $N00011                    100c9073     git.exp
 0002:0001a080       $N00012                    100c9080     git.exp
 0002:0001a092       $N00013                    100c9092     git.exp
 0002:0001a0a1       $N00014                    100c90a1     git.exp
 0002:0001a0bc       $N00015                    100c90bc     git.exp
 0002:0001a0d7       $N00016                    100c90d7     git.exp
 0002:0001a0f0       $N00017                    100c90f0     git.exp
 0002:0001a10c       $N00018                    100c910c     git.exp
 0002:0001a126       $N00019                    100c9126     git.exp
 0002:0001a134       $N00020                    100c9134     git.exp
 0002:0001a140       $N00021                    100c9140     git.exp
 0002:0001a153       $N00022                    100c9153     git.exp
 0002:0001a163       $N00023                    100c9163     git.exp
 0002:0001a17a       $N00024                    100c917a     git.exp
 0002:0001a189       $N00025                    100c9189     git.exp
 0002:0001a19d       $N00026                    100c919d     git.exp
 0002:0001a1ae       $N00027                    100c91ae     git.exp
 0002:0001a1c0       $N00028                    100c91c0     git.exp
 0002:0001a1e1       $N00029                    100c91e1     git.exp
 0002:0001a1f3       $N00030                    100c91f3     git.exp
 0002:0001a206       $N00031                    100c9206     git.exp
 0002:0001a21f       $N00032                    100c921f     git.exp
 0002:0001a237       $N00033                    100c9237     git.exp
 0002:0001a249       $N00034                    100c9249     git.exp
 0002:0001a259       $N00035                    100c9259     git.exp
 0002:0001a269       $N00036                    100c9269     git.exp
 0002:0001a279       $N00037                    100c9279     git.exp
 0002:0001a290       $N00038                    100c9290     git.exp
 0002:0001a2a8       $N00039                    100c92a8     git.exp
 0002:0001a2bc       $N00040                    100c92bc     git.exp
 0002:0001a2d5       $N00041                    100c92d5     git.exp
 0002:0001a2f0       $N00042                    100c92f0     git.exp
 0002:0001a305       $N00043                    100c9305     git.exp
 0002:0001a312       $N00044                    100c9312     git.exp
 0002:0001a31f       $N00045                    100c931f     git.exp
 0002:0001a331       $N00046                    100c9331     git.exp
 0002:0001a33d       $N00047                    100c933d     git.exp
 0002:0001a34f       $N00048                    100c934f     git.exp
 0002:0001a362       $N00049                    100c9362     git.exp
 0002:0001a37c       $N00050                    100c937c     git.exp
 0002:0001a38e       $N00051                    100c938e     git.exp
 0002:0001a398       $N00052                    100c9398     git.exp
 0002:0001a3af       $N00053                    100c93af     git.exp
 0002:0001a3c0       $N00054                    100c93c0     git.exp
 0002:0001a3d2       $N00055                    100c93d2     git.exp
 0002:0001a3e2       $N00056                    100c93e2     git.exp
 0002:0001a3f7       $N00057                    100c93f7     git.exp
 0002:0001a409       $N00058                    100c9409     git.exp
 0002:0001a429       $N00059                    100c9429     git.exp
 0002:0001a444       $N00060                    100c9444     git.exp
 0002:0001a458       $N00061                    100c9458     git.exp
 0002:0001a475       $N00062                    100c9475     git.exp
 0002:0001a485       $N00063                    100c9485     git.exp
 0002:0001a49d       $N00064                    100c949d     git.exp
 0002:0001a4ab       $N00065                    100c94ab     git.exp
 0002:0001a4bd       $N00066                    100c94bd     git.exp
 0002:0001a4d6       $N00067                    100c94d6     git.exp
 0002:0001a4e9       $N00068                    100c94e9     git.exp
 0002:0001a505       $N00069                    100c9505     git.exp
 0002:0001a51c       $N00070                    100c951c     git.exp
 0002:0001a538       $N00071                    100c9538     git.exp
 0002:0001a549       $N00072                    100c9549     git.exp
 0002:0001a55b       $N00073                    100c955b     git.exp
 0002:0001a570       $N00074                    100c9570     git.exp
 0002:0001a587       $N00075                    100c9587     git.exp
 0002:0001a59d       $N00076                    100c959d     git.exp
 0002:0001a5b0       $N00077                    100c95b0     git.exp
 0002:0001a5c0       $N00078                    100c95c0     git.exp
 0002:0001a5d7       $N00079                    100c95d7     git.exp
 0002:0001a5e7       $N00080                    100c95e7     git.exp
 0002:0001a5fa       $N00081                    100c95fa     git.exp
 0002:0001a611       $N00082                    100c9611     git.exp
 0002:0001a62c       $N00083                    100c962c     git.exp
 0002:0001a64d       $N00084                    100c964d     git.exp
 0002:0001a665       $N00085                    100c9665     git.exp
 0002:0001a680       $N00086                    100c9680     git.exp
 0002:0001a696       $N00087                    100c9696     git.exp
 0002:0001a6ad       $N00088                    100c96ad     git.exp
 0002:0001a6c9       $N00089                    100c96c9     git.exp
 0002:0001a6e0       $N00090                    100c96e0     git.exp
 0002:0001a6f4       $N00091                    100c96f4     git.exp
 0002:0001a707       $N00092                    100c9707     git.exp
 0002:0001a720       $N00093                    100c9720     git.exp
 0002:0001a730       $N00094                    100c9730     git.exp
 0002:0001a744       $N00095                    100c9744     git.exp
 0002:0001a759       $N00096                    100c9759     git.exp
 0002:0001a76e       $N00097                    100c976e     git.exp
 0002:0001a783       $N00098                    100c9783     git.exp
 0002:0001a799       $N00099                    100c9799     git.exp
 0002:0001a7b9       $N00100                    100c97b9     git.exp
 0002:0001a7cd       $N00101                    100c97cd     git.exp
 0002:0001a7e3       $N00102                    100c97e3     git.exp
 0002:0001a7fd       $N00103                    100c97fd     git.exp
 0002:0001a815       $N00104                    100c9815     git.exp
 0002:0001a82e       $N00105                    100c982e     git.exp
 0002:0001a84b       $N00106                    100c984b     git.exp
 0002:0001a863       $N00107                    100c9863     git.exp
 0002:0001a873       $N00108                    100c9873     git.exp
 0002:0001a88f       $N00109                    100c988f     git.exp
 0002:0001a8b0       $N00110                    100c98b0     git.exp
 0002:0001a8bf       $N00111                    100c98bf     git.exp
 0002:0001a8cf       $N00112                    100c98cf     git.exp
 0002:0001a8e7       $N00113                    100c98e7     git.exp
 0002:0001a8fe       $N00114                    100c98fe     git.exp
 0002:0001a914       $N00115                    100c9914     git.exp
 0002:0001a92b       $N00116                    100c992b     git.exp
 0002:0001a941       $N00117                    100c9941     git.exp
 0002:0001a958       $N00118                    100c9958     git.exp
 0002:0001a96f       $N00119                    100c996f     git.exp
 0002:0001a985       $N00120                    100c9985     git.exp
 0002:0001a999       $N00121                    100c9999     git.exp
 0002:0001a9ae       $N00122                    100c99ae     git.exp
 0002:0001a9c3       $N00123                    100c99c3     git.exp
 0002:0001a9db       $N00124                    100c99db     git.exp
 0002:0001a9f1       $N00125                    100c99f1     git.exp
 0002:0001aa05       $N00126                    100c9a05     git.exp
 0002:0001aa17       $N00127                    100c9a17     git.exp
 0002:0001aa2c       $N00128                    100c9a2c     git.exp
 0002:0001aa3a       $N00129                    100c9a3a     git.exp
 0002:0001aa50       $N00130                    100c9a50     git.exp
 0002:0001aa68       $N00131                    100c9a68     git.exp
 0002:0001aa85       $N00132                    100c9a85     git.exp
 0002:0001aaa1       $N00133                    100c9aa1     git.exp
 0002:0001aabd       $N00134                    100c9abd     git.exp
 0002:0001aad2       $N00135                    100c9ad2     git.exp
 0002:0001aae8       $N00136                    100c9ae8     git.exp
 0002:0001ab08       $N00137                    100c9b08     git.exp
 0002:0001ab20       $N00138                    100c9b20     git.exp
 0002:0001ab2f       $N00139                    100c9b2f     git.exp
 0002:0001ab40       $N00140                    100c9b40     git.exp
 0002:0001ab59       $N00141                    100c9b59     git.exp
 0002:0001ab74       $N00142                    100c9b74     git.exp
 0002:0001ab8a       $N00143                    100c9b8a     git.exp
 0002:0001ab9b       $N00144                    100c9b9b     git.exp
 0002:0001abb1       $N00145                    100c9bb1     git.exp
 0002:0001abd4       $N00146                    100c9bd4     git.exp
 0002:0001abe2       $N00147                    100c9be2     git.exp
 0002:0001abf5       $N00148                    100c9bf5     git.exp
 0002:0001ac0b       $N00149                    100c9c0b     git.exp
 0002:0001ac1e       $N00150                    100c9c1e     git.exp
 0002:0001ac36       $N00151                    100c9c36     git.exp
 0002:0001ac50       $N00152                    100c9c50     git.exp
 0002:0001ac66       $N00153                    100c9c66     git.exp
 0002:0001ac7f       $N00154                    100c9c7f     git.exp
 0002:0001ac8e       $N00155                    100c9c8e     git.exp
 0002:0001aca2       $N00156                    100c9ca2     git.exp
 0002:0001acbe       $N00157                    100c9cbe     git.exp
 0002:0001accd       $N00158                    100c9ccd     git.exp
 0002:0001aced       $N00159                    100c9ced     git.exp
 0002:0001ad15       $N00160                    100c9d15     git.exp
 0002:0001ad2e       $N00161                    100c9d2e     git.exp
 0002:0001ad4b       $N00162                    100c9d4b     git.exp
 0002:0001ad5f       $N00163                    100c9d5f     git.exp
 0002:0001ad79       $N00164                    100c9d79     git.exp
 0002:0001ad8f       $N00165                    100c9d8f     git.exp
 0002:0001ada4       $N00166                    100c9da4     git.exp
 0002:0001adbb       $N00167                    100c9dbb     git.exp
 0002:0001add1       $N00168                    100c9dd1     git.exp
 0002:0001adea       $N00169                    100c9dea     git.exp
 0002:0001ae0e       $N00170                    100c9e0e     git.exp
 0002:0001ae25       $N00171                    100c9e25     git.exp
 0002:0001ae43       $N00172                    100c9e43     git.exp
 0002:0001ae61       $N00173                    100c9e61     git.exp
 0002:0001ae7f       $N00174                    100c9e7f     git.exp
 0002:0001ae98       $N00175                    100c9e98     git.exp
 0002:0001aead       $N00176                    100c9ead     git.exp
 0002:0001aec4       $N00177                    100c9ec4     git.exp
 0002:0001aed9       $N00178                    100c9ed9     git.exp
 0002:0001aeed       $N00179                    100c9eed     git.exp
 0002:0001af02       $N00180                    100c9f02     git.exp
 0002:0001af1e       $N00181                    100c9f1e     git.exp
 0002:0001af3a       $N00182                    100c9f3a     git.exp
 0002:0001af56       $N00183                    100c9f56     git.exp
 0002:0001af68       $N00184                    100c9f68     git.exp
 0002:0001af7c       $N00185                    100c9f7c     git.exp
 0002:0001af97       $N00186                    100c9f97     git.exp
 0002:0001afaf       $N00187                    100c9faf     git.exp
 0002:0001afc4       $N00188                    100c9fc4     git.exp
 0002:0001afdb       $N00189                    100c9fdb     git.exp
 0002:0001aff2       $N00190                    100c9ff2     git.exp
 0002:0001b009       $N00191                    100ca009     git.exp
 0002:0001b01f       $N00192                    100ca01f     git.exp
 0002:0001b033       $N00193                    100ca033     git.exp
 0002:0001b046       $N00194                    100ca046     git.exp
 0002:0001b062       $N00195                    100ca062     git.exp
 0002:0001b073       $N00196                    100ca073     git.exp
 0002:0001b087       $N00197                    100ca087     git.exp
 0002:0001b0a7       $N00198                    100ca0a7     git.exp
 0002:0001b0c2       $N00199                    100ca0c2     git.exp
 0002:0001b0d0       $N00200                    100ca0d0     git.exp
 0002:0001b0e2       $N00201                    100ca0e2     git.exp
 0002:0001b0f7       $N00202                    100ca0f7     git.exp
 0002:0001b110       $N00203                    100ca110     git.exp
 0002:0001b11f       $N00204                    100ca11f     git.exp
 0002:0001b132       $N00205                    100ca132     git.exp
 0002:0001b142       $N00206                    100ca142     git.exp
 0002:0001b159       $N00207                    100ca159     git.exp
 0002:0001b174       $N00208                    100ca174     git.exp
 0002:0001b18b       $N00209                    100ca18b     git.exp
 0002:0001b1ac       $N00210                    100ca1ac     git.exp
 0002:0001b1cc       $N00211                    100ca1cc     git.exp
 0002:0001b1e4       $N00212                    100ca1e4     git.exp
 0002:0001b1fe       $N00213                    100ca1fe     git.exp
 0002:0001b21a       $N00214                    100ca21a     git.exp
 0002:0001b230       $N00215                    100ca230     git.exp
 0002:0001b245       $N00216                    100ca245     git.exp
 0002:0001b254       $N00217                    100ca254     git.exp
 0002:0001b26a       $N00218                    100ca26a     git.exp
 0002:0001b279       $N00219                    100ca279     git.exp
 0002:0001b28f       $N00220                    100ca28f     git.exp
 0002:0001b2a4       $N00221                    100ca2a4     git.exp
 0002:0001b2bc       $N00222                    100ca2bc     git.exp
 0002:0001b2cf       $N00223                    100ca2cf     git.exp
 0002:0001b2e4       $N00224                    100ca2e4     git.exp
 0002:0001b2fe       $N00225                    100ca2fe     git.exp
 0002:0001b319       $N00226                    100ca319     git.exp
 0002:0001b327       $N00227                    100ca327     git.exp
 0002:0001b336       $N00228                    100ca336     git.exp
 0002:0001b346       $N00229                    100ca346     git.exp
 0002:0001b355       $N00230                    100ca355     git.exp
 0002:0001b364       $N00231                    100ca364     git.exp
 0002:0001b378       $N00232                    100ca378     git.exp
 0002:0001b389       $N00233                    100ca389     git.exp
 0002:0001b39e       $N00234                    100ca39e     git.exp
 0002:0001b3b6       $N00235                    100ca3b6     git.exp
 0002:0001b3d1       $N00236                    100ca3d1     git.exp
 0002:0001b3e4       $N00237                    100ca3e4     git.exp
 0002:0001b3f9       $N00238                    100ca3f9     git.exp
 0002:0001b413       $N00239                    100ca413     git.exp
 0002:0001b427       $N00240                    100ca427     git.exp
 0002:0001b442       $N00241                    100ca442     git.exp
 0002:0001b45c       $N00242                    100ca45c     git.exp
 0002:0001b472       $N00243                    100ca472     git.exp
 0002:0001b485       $N00244                    100ca485     git.exp
 0002:0001b49a       $N00245                    100ca49a     git.exp
 0002:0001b4aa       $N00246                    100ca4aa     git.exp
 0002:0001b4bf       $N00247                    100ca4bf     git.exp
 0002:0001b4d7       $N00248                    100ca4d7     git.exp
 0002:0001b4ea       $N00249                    100ca4ea     git.exp
 0002:0001b4fd       $N00250                    100ca4fd     git.exp
 0002:0001b50e       $N00251                    100ca50e     git.exp
 0002:0001b51f       $N00252                    100ca51f     git.exp
 0002:0001b52f       $N00253                    100ca52f     git.exp
 0002:0001b544       $N00254                    100ca544     git.exp
 0002:0001b555       $N00255                    100ca555     git.exp
 0002:0001b566       $N00256                    100ca566     git.exp
 0002:0001b57b       $N00257                    100ca57b     git.exp
 0002:0001b58f       $N00258                    100ca58f     git.exp
 0002:0001b599       $N00259                    100ca599     git.exp
 0002:0001b5ac       $N00260                    100ca5ac     git.exp
 0002:0001b5bb       $N00261                    100ca5bb     git.exp
 0002:0001b5cf       $N00262                    100ca5cf     git.exp
 0002:0001b5e6       $N00263                    100ca5e6     git.exp
 0002:0001b5f6       $N00264                    100ca5f6     git.exp
 0002:0001b60b       $N00265                    100ca60b     git.exp
 0002:0001b61d       $N00266                    100ca61d     git.exp
 0002:0001b62c       $N00267                    100ca62c     git.exp
 0002:0001b646       $N00268                    100ca646     git.exp
 0002:0001b660       $N00269                    100ca660     git.exp
 0002:0001b67c       $N00270                    100ca67c     git.exp
 0002:0001b697       $N00271                    100ca697     git.exp
 0002:0001b6ae       $N00272                    100ca6ae     git.exp
 0002:0001b6be       $N00273                    100ca6be     git.exp
 0002:0001b6cf       $N00274                    100ca6cf     git.exp
 0002:0001b6de       $N00275                    100ca6de     git.exp
 0002:0001b6ee       $N00276                    100ca6ee     git.exp
 0002:0001b6fc       $N00277                    100ca6fc     git.exp
 0002:0001b70e       $N00278                    100ca70e     git.exp
 0002:0001b727       $N00279                    100ca727     git.exp
 0002:0001b740       $N00280                    100ca740     git.exp
 0002:0001b751       $N00281                    100ca751     git.exp
 0002:0001b761       $N00282                    100ca761     git.exp
 0002:0001b775       $N00283                    100ca775     git.exp
 0002:0001b78c       $N00284                    100ca78c     git.exp
 0002:0001b79c       $N00285                    100ca79c     git.exp
 0002:0001b7b3       $N00286                    100ca7b3     git.exp
 0002:0001b7ca       $N00287                    100ca7ca     git.exp
 0002:0001b7e0       $N00288                    100ca7e0     git.exp
 0002:0001b7f4       $N00289                    100ca7f4     git.exp
 0002:0001b80f       $N00290                    100ca80f     git.exp
 0002:0001b825       $N00291                    100ca825     git.exp
 0002:0001b83c       $N00292                    100ca83c     git.exp
 0002:0001b855       $N00293                    100ca855     git.exp
 0002:0001b86a       $N00294                    100ca86a     git.exp
 0002:0001b879       $N00295                    100ca879     git.exp
 0002:0001b88f       $N00296                    100ca88f     git.exp
 0002:0001b89f       $N00297                    100ca89f     git.exp
 0002:0001b8ac       $N00298                    100ca8ac     git.exp
 0002:0001b8c0       $N00299                    100ca8c0     git.exp
 0002:0001b8cd       $N00300                    100ca8cd     git.exp
 0002:0001b8de       $N00301                    100ca8de     git.exp
 0002:0001b8f3       $N00302                    100ca8f3     git.exp
 0002:0001b8ff       $N00303                    100ca8ff     git.exp
 0002:0001b914       $N00304                    100ca914     git.exp
 0002:0001b928       $N00305                    100ca928     git.exp
 0002:0001b93b       $N00306                    100ca93b     git.exp
 0002:0001b94f       $N00307                    100ca94f     git.exp
 0002:0001b961       $N00308                    100ca961     git.exp
 0002:0001b975       $N00309                    100ca975     git.exp
 0002:0001b989       $N00310                    100ca989     git.exp
 0002:0001b996       $N00311                    100ca996     git.exp
 0002:0001b9ab       $N00312                    100ca9ab     git.exp
 0002:0001b9c0       $N00313                    100ca9c0     git.exp
 0002:0001b9cd       $N00314                    100ca9cd     git.exp
 0002:0001b9e1       $N00315                    100ca9e1     git.exp
 0002:0001b9f5       $N00316                    100ca9f5     git.exp
 0002:0001ba05       $N00317                    100caa05     git.exp
 0002:0001ba23       $N00318                    100caa23     git.exp
 0002:0001ba37       $N00319                    100caa37     git.exp
 0002:0001ba4b       $N00320                    100caa4b     git.exp
 0002:0001ba60       $N00321                    100caa60     git.exp
 0002:0001ba6e       $N00322                    100caa6e     git.exp
 0002:0001ba81       $N00323                    100caa81     git.exp
 0002:0001ba8d       $N00324                    100caa8d     git.exp
 0002:0001ba99       $N00325                    100caa99     git.exp
 0002:0001baa7       $N00326                    100caaa7     git.exp
 0002:0001bab3       $N00327                    100caab3     git.exp
 0002:0001bac3       $N00328                    100caac3     git.exp
 0002:0001bad3       $N00329                    100caad3     git.exp
 0002:0001bae4       $N00330                    100caae4     git.exp
 0002:0001baf5       $N00331                    100caaf5     git.exp
 0002:0001bb04       $N00332                    100cab04     git.exp
 0002:0001bb11       $N00333                    100cab11     git.exp
 0002:0001bb1e       $N00334                    100cab1e     git.exp
 0002:0001bb2e       $N00335                    100cab2e     git.exp
 0002:0001bb42       $N00336                    100cab42     git.exp
 0002:0001bb57       $N00337                    100cab57     git.exp
 0002:0001bb6b       $N00338                    100cab6b     git.exp
 0002:0001bb7a       $N00339                    100cab7a     git.exp
 0002:0001bb88       $N00340                    100cab88     git.exp
 0002:0001bb96       $N00341                    100cab96     git.exp
 0002:0001bba6       $N00342                    100caba6     git.exp
 0002:0001bbb8       $N00343                    100cabb8     git.exp
 0002:0001bbd0       $N00344                    100cabd0     git.exp
 0002:0001bbe8       $N00345                    100cabe8     git.exp
 0002:0001bbfd       $N00346                    100cabfd     git.exp
 0002:0001bc12       $N00347                    100cac12     git.exp
 0002:0001bc29       $N00348                    100cac29     git.exp
 0002:0001bc47       $N00349                    100cac47     git.exp
 0002:0001bc64       $N00350                    100cac64     git.exp
 0002:0001bc80       $N00351                    100cac80     git.exp
 0002:0001bc9c       $N00352                    100cac9c     git.exp
 0002:0001bcb0       $N00353                    100cacb0     git.exp
 0002:0001bccd       $N00354                    100caccd     git.exp
 0002:0001bceb       $N00355                    100caceb     git.exp
 0002:0001bd07       $N00356                    100cad07     git.exp
 0002:0001bd1d       $N00357                    100cad1d     git.exp
 0002:0001bd37       $N00358                    100cad37     git.exp
 0002:0001bd4f       $N00359                    100cad4f     git.exp
 0002:0001bd5e       $N00360                    100cad5e     git.exp
 0002:0001bd7d       $N00361                    100cad7d     git.exp
 0002:0001bd92       $N00362                    100cad92     git.exp
 0002:0001bda9       $N00363                    100cada9     git.exp
 0002:0001bdbd       $N00364                    100cadbd     git.exp
 0002:0001bdd1       $N00365                    100cadd1     git.exp
 0002:0001bde4       $N00366                    100cade4     git.exp
 0002:0001bdff       $N00367                    100cadff     git.exp
 0002:0001be14       $N00368                    100cae14     git.exp
 0002:0001be28       $N00369                    100cae28     git.exp
 0002:0001be44       $N00370                    100cae44     git.exp
 0002:0001be54       $N00371                    100cae54     git.exp
 0002:0001be63       $N00372                    100cae63     git.exp
 0002:0001be74       $N00373                    100cae74     git.exp
 0002:0001be86       $N00374                    100cae86     git.exp
 0002:0001be9e       $N00375                    100cae9e     git.exp
 0002:0001beb7       $N00376                    100caeb7     git.exp
 0002:0001beda       $N00377                    100caeda     git.exp
 0002:0001bef8       $N00378                    100caef8     git.exp
 0002:0001bf1b       $N00379                    100caf1b     git.exp
 0002:0001bf40       $N00380                    100caf40     git.exp
 0002:0001bf6a       $N00381                    100caf6a     git.exp
 0002:0001bf87       $N00382                    100caf87     git.exp
 0002:0001bf9f       $N00383                    100caf9f     git.exp
 0002:0001bfba       $N00384                    100cafba     git.exp
 0002:0001bfd4       $N00385                    100cafd4     git.exp
 0002:0001bfe5       $N00386                    100cafe5     git.exp
 0002:0001bffb       $N00387                    100caffb     git.exp
 0002:0001c010       $N00388                    100cb010     git.exp
 0002:0001c023       $N00389                    100cb023     git.exp
 0002:0001c032       $N00390                    100cb032     git.exp
 0002:0001c049       $N00391                    100cb049     git.exp
 0002:0001c057       $N00392                    100cb057     git.exp
 0002:0001c066       $N00393                    100cb066     git.exp
 0002:0001c07c       $N00394                    100cb07c     git.exp
 0002:0001c091       $N00395                    100cb091     git.exp
 0002:0001c0af       $N00396                    100cb0af     git.exp
 0002:0001c0c1       $N00397                    100cb0c1     git.exp
 0002:0001c0d6       $N00398                    100cb0d6     git.exp
 0002:0001c0f4       $N00399                    100cb0f4     git.exp
 0002:0001c109       $N00400                    100cb109     git.exp
 0002:0001c11c       $N00401                    100cb11c     git.exp
 0002:0001c135       $N00402                    100cb135     git.exp
 0002:0001c14b       $N00403                    100cb14b     git.exp
 0002:0001c166       $N00404                    100cb166     git.exp
 0002:0001c181       $N00405                    100cb181     git.exp
 0002:0001c194       $N00406                    100cb194     git.exp
 0002:0001c1aa       $N00407                    100cb1aa     git.exp
 0002:0001c1c2       $N00408                    100cb1c2     git.exp
 0002:0001c1d8       $N00409                    100cb1d8     git.exp
 0002:0001c1f0       $N00410                    100cb1f0     git.exp
 0002:0001c205       $N00411                    100cb205     git.exp
 0002:0001c221       $N00412                    100cb221     git.exp
 0002:0001c23d       $N00413                    100cb23d     git.exp
 0002:0001c25d       $N00414                    100cb25d     git.exp
 0002:0001c278       $N00415                    100cb278     git.exp
 0002:0001c28b       $N00416                    100cb28b     git.exp
 0002:0001c2a0       $N00417                    100cb2a0     git.exp
 0002:0001c2b3       $N00418                    100cb2b3     git.exp
 0002:0001c2cc       $N00419                    100cb2cc     git.exp
 0002:0001c2df       $N00420                    100cb2df     git.exp
 0002:0001c2f7       $N00421                    100cb2f7     git.exp
 0002:0001c314       $N00422                    100cb314     git.exp
 0002:0001c328       $N00423                    100cb328     git.exp
 0002:0001c33b       $N00424                    100cb33b     git.exp
 0002:0001c350       $N00425                    100cb350     git.exp
 0002:0001c365       $N00426                    100cb365     git.exp
 0002:0001c37b       $N00427                    100cb37b     git.exp
 0002:0001c394       $N00428                    100cb394     git.exp
 0002:0001c3ac       $N00429                    100cb3ac     git.exp
 0002:0001c3ca       $N00430                    100cb3ca     git.exp
 0002:0001c3f1       $N00431                    100cb3f1     git.exp
 0002:0001c413       $N00432                    100cb413     git.exp
 0002:0001c431       $N00433                    100cb431     git.exp
 0002:0001c446       $N00434                    100cb446     git.exp
 0002:0001c460       $N00435                    100cb460     git.exp
 0002:0001c473       $N00436                    100cb473     git.exp
 0002:0001c485       $N00437                    100cb485     git.exp
 0002:0001c497       $N00438                    100cb497     git.exp
 0002:0001c4a7       $N00439                    100cb4a7     git.exp
 0002:0001c4c0       $N00440                    100cb4c0     git.exp
 0002:0001c4db       $N00441                    100cb4db     git.exp
 0002:0001c4f3       $N00442                    100cb4f3     git.exp
 0002:0001c50b       $N00443                    100cb50b     git.exp
 0002:0001c524       $N00444                    100cb524     git.exp
 0002:0001c53a       $N00445                    100cb53a     git.exp
 0002:0001c54a       $N00446                    100cb54a     git.exp
 0002:0001c55a       $N00447                    100cb55a     git.exp
 0002:0001c56c       $N00448                    100cb56c     git.exp
 0002:0001c57d       $N00449                    100cb57d     git.exp
 0002:0001c593       $N00450                    100cb593     git.exp
 0002:0001c5a3       $N00451                    100cb5a3     git.exp
 0002:0001c5bb       $N00452                    100cb5bb     git.exp
 0002:0001c5cd       $N00453                    100cb5cd     git.exp
 0002:0001c5e4       $N00454                    100cb5e4     git.exp
 0002:0001c5f4       $N00455                    100cb5f4     git.exp
 0002:0001c60c       $N00456                    100cb60c     git.exp
 0002:0001c61f       $N00457                    100cb61f     git.exp
 0002:0001c635       $N00458                    100cb635     git.exp
 0002:0001c64a       $N00459                    100cb64a     git.exp
 0002:0001c65e       $N00460                    100cb65e     git.exp
 0002:0001c671       $N00461                    100cb671     git.exp
 0002:0001c684       $N00462                    100cb684     git.exp
 0002:0001c699       $N00463                    100cb699     git.exp
 0002:0001c6ab       $N00464                    100cb6ab     git.exp
 0002:0001c6c7       $N00465                    100cb6c7     git.exp
 0002:0001c6e8       $N00466                    100cb6e8     git.exp
 0002:0001c702       $N00467                    100cb702     git.exp
 0002:0001c714       $N00468                    100cb714     git.exp
 0002:0001c72a       $N00469                    100cb72a     git.exp
 0002:0001c73e       $N00470                    100cb73e     git.exp
 0002:0001c74d       $N00471                    100cb74d     git.exp
 0002:0001c75e       $N00472                    100cb75e     git.exp
 0002:0001c76e       $N00473                    100cb76e     git.exp
 0002:0001c78c       $N00474                    100cb78c     git.exp
 0002:0001c7a9       $N00475                    100cb7a9     git.exp
 0002:0001c7c0       $N00476                    100cb7c0     git.exp
 0002:0001c7da       $N00477                    100cb7da     git.exp
 0002:0001c7f3       $N00478                    100cb7f3     git.exp
 0002:0001c803       $N00479                    100cb803     git.exp
 0002:0001c815       $N00480                    100cb815     git.exp
 0002:0001c823       $N00481                    100cb823     git.exp
 0002:0001c833       $N00482                    100cb833     git.exp
 0002:0001c844       $N00483                    100cb844     git.exp
 0002:0001c855       $N00484                    100cb855     git.exp
 0002:0001c86b       $N00485                    100cb86b     git.exp
 0002:0001c87b       $N00486                    100cb87b     git.exp
 0002:0001c88e       $N00487                    100cb88e     git.exp
 0002:0001c8a7       $N00488                    100cb8a7     git.exp
 0002:0001c8b9       $N00489                    100cb8b9     git.exp
 0002:0001c8d0       $N00490                    100cb8d0     git.exp
 0002:0001c8e7       $N00491                    100cb8e7     git.exp
 0002:0001c8fa       $N00492                    100cb8fa     git.exp
 0002:0001c90b       $N00493                    100cb90b     git.exp
 0002:0001c91b       $N00494                    100cb91b     git.exp
 0002:0001c932       $N00495                    100cb932     git.exp
 0002:0001c944       $N00496                    100cb944     git.exp
 0002:0001c953       $N00497                    100cb953     git.exp
 0002:0001c96b       $N00498                    100cb96b     git.exp
 0002:0001c981       $N00499                    100cb981     git.exp
 0002:0001c9a0       $N00500                    100cb9a0     git.exp
 0002:0001c9bb       $N00501                    100cb9bb     git.exp
 0002:0001c9d3       $N00502                    100cb9d3     git.exp
 0002:0001c9f4       $N00503                    100cb9f4     git.exp
 0002:0001ca08       $N00504                    100cba08     git.exp
 0002:0001ca25       $N00505                    100cba25     git.exp
 0002:0001ca3d       $N00506                    100cba3d     git.exp
 0002:0001ca51       $N00507                    100cba51     git.exp
 0002:0001ca6e       $N00508                    100cba6e     git.exp
 0002:0001ca89       $N00509                    100cba89     git.exp
 0002:0001ca9e       $N00510                    100cba9e     git.exp
 0002:0001cab3       $N00511                    100cbab3     git.exp
 0002:0001cac7       $N00512                    100cbac7     git.exp
 0002:0001cadf       $N00513                    100cbadf     git.exp
 0002:0001cb00       $N00514                    100cbb00     git.exp
 0002:0001cb17       $N00515                    100cbb17     git.exp
 0002:0001cb2f       $N00516                    100cbb2f     git.exp
 0002:0001cb49       $N00517                    100cbb49     git.exp
 0002:0001cb6a       $N00518                    100cbb6a     git.exp
 0002:0001cb81       $N00519                    100cbb81     git.exp
 0002:0001cb9f       $N00520                    100cbb9f     git.exp
 0002:0001cbb2       $N00521                    100cbbb2     git.exp
 0002:0001cbc5       $N00522                    100cbbc5     git.exp
 0002:0001cbd9       $N00523                    100cbbd9     git.exp
 0002:0001cbf2       $N00524                    100cbbf2     git.exp
 0002:0001cc0a       $N00525                    100cbc0a     git.exp
 0002:0001cc1e       $N00526                    100cbc1e     git.exp
 0002:0001cc33       $N00527                    100cbc33     git.exp
 0002:0001cc54       $N00528                    100cbc54     git.exp
 0002:0001cc6c       $N00529                    100cbc6c     git.exp
 0002:0001cc86       $N00530                    100cbc86     git.exp
 0002:0001cc9e       $N00531                    100cbc9e     git.exp
 0002:0001ccbf       $N00532                    100cbcbf     git.exp
 0002:0001ccef       $N00533                    100cbcef     git.exp
 0002:0001cd08       $N00534                    100cbd08     git.exp
 0002:0001cd21       $N00535                    100cbd21     git.exp
 0002:0001cd3e       $N00536                    100cbd3e     git.exp
 0002:0001cd55       $N00537                    100cbd55     git.exp
 0002:0001cd6e       $N00538                    100cbd6e     git.exp
 0002:0001cd89       $N00539                    100cbd89     git.exp
 0002:0001cd9e       $N00540                    100cbd9e     git.exp
 0002:0001cdbb       $N00541                    100cbdbb     git.exp
 0002:0001cdd2       $N00542                    100cbdd2     git.exp
 0002:0001cdea       $N00543                    100cbdea     git.exp
 0002:0001cdf7       $N00544                    100cbdf7     git.exp
 0002:0001ce08       $N00545                    100cbe08     git.exp
 0002:0001ce1c       $N00546                    100cbe1c     git.exp
 0002:0001ce34       $N00547                    100cbe34     git.exp
 0002:0001ce45       $N00548                    100cbe45     git.exp
 0002:0001ce56       $N00549                    100cbe56     git.exp
 0002:0001ce6c       $N00550                    100cbe6c     git.exp
 0002:0001ce82       $N00551                    100cbe82     git.exp
 0002:0001ce97       $N00552                    100cbe97     git.exp
 0002:0001cea7       $N00553                    100cbea7     git.exp
 0002:0001ceb8       $N00554                    100cbeb8     git.exp
 0002:0001cec9       $N00555                    100cbec9     git.exp
 0002:0001cedf       $N00556                    100cbedf     git.exp
 0002:0001cef5       $N00557                    100cbef5     git.exp
 0002:0001cf0c       $N00558                    100cbf0c     git.exp
 0002:0001cf21       $N00559                    100cbf21     git.exp
 0002:0001cf38       $N00560                    100cbf38     git.exp
 0002:0001cf4a       $N00561                    100cbf4a     git.exp
 0002:0001cf6c       $N00562                    100cbf6c     git.exp
 0002:0001cf80       $N00563                    100cbf80     git.exp
 0002:0001cf96       $N00564                    100cbf96     git.exp
 0002:0001cfa8       $N00565                    100cbfa8     git.exp
 0002:0001cfbb       $N00566                    100cbfbb     git.exp
 0002:0001cfcd       $N00567                    100cbfcd     git.exp
 0002:0001cfdf       $N00568                    100cbfdf     git.exp
 0002:0001cffa       $N00569                    100cbffa     git.exp
 0002:0001d016       $N00570                    100cc016     git.exp
 0002:0001d031       $N00571                    100cc031     git.exp
 0002:0001d044       $N00572                    100cc044     git.exp
 0002:0001d054       $N00573                    100cc054     git.exp
 0002:0001d067       $N00574                    100cc067     git.exp
 0002:0001d07e       $N00575                    100cc07e     git.exp
 0002:0001d096       $N00576                    100cc096     git.exp
 0002:0001d0b1       $N00577                    100cc0b1     git.exp
 0002:0001d0c6       $N00578                    100cc0c6     git.exp
 0002:0001d0e3       $N00579                    100cc0e3     git.exp
 0002:0001d0f7       $N00580                    100cc0f7     git.exp
 0002:0001d110       $N00581                    100cc110     git.exp
 0002:0001d122       $N00582                    100cc122     git.exp
 0002:0001d134       $N00583                    100cc134     git.exp
 0002:0001d14f       $N00584                    100cc14f     git.exp
 0002:0001d167       $N00585                    100cc167     git.exp
 0002:0001d182       $N00586                    100cc182     git.exp
 0002:0001d197       $N00587                    100cc197     git.exp
 0002:0001d1be       $N00588                    100cc1be     git.exp
 0002:0001d1d4       $N00589                    100cc1d4     git.exp
 0002:0001d1e7       $N00590                    100cc1e7     git.exp
 0002:0001d1fd       $N00591                    100cc1fd     git.exp
 0002:0001d212       $N00592                    100cc212     git.exp
 0002:0001d229       $N00593                    100cc229     git.exp
 0002:0001d23c       $N00594                    100cc23c     git.exp
 0002:0001d253       $N00595                    100cc253     git.exp
 0002:0001d268       $N00596                    100cc268     git.exp
 0002:0001d27b       $N00597                    100cc27b     git.exp
 0002:0001d28e       $N00598                    100cc28e     git.exp
 0002:0001d2a2       $N00599                    100cc2a2     git.exp
 0002:0001d2b5       $N00600                    100cc2b5     git.exp
 0002:0001d2ca       $N00601                    100cc2ca     git.exp
 0002:0001d2e2       $N00602                    100cc2e2     git.exp
 0002:0001d2fc       $N00603                    100cc2fc     git.exp
 0002:0001d315       $N00604                    100cc315     git.exp
 0002:0001d340       $N00605                    100cc340     git.exp
 0002:0001d359       $N00606                    100cc359     git.exp
 0002:0001d372       $N00607                    100cc372     git.exp
 0002:0001d388       $N00608                    100cc388     git.exp
 0002:0001d39d       $N00609                    100cc39d     git.exp
 0002:0001d3b0       $N00610                    100cc3b0     git.exp
 0002:0001d3c5       $N00611                    100cc3c5     git.exp
 0002:0001d3e7       $N00612                    100cc3e7     git.exp
 0002:0001d405       $N00613                    100cc405     git.exp
 0002:0001d417       $N00614                    100cc417     git.exp
 0002:0001d42b       $N00615                    100cc42b     git.exp
 0002:0001d445       $N00616                    100cc445     git.exp
 0002:0001d454       $N00617                    100cc454     git.exp
 0002:0001d46e       $N00618                    100cc46e     git.exp
 0002:0001d489       $N00619                    100cc489     git.exp
 0002:0001d498       $N00620                    100cc498     git.exp
 0002:0001d4a8       $N00621                    100cc4a8     git.exp
 0002:0001d4b5       $N00622                    100cc4b5     git.exp
 0002:0001d4c0       $N00623                    100cc4c0     git.exp
 0002:0001d4cd       $N00624                    100cc4cd     git.exp
 0002:0001d4e0       $N00625                    100cc4e0     git.exp
 0002:0001d4ef       $N00626                    100cc4ef     git.exp
 0002:0001d505       $N00627                    100cc505     git.exp
 0002:0001d515       $N00628                    100cc515     git.exp
 0002:0001d522       $N00629                    100cc522     git.exp
 0002:0001d530       $N00630                    100cc530     git.exp
 0002:0001d53d       $N00631                    100cc53d     git.exp
 0002:0001d54c       $N00632                    100cc54c     git.exp
 0002:0001d55b       $N00633                    100cc55b     git.exp
 0002:0001d56d       $N00634                    100cc56d     git.exp
 0002:0001d581       $N00635                    100cc581     git.exp
 0002:0001d598       $N00636                    100cc598     git.exp
 0002:0001d5ad       $N00637                    100cc5ad     git.exp
 0002:0001d5c6       $N00638                    100cc5c6     git.exp
 0002:0001d5da       $N00639                    100cc5da     git.exp
 0002:0001d5f1       $N00640                    100cc5f1     git.exp
 0002:0001d60c       $N00641                    100cc60c     git.exp
 0002:0001d630       $N00642                    100cc630     git.exp
 0002:0001d64b       $N00643                    100cc64b     git.exp
 0002:0001d65e       $N00644                    100cc65e     git.exp
 0002:0001d672       $N00645                    100cc672     git.exp
 0002:0001d684       $N00646                    100cc684     git.exp
 0002:0001d69b       $N00647                    100cc69b     git.exp
 0002:0001d6af       $N00648                    100cc6af     git.exp
 0002:0001d6d5       $N00649                    100cc6d5     git.exp
 0002:0001d6f5       $N00650                    100cc6f5     git.exp
 0002:0001d712       $N00651                    100cc712     git.exp
 0002:0001d72b       $N00652                    100cc72b     git.exp
 0002:0001d73f       $N00653                    100cc73f     git.exp
 0002:0001d756       $N00654                    100cc756     git.exp
 0002:0001d76c       $N00655                    100cc76c     git.exp
 0002:0001d782       $N00656                    100cc782     git.exp
 0002:0001d795       $N00657                    100cc795     git.exp
 0002:0001d7a8       $N00658                    100cc7a8     git.exp
 0002:0001d7c0       $N00659                    100cc7c0     git.exp
 0002:0001d7dc       $N00660                    100cc7dc     git.exp
 0002:0001d7f0       $N00661                    100cc7f0     git.exp
 0002:0001d802       $N00662                    100cc802     git.exp
 0002:0001d816       $N00663                    100cc816     git.exp
 0002:0001d82f       $N00664                    100cc82f     git.exp
 0002:0001d843       $N00665                    100cc843     git.exp
 0002:0001d857       $N00666                    100cc857     git.exp
 0002:0001d865       $N00667                    100cc865     git.exp
 0002:0001d871       $N00668                    100cc871     git.exp
 0002:0001d881       $N00669                    100cc881     git.exp
 0002:0001d898       $N00670                    100cc898     git.exp
 0002:0001d8a7       $N00671                    100cc8a7     git.exp
 0002:0001d8b5       $N00672                    100cc8b5     git.exp
 0002:0001d8cb       $N00673                    100cc8cb     git.exp
 0002:0001d8e6       $N00674                    100cc8e6     git.exp
 0002:0001d8fd       $N00675                    100cc8fd     git.exp
 0002:0001d912       $N00676                    100cc912     git.exp
 0002:0001d926       $N00677                    100cc926     git.exp
 0002:0001d93d       $N00678                    100cc93d     git.exp
 0002:0001d951       $N00679                    100cc951     git.exp
 0002:0001d968       $N00680                    100cc968     git.exp
 0002:0001d97e       $N00681                    100cc97e     git.exp
 0002:0001d98b       $N00682                    100cc98b     git.exp
 0002:0001d997       $N00683                    100cc997     git.exp
 0002:0001d9a6       $N00684                    100cc9a6     git.exp
 0002:0001e88c       .idata$6                   100cd88c     node:node.exe
 0002:0001f0ba       .idata$6                   100ce0ba     kernel32:KERNEL32.dll
 0002:0001f0fa       .idata$6                   100ce0fa     advapi32:ADVAPI32.dll
 0002:0001f140       .idata$6                   100ce140     ole32:ole32.dll
 0002:0001f168       .idata$6                   100ce168     crypt32:CRYPT32.dll
 0002:0001f182       .idata$6                   100ce182     rpcrt4:RPCRT4.dll
 0002:0001f2bc       .idata$6                   100ce2bc     winhttp:WINHTTP.dll
 0002:0001f2e6       .idata$6                   100ce2e6     ws2_32:WS2_32.dll
 0003:00000020       ?__vcrt_flsindex@@3KA      100cf020     libvcruntime:per_thread_data.obj
 0003:00000044       _errno_no_memory           100cf044     libucrt:errno.obj
 0003:00000048       _doserrno_no_memory        100cf048     libucrt:errno.obj
 0003:00000200       ___acrt_flsindex           100cf200     libucrt:per_thread_data.obj
 0003:00000300       _tzstd_program             100cf300     libucrt:timeset.obj
 0003:00000340       _tzdst_program             100cf340     libucrt:timeset.obj
 0003:00000380       _tzname_states             100cf380     libucrt:timeset.obj
 0003:00000388       _dststart                  100cf388     libucrt:tzset.obj
 0003:00000394       _dstend                    100cf394     libucrt:tzset.obj
 0003:000003a4       ___rgctypeflag             100cf3a4     libucrt:mbctype.obj
 0003:000003a8       ___rgcode_page_info        100cf3a8     libucrt:mbctype.obj
 0003:00000940       __module                   100cf940     repository.obj
 0003:00000964       _g_git_oom_error           100cf964     libgit2:errors.obj
 0003:00000970       __sm_update_map            100cf970     libgit2:submodule.obj
 0003:000009b8       ?is_win7_or_later@?1??git_path_diriter_init@@9@9 100cf9b8     libgit2:path.obj
 0003:000009c0       __sm_recurse_map           100cf9c0     libgit2:submodule.obj
 0003:000009e4       __cvar_map_int             100cf9e4     libgit2:config_cache.obj
 0003:000009f0       __sm_ignore_map            100cf9f0     libgit2:submodule.obj
 0003:00000a38       __cvar_map_safecrlf        100cfa38     libgit2:config_cache.obj
 0003:00000a78       __cvar_map_autocrlf        100cfa78     libgit2:config_cache.obj
 0003:00000aa0       _state_files               100cfaa0     libgit2:repository.obj
 0003:00000ac4       _empty_tree                100cfac4     libgit2:odb.obj
 0003:00000ad8       _global_drivers            100cfad8     libgit2:diff_driver.obj
 0003:00000b90       _repo_template             100cfb90     libgit2:repository.obj
 0003:00000c10       _git_objects_table         100cfc10     libgit2:object.obj
 0003:00000c90       __cvar_maps                100cfc90     libgit2:config_cache.obj
 0003:00000d60       __cvar_map_eol             100cfd60     libgit2:config_cache.obj
 0003:00000d90       _builtin_defs              100cfd90     libgit2:diff_driver.obj
 0003:00000e90       _git_cache__max_object_size 100cfe90     libgit2:cache.obj
 0003:00000eb0       _git_sysdir__dirs          100cfeb0     libgit2:sysdir.obj
 0003:00000f08       _http_subtransport_definition 100cff08     libgit2:transport.obj
 0003:00000f14       _local_transport_definition 100cff14     libgit2:transport.obj
 0003:00000f20       _transports                100cff20     libgit2:transport.obj
 0003:00000f5c       _git_subtransport_definition 100cff5c     libgit2:transport.obj
 0003:00000f68       ?programdata_tmpls@?1??git_win32__find_programdata_dirs@@9@9 100cff68     libgit2:findfile.obj
 0003:00000f70       ?global_tmpls@?1??git_win32__find_global_dirs@@9@9 100cff70     libgit2:findfile.obj
 0003:00000f80       ?global_tmpls@?1??git_win32__find_xdg_dirs@@9@9 100cff80     libgit2:findfile.obj
 0003:00000f9c       _static_l_desc             100cff9c     zlib:trees.obj
 0003:00000fb0       _static_bl_desc            100cffb0     zlib:trees.obj
 0003:00000fc4       _static_d_desc             100cffc4     zlib:trees.obj
 0003:00000fd8       _http_strerror_tab         100cffd8     http_parser:http_parser.obj
 0003:000011a0       ?__proc_attached@@3HA      100d01a0     LIBCMT:dll_dllmain.obj
 0003:000011a8       _GS_ExceptionRecord        100d01a8     LIBCMT:gs_report.obj
 0003:000011f8       _GS_ContextRecord          100d01f8     LIBCMT:gs_report.obj
 0003:000014cc       ?module_local_atexit_table@@3U_onexit_table_t@@A 100d04cc     LIBCMT:utility.obj
 0003:000014d8       ?module_local_at_quick_exit_table@@3U_onexit_table_t@@A 100d04d8     LIBCMT:utility.obj
 0003:000014e4       ?is_initialized_as_dll@@3_NA 100d04e4     LIBCMT:utility.obj
 0003:00001504       ?__vcrt_startup_thread_ptd@@3U__vcrt_ptd@@A 100d0504     libvcruntime:per_thread_data.obj
 0003:0000152c       ___vcrt_lock_table         100d052c     libvcruntime:locks.obj
 0003:00001544       ___vcrt_locks_initialized  100d0544     libvcruntime:locks.obj
 0003:00001548       ?module_handles@@3PAPAUHINSTANCE__@@A 100d0548     libvcruntime:winapi_downlevel.obj
 0003:00001558       ?encoded_function_pointers@@3PAPAXA 100d0558     libvcruntime:winapi_downlevel.obj
 0003:000015a8       ?heap@@3V_HeapManager@@A   100d05a8     libvcruntime:undname.obj
 0003:000015bc       ___acrt_invalid_parameter_handler 100d05bc     libucrt:invalid_parameter.obj
 0003:000015cc       ___acrt_new_handler        100d05cc     libucrt:new_handler.obj
 0003:000015d0       _c_termination_complete    100d05d0     libucrt:exit.obj
 0003:000015d4       _thread_local_exit_callback_func 100d05d4     libucrt:exit.obj
 0003:000015d8       ?c_exit_complete@?5??common_exit@@YAXHW4_crt_exit_cleanup_mode@@W4_crt_exit_return_mode@@@Z@4_NA 100d05d8     libucrt:exit.obj
 0003:000015e0       ?program_name@?5???$common_configure_argv@D@@YAHW4_crt_argv_mode@@@Z@4PADA 100d05e0     libucrt:argv_parsing.obj
 0003:00001714       ___acrt_app_type           100d0714     libucrt:report_runtime_error.obj
 0003:00001718       ___acrt_error_mode         100d0718     libucrt:set_error_mode.obj
 0003:0000171c       _ctrlc_action              100d071c     libucrt:signal.obj
 0003:00001720       _ctrlbreak_action          100d0720     libucrt:signal.obj
 0003:00001724       _abort_action              100d0724     libucrt:signal.obj
 0003:00001728       _term_action               100d0728     libucrt:signal.obj
 0003:00001738       _module_handles            100d0738     libucrt:winapi_thunks.obj
 0003:00001788       _encoded_function_pointers 100d0788     libucrt:winapi_thunks.obj
 0003:00001808       ?state_cache@?1??__acrt_is_packaged_app@@9@4JA 100d0808     libucrt:winapi_thunks.obj
 0003:00001a14       _enable_percent_n          100d0a14     libucrt:printf_count_output.obj
 0003:00001a20       ___acrt_lock_table         100d0a20     libucrt:locks.obj
 0003:00001b58       ___acrt_locks_initialized  100d0b58     libucrt:locks.obj
 0003:00001b68       __tzname                   100d0b68     libucrt:timeset.obj
 0003:00001b6c       _last_tz                   100d0b6c     libucrt:tzset.obj
 0003:00001b70       _tz_api_used               100d0b70     libucrt:tzset.obj
 0003:00001b78       _tz_info                   100d0b78     libucrt:tzset.obj
 0003:00001c24       ?first_time@?1??__tzset@@9@4JA 100d0c24     libucrt:tzset.obj
 0003:00001c40       _fSystemSet                100d0c40     libucrt:mbctype.obj
 0003:00001c44       ?initialized@?1??__acrt_initialize_multibyte@@9@4_NA 100d0c44     libucrt:mbctype.obj
 0003:00001c64       _user_matherr              100d0c64     libucrt:matherr.obj
 0003:00001c68       ___acrt_global_new_mode    100d0c68     libucrt:new_mode.obj
 0003:00001c7c       __pmatherr_set             100d0c7c     libucrt:libm_error.obj
 0003:00001c80       __mutex                    100d0c80     libgit2:global.obj
 0003:00001c84       ?size@?1??git_pool__system_page_size@@9@9 100d0c84     libgit2:pool.obj
 0003:00001c88       ?pFunc@?1??get_fpnbyhandle@@9@9 100d0c88     libgit2:posix_w32.obj
 0003:00001c94       _custom_transports         100d0c94     libgit2:transport.obj
 0003:00001ca8       ?initial_tick_count@?1??git__timer@@9@9 100d0ca8     libgit2:pack-objects.obj
 0003:00001cac       ?initial_tick_count@?1??git__timer@@9@9 100d0cac     libgit2:smart_protocol.obj
 0003:00001cb0       _git__n_shutdown_callbacks 100d0cb0     libgit2:global.obj
 0003:00001cb4       _git__n_inits              100d0cb4     libgit2:global.obj
 0003:00001cb8       __tls_index                100d0cb8     libgit2:global.obj
 0003:00001cbc       _git__shutdown_callbacks   100d0cbc     libgit2:global.obj
 0003:00001cdc       _win32_srwlock_release_shared 100d0cdc     libgit2:thread.obj
 0003:00001ce0       _filter_registry           100d0ce0     libgit2:filter.obj
 0003:00001d0c       _win32_srwlock_release_exclusive 100d0d0c     libgit2:thread.obj
 0003:00001d10       _win32_srwlock_initialize  100d0d10     libgit2:thread.obj
 0003:00001d14       _win32_srwlock_acquire_exclusive 100d0d14     libgit2:thread.obj
 0003:00001d18       _win32_srwlock_acquire_shared 100d0d18     libgit2:thread.obj
 0003:00001d1c       ?page_size@?1??get_page_size@@9@9 100d0d1c     libgit2:map.obj
 0003:00001d20       _mem_ctl                   100d0d20     libgit2:mwindow.obj
 0003:00001d4c       ?granularity@?1??get_allocation_granularity@@9@9 100d0d4c     libgit2:map.obj
 0004:00000000       __guard_fids____dcrt_uninitialize_environments_nolock 100d2000     libucrt:environment_initialization.obj
 0004:00000008       __guard_fids__             100d2008     libucrt:initialization.obj
 0004:00000068       __guard_fids_??$common_show_message_box@_W@@YAHQB_W0I@Z 100d2068     libucrt:crtmbox.obj
 0004:0000006c       __guard_fids____acrt_initialize_ptd 100d206c     libucrt:per_thread_data.obj
 0004:00000070       __guard_fids__             100d2070     libucrt:stdio_initializer.obj
 0004:00000074       __guard_fids__             100d2074     libucrt:stdio_initializer.obj
 0004:00000078       __guard_fids_??$expand_argument_wildcards@D@@YAHQAD0AAV?$argument_list@D@?A0xb0e4b824@@@Z 100d2078     libucrt:argv_wildcards.obj
 0004:0000007c       __guard_fids__             100d207c     libucrt:locale_initializer.obj
 0004:00000080       __guard_fids__             100d2080     libucrt:timeset_initializer.obj
 0004:00000084       __guard_fids__             100d2084     libucrt:multibyte_initializer.obj
 0004:00000088       __guard_fids__             100d2088     libucrt:console_output_initializer.obj
 0004:0000008c       __guard_fids____libm_error_support 100d208c     libucrt:libm_error.obj
 0004:00000090       __guard_fids__             100d2090     libucrt:sse2_initializer.obj
 0004:00000094       __guard_fids__             100d2094     libcpmt:xthrow.obj
 0004:0000009c       __guard_fids__             100d209c     libcpmt:xthrow.obj
 0004:000000a4       __guard_fids__             100d20a4     libcpmt:xthrow.obj
 0004:000000ac       __guard_fids__             100d20ac     libcpmt:xthrow.obj
 0004:000000b4       __guard_fids__             100d20b4     libcpmt:xthrow.obj
 0004:000000bc       __guard_fids__             100d20bc     libcpmt:xthrow.obj
 0004:000000c0       __guard_fids__             100d20c0     libcpmt:xthrow.obj
 0004:000000c4       __guard_fids__             100d20c4     libcpmt:xthrow.obj
 0004:000000c8       __guard_fids__             100d20c8     libcpmt:xthrow.obj
 0004:000000cc       __guard_fids__             100d20cc     libcpmt:xthrow.obj
 0004:000000d0       __guard_fids__             100d20d0     libcpmt:xthrow.obj
 0004:000000d4       __guard_fids__             100d20d4     libcpmt:xthrow.obj
 0004:000000d8       __guard_fids__             100d20d8     libcpmt:xthrow.obj
 0004:000000dc       __guard_fids_?dllmain_crt_process_attach@@YAHQAUHINSTANCE__@@QAX@Z 100d20dc     LIBCMT:dll_dllmain.obj
 0004:000000e4       __guard_fids_?dllmain_dispatch@@YAHQAUHINSTANCE__@@KQAX@Z 100d20e4     LIBCMT:dll_dllmain.obj
 0004:000000e8       __guard_fids__             100d20e8     LIBCMT:std_type_info_static.obj
 0004:000000ec       __guard_fids__             100d20ec     LIBCMT:throw_bad_alloc.obj
 0004:000000f4       __guard_fids__             100d20f4     LIBCMT:throw_bad_alloc.obj
 0004:000000f8       __guard_fids__             100d20f8     LIBCMT:throw_bad_alloc.obj
 0004:000000fc       __guard_fids__             100d20fc     LIBCMT:guard_support.obj
 0004:00000100       __guard_fids____vcrt_initialize_ptd 100d2100     libvcruntime:per_thread_data.obj
 0005:00000060       $R000000                   100d3060     * linker generated manifest res *

 Exports

  ordinal    name

        1    __register_git_
               exported name: _register_git_
        2    _git_annotated_commit_free
               exported name: git_annotated_commit_free
        3    _git_annotated_commit_from_fetchhead
               exported name: git_annotated_commit_from_fetchhead
        4    _git_annotated_commit_from_ref
               exported name: git_annotated_commit_from_ref
        5    _git_annotated_commit_from_revspec
               exported name: git_annotated_commit_from_revspec
        6    _git_annotated_commit_id
               exported name: git_annotated_commit_id
        7    _git_annotated_commit_lookup
               exported name: git_annotated_commit_lookup
        8    _git_attr_add_macro
               exported name: git_attr_add_macro
        9    _git_attr_cache_flush
               exported name: git_attr_cache_flush
       10    _git_attr_foreach
               exported name: git_attr_foreach
       11    _git_attr_get
               exported name: git_attr_get
       12    _git_attr_get_many
               exported name: git_attr_get_many
       13    _git_attr_value
               exported name: git_attr_value
       14    _git_blob_create_frombuffer
               exported name: git_blob_create_frombuffer
       15    _git_blob_create_fromchunks
               exported name: git_blob_create_fromchunks
       16    _git_blob_create_fromdisk
               exported name: git_blob_create_fromdisk
       17    _git_blob_create_fromworkdir
               exported name: git_blob_create_fromworkdir
       18    _git_blob_filtered_content
               exported name: git_blob_filtered_content
       19    _git_blob_free
               exported name: git_blob_free
       20    _git_blob_id
               exported name: git_blob_id
       21    _git_blob_is_binary
               exported name: git_blob_is_binary
       22    _git_blob_lookup
               exported name: git_blob_lookup
       23    _git_blob_lookup_prefix
               exported name: git_blob_lookup_prefix
       24    _git_blob_owner
               exported name: git_blob_owner
       25    _git_blob_rawcontent
               exported name: git_blob_rawcontent
       26    _git_blob_rawsize
               exported name: git_blob_rawsize
       27    _git_branch_create
               exported name: git_branch_create
       28    _git_branch_create_from_annotated
               exported name: git_branch_create_from_annotated
       29    _git_branch_delete
               exported name: git_branch_delete
       30    _git_branch_is_head
               exported name: git_branch_is_head
       31    _git_branch_iterator_free
               exported name: git_branch_iterator_free
       32    _git_branch_iterator_new
               exported name: git_branch_iterator_new
       33    _git_branch_lookup
               exported name: git_branch_lookup
       34    _git_branch_move
               exported name: git_branch_move
       35    _git_branch_name
               exported name: git_branch_name
       36    _git_branch_next
               exported name: git_branch_next
       37    _git_branch_remote_name
               exported name: git_branch_remote_name
       38    _git_branch_set_upstream
               exported name: git_branch_set_upstream
       39    _git_branch_upstream
               exported name: git_branch_upstream
       40    _git_branch_upstream_name
               exported name: git_branch_upstream_name
       41    _git_branch_upstream_remote
               exported name: git_branch_upstream_remote
       42    _git_buf_contains_nul
               exported name: git_buf_contains_nul
       43    _git_buf_free
               exported name: git_buf_free
       44    _git_buf_grow
               exported name: git_buf_grow
       45    _git_buf_is_binary
               exported name: git_buf_is_binary
       46    _git_buf_set
               exported name: git_buf_set
       47    _git_checkout_head
               exported name: git_checkout_head
       48    _git_checkout_index
               exported name: git_checkout_index
       49    _git_checkout_init_options
               exported name: git_checkout_init_options
       50    _git_checkout_tree
               exported name: git_checkout_tree
       51    _git_clone
               exported name: git_clone
       52    _git_clone_init_options
               exported name: git_clone_init_options
       53    _git_commit_amend
               exported name: git_commit_amend
       54    _git_commit_author
               exported name: git_commit_author
       55    _git_commit_body
               exported name: git_commit_body
       56    _git_commit_committer
               exported name: git_commit_committer
       57    _git_commit_create
               exported name: git_commit_create
       58    _git_commit_create_from_callback
               exported name: git_commit_create_from_callback
       59    _git_commit_create_from_ids
               exported name: git_commit_create_from_ids
       60    _git_commit_create_v
               exported name: git_commit_create_v
       61    _git_commit_extract_signature
               exported name: git_commit_extract_signature
       62    _git_commit_free
               exported name: git_commit_free
       63    _git_commit_header_field
               exported name: git_commit_header_field
       64    _git_commit_id
               exported name: git_commit_id
       65    _git_commit_lookup
               exported name: git_commit_lookup
       66    _git_commit_lookup_prefix
               exported name: git_commit_lookup_prefix
       67    _git_commit_message
               exported name: git_commit_message
       68    _git_commit_message_encoding
               exported name: git_commit_message_encoding
       69    _git_commit_message_raw
               exported name: git_commit_message_raw
       70    _git_commit_nth_gen_ancestor
               exported name: git_commit_nth_gen_ancestor
       71    _git_commit_owner
               exported name: git_commit_owner
       72    _git_commit_parent
               exported name: git_commit_parent
       73    _git_commit_parent_id
               exported name: git_commit_parent_id
       74    _git_commit_parentcount
               exported name: git_commit_parentcount
       75    _git_commit_raw_header
               exported name: git_commit_raw_header
       76    _git_commit_summary
               exported name: git_commit_summary
       77    _git_commit_time
               exported name: git_commit_time
       78    _git_commit_time_offset
               exported name: git_commit_time_offset
       79    _git_commit_tree
               exported name: git_commit_tree
       80    _git_commit_tree_id
               exported name: git_commit_tree_id
       81    _git_config_add_backend
               exported name: git_config_add_backend
       82    _git_config_add_file_ondisk
               exported name: git_config_add_file_ondisk
       83    _git_config_backend_foreach_match
               exported name: git_config_backend_foreach_match
       84    _git_config_delete_entry
               exported name: git_config_delete_entry
       85    _git_config_delete_multivar
               exported name: git_config_delete_multivar
       86    _git_config_entry_free
               exported name: git_config_entry_free
       87    _git_config_find_global
               exported name: git_config_find_global
       88    _git_config_find_programdata
               exported name: git_config_find_programdata
       89    _git_config_find_system
               exported name: git_config_find_system
       90    _git_config_find_xdg
               exported name: git_config_find_xdg
       91    _git_config_foreach
               exported name: git_config_foreach
       92    _git_config_foreach_match
               exported name: git_config_foreach_match
       93    _git_config_free
               exported name: git_config_free
       94    _git_config_get_bool
               exported name: git_config_get_bool
       95    _git_config_get_entry
               exported name: git_config_get_entry
       96    _git_config_get_int32
               exported name: git_config_get_int32
       97    _git_config_get_int64
               exported name: git_config_get_int64
       98    _git_config_get_mapped
               exported name: git_config_get_mapped
       99    _git_config_get_multivar_foreach
               exported name: git_config_get_multivar_foreach
      100    _git_config_get_path
               exported name: git_config_get_path
      101    _git_config_get_string
               exported name: git_config_get_string
      102    _git_config_get_string_buf
               exported name: git_config_get_string_buf
      103    _git_config_init_backend
               exported name: git_config_init_backend
      104    _git_config_iterator_free
               exported name: git_config_iterator_free
      105    _git_config_iterator_glob_new
               exported name: git_config_iterator_glob_new
      106    _git_config_iterator_new
               exported name: git_config_iterator_new
      107    _git_config_lock
               exported name: git_config_lock
      108    _git_config_lookup_map_value
               exported name: git_config_lookup_map_value
      109    _git_config_multivar_iterator_new
               exported name: git_config_multivar_iterator_new
      110    _git_config_new
               exported name: git_config_new
      111    _git_config_next
               exported name: git_config_next
      112    _git_config_open_default
               exported name: git_config_open_default
      113    _git_config_open_global
               exported name: git_config_open_global
      114    _git_config_open_level
               exported name: git_config_open_level
      115    _git_config_open_ondisk
               exported name: git_config_open_ondisk
      116    _git_config_parse_bool
               exported name: git_config_parse_bool
      117    _git_config_parse_int32
               exported name: git_config_parse_int32
      118    _git_config_parse_int64
               exported name: git_config_parse_int64
      119    _git_config_parse_path
               exported name: git_config_parse_path
      120    _git_config_set_bool
               exported name: git_config_set_bool
      121    _git_config_set_int32
               exported name: git_config_set_int32
      122    _git_config_set_int64
               exported name: git_config_set_int64
      123    _git_config_set_multivar
               exported name: git_config_set_multivar
      124    _git_config_set_string
               exported name: git_config_set_string
      125    _git_config_snapshot
               exported name: git_config_snapshot
      126    _git_config_unlock
               exported name: git_config_unlock
      127    _git_cred_default_new
               exported name: git_cred_default_new
      128    _git_cred_free
               exported name: git_cred_free
      129    _git_cred_has_username
               exported name: git_cred_has_username
      130    _git_cred_ssh_custom_new
               exported name: git_cred_ssh_custom_new
      131    _git_cred_ssh_interactive_new
               exported name: git_cred_ssh_interactive_new
      132    _git_cred_ssh_key_from_agent
               exported name: git_cred_ssh_key_from_agent
      133    _git_cred_ssh_key_memory_new
               exported name: git_cred_ssh_key_memory_new
      134    _git_cred_ssh_key_new
               exported name: git_cred_ssh_key_new
      135    _git_cred_username_new
               exported name: git_cred_username_new
      136    _git_cred_userpass_plaintext_new
               exported name: git_cred_userpass_plaintext_new
      137    _git_diff_blob_to_buffer
               exported name: git_diff_blob_to_buffer
      138    _git_diff_blobs
               exported name: git_diff_blobs
      139    _git_diff_buffers
               exported name: git_diff_buffers
      140    _git_diff_commit_as_email
               exported name: git_diff_commit_as_email
      141    _git_diff_find_init_options
               exported name: git_diff_find_init_options
      142    _git_diff_find_similar
               exported name: git_diff_find_similar
      143    _git_diff_foreach
               exported name: git_diff_foreach
      144    _git_diff_format_email
               exported name: git_diff_format_email
      145    _git_diff_format_email_init_options
               exported name: git_diff_format_email_init_options
      146    _git_diff_free
               exported name: git_diff_free
      147    _git_diff_get_delta
               exported name: git_diff_get_delta
      148    _git_diff_get_perfdata
               exported name: git_diff_get_perfdata
      149    _git_diff_get_stats
               exported name: git_diff_get_stats
      150    _git_diff_index_to_index
               exported name: git_diff_index_to_index
      151    _git_diff_index_to_workdir
               exported name: git_diff_index_to_workdir
      152    _git_diff_init_options
               exported name: git_diff_init_options
      153    _git_diff_is_sorted_icase
               exported name: git_diff_is_sorted_icase
      154    _git_diff_merge
               exported name: git_diff_merge
      155    _git_diff_num_deltas
               exported name: git_diff_num_deltas
      156    _git_diff_num_deltas_of_type
               exported name: git_diff_num_deltas_of_type
      157    _git_diff_print
               exported name: git_diff_print
      158    _git_diff_print_callback__to_buf
               exported name: git_diff_print_callback__to_buf
      159    _git_diff_print_callback__to_file_handle
               exported name: git_diff_print_callback__to_file_handle
      160    _git_diff_stats_deletions
               exported name: git_diff_stats_deletions
      161    _git_diff_stats_files_changed
               exported name: git_diff_stats_files_changed
      162    _git_diff_stats_free
               exported name: git_diff_stats_free
      163    _git_diff_stats_insertions
               exported name: git_diff_stats_insertions
      164    _git_diff_stats_to_buf
               exported name: git_diff_stats_to_buf
      165    _git_diff_status_char
               exported name: git_diff_status_char
      166    _git_diff_tree_to_index
               exported name: git_diff_tree_to_index
      167    _git_diff_tree_to_tree
               exported name: git_diff_tree_to_tree
      168    _git_diff_tree_to_workdir
               exported name: git_diff_tree_to_workdir
      169    _git_diff_tree_to_workdir_with_index
               exported name: git_diff_tree_to_workdir_with_index
      170    _git_fetch_init_options
               exported name: git_fetch_init_options
      171    _git_filter_list_apply_to_blob
               exported name: git_filter_list_apply_to_blob
      172    _git_filter_list_apply_to_data
               exported name: git_filter_list_apply_to_data
      173    _git_filter_list_apply_to_file
               exported name: git_filter_list_apply_to_file
      174    _git_filter_list_contains
               exported name: git_filter_list_contains
      175    _git_filter_list_free
               exported name: git_filter_list_free
      176    _git_filter_list_length
               exported name: git_filter_list_length
      177    _git_filter_list_load
               exported name: git_filter_list_load
      178    _git_filter_list_new
               exported name: git_filter_list_new
      179    _git_filter_list_push
               exported name: git_filter_list_push
      180    _git_filter_list_stream_blob
               exported name: git_filter_list_stream_blob
      181    _git_filter_list_stream_data
               exported name: git_filter_list_stream_data
      182    _git_filter_list_stream_file
               exported name: git_filter_list_stream_file
      183    _git_filter_lookup
               exported name: git_filter_lookup
      184    _git_filter_register
               exported name: git_filter_register
      185    _git_filter_source_filemode
               exported name: git_filter_source_filemode
      186    _git_filter_source_flags
               exported name: git_filter_source_flags
      187    _git_filter_source_id
               exported name: git_filter_source_id
      188    _git_filter_source_mode
               exported name: git_filter_source_mode
      189    _git_filter_source_path
               exported name: git_filter_source_path
      190    _git_filter_source_repo
               exported name: git_filter_source_repo
      191    _git_filter_unregister
               exported name: git_filter_unregister
      192    _git_hashsig_compare
               exported name: git_hashsig_compare
      193    _git_hashsig_create
               exported name: git_hashsig_create
      194    _git_hashsig_create_fromfile
               exported name: git_hashsig_create_fromfile
      195    _git_hashsig_free
               exported name: git_hashsig_free
      196    _git_ignore_add_rule
               exported name: git_ignore_add_rule
      197    _git_ignore_clear_internal_rules
               exported name: git_ignore_clear_internal_rules
      198    _git_ignore_path_is_ignored
               exported name: git_ignore_path_is_ignored
      199    _git_index_add
               exported name: git_index_add
      200    _git_index_add_all
               exported name: git_index_add_all
      201    _git_index_add_bypath
               exported name: git_index_add_bypath
      202    _git_index_add_frombuffer
               exported name: git_index_add_frombuffer
      203    _git_index_caps
               exported name: git_index_caps
      204    _git_index_checksum
               exported name: git_index_checksum
      205    _git_index_clear
               exported name: git_index_clear
      206    _git_index_conflict_add
               exported name: git_index_conflict_add
      207    _git_index_conflict_cleanup
               exported name: git_index_conflict_cleanup
      208    _git_index_conflict_get
               exported name: git_index_conflict_get
      209    _git_index_conflict_iterator_free
               exported name: git_index_conflict_iterator_free
      210    _git_index_conflict_iterator_new
               exported name: git_index_conflict_iterator_new
      211    _git_index_conflict_next
               exported name: git_index_conflict_next
      212    _git_index_conflict_remove
               exported name: git_index_conflict_remove
      213    _git_index_entry_is_conflict
               exported name: git_index_entry_is_conflict
      214    _git_index_entry_stage
               exported name: git_index_entry_stage
      215    _git_index_entrycount
               exported name: git_index_entrycount
      216    _git_index_find
               exported name: git_index_find
      217    _git_index_find_prefix
               exported name: git_index_find_prefix
      218    _git_index_free
               exported name: git_index_free
      219    _git_index_get_byindex
               exported name: git_index_get_byindex
      220    _git_index_get_bypath
               exported name: git_index_get_bypath
      221    _git_index_has_conflicts
               exported name: git_index_has_conflicts
      222    _git_index_name_add
               exported name: git_index_name_add
      223    _git_index_name_clear
               exported name: git_index_name_clear
      224    _git_index_name_entrycount
               exported name: git_index_name_entrycount
      225    _git_index_name_get_byindex
               exported name: git_index_name_get_byindex
      226    _git_index_new
               exported name: git_index_new
      227    _git_index_open
               exported name: git_index_open
      228    _git_index_owner
               exported name: git_index_owner
      229    _git_index_path
               exported name: git_index_path
      230    _git_index_read
               exported name: git_index_read
      231    _git_index_read_tree
               exported name: git_index_read_tree
      232    _git_index_remove
               exported name: git_index_remove
      233    _git_index_remove_all
               exported name: git_index_remove_all
      234    _git_index_remove_bypath
               exported name: git_index_remove_bypath
      235    _git_index_remove_directory
               exported name: git_index_remove_directory
      236    _git_index_reuc_add
               exported name: git_index_reuc_add
      237    _git_index_reuc_clear
               exported name: git_index_reuc_clear
      238    _git_index_reuc_entrycount
               exported name: git_index_reuc_entrycount
      239    _git_index_reuc_find
               exported name: git_index_reuc_find
      240    _git_index_reuc_get_byindex
               exported name: git_index_reuc_get_byindex
      241    _git_index_reuc_get_bypath
               exported name: git_index_reuc_get_bypath
      242    _git_index_reuc_remove
               exported name: git_index_reuc_remove
      243    _git_index_set_caps
               exported name: git_index_set_caps
      244    _git_index_update_all
               exported name: git_index_update_all
      245    _git_index_write
               exported name: git_index_write
      246    _git_index_write_tree
               exported name: git_index_write_tree
      247    _git_index_write_tree_to
               exported name: git_index_write_tree_to
      248    _git_indexer_append
               exported name: git_indexer_append
      249    _git_indexer_commit
               exported name: git_indexer_commit
      250    _git_indexer_free
               exported name: git_indexer_free
      251    _git_indexer_hash
               exported name: git_indexer_hash
      252    _git_indexer_new
               exported name: git_indexer_new
      253    _git_libgit2_features
               exported name: git_libgit2_features
      254    _git_libgit2_init
               exported name: git_libgit2_init
      255    _git_libgit2_opts
               exported name: git_libgit2_opts
      256    _git_libgit2_shutdown
               exported name: git_libgit2_shutdown
      257    _git_libgit2_version
               exported name: git_libgit2_version
      258    _git_merge
               exported name: git_merge
      259    _git_merge_analysis
               exported name: git_merge_analysis
      260    _git_merge_base
               exported name: git_merge_base
      261    _git_merge_base_many
               exported name: git_merge_base_many
      262    _git_merge_base_octopus
               exported name: git_merge_base_octopus
      263    _git_merge_bases
               exported name: git_merge_bases
      264    _git_merge_bases_many
               exported name: git_merge_bases_many
      265    _git_merge_commits
               exported name: git_merge_commits
      266    _git_merge_file
               exported name: git_merge_file
      267    _git_merge_file_from_index
               exported name: git_merge_file_from_index
      268    _git_merge_file_init_input
               exported name: git_merge_file_init_input
      269    _git_merge_file_init_options
               exported name: git_merge_file_init_options
      270    _git_merge_file_result_free
               exported name: git_merge_file_result_free
      271    _git_merge_init_options
               exported name: git_merge_init_options
      272    _git_merge_trees
               exported name: git_merge_trees
      273    _git_object__size
               exported name: git_object__size
      274    _git_object_dup
               exported name: git_object_dup
      275    _git_object_free
               exported name: git_object_free
      276    _git_object_id
               exported name: git_object_id
      277    _git_object_lookup
               exported name: git_object_lookup
      278    _git_object_lookup_bypath
               exported name: git_object_lookup_bypath
      279    _git_object_lookup_prefix
               exported name: git_object_lookup_prefix
      280    _git_object_owner
               exported name: git_object_owner
      281    _git_object_peel
               exported name: git_object_peel
      282    _git_object_short_id
               exported name: git_object_short_id
      283    _git_object_string2type
               exported name: git_object_string2type
      284    _git_object_type
               exported name: git_object_type
      285    _git_object_type2string
               exported name: git_object_type2string
      286    _git_object_typeisloose
               exported name: git_object_typeisloose
      287    _git_odb_add_alternate
               exported name: git_odb_add_alternate
      288    _git_odb_add_backend
               exported name: git_odb_add_backend
      289    _git_odb_add_disk_alternate
               exported name: git_odb_add_disk_alternate
      290    _git_odb_backend_loose
               exported name: git_odb_backend_loose
      291    _git_odb_backend_malloc
               exported name: git_odb_backend_malloc
      292    _git_odb_backend_one_pack
               exported name: git_odb_backend_one_pack
      293    _git_odb_backend_pack
               exported name: git_odb_backend_pack
      294    _git_odb_exists
               exported name: git_odb_exists
      295    _git_odb_exists_prefix
               exported name: git_odb_exists_prefix
      296    _git_odb_foreach
               exported name: git_odb_foreach
      297    _git_odb_free
               exported name: git_odb_free
      298    _git_odb_get_backend
               exported name: git_odb_get_backend
      299    _git_odb_hash
               exported name: git_odb_hash
      300    _git_odb_hashfile
               exported name: git_odb_hashfile
      301    _git_odb_init_backend
               exported name: git_odb_init_backend
      302    _git_odb_new
               exported name: git_odb_new
      303    _git_odb_num_backends
               exported name: git_odb_num_backends
      304    _git_odb_object_data
               exported name: git_odb_object_data
      305    _git_odb_object_dup
               exported name: git_odb_object_dup
      306    _git_odb_object_free
               exported name: git_odb_object_free
      307    _git_odb_object_id
               exported name: git_odb_object_id
      308    _git_odb_object_size
               exported name: git_odb_object_size
      309    _git_odb_object_type
               exported name: git_odb_object_type
      310    _git_odb_open
               exported name: git_odb_open
      311    _git_odb_open_rstream
               exported name: git_odb_open_rstream
      312    _git_odb_open_wstream
               exported name: git_odb_open_wstream
      313    _git_odb_read
               exported name: git_odb_read
      314    _git_odb_read_header
               exported name: git_odb_read_header
      315    _git_odb_read_prefix
               exported name: git_odb_read_prefix
      316    _git_odb_refresh
               exported name: git_odb_refresh
      317    _git_odb_stream_finalize_write
               exported name: git_odb_stream_finalize_write
      318    _git_odb_stream_free
               exported name: git_odb_stream_free
      319    _git_odb_stream_read
               exported name: git_odb_stream_read
      320    _git_odb_stream_write
               exported name: git_odb_stream_write
      321    _git_odb_write
               exported name: git_odb_write
      322    _git_odb_write_pack
               exported name: git_odb_write_pack
      323    _git_oid_cmp
               exported name: git_oid_cmp
      324    _git_oid_cpy
               exported name: git_oid_cpy
      325    _git_oid_equal
               exported name: git_oid_equal
      326    _git_oid_fmt
               exported name: git_oid_fmt
      327    _git_oid_fromraw
               exported name: git_oid_fromraw
      328    _git_oid_fromstr
               exported name: git_oid_fromstr
      329    _git_oid_fromstrn
               exported name: git_oid_fromstrn
      330    _git_oid_fromstrp
               exported name: git_oid_fromstrp
      331    _git_oid_iszero
               exported name: git_oid_iszero
      332    _git_oid_ncmp
               exported name: git_oid_ncmp
      333    _git_oid_nfmt
               exported name: git_oid_nfmt
      334    _git_oid_pathfmt
               exported name: git_oid_pathfmt
      335    _git_oid_shorten_add
               exported name: git_oid_shorten_add
      336    _git_oid_shorten_free
               exported name: git_oid_shorten_free
      337    _git_oid_shorten_new
               exported name: git_oid_shorten_new
      338    _git_oid_strcmp
               exported name: git_oid_strcmp
      339    _git_oid_streq
               exported name: git_oid_streq
      340    _git_oid_tostr
               exported name: git_oid_tostr
      341    _git_oid_tostr_s
               exported name: git_oid_tostr_s
      342    _git_oidarray_free
               exported name: git_oidarray_free
      343    _git_openssl_set_locking
               exported name: git_openssl_set_locking
      344    _git_packbuilder_foreach
               exported name: git_packbuilder_foreach
      345    _git_packbuilder_free
               exported name: git_packbuilder_free
      346    _git_packbuilder_hash
               exported name: git_packbuilder_hash
      347    _git_packbuilder_insert
               exported name: git_packbuilder_insert
      348    _git_packbuilder_insert_commit
               exported name: git_packbuilder_insert_commit
      349    _git_packbuilder_insert_recur
               exported name: git_packbuilder_insert_recur
      350    _git_packbuilder_insert_tree
               exported name: git_packbuilder_insert_tree
      351    _git_packbuilder_insert_walk
               exported name: git_packbuilder_insert_walk
      352    _git_packbuilder_new
               exported name: git_packbuilder_new
      353    _git_packbuilder_object_count
               exported name: git_packbuilder_object_count
      354    _git_packbuilder_set_callbacks
               exported name: git_packbuilder_set_callbacks
      355    _git_packbuilder_set_threads
               exported name: git_packbuilder_set_threads
      356    _git_packbuilder_write
               exported name: git_packbuilder_write
      357    _git_packbuilder_write_buf
               exported name: git_packbuilder_write_buf
      358    _git_packbuilder_written
               exported name: git_packbuilder_written
      359    _git_patch_free
               exported name: git_patch_free
      360    _git_patch_from_blob_and_buffer
               exported name: git_patch_from_blob_and_buffer
      361    _git_patch_from_blobs
               exported name: git_patch_from_blobs
      362    _git_patch_from_buffers
               exported name: git_patch_from_buffers
      363    _git_patch_from_diff
               exported name: git_patch_from_diff
      364    _git_patch_get_delta
               exported name: git_patch_get_delta
      365    _git_patch_get_hunk
               exported name: git_patch_get_hunk
      366    _git_patch_get_line_in_hunk
               exported name: git_patch_get_line_in_hunk
      367    _git_patch_line_stats
               exported name: git_patch_line_stats
      368    _git_patch_num_hunks
               exported name: git_patch_num_hunks
      369    _git_patch_num_lines_in_hunk
               exported name: git_patch_num_lines_in_hunk
      370    _git_patch_print
               exported name: git_patch_print
      371    _git_patch_size
               exported name: git_patch_size
      372    _git_patch_to_buf
               exported name: git_patch_to_buf
      373    _git_pathspec_free
               exported name: git_pathspec_free
      374    _git_pathspec_match_diff
               exported name: git_pathspec_match_diff
      375    _git_pathspec_match_index
               exported name: git_pathspec_match_index
      376    _git_pathspec_match_list_diff_entry
               exported name: git_pathspec_match_list_diff_entry
      377    _git_pathspec_match_list_entry
               exported name: git_pathspec_match_list_entry
      378    _git_pathspec_match_list_entrycount
               exported name: git_pathspec_match_list_entrycount
      379    _git_pathspec_match_list_failed_entry
               exported name: git_pathspec_match_list_failed_entry
      380    _git_pathspec_match_list_failed_entrycount
               exported name: git_pathspec_match_list_failed_entrycount
      381    _git_pathspec_match_list_free
               exported name: git_pathspec_match_list_free
      382    _git_pathspec_match_tree
               exported name: git_pathspec_match_tree
      383    _git_pathspec_match_workdir
               exported name: git_pathspec_match_workdir
      384    _git_pathspec_matches_path
               exported name: git_pathspec_matches_path
      385    _git_pathspec_new
               exported name: git_pathspec_new
      386    _git_push_init_options
               exported name: git_push_init_options
      387    _git_refdb_backend_fs
               exported name: git_refdb_backend_fs
      388    _git_refdb_compress
               exported name: git_refdb_compress
      389    _git_refdb_free
               exported name: git_refdb_free
      390    _git_refdb_init_backend
               exported name: git_refdb_init_backend
      391    _git_refdb_new
               exported name: git_refdb_new
      392    _git_refdb_open
               exported name: git_refdb_open
      393    _git_refdb_set_backend
               exported name: git_refdb_set_backend
      394    _git_reference__alloc
               exported name: git_reference__alloc
      395    _git_reference__alloc_symbolic
               exported name: git_reference__alloc_symbolic
      396    _git_reference_cmp
               exported name: git_reference_cmp
      397    _git_reference_create
               exported name: git_reference_create
      398    _git_reference_create_matching
               exported name: git_reference_create_matching
      399    _git_reference_delete
               exported name: git_reference_delete
      400    _git_reference_dwim
               exported name: git_reference_dwim
      401    _git_reference_ensure_log
               exported name: git_reference_ensure_log
      402    _git_reference_foreach
               exported name: git_reference_foreach
      403    _git_reference_foreach_glob
               exported name: git_reference_foreach_glob
      404    _git_reference_foreach_name
               exported name: git_reference_foreach_name
      405    _git_reference_free
               exported name: git_reference_free
      406    _git_reference_has_log
               exported name: git_reference_has_log
      407    _git_reference_is_branch
               exported name: git_reference_is_branch
      408    _git_reference_is_note
               exported name: git_reference_is_note
      409    _git_reference_is_remote
               exported name: git_reference_is_remote
      410    _git_reference_is_tag
               exported name: git_reference_is_tag
      411    _git_reference_is_valid_name
               exported name: git_reference_is_valid_name
      412    _git_reference_iterator_free
               exported name: git_reference_iterator_free
      413    _git_reference_iterator_glob_new
               exported name: git_reference_iterator_glob_new
      414    _git_reference_iterator_new
               exported name: git_reference_iterator_new
      415    _git_reference_list
               exported name: git_reference_list
      416    _git_reference_lookup
               exported name: git_reference_lookup
      417    _git_reference_name
               exported name: git_reference_name
      418    _git_reference_name_to_id
               exported name: git_reference_name_to_id
      419    _git_reference_next
               exported name: git_reference_next
      420    _git_reference_next_name
               exported name: git_reference_next_name
      421    _git_reference_normalize_name
               exported name: git_reference_normalize_name
      422    _git_reference_owner
               exported name: git_reference_owner
      423    _git_reference_peel
               exported name: git_reference_peel
      424    _git_reference_remove
               exported name: git_reference_remove
      425    _git_reference_rename
               exported name: git_reference_rename
      426    _git_reference_resolve
               exported name: git_reference_resolve
      427    _git_reference_set_target
               exported name: git_reference_set_target
      428    _git_reference_shorthand
               exported name: git_reference_shorthand
      429    _git_reference_symbolic_create
               exported name: git_reference_symbolic_create
      430    _git_reference_symbolic_create_matching
               exported name: git_reference_symbolic_create_matching
      431    _git_reference_symbolic_set_target
               exported name: git_reference_symbolic_set_target
      432    _git_reference_symbolic_target
               exported name: git_reference_symbolic_target
      433    _git_reference_target
               exported name: git_reference_target
      434    _git_reference_target_peel
               exported name: git_reference_target_peel
      435    _git_reference_type
               exported name: git_reference_type
      436    _git_reflog_append
               exported name: git_reflog_append
      437    _git_reflog_delete
               exported name: git_reflog_delete
      438    _git_reflog_drop
               exported name: git_reflog_drop
      439    _git_reflog_entry_byindex
               exported name: git_reflog_entry_byindex
      440    _git_reflog_entry_committer
               exported name: git_reflog_entry_committer
      441    _git_reflog_entry_id_new
               exported name: git_reflog_entry_id_new
      442    _git_reflog_entry_id_old
               exported name: git_reflog_entry_id_old
      443    _git_reflog_entry_message
               exported name: git_reflog_entry_message
      444    _git_reflog_entrycount
               exported name: git_reflog_entrycount
      445    _git_reflog_free
               exported name: git_reflog_free
      446    _git_reflog_read
               exported name: git_reflog_read
      447    _git_reflog_rename
               exported name: git_reflog_rename
      448    _git_reflog_write
               exported name: git_reflog_write
      449    _git_refspec_direction
               exported name: git_refspec_direction
      450    _git_refspec_dst
               exported name: git_refspec_dst
      451    _git_refspec_dst_matches
               exported name: git_refspec_dst_matches
      452    _git_refspec_force
               exported name: git_refspec_force
      453    _git_refspec_rtransform
               exported name: git_refspec_rtransform
      454    _git_refspec_src
               exported name: git_refspec_src
      455    _git_refspec_src_matches
               exported name: git_refspec_src_matches
      456    _git_refspec_string
               exported name: git_refspec_string
      457    _git_refspec_transform
               exported name: git_refspec_transform
      458    _git_remote_add_fetch
               exported name: git_remote_add_fetch
      459    _git_remote_add_push
               exported name: git_remote_add_push
      460    _git_remote_autotag
               exported name: git_remote_autotag
      461    _git_remote_connect
               exported name: git_remote_connect
      462    _git_remote_connected
               exported name: git_remote_connected
      463    _git_remote_create
               exported name: git_remote_create
      464    _git_remote_create_anonymous
               exported name: git_remote_create_anonymous
      465    _git_remote_create_with_fetchspec
               exported name: git_remote_create_with_fetchspec
      466    _git_remote_default_branch
               exported name: git_remote_default_branch
      467    _git_remote_delete
               exported name: git_remote_delete
      468    _git_remote_disconnect
               exported name: git_remote_disconnect
      469    _git_remote_download
               exported name: git_remote_download
      470    _git_remote_dup
               exported name: git_remote_dup
      471    _git_remote_fetch
               exported name: git_remote_fetch
      472    _git_remote_free
               exported name: git_remote_free
      473    _git_remote_get_fetch_refspecs
               exported name: git_remote_get_fetch_refspecs
      474    _git_remote_get_push_refspecs
               exported name: git_remote_get_push_refspecs
      475    _git_remote_get_refspec
               exported name: git_remote_get_refspec
      476    _git_remote_init_callbacks
               exported name: git_remote_init_callbacks
      477    _git_remote_is_valid_name
               exported name: git_remote_is_valid_name
      478    _git_remote_list
               exported name: git_remote_list
      479    _git_remote_lookup
               exported name: git_remote_lookup
      480    _git_remote_ls
               exported name: git_remote_ls
      481    _git_remote_name
               exported name: git_remote_name
      482    _git_remote_owner
               exported name: git_remote_owner
      483    _git_remote_prune
               exported name: git_remote_prune
      484    _git_remote_prune_refs
               exported name: git_remote_prune_refs
      485    _git_remote_push
               exported name: git_remote_push
      486    _git_remote_pushurl
               exported name: git_remote_pushurl
      487    _git_remote_refspec_count
               exported name: git_remote_refspec_count
      488    _git_remote_rename
               exported name: git_remote_rename
      489    _git_remote_set_autotag
               exported name: git_remote_set_autotag
      490    _git_remote_set_pushurl
               exported name: git_remote_set_pushurl
      491    _git_remote_set_url
               exported name: git_remote_set_url
      492    _git_remote_stats
               exported name: git_remote_stats
      493    _git_remote_stop
               exported name: git_remote_stop
      494    _git_remote_update_tips
               exported name: git_remote_update_tips
      495    _git_remote_upload
               exported name: git_remote_upload
      496    _git_remote_url
               exported name: git_remote_url
      497    _git_repository__cleanup
               exported name: git_repository__cleanup
      498    _git_repository_config
               exported name: git_repository_config
      499    _git_repository_config_snapshot
               exported name: git_repository_config_snapshot
      500    _git_repository_detach_head
               exported name: git_repository_detach_head
      501    _git_repository_discover
               exported name: git_repository_discover
      502    _git_repository_fetchhead_foreach
               exported name: git_repository_fetchhead_foreach
      503    _git_repository_free
               exported name: git_repository_free
      504    _git_repository_get_namespace
               exported name: git_repository_get_namespace
      505    _git_repository_hashfile
               exported name: git_repository_hashfile
      506    _git_repository_head
               exported name: git_repository_head
      507    _git_repository_head_detached
               exported name: git_repository_head_detached
      508    _git_repository_head_unborn
               exported name: git_repository_head_unborn
      509    _git_repository_ident
               exported name: git_repository_ident
      510    _git_repository_index
               exported name: git_repository_index
      511    _git_repository_init
               exported name: git_repository_init
      512    _git_repository_init_ext
               exported name: git_repository_init_ext
      513    _git_repository_init_init_options
               exported name: git_repository_init_init_options
      514    _git_repository_is_bare
               exported name: git_repository_is_bare
      515    _git_repository_is_empty
               exported name: git_repository_is_empty
      516    _git_repository_is_shallow
               exported name: git_repository_is_shallow
      517    _git_repository_mergehead_foreach
               exported name: git_repository_mergehead_foreach
      518    _git_repository_message
               exported name: git_repository_message
      519    _git_repository_message_remove
               exported name: git_repository_message_remove
      520    _git_repository_new
               exported name: git_repository_new
      521    _git_repository_odb
               exported name: git_repository_odb
      522    _git_repository_open
               exported name: git_repository_open
      523    _git_repository_open_bare
               exported name: git_repository_open_bare
      524    _git_repository_open_ext
               exported name: git_repository_open_ext
      525    _git_repository_path
               exported name: git_repository_path
      526    _git_repository_refdb
               exported name: git_repository_refdb
      527    _git_repository_reinit_filesystem
               exported name: git_repository_reinit_filesystem
      528    _git_repository_set_bare
               exported name: git_repository_set_bare
      529    _git_repository_set_config
               exported name: git_repository_set_config
      530    _git_repository_set_head
               exported name: git_repository_set_head
      531    _git_repository_set_head_detached
               exported name: git_repository_set_head_detached
      532    _git_repository_set_head_detached_from_annotated
               exported name: git_repository_set_head_detached_from_annotated
      533    _git_repository_set_ident
               exported name: git_repository_set_ident
      534    _git_repository_set_index
               exported name: git_repository_set_index
      535    _git_repository_set_namespace
               exported name: git_repository_set_namespace
      536    _git_repository_set_odb
               exported name: git_repository_set_odb
      537    _git_repository_set_refdb
               exported name: git_repository_set_refdb
      538    _git_repository_set_workdir
               exported name: git_repository_set_workdir
      539    _git_repository_state
               exported name: git_repository_state
      540    _git_repository_state_cleanup
               exported name: git_repository_state_cleanup
      541    _git_repository_workdir
               exported name: git_repository_workdir
      542    _git_repository_wrap_odb
               exported name: git_repository_wrap_odb
      543    _git_revparse
               exported name: git_revparse
      544    _git_revparse_ext
               exported name: git_revparse_ext
      545    _git_revparse_single
               exported name: git_revparse_single
      546    _git_revwalk_add_hide_cb
               exported name: git_revwalk_add_hide_cb
      547    _git_revwalk_free
               exported name: git_revwalk_free
      548    _git_revwalk_hide
               exported name: git_revwalk_hide
      549    _git_revwalk_hide_glob
               exported name: git_revwalk_hide_glob
      550    _git_revwalk_hide_head
               exported name: git_revwalk_hide_head
      551    _git_revwalk_hide_ref
               exported name: git_revwalk_hide_ref
      552    _git_revwalk_new
               exported name: git_revwalk_new
      553    _git_revwalk_next
               exported name: git_revwalk_next
      554    _git_revwalk_push
               exported name: git_revwalk_push
      555    _git_revwalk_push_glob
               exported name: git_revwalk_push_glob
      556    _git_revwalk_push_head
               exported name: git_revwalk_push_head
      557    _git_revwalk_push_range
               exported name: git_revwalk_push_range
      558    _git_revwalk_push_ref
               exported name: git_revwalk_push_ref
      559    _git_revwalk_repository
               exported name: git_revwalk_repository
      560    _git_revwalk_reset
               exported name: git_revwalk_reset
      561    _git_revwalk_simplify_first_parent
               exported name: git_revwalk_simplify_first_parent
      562    _git_revwalk_sorting
               exported name: git_revwalk_sorting
      563    _git_signature_default
               exported name: git_signature_default
      564    _git_signature_dup
               exported name: git_signature_dup
      565    _git_signature_free
               exported name: git_signature_free
      566    _git_signature_new
               exported name: git_signature_new
      567    _git_signature_now
               exported name: git_signature_now
      568    _git_smart_subtransport_git
               exported name: git_smart_subtransport_git
      569    _git_smart_subtransport_http
               exported name: git_smart_subtransport_http
      570    _git_smart_subtransport_ssh
               exported name: git_smart_subtransport_ssh
      571    _git_status_byindex
               exported name: git_status_byindex
      572    _git_status_file
               exported name: git_status_file
      573    _git_status_foreach
               exported name: git_status_foreach
      574    _git_status_foreach_ext
               exported name: git_status_foreach_ext
      575    _git_status_init_options
               exported name: git_status_init_options
      576    _git_status_list_entrycount
               exported name: git_status_list_entrycount
      577    _git_status_list_free
               exported name: git_status_list_free
      578    _git_status_list_get_perfdata
               exported name: git_status_list_get_perfdata
      579    _git_status_list_new
               exported name: git_status_list_new
      580    _git_status_should_ignore
               exported name: git_status_should_ignore
      581    _git_strarray_copy
               exported name: git_strarray_copy
      582    _git_strarray_free
               exported name: git_strarray_free
      583    _git_submodule_add_finalize
               exported name: git_submodule_add_finalize
      584    _git_submodule_add_setup
               exported name: git_submodule_add_setup
      585    _git_submodule_add_to_index
               exported name: git_submodule_add_to_index
      586    _git_submodule_branch
               exported name: git_submodule_branch
      587    _git_submodule_fetch_recurse_submodules
               exported name: git_submodule_fetch_recurse_submodules
      588    _git_submodule_foreach
               exported name: git_submodule_foreach
      589    _git_submodule_free
               exported name: git_submodule_free
      590    _git_submodule_head_id
               exported name: git_submodule_head_id
      591    _git_submodule_ignore
               exported name: git_submodule_ignore
      592    _git_submodule_index_id
               exported name: git_submodule_index_id
      593    _git_submodule_init
               exported name: git_submodule_init
      594    _git_submodule_location
               exported name: git_submodule_location
      595    _git_submodule_lookup
               exported name: git_submodule_lookup
      596    _git_submodule_name
               exported name: git_submodule_name
      597    _git_submodule_open
               exported name: git_submodule_open
      598    _git_submodule_owner
               exported name: git_submodule_owner
      599    _git_submodule_path
               exported name: git_submodule_path
      600    _git_submodule_reload
               exported name: git_submodule_reload
      601    _git_submodule_repo_init
               exported name: git_submodule_repo_init
      602    _git_submodule_resolve_url
               exported name: git_submodule_resolve_url
      603    _git_submodule_set_branch
               exported name: git_submodule_set_branch
      604    _git_submodule_set_fetch_recurse_submodules
               exported name: git_submodule_set_fetch_recurse_submodules
      605    _git_submodule_set_ignore
               exported name: git_submodule_set_ignore
      606    _git_submodule_set_update
               exported name: git_submodule_set_update
      607    _git_submodule_set_url
               exported name: git_submodule_set_url
      608    _git_submodule_status
               exported name: git_submodule_status
      609    _git_submodule_sync
               exported name: git_submodule_sync
      610    _git_submodule_update
               exported name: git_submodule_update
      611    _git_submodule_update_init_options
               exported name: git_submodule_update_init_options
      612    _git_submodule_update_strategy
               exported name: git_submodule_update_strategy
      613    _git_submodule_url
               exported name: git_submodule_url
      614    _git_submodule_wd_id
               exported name: git_submodule_wd_id
      615    _git_tag_annotation_create
               exported name: git_tag_annotation_create
      616    _git_tag_create
               exported name: git_tag_create
      617    _git_tag_create_frombuffer
               exported name: git_tag_create_frombuffer
      618    _git_tag_create_lightweight
               exported name: git_tag_create_lightweight
      619    _git_tag_delete
               exported name: git_tag_delete
      620    _git_tag_foreach
               exported name: git_tag_foreach
      621    _git_tag_free
               exported name: git_tag_free
      622    _git_tag_id
               exported name: git_tag_id
      623    _git_tag_list
               exported name: git_tag_list
      624    _git_tag_list_match
               exported name: git_tag_list_match
      625    _git_tag_lookup
               exported name: git_tag_lookup
      626    _git_tag_lookup_prefix
               exported name: git_tag_lookup_prefix
      627    _git_tag_message
               exported name: git_tag_message
      628    _git_tag_name
               exported name: git_tag_name
      629    _git_tag_owner
               exported name: git_tag_owner
      630    _git_tag_peel
               exported name: git_tag_peel
      631    _git_tag_tagger
               exported name: git_tag_tagger
      632    _git_tag_target
               exported name: git_tag_target
      633    _git_tag_target_id
               exported name: git_tag_target_id
      634    _git_tag_target_type
               exported name: git_tag_target_type
      635    _git_transaction_commit
               exported name: git_transaction_commit
      636    _git_transaction_free
               exported name: git_transaction_free
      637    _git_transaction_lock_ref
               exported name: git_transaction_lock_ref
      638    _git_transaction_new
               exported name: git_transaction_new
      639    _git_transaction_remove
               exported name: git_transaction_remove
      640    _git_transaction_set_reflog
               exported name: git_transaction_set_reflog
      641    _git_transaction_set_symbolic_target
               exported name: git_transaction_set_symbolic_target
      642    _git_transaction_set_target
               exported name: git_transaction_set_target
      643    _git_transport_init
               exported name: git_transport_init
      644    _git_transport_local
               exported name: git_transport_local
      645    _git_transport_new
               exported name: git_transport_new
      646    _git_transport_register
               exported name: git_transport_register
      647    _git_transport_smart
               exported name: git_transport_smart
      648    _git_transport_smart_certificate_check
               exported name: git_transport_smart_certificate_check
      649    _git_transport_smart_credentials
               exported name: git_transport_smart_credentials
      650    _git_transport_ssh_with_paths
               exported name: git_transport_ssh_with_paths
      651    _git_transport_unregister
               exported name: git_transport_unregister
      652    _git_tree_entry_byid
               exported name: git_tree_entry_byid
      653    _git_tree_entry_byindex
               exported name: git_tree_entry_byindex
      654    _git_tree_entry_byname
               exported name: git_tree_entry_byname
      655    _git_tree_entry_bypath
               exported name: git_tree_entry_bypath
      656    _git_tree_entry_cmp
               exported name: git_tree_entry_cmp
      657    _git_tree_entry_dup
               exported name: git_tree_entry_dup
      658    _git_tree_entry_filemode
               exported name: git_tree_entry_filemode
      659    _git_tree_entry_filemode_raw
               exported name: git_tree_entry_filemode_raw
      660    _git_tree_entry_free
               exported name: git_tree_entry_free
      661    _git_tree_entry_id
               exported name: git_tree_entry_id
      662    _git_tree_entry_name
               exported name: git_tree_entry_name
      663    _git_tree_entry_to_object
               exported name: git_tree_entry_to_object
      664    _git_tree_entry_type
               exported name: git_tree_entry_type
      665    _git_tree_entrycount
               exported name: git_tree_entrycount
      666    _git_tree_free
               exported name: git_tree_free
      667    _git_tree_id
               exported name: git_tree_id
      668    _git_tree_lookup
               exported name: git_tree_lookup
      669    _git_tree_lookup_prefix
               exported name: git_tree_lookup_prefix
      670    _git_tree_owner
               exported name: git_tree_owner
      671    _git_tree_walk
               exported name: git_tree_walk
      672    _git_treebuilder_clear
               exported name: git_treebuilder_clear
      673    _git_treebuilder_entrycount
               exported name: git_treebuilder_entrycount
      674    _git_treebuilder_filter
               exported name: git_treebuilder_filter
      675    _git_treebuilder_free
               exported name: git_treebuilder_free
      676    _git_treebuilder_get
               exported name: git_treebuilder_get
      677    _git_treebuilder_insert
               exported name: git_treebuilder_insert
      678    _git_treebuilder_new
               exported name: git_treebuilder_new
      679    _git_treebuilder_remove
               exported name: git_treebuilder_remove
      680    _git_treebuilder_write
               exported name: git_treebuilder_write
      681    _giterr_clear
               exported name: giterr_clear
      682    _giterr_last
               exported name: giterr_last
      683    _giterr_set_oom
               exported name: giterr_set_oom
      684    _giterr_set_str
               exported name: giterr_set_str
